(i__main__
SwypeTrajectory
p0
(dp1
S'_frameDataList'
p2
(lp3
(i__main__
FrameData
p4
(dp5
S'closestLetter'
p6
S'c'
p7
sS'letterDistance'
p8
cnumpy.core.multiarray
scalar
p9
(cnumpy
dtype
p10
(S'f8'
p11
I0
I1
tp12
Rp13
(I3
S'<'
p14
NNNI-1
I-1
I0
tp15
bS'9\xdcc\xb3\xbfT\x18@'
p16
tp17
Rp18
sS'accel'
p19
I0
sS'time'
p20
cdatetime
datetime
p21
(S'\x07\xdd\t\x1d\x13\x0c"\x0b\x19\x8e'
p22
tp23
Rp24
sS'velocity'
p25
I0
sS'position'
p26
cnumpy.core.multiarray
_reconstruct
p27
(cnumpy
ndarray
p28
(I0
tp29
S'b'
p30
tp31
Rp32
(I1
(I2
tp33
g10
(S'i4'
p34
I0
I1
tp35
Rp36
(I3
S'<'
p37
NNNI-1
I-1
I0
tp38
bI00
S'Y\x00\x00\x00\x96\x00\x00\x00'
p39
tp40
bsba(i__main__
FrameData
p41
(dp42
g6
g7
sg8
g9
(g13
S'\xc0\n\x1f\x00\xc6H\x1c@'
p43
tp44
Rp45
sg19
I0
sg20
g21
(S'\x07\xdd\t\x1d\x13\x0c"\x0b\\J'
p46
tp47
Rp48
sg25
I0
sg26
g27
(g28
(I0
tp49
g30
tp50
Rp51
(I1
(I2
tp52
g36
I00
S'Y\x00\x00\x00\x95\x00\x00\x00'
p53
tp54
bsba(i__main__
FrameData
p55
(dp56
g6
g7
sg8
g9
(g13
S'&5w\xe2K\x15(@'
p57
tp58
Rp59
sg19
I0
sg20
g21
(S'\x07\xdd\t\x1d\x13\x0c"\x0b\x98W'
p60
tp61
Rp62
sg25
I0
sg26
g27
(g28
(I0
tp63
g30
tp64
Rp65
(I1
(I2
tp66
g36
I00
S'Y\x00\x00\x00\x90\x00\x00\x00'
p67
tp68
bsba(i__main__
FrameData
p69
(dp70
g6
g7
sg8
g9
(g13
S'\x00\x00\x00\x00\x00\x002@'
p71
tp72
Rp73
sg19
I0
sg20
g21
(S'\x07\xdd\t\x1d\x13\x0c"\x0b\xd1\xdf'
p74
tp75
Rp76
sg25
I0
sg26
g27
(g28
(I0
tp77
g30
tp78
Rp79
(I1
(I2
tp80
g36
I00
S'Z\x00\x00\x00\x8a\x00\x00\x00'
p81
tp82
bsba(i__main__
FrameData
p83
(dp84
g6
S'f'
p85
sg8
g9
(g13
S'\x9a.\x90!hp2@'
p86
tp87
Rp88
sg19
I0
sg20
g21
(S'\x07\xdd\t\x1d\x13\x0c"\x0c[\\'
p89
tp90
Rp91
sg25
I0
sg26
g27
(g28
(I0
tp92
g30
tp93
Rp94
(I1
(I2
tp95
g36
I00
S'\\\x00\x00\x00\x84\x00\x00\x00'
p96
tp97
bsba(i__main__
FrameData
p98
(dp99
g6
g85
sg8
g9
(g13
S'\xf7\x80Aq\xb9\xa2,@'
p100
tp101
Rp102
sg19
I0
sg20
g21
(S'\x07\xdd\t\x1d\x13\x0c"\x0c\xa1t'
p103
tp104
Rp105
sg25
I0
sg26
g27
(g28
(I0
tp106
g30
tp107
Rp108
(I1
(I2
tp109
g36
I00
S']\x00\x00\x00\x80\x00\x00\x00'
p110
tp111
bsba(i__main__
FrameData
p112
(dp113
g6
g85
sg8
g9
(g13
S'\xd2\xf1}\x82U\\&@'
p114
tp115
Rp116
sg19
I0
sg20
g21
(S'\x07\xdd\t\x1d\x13\x0c"\x0c\xe2\xb1'
p117
tp118
Rp119
sg25
I0
sg26
g27
(g28
(I0
tp120
g30
tp121
Rp122
(I1
(I2
tp123
g36
I00
S'^\x00\x00\x00}\x00\x00\x00'
p124
tp125
bsba(i__main__
FrameData
p126
(dp127
g6
g85
sg8
g9
(g13
S'\xf6/\x12_ee$@'
p128
tp129
Rp130
sg19
I0
sg20
g21
(S'\x07\xdd\t\x1d\x13\x0c"\r$\xef'
p131
tp132
Rp133
sg25
I0
sg26
g27
(g28
(I0
tp134
g30
tp135
Rp136
(I1
(I2
tp137
g36
I00
S'^\x00\x00\x00|\x00\x00\x00'
p138
tp139
bsba(i__main__
FrameData
p140
(dp141
g6
g85
sg8
g9
(g13
S'\x00\x00\x00\x00\x00\x00 @'
p142
tp143
Rp144
sg19
I0
sg20
g21
(S'\x07\xdd\t\x1d\x13\x0c"\rYT'
p145
tp146
Rp147
sg25
I0
sg26
g27
(g28
(I0
tp148
g30
tp149
Rp150
(I1
(I2
tp151
g36
I00
S'`\x00\x00\x00z\x00\x00\x00'
p152
tp153
bsba(i__main__
FrameData
p154
(dp155
g6
g85
sg8
g9
(g13
S'\x00\x00\x00\x00\x00\x00\x1c@'
p156
tp157
Rp158
sg19
I0
sg20
g21
(S'\x07\xdd\t\x1d\x13\x0c"\r\xa7X'
p159
tp160
Rp161
sg25
I0
sg26
g27
(g28
(I0
tp162
g30
tp163
Rp164
(I1
(I2
tp165
g36
I00
S'`\x00\x00\x00y\x00\x00\x00'
p166
tp167
bsba(i__main__
FrameData
p168
(dp169
g6
g85
sg8
g9
(g13
S'\x00\x00\x00\x00\x00\x00\x18@'
p170
tp171
Rp172
sg19
I0
sg20
g21
(S'\x07\xdd\t\x1d\x13\x0c"\r\xda\xa6'
p173
tp174
Rp175
sg25
I0
sg26
g27
(g28
(I0
tp176
g30
tp177
Rp178
(I1
(I2
tp179
g36
I00
S'`\x00\x00\x00x\x00\x00\x00'
p180
tp181
bsba(i__main__
FrameData
p182
(dp183
g6
g85
sg8
g9
(g13
S'\x00\x00\x00\x00\x00\x00\x10@'
p184
tp185
Rp186
sg19
I0
sg20
g21
(S'\x07\xdd\t\x1d\x13\x0c"\x0e\x1d\xf9'
p187
tp188
Rp189
sg25
I0
sg26
g27
(g28
(I0
tp190
g30
tp191
Rp192
(I1
(I2
tp193
g36
I00
S'`\x00\x00\x00v\x00\x00\x00'
p194
tp195
bsba(i__main__
FrameData
p196
(dp197
g6
g85
sg8
g9
(g13
S'\xcd;\x7ff\x9e\xa0\xf6?'
p198
tp199
Rp200
sg19
I0
sg20
g21
(S'\x07\xdd\t\x1d\x13\x0c"\x0e]\xc4'
p201
tp202
Rp203
sg25
I0
sg26
g27
(g28
(I0
tp204
g30
tp205
Rp206
(I1
(I2
tp207
g36
I00
S'a\x00\x00\x00s\x00\x00\x00'
p208
tp209
bsba(i__main__
FrameData
p210
(dp211
g6
g85
sg8
g9
(g13
S'\xcd;\x7ff\x9e\xa0\xf6?'
p212
tp213
Rp214
sg19
I0
sg20
g21
(S'\x07\xdd\t\x1d\x13\x0c"\x0e\x9e\xbb'
p215
tp216
Rp217
sg25
I0
sg26
g27
(g28
(I0
tp218
g30
tp219
Rp220
(I1
(I2
tp221
g36
I00
S'a\x00\x00\x00q\x00\x00\x00'
p222
tp223
bsba(i__main__
FrameData
p224
(dp225
g6
g85
sg8
g9
(g13
S'\xa8\xf4\x97\x9bw\xe3\x01@'
p226
tp227
Rp228
sg19
I0
sg20
g21
(S'\x07\xdd\t\x1d\x13\x0c"\x0e\xe0\r'
p229
tp230
Rp231
sg25
I0
sg26
g27
(g28
(I0
tp232
g30
tp233
Rp234
(I1
(I2
tp235
g36
I00
S'a\x00\x00\x00p\x00\x00\x00'
p236
tp237
bsba(i__main__
FrameData
p238
(dp239
g6
g85
sg8
g9
(g13
S'S[\xda:XL\t@'
p240
tp241
Rp242
sg19
I0
sg20
g21
(S'\x07\xdd\t\x1d\x13\x0c"\x0f!3'
p243
tp244
Rp245
sg25
I0
sg26
g27
(g28
(I0
tp246
g30
tp247
Rp248
(I1
(I2
tp249
g36
I00
S'a\x00\x00\x00o\x00\x00\x00'
p250
tp251
bsba(i__main__
FrameData
p252
(dp253
g6
g85
sg8
g9
(g13
S'\x07\xed\xaff\x0f~\x10@'
p254
tp255
Rp256
sg19
I0
sg20
g21
(S'\x07\xdd\t\x1d\x13\x0c#\x00 o'
p257
tp258
Rp259
sg25
I0
sg26
g27
(g28
(I0
tp260
g30
tp261
Rp262
(I1
(I2
tp263
g36
I00
S'a\x00\x00\x00n\x00\x00\x00'
p264
tp265
bsba(i__main__
FrameData
p266
(dp267
g6
g85
sg8
g9
(g13
S'9\xdcc\xb3\xbfT\x18@'
p268
tp269
Rp270
sg19
I0
sg20
g21
(S'\x07\xdd\t\x1d\x13\x0c#\x00a\xd7'
p271
tp272
Rp273
sg25
I0
sg26
g27
(g28
(I0
tp274
g30
tp275
Rp276
(I1
(I2
tp277
g36
I00
S'a\x00\x00\x00l\x00\x00\x00'
p278
tp279
bsba(i__main__
FrameData
p280
(dp281
g6
g85
sg8
g9
(g13
S'\xc0\n\x1f\x00\xc6H\x1c@'
p282
tp283
Rp284
sg19
I0
sg20
g21
(S'\x07\xdd\t\x1d\x13\x0c#\x00\xa8\xad'
p285
tp286
Rp287
sg25
I0
sg26
g27
(g28
(I0
tp288
g30
tp289
Rp290
(I1
(I2
tp291
g36
I00
S'a\x00\x00\x00k\x00\x00\x00'
p292
tp293
bsba(i__main__
FrameData
p294
(dp295
g6
g85
sg8
g9
(g13
S'$\xf8\xd9p[\x1c"@'
p296
tp297
Rp298
sg19
I0
sg20
g21
(S'\x07\xdd\t\x1d\x13\x0c#\x00\xe4j'
p299
tp300
Rp301
sg25
I0
sg26
g27
(g28
(I0
tp302
g30
tp303
Rp304
(I1
(I2
tp305
g36
I00
S'a\x00\x00\x00i\x00\x00\x00'
p306
tp307
bsba(i__main__
FrameData
p308
(dp309
g6
g85
sg8
g9
(g13
S'\xf0)#L\x89\x19$@'
p310
tp311
Rp312
sg19
I0
sg20
g21
(S'\x07\xdd\t\x1d\x13\x0c#\x01%B'
p313
tp314
Rp315
sg25
I0
sg26
g27
(g28
(I0
tp316
g30
tp317
Rp318
(I1
(I2
tp319
g36
I00
S'a\x00\x00\x00h\x00\x00\x00'
p320
tp321
bsba(i__main__
FrameData
p322
(dp323
g6
g85
sg8
g9
(g13
S'H\xaa*\x8f9\x17&@'
p324
tp325
Rp326
sg19
I0
sg20
g21
(S'\x07\xdd\t\x1d\x13\x0c#\x01up'
p327
tp328
Rp329
sg25
I0
sg26
g27
(g28
(I0
tp330
g30
tp331
Rp332
(I1
(I2
tp333
g36
I00
S'a\x00\x00\x00g\x00\x00\x00'
p334
tp335
bsba(i__main__
FrameData
p336
(dp337
g6
g85
sg8
g9
(g13
S'Qf\x99\xcb\xa9\x13*@'
p338
tp339
Rp340
sg19
I0
sg20
g21
(S'\x07\xdd\t\x1d\x13\x0c#\x01\xea\xd5'
p341
tp342
Rp343
sg25
I0
sg26
g27
(g28
(I0
tp344
g30
tp345
Rp346
(I1
(I2
tp347
g36
I00
S'a\x00\x00\x00e\x00\x00\x00'
p348
tp349
bsba(i__main__
FrameData
p350
(dp351
g6
g85
sg8
g9
(g13
S')\x03\xec/C\x12,@'
p352
tp353
Rp354
sg19
I0
sg20
g21
(S'\x07\xdd\t\x1d\x13\x0c#\x0292'
p355
tp356
Rp357
sg25
I0
sg26
g27
(g28
(I0
tp358
g30
tp359
Rp360
(I1
(I2
tp361
g36
I00
S'a\x00\x00\x00d\x00\x00\x00'
p362
tp363
bsba(i__main__
FrameData
p364
(dp365
g6
g85
sg8
g9
(g13
S'\xaf_\x109\x0c\x11.@'
p366
tp367
Rp368
sg19
I0
sg20
g21
(S'\x07\xdd\t\x1d\x13\x0c#\x02l\\'
p369
tp370
Rp371
sg25
I0
sg26
g27
(g28
(I0
tp372
g30
tp373
Rp374
(I1
(I2
tp375
g36
I00
S'a\x00\x00\x00c\x00\x00\x00'
p376
tp377
bsba(i__main__
FrameData
p378
(dp379
g6
g85
sg8
g9
(g13
S'\x00\x00\x00\x00\x00\x000@'
p380
tp381
Rp382
sg19
I0
sg20
g21
(S'\x07\xdd\t\x1d\x13\x0c#\x02\xad\xa1'
p383
tp384
Rp385
sg25
I0
sg26
g27
(g28
(I0
tp386
g30
tp387
Rp388
(I1
(I2
tp389
g36
I00
S'`\x00\x00\x00b\x00\x00\x00'
p390
tp391
bsba(i__main__
FrameData
p392
(dp393
g6
g85
sg8
g9
(g13
S'\x00\x00\x00\x00\x00\x001@'
p394
tp395
Rp396
sg19
I0
sg20
g21
(S'\x07\xdd\t\x1d\x13\x0c#\x02\xee\xee'
p397
tp398
Rp399
sg25
I0
sg26
g27
(g28
(I0
tp400
g30
tp401
Rp402
(I1
(I2
tp403
g36
I00
S'`\x00\x00\x00a\x00\x00\x00'
p404
tp405
bsba(i__main__
FrameData
p406
(dp407
g6
g85
sg8
g9
(g13
S'8\xd8\xbc\n\x1b\x072@'
p408
tp409
Rp410
sg19
I0
sg20
g21
(S'\x07\xdd\t\x1d\x13\x0c#\x030t'
p411
tp412
Rp413
sg25
I0
sg26
g27
(g28
(I0
tp414
g30
tp415
Rp416
(I1
(I2
tp417
g36
I00
S'_\x00\x00\x00`\x00\x00\x00'
p418
tp419
bsba(i__main__
FrameData
p420
(dp421
g6
g85
sg8
g9
(g13
S'\xc3\xe7Zp\xbb\x063@'
p422
tp423
Rp424
sg19
I0
sg20
g21
(S'\x07\xdd\t\x1d\x13\x0c#\x03r\xa9'
p425
tp426
Rp427
sg25
I0
sg26
g27
(g28
(I0
tp428
g30
tp429
Rp430
(I1
(I2
tp431
g36
I00
S'_\x00\x00\x00_\x00\x00\x00'
p432
tp433
bsba(i__main__
FrameData
p434
(dp435
g6
g85
sg8
g9
(g13
S'\xc9\xe0>!B<3@'
p436
tp437
Rp438
sg19
I0
sg20
g21
(S'\x07\xdd\t\x1d\x13\x0c#\x03\xb2\xf7'
p439
tp440
Rp441
sg25
I0
sg26
g27
(g28
(I0
tp442
g30
tp443
Rp444
(I1
(I2
tp445
g36
I00
S']\x00\x00\x00_\x00\x00\x00'
p446
tp447
bsba(i__main__
FrameData
p448
(dp449
g6
S'r'
p450
sg8
g9
(g13
S'u\xa6<oS\x185@'
p451
tp452
Rp453
sg19
I0
sg20
g21
(S'\x07\xdd\t\x1d\x13\x0c#\x03\xf3\xe1'
p454
tp455
Rp456
sg25
I0
sg26
g27
(g28
(I0
tp457
g30
tp458
Rp459
(I1
(I2
tp460
g36
I00
S']\x00\x00\x00]\x00\x00\x00'
p461
tp462
bsba(i__main__
FrameData
p463
(dp464
g6
g450
sg8
g9
(g13
S'\xcey?\xdc\x9a?4@'
p465
tp466
Rp467
sg19
I0
sg20
g21
(S'\x07\xdd\t\x1d\x13\x0c#\x045\xa1'
p468
tp469
Rp470
sg25
I0
sg26
g27
(g28
(I0
tp471
g30
tp472
Rp473
(I1
(I2
tp474
g36
I00
S']\x00\x00\x00\\\x00\x00\x00'
p475
tp476
bsba(i__main__
FrameData
p477
(dp478
g6
g450
sg8
g9
(g13
S':\xf0c\xf6\x1b\xb93@'
p479
tp480
Rp481
sg19
I0
sg20
g21
(S'\x07\xdd\t\x1d\x13\x0c#\x04\xf9\x83'
p482
tp483
Rp484
sg25
I0
sg26
g27
(g28
(I0
tp485
g30
tp486
Rp487
(I1
(I2
tp488
g36
I00
S'\\\x00\x00\x00\\\x00\x00\x00'
p489
tp490
bsba(i__main__
FrameData
p491
(dp492
g6
g450
sg8
g9
(g13
S'\xb9\xbaF\xca+~1@'
p493
tp494
Rp495
sg19
I0
sg20
g21
(S'\x07\xdd\t\x1d\x13\x0c#\x05z\x83'
p496
tp497
Rp498
sg25
I0
sg26
g27
(g28
(I0
tp499
g30
tp500
Rp501
(I1
(I2
tp502
g36
I00
S'[\x00\x00\x00Z\x00\x00\x00'
p503
tp504
bsba(i__main__
FrameData
p505
(dp506
g6
g450
sg8
g9
(g13
S'\xb9\x93\xe1k\xb0\xa40@'
p507
tp508
Rp509
sg19
I0
sg20
g21
(S'\x07\xdd\t\x1d\x13\x0c#\x05\xbe\xe1'
p510
tp511
Rp512
sg25
I0
sg26
g27
(g28
(I0
tp513
g30
tp514
Rp515
(I1
(I2
tp516
g36
I00
S'[\x00\x00\x00Y\x00\x00\x00'
p517
tp518
bsba(i__main__
FrameData
p519
(dp520
g6
g450
sg8
g9
(g13
S'\xd0\xbaa?\xe0\x1f0@'
p521
tp522
Rp523
sg19
I0
sg20
g21
(S'\x07\xdd\t\x1d\x13\x0c#\x05\xfe\xe7'
p524
tp525
Rp526
sg25
I0
sg26
g27
(g28
(I0
tp527
g30
tp528
Rp529
(I1
(I2
tp530
g36
I00
S'Z\x00\x00\x00Y\x00\x00\x00'
p531
tp532
bsba(i__main__
FrameData
p533
(dp534
g6
g450
sg8
g9
(g13
S'\xf3YaD+\xd8,@'
p535
tp536
Rp537
sg19
I0
sg20
g21
(S'\x07\xdd\t\x1d\x13\x0c#\x06@\x1d'
p538
tp539
Rp540
sg25
I0
sg26
g27
(g28
(I0
tp541
g30
tp542
Rp543
(I1
(I2
tp544
g36
I00
S'Z\x00\x00\x00W\x00\x00\x00'
p545
tp546
bsba(i__main__
FrameData
p547
(dp548
g6
g450
sg8
g9
(g13
S'\xef\rI\xf1\xf33+@'
p549
tp550
Rp551
sg19
I0
sg20
g21
(S'\x07\xdd\t\x1d\x13\x0c#\x06\x81\x88'
p552
tp553
Rp554
sg25
I0
sg26
g27
(g28
(I0
tp555
g30
tp556
Rp557
(I1
(I2
tp558
g36
I00
S'Z\x00\x00\x00V\x00\x00\x00'
p559
tp560
bsba(i__main__
FrameData
p561
(dp562
g6
g450
sg8
g9
(g13
S'F\xc3\\\xa8\xc1i(@'
p563
tp564
Rp565
sg19
I0
sg20
g21
(S'\x07\xdd\t\x1d\x13\x0c#\x06\xc2\xa4'
p566
tp567
Rp568
sg25
I0
sg26
g27
(g28
(I0
tp569
g30
tp570
Rp571
(I1
(I2
tp572
g36
I00
S'Y\x00\x00\x00U\x00\x00\x00'
p573
tp574
bsba(i__main__
FrameData
p575
(dp576
g6
g450
sg8
g9
(g13
S'w\x03Is \xa2%@'
p577
tp578
Rp579
sg19
I0
sg20
g21
(S'\x07\xdd\t\x1d\x13\x0c#\x07\x05{'
p580
tp581
Rp582
sg25
I0
sg26
g27
(g28
(I0
tp583
g30
tp584
Rp585
(I1
(I2
tp586
g36
I00
S'X\x00\x00\x00T\x00\x00\x00'
p587
tp588
bsba(i__main__
FrameData
p589
(dp590
g6
g450
sg8
g9
(g13
S'\x9a.\x90!hp"@'
p591
tp592
Rp593
sg19
I0
sg20
g21
(S'\x07\xdd\t\x1d\x13\x0c#\x07El'
p594
tp595
Rp596
sg25
I0
sg26
g27
(g28
(I0
tp597
g30
tp598
Rp599
(I1
(I2
tp600
g36
I00
S'X\x00\x00\x00R\x00\x00\x00'
p601
tp602
bsba(i__main__
FrameData
p603
(dp604
g6
g450
sg8
g9
(g13
S'htN\x17\xb2=\x1f@'
p605
tp606
Rp607
sg19
I0
sg20
g21
(S'\x07\xdd\t\x1d\x13\x0c#\x07\x86|'
p608
tp609
Rp610
sg25
I0
sg26
g27
(g28
(I0
tp611
g30
tp612
Rp613
(I1
(I2
tp614
g36
I00
S'W\x00\x00\x00Q\x00\x00\x00'
p615
tp616
bsba(i__main__
FrameData
p617
(dp618
g6
g450
sg8
g9
(g13
S'\xcd;\x7ff\x9e\xa0\x16@'
p619
tp620
Rp621
sg19
I0
sg20
g21
(S'\x07\xdd\t\x1d\x13\x0c#\x08\nL'
p622
tp623
Rp624
sg25
I0
sg26
g27
(g28
(I0
tp625
g30
tp626
Rp627
(I1
(I2
tp628
g36
I00
S'V\x00\x00\x00O\x00\x00\x00'
p629
tp630
bsba(i__main__
FrameData
p631
(dp632
g6
g450
sg8
g9
(g13
S'\xd9l\xdf\xccv\xf8\x10@'
p633
tp634
Rp635
sg19
I0
sg20
g21
(S'\x07\xdd\t\x1d\x13\x0c#\x08I\xcb'
p636
tp637
Rp638
sg25
I0
sg26
g27
(g28
(I0
tp639
g30
tp640
Rp641
(I1
(I2
tp642
g36
I00
S'U\x00\x00\x00N\x00\x00\x00'
p643
tp644
bsba(i__main__
FrameData
p645
(dp646
g6
g450
sg8
g9
(g13
S'\xf3YaD+\xd8\x0c@'
p647
tp648
Rp649
sg19
I0
sg20
g21
(S'\x07\xdd\t\x1d\x13\x0c#\x08\xcc\xb8'
p650
tp651
Rp652
sg25
I0
sg26
g27
(g28
(I0
tp653
g30
tp654
Rp655
(I1
(I2
tp656
g36
I00
S'T\x00\x00\x00N\x00\x00\x00'
p657
tp658
bsba(i__main__
FrameData
p659
(dp660
g6
g450
sg8
g9
(g13
S'\xa8\xf4\x97\x9bw\xe3\x01@'
p661
tp662
Rp663
sg19
I0
sg20
g21
(S'\x07\xdd\t\x1d\x13\x0c#\t\xd2\x1d'
p664
tp665
Rp666
sg25
I0
sg26
g27
(g28
(I0
tp667
g30
tp668
Rp669
(I1
(I2
tp670
g36
I00
S'T\x00\x00\x00L\x00\x00\x00'
p671
tp672
bsba(i__main__
FrameData
p673
(dp674
g6
g450
sg8
g9
(g13
S'\x00\x00\x00\x00\x00\x00\xf0?'
p675
tp676
Rp677
sg19
I0
sg20
g21
(S'\x07\xdd\t\x1d\x13\x0c#\n\x13-'
p678
tp679
Rp680
sg25
I0
sg26
g27
(g28
(I0
tp681
g30
tp682
Rp683
(I1
(I2
tp684
g36
I00
S'S\x00\x00\x00K\x00\x00\x00'
p685
tp686
bsba(i__main__
FrameData
p687
(dp688
g6
g450
sg8
g9
(g13
S'\xcd;\x7ff\x9e\xa0\xf6?'
p689
tp690
Rp691
sg19
I0
sg20
g21
(S'\x07\xdd\t\x1d\x13\x0c#\n\x95X'
p692
tp693
Rp694
sg25
I0
sg26
g27
(g28
(I0
tp695
g30
tp696
Rp697
(I1
(I2
tp698
g36
I00
S'S\x00\x00\x00J\x00\x00\x00'
p699
tp700
bsba(i__main__
FrameData
p701
(dp702
g6
g450
sg8
g9
(g13
S'\x00\x00\x00\x00\x00\x00\xf0?'
p703
tp704
Rp705
sg19
I0
sg20
g21
(S'\x07\xdd\t\x1d\x13\x0c#\n\xd8\x04'
p706
tp707
Rp708
sg25
I0
sg26
g27
(g28
(I0
tp709
g30
tp710
Rp711
(I1
(I2
tp712
g36
I00
S'R\x00\x00\x00J\x00\x00\x00'
p713
tp714
bsba(i__main__
FrameData
p715
(dp716
g6
g450
sg8
g9
(g13
S'\x00\x00\x00\x00\x00\x00\x00@'
p717
tp718
Rp719
sg19
I0
sg20
g21
(S'\x07\xdd\t\x1d\x13\x0c#\x0bZY'
p720
tp721
Rp722
sg25
I0
sg26
g27
(g28
(I0
tp723
g30
tp724
Rp725
(I1
(I2
tp726
g36
I00
S'R\x00\x00\x00I\x00\x00\x00'
p727
tp728
bsba(i__main__
FrameData
p729
(dp730
g6
g450
sg8
g9
(g13
S'\x00\x00\x00\x00\x00\x00\x08@'
p731
tp732
Rp733
sg19
I0
sg20
g21
(S'\x07\xdd\t\x1d\x13\x0c#\x0b\xded'
p734
tp735
Rp736
sg25
I0
sg26
g27
(g28
(I0
tp737
g30
tp738
Rp739
(I1
(I2
tp740
g36
I00
S'R\x00\x00\x00H\x00\x00\x00'
p741
tp742
bsba(i__main__
FrameData
p743
(dp744
g6
g450
sg8
g9
(g13
S'\x07\xed\xaff\x0f~\x10@'
p745
tp746
Rp747
sg19
I0
sg20
g21
(S'\x07\xdd\t\x1d\x13\x0c#\x0c\x1e\xc3'
p748
tp749
Rp750
sg25
I0
sg26
g27
(g28
(I0
tp751
g30
tp752
Rp753
(I1
(I2
tp754
g36
I00
S'Q\x00\x00\x00G\x00\x00\x00'
p755
tp756
bsba(i__main__
FrameData
p757
(dp758
g6
g450
sg8
g9
(g13
S'S[\xda:XL\t@'
p759
tp760
Rp761
sg19
I0
sg20
g21
(S'\x07\xdd\t\x1d\x13\x0c#\x0e)1'
p762
tp763
Rp764
sg25
I0
sg26
g27
(g28
(I0
tp765
g30
tp766
Rp767
(I1
(I2
tp768
g36
I00
S'Q\x00\x00\x00H\x00\x00\x00'
p769
tp770
bsba(i__main__
FrameData
p771
(dp772
g6
g450
sg8
g9
(g13
S'\xa8\xf4\x97\x9bw\xe3\x01@'
p773
tp774
Rp775
sg19
I0
sg20
g21
(S'\x07\xdd\t\x1d\x13\x0c#\x0e\xab\xba'
p776
tp777
Rp778
sg25
I0
sg26
g27
(g28
(I0
tp779
g30
tp780
Rp781
(I1
(I2
tp782
g36
I00
S'Q\x00\x00\x00I\x00\x00\x00'
p783
tp784
bsba(i__main__
FrameData
p785
(dp786
g6
g450
sg8
g9
(g13
S'\xcd;\x7ff\x9e\xa0\xf6?'
p787
tp788
Rp789
sg19
I0
sg20
g21
(S'\x07\xdd\t\x1d\x13\x0c#\x0e\xec%'
p790
tp791
Rp792
sg25
I0
sg26
g27
(g28
(I0
tp793
g30
tp794
Rp795
(I1
(I2
tp796
g36
I00
S'Q\x00\x00\x00J\x00\x00\x00'
p797
tp798
bsba(i__main__
FrameData
p799
(dp800
g6
g450
sg8
g9
(g13
S'\x00\x00\x00\x00\x00\x00\xf0?'
p801
tp802
Rp803
sg19
I0
sg20
g21
(S'\x07\xdd\t\x1d\x13\x0c#\x0f.^'
p804
tp805
Rp806
sg25
I0
sg26
g27
(g28
(I0
tp807
g30
tp808
Rp809
(I1
(I2
tp810
g36
I00
S'Q\x00\x00\x00K\x00\x00\x00'
p811
tp812
bsba(i__main__
FrameData
p813
(dp814
g6
g450
sg8
g9
(g13
S'\xa8\xf4\x97\x9bw\xe3\x01@'
p815
tp816
Rp817
sg19
I0
sg20
g21
(S'\x07\xdd\t\x1d\x13\x0c$\x00-w'
p818
tp819
Rp820
sg25
I0
sg26
g27
(g28
(I0
tp821
g30
tp822
Rp823
(I1
(I2
tp824
g36
I00
S'Q\x00\x00\x00M\x00\x00\x00'
p825
tp826
bsba(i__main__
FrameData
p827
(dp828
g6
g450
sg8
g9
(g13
S'\xf3YaD+\xd8\x0c@'
p829
tp830
Rp831
sg19
I0
sg20
g21
(S'\x07\xdd\t\x1d\x13\x0c$\x00mV'
p832
tp833
Rp834
sg25
I0
sg26
g27
(g28
(I0
tp835
g30
tp836
Rp837
(I1
(I2
tp838
g36
I00
S'P\x00\x00\x00N\x00\x00\x00'
p839
tp840
bsba(i__main__
FrameData
p841
(dp842
g6
g450
sg8
g9
(g13
S'\xa8\xf4\x97\x9bw\xe3\x11@'
p843
tp844
Rp845
sg19
I0
sg20
g21
(S'\x07\xdd\t\x1d\x13\x0c$\x00\xabT'
p846
tp847
Rp848
sg25
I0
sg26
g27
(g28
(I0
tp849
g30
tp850
Rp851
(I1
(I2
tp852
g36
I00
S'P\x00\x00\x00O\x00\x00\x00'
p853
tp854
bsba(i__main__
FrameData
p855
(dp856
g6
g450
sg8
g9
(g13
S'\xa2\xa3\xb3\r\xe5R\x17@'
p857
tp858
Rp859
sg19
I0
sg20
g21
(S'\x07\xdd\t\x1d\x13\x0c$\x00\xf1g'
p860
tp861
Rp862
sg25
I0
sg26
g27
(g28
(I0
tp863
g30
tp864
Rp865
(I1
(I2
tp866
g36
I00
S'O\x00\x00\x00P\x00\x00\x00'
p867
tp868
bsba(i__main__
FrameData
p869
(dp870
g6
g450
sg8
g9
(g13
S'\xf3YaD+\xd8\x1c@'
p871
tp872
Rp873
sg19
I0
sg20
g21
(S'\x07\xdd\t\x1d\x13\x0c$\x010{'
p874
tp875
Rp876
sg25
I0
sg26
g27
(g28
(I0
tp877
g30
tp878
Rp879
(I1
(I2
tp880
g36
I00
S'N\x00\x00\x00Q\x00\x00\x00'
p881
tp882
bsba(i__main__
FrameData
p883
(dp884
g6
g450
sg8
g9
(g13
S'\xd0\xbaa?\xe0\x1f @'
p885
tp886
Rp887
sg19
I0
sg20
g21
(S'\x07\xdd\t\x1d\x13\x0c$\x01\xb5_'
p888
tp889
Rp890
sg25
I0
sg26
g27
(g28
(I0
tp891
g30
tp892
Rp893
(I1
(I2
tp894
g36
I00
S'N\x00\x00\x00R\x00\x00\x00'
p895
tp896
bsba(i__main__
FrameData
p897
(dp898
g6
g450
sg8
g9
(g13
S'A\x87b\xc62\xde"@'
p899
tp900
Rp901
sg19
I0
sg20
g21
(S'\x07\xdd\t\x1d\x13\x0c$\x01\xf4\xc3'
p902
tp903
Rp904
sg25
I0
sg26
g27
(g28
(I0
tp905
g30
tp906
Rp907
(I1
(I2
tp908
g36
I00
S'M\x00\x00\x00S\x00\x00\x00'
p909
tp910
bsba(i__main__
FrameData
p911
(dp912
g6
g450
sg8
g9
(g13
S'w\x03Is \xa2%@'
p913
tp914
Rp915
sg19
I0
sg20
g21
(S'\x07\xdd\t\x1d\x13\x0c$\x027\xff'
p916
tp917
Rp918
sg25
I0
sg26
g27
(g28
(I0
tp919
g30
tp920
Rp921
(I1
(I2
tp922
g36
I00
S'L\x00\x00\x00T\x00\x00\x00'
p923
tp924
bsba(i__main__
FrameData
p925
(dp926
g6
g450
sg8
g9
(g13
S'F\xc3\\\xa8\xc1i(@'
p927
tp928
Rp929
sg19
I0
sg20
g21
(S'\x07\xdd\t\x1d\x13\x0c$\x02yI'
p930
tp931
Rp932
sg25
I0
sg26
g27
(g28
(I0
tp933
g30
tp934
Rp935
(I1
(I2
tp936
g36
I00
S'K\x00\x00\x00U\x00\x00\x00'
p937
tp938
bsba(i__main__
FrameData
p939
(dp940
g6
g450
sg8
g9
(g13
S'\x00\x00\x00\x00\x00\x00.@'
p941
tp942
Rp943
sg19
I0
sg20
g21
(S'\x07\xdd\t\x1d\x13\x0c$\x02\xb7\x07'
p944
tp945
Rp946
sg25
I0
sg26
g27
(g28
(I0
tp947
g30
tp948
Rp949
(I1
(I2
tp950
g36
I00
S'I\x00\x00\x00W\x00\x00\x00'
p951
tp952
bsba(i__main__
FrameData
p953
(dp954
g6
S'e'
p955
sg8
g9
(g13
S'l\xd0\xe82\x1a\xb11@'
p956
tp957
Rp958
sg19
I0
sg20
g21
(S'\x07\xdd\t\x1d\x13\x0c$\x02\xf7\x1f'
p959
tp960
Rp961
sg25
I0
sg26
g27
(g28
(I0
tp962
g30
tp963
Rp964
(I1
(I2
tp965
g36
I00
S'G\x00\x00\x00Y\x00\x00\x00'
p966
tp967
bsba(i__main__
FrameData
p968
(dp969
g6
g955
sg8
g9
(g13
S'\xd5?\x80N\xf3\xcd1@'
p970
tp971
Rp972
sg19
I0
sg20
g21
(S'\x07\xdd\t\x1d\x13\x0c$\x03=)'
p973
tp974
Rp975
sg25
I0
sg26
g27
(g28
(I0
tp976
g30
tp977
Rp978
(I1
(I2
tp979
g36
I00
S'F\x00\x00\x00Z\x00\x00\x00'
p980
tp981
bsba(i__main__
FrameData
p982
(dp983
g6
g955
sg8
g9
(g13
S'8\xd8\xbc\n\x1b\x072@'
p984
tp985
Rp986
sg19
I0
sg20
g21
(S'\x07\xdd\t\x1d\x13\x0c$\x03z\xbf'
p987
tp988
Rp989
sg25
I0
sg26
g27
(g28
(I0
tp990
g30
tp991
Rp992
(I1
(I2
tp993
g36
I00
S'E\x00\x00\x00[\x00\x00\x00'
p994
tp995
bsba(i__main__
FrameData
p996
(dp997
g6
g955
sg8
g9
(g13
S'5 \x89\xa6\xcd\xc92@'
p998
tp999
Rp1000
sg19
I0
sg20
g21
(S'\x07\xdd\t\x1d\x13\x0c$\x03\xbf\xe6'
p1001
tp1002
Rp1003
sg25
I0
sg26
g27
(g28
(I0
tp1004
g30
tp1005
Rp1006
(I1
(I2
tp1007
g36
I00
S'C\x00\x00\x00]\x00\x00\x00'
p1008
tp1009
bsba(i__main__
FrameData
p1010
(dp1011
g6
g955
sg8
g9
(g13
S'VT\xdbd.P3@'
p1012
tp1013
Rp1014
sg19
I0
sg20
g21
(S'\x07\xdd\t\x1d\x13\x0c$\x03\xfbw'
p1015
tp1016
Rp1017
sg25
I0
sg26
g27
(g28
(I0
tp1018
g30
tp1019
Rp1020
(I1
(I2
tp1021
g36
I00
S'B\x00\x00\x00^\x00\x00\x00'
p1022
tp1023
bsba(i__main__
FrameData
p1024
(dp1025
g6
g955
sg8
g9
(g13
S'W\xb2\xdb\x1a\x9a\xa53@'
p1026
tp1027
Rp1028
sg19
I0
sg20
g21
(S'\x07\xdd\t\x1d\x13\x0c$\x04>$'
p1029
tp1030
Rp1031
sg25
I0
sg26
g27
(g28
(I0
tp1032
g30
tp1033
Rp1034
(I1
(I2
tp1035
g36
I00
S'@\x00\x00\x00_\x00\x00\x00'
p1036
tp1037
bsba(i__main__
FrameData
p1038
(dp1039
g6
S'd'
p1040
sg8
g9
(g13
S'/vo\xf2\x9ej3@'
p1041
tp1042
Rp1043
sg19
I0
sg20
g21
(S'\x07\xdd\t\x1d\x13\x0c$\x04\x83\xd1'
p1044
tp1045
Rp1046
sg25
I0
sg26
g27
(g28
(I0
tp1047
g30
tp1048
Rp1049
(I1
(I2
tp1050
g36
I00
S'>\x00\x00\x00a\x00\x00\x00'
p1051
tp1052
bsba(i__main__
FrameData
p1053
(dp1054
g6
S's'
p1055
sg8
g9
(g13
S'u\x85\x18\x11\xe0\x992@'
p1056
tp1057
Rp1058
sg19
I0
sg20
g21
(S'\x07\xdd\t\x1d\x13\x0c$\x04\xbf\x1c'
p1059
tp1060
Rp1061
sg25
I0
sg26
g27
(g28
(I0
tp1062
g30
tp1063
Rp1064
(I1
(I2
tp1065
g36
I00
S'<\x00\x00\x00b\x00\x00\x00'
p1066
tp1067
bsba(i__main__
FrameData
p1068
(dp1069
g6
g1055
sg8
g9
(g13
S"'\xf2\x90In\x9f/@"
p1070
tp1071
Rp1072
sg19
I0
sg20
g21
(S'\x07\xdd\t\x1d\x13\x0c$\x05\x01\xba'
p1073
tp1074
Rp1075
sg25
I0
sg26
g27
(g28
(I0
tp1076
g30
tp1077
Rp1078
(I1
(I2
tp1079
g36
I00
S':\x00\x00\x00d\x00\x00\x00'
p1080
tp1081
bsba(i__main__
FrameData
p1082
(dp1083
g6
g1055
sg8
g9
(g13
S'\xb2\xdb]\xe3\x96\x87-@'
p1084
tp1085
Rp1086
sg19
I0
sg20
g21
(S'\x07\xdd\t\x1d\x13\x0c$\x05G\xce'
p1087
tp1088
Rp1089
sg25
I0
sg26
g27
(g28
(I0
tp1090
g30
tp1091
Rp1092
(I1
(I2
tp1093
g36
I00
S'8\x00\x00\x00d\x00\x00\x00'
p1094
tp1095
bsba(i__main__
FrameData
p1096
(dp1097
g6
g1055
sg8
g9
(g13
S'\xfc\xeeci3\xd5*@'
p1098
tp1099
Rp1100
sg19
I0
sg20
g21
(S'\x07\xdd\t\x1d\x13\x0c$\x05\x82\xe7'
p1101
tp1102
Rp1103
sg25
I0
sg26
g27
(g28
(I0
tp1104
g30
tp1105
Rp1106
(I1
(I2
tp1107
g36
I00
S'7\x00\x00\x00e\x00\x00\x00'
p1108
tp1109
bsba(i__main__
FrameData
p1110
(dp1111
g6
g1055
sg8
g9
(g13
S'lNy\x00\x85*(@'
p1112
tp1113
Rp1114
sg19
I0
sg20
g21
(S'\x07\xdd\t\x1d\x13\x0c$\x05\xcaO'
p1115
tp1116
Rp1117
sg25
I0
sg26
g27
(g28
(I0
tp1118
g30
tp1119
Rp1120
(I1
(I2
tp1121
g36
I00
S'6\x00\x00\x00f\x00\x00\x00'
p1122
tp1123
bsba(i__main__
FrameData
p1124
(dp1125
g6
g1055
sg8
g9
(g13
S'7\xf9\xcf\xdao\xe1$@'
p1126
tp1127
Rp1128
sg19
I0
sg20
g21
(S'\x07\xdd\t\x1d\x13\x0c$\x06\x0c\xdb'
p1129
tp1130
Rp1131
sg25
I0
sg26
g27
(g28
(I0
tp1132
g30
tp1133
Rp1134
(I1
(I2
tp1135
g36
I00
S'4\x00\x00\x00g\x00\x00\x00'
p1136
tp1137
bsba(i__main__
FrameData
p1138
(dp1139
g6
g1055
sg8
g9
(g13
S'\xf6/\x12_ee$@'
p1140
tp1141
Rp1142
sg19
I0
sg20
g21
(S'\x07\xdd\t\x1d\x13\x0c$\x06M\x10'
p1143
tp1144
Rp1145
sg25
I0
sg26
g27
(g28
(I0
tp1146
g30
tp1147
Rp1148
(I1
(I2
tp1149
g36
I00
S'3\x00\x00\x00g\x00\x00\x00'
p1150
tp1151
bsba(i__main__
FrameData
p1152
(dp1153
g6
g1055
sg8
g9
(g13
S'\x00\x00\x00\x00\x00\x00"@'
p1154
tp1155
Rp1156
sg19
I0
sg20
g21
(S"\x07\xdd\t\x1d\x13\x0c$\x06\x8d'"
p1157
tp1158
Rp1159
sg25
I0
sg26
g27
(g28
(I0
tp1160
g30
tp1161
Rp1162
(I1
(I2
tp1163
g36
I00
S'1\x00\x00\x00h\x00\x00\x00'
p1164
tp1165
bsba(i__main__
FrameData
p1166
(dp1167
g6
g1055
sg8
g9
(g13
S'\xd0\xbaa?\xe0\x1f @'
p1168
tp1169
Rp1170
sg19
I0
sg20
g21
(S'\x07\xdd\t\x1d\x13\x0c$\x06\xcf\xb3'
p1171
tp1172
Rp1173
sg25
I0
sg26
g27
(g28
(I0
tp1174
g30
tp1175
Rp1176
(I1
(I2
tp1177
g36
I00
S'0\x00\x00\x00i\x00\x00\x00'
p1178
tp1179
bsba(i__main__
FrameData
p1180
(dp1181
g6
g1055
sg8
g9
(g13
S'p\xc4\x9d9\x8dv\x1e@'
p1182
tp1183
Rp1184
sg19
I0
sg20
g21
(S'\x07\xdd\t\x1d\x13\x0c$\x07\x10\x82'
p1185
tp1186
Rp1187
sg25
I0
sg26
g27
(g28
(I0
tp1188
g30
tp1189
Rp1190
(I1
(I2
tp1191
g36
I00
S'.\x00\x00\x00j\x00\x00\x00'
p1192
tp1193
bsba(i__main__
FrameData
p1194
(dp1195
g6
g1055
sg8
g9
(g13
S'htN\x17\xb2=\x1f@'
p1196
tp1197
Rp1198
sg19
I0
sg20
g21
(S'\x07\xdd\t\x1d\x13\x0c$\x07P\x0e'
p1199
tp1200
Rp1201
sg25
I0
sg26
g27
(g28
(I0
tp1202
g30
tp1203
Rp1204
(I1
(I2
tp1205
g36
I00
S',\x00\x00\x00k\x00\x00\x00'
p1206
tp1207
bsba(i__main__
FrameData
p1208
(dp1209
g6
g1055
sg8
g9
(g13
S'\x9a.\x90!hp"@'
p1210
tp1211
Rp1212
sg19
I0
sg20
g21
(S'\x07\xdd\t\x1d\x13\x0c$\x07\x8d\x95'
p1213
tp1214
Rp1215
sg25
I0
sg26
g27
(g28
(I0
tp1216
g30
tp1217
Rp1218
(I1
(I2
tp1219
g36
I00
S'*\x00\x00\x00k\x00\x00\x00'
p1220
tp1221
bsba(i__main__
FrameData
p1222
(dp1223
g6
g1055
sg8
g9
(g13
S'A\x87b\xc62\xde"@'
p1224
tp1225
Rp1226
sg19
I0
sg20
g21
(S'\x07\xdd\t\x1d\x13\x0c$\x07\xd5\x04'
p1227
tp1228
Rp1229
sg25
I0
sg26
g27
(g28
(I0
tp1230
g30
tp1231
Rp1232
(I1
(I2
tp1233
g36
I00
S')\x00\x00\x00l\x00\x00\x00'
p1234
tp1235
bsba(i__main__
FrameData
p1236
(dp1237
g6
g1055
sg8
g9
(g13
S'bVc}\x9d\xb2#@'
p1238
tp1239
Rp1240
sg19
I0
sg20
g21
(S'\x07\xdd\t\x1d\x13\x0c$\x08\x15G'
p1241
tp1242
Rp1243
sg25
I0
sg26
g27
(g28
(I0
tp1244
g30
tp1245
Rp1246
(I1
(I2
tp1247
g36
I00
S'(\x00\x00\x00m\x00\x00\x00'
p1248
tp1249
bsba(i__main__
FrameData
p1250
(dp1251
g6
g1055
sg8
g9
(g13
S'\xeb\x12\xb2\xbb\xb2\xcd&@'
p1252
tp1253
Rp1254
sg19
I0
sg20
g21
(S'\x07\xdd\t\x1d\x13\x0c$\x08R2'
p1255
tp1256
Rp1257
sg25
I0
sg26
g27
(g28
(I0
tp1258
g30
tp1259
Rp1260
(I1
(I2
tp1261
g36
I00
S'&\x00\x00\x00n\x00\x00\x00'
p1262
tp1263
bsba(i__main__
FrameData
p1264
(dp1265
g6
g1055
sg8
g9
(g13
S'\x8a\xe3\x07\x1a\x17\xbd(@'
p1266
tp1267
Rp1268
sg19
I0
sg20
g21
(S'\x07\xdd\t\x1d\x13\x0c$\x08\x98\xfa'
p1269
tp1270
Rp1271
sg25
I0
sg26
g27
(g28
(I0
tp1272
g30
tp1273
Rp1274
(I1
(I2
tp1275
g36
I00
S'%\x00\x00\x00n\x00\x00\x00'
p1276
tp1277
bsba(i__main__
FrameData
p1278
(dp1279
g6
S'a'
p1280
sg8
g9
(g13
S'8H\x9b\x97\xee\xae*@'
p1281
tp1282
Rp1283
sg19
I0
sg20
g21
(S'\x07\xdd\t\x1d\x13\x0c$\t\x144'
p1284
tp1285
Rp1286
sg25
I0
sg26
g27
(g28
(I0
tp1287
g30
tp1288
Rp1289
(I1
(I2
tp1290
g36
I00
S'$\x00\x00\x00n\x00\x00\x00'
p1291
tp1292
bsba(i__main__
FrameData
p1293
(dp1294
g6
g1280
sg8
g9
(g13
S'\x8a\xe3\x07\x1a\x17\xbd(@'
p1295
tp1296
Rp1297
sg19
I0
sg20
g21
(S'\x07\xdd\t\x1d\x13\x0c$\t\\}'
p1298
tp1299
Rp1300
sg25
I0
sg26
g27
(g28
(I0
tp1301
g30
tp1302
Rp1303
(I1
(I2
tp1304
g36
I00
S'#\x00\x00\x00n\x00\x00\x00'
p1305
tp1306
bsba(i__main__
FrameData
p1307
(dp1308
g6
g1280
sg8
g9
(g13
S'\xd2\xf1}\x82U\\&@'
p1309
tp1310
Rp1311
sg19
I0
sg20
g21
(S'\x07\xdd\t\x1d\x13\x0c$\t\x9f\x9e'
p1312
tp1313
Rp1314
sg25
I0
sg26
g27
(g28
(I0
tp1315
g30
tp1316
Rp1317
(I1
(I2
tp1318
g36
I00
S'"\x00\x00\x00o\x00\x00\x00'
p1319
tp1320
bsba(i__main__
FrameData
p1321
(dp1322
g6
g1280
sg8
g9
(g13
S'\xf6/\x12_ee$@'
p1323
tp1324
Rp1325
sg19
I0
sg20
g21
(S'\x07\xdd\t\x1d\x13\x0c$\t\xd7\xaa'
p1326
tp1327
Rp1328
sg25
I0
sg26
g27
(g28
(I0
tp1329
g30
tp1330
Rp1331
(I1
(I2
tp1332
g36
I00
S'!\x00\x00\x00o\x00\x00\x00'
p1333
tp1334
bsba(i__main__
FrameData
p1335
(dp1336
g6
g1280
sg8
g9
(g13
S'\x9a.\x90!hp"@'
p1337
tp1338
Rp1339
sg19
I0
sg20
g21
(S'\x07\xdd\t\x1d\x13\x0c$\n \xe4'
p1340
tp1341
Rp1342
sg25
I0
sg26
g27
(g28
(I0
tp1343
g30
tp1344
Rp1345
(I1
(I2
tp1346
g36
I00
S' \x00\x00\x00o\x00\x00\x00'
p1347
tp1348
bsba(i__main__
FrameData
p1349
(dp1350
g6
g1280
sg8
g9
(g13
S'\x07\xed\xaff\x0f~ @'
p1351
tp1352
Rp1353
sg19
I0
sg20
g21
(S'\x07\xdd\t\x1d\x13\x0c$\n\x9c\xbe'
p1354
tp1355
Rp1356
sg25
I0
sg26
g27
(g28
(I0
tp1357
g30
tp1358
Rp1359
(I1
(I2
tp1360
g36
I00
S'\x1f\x00\x00\x00o\x00\x00\x00'
p1361
tp1362
bsba(i__main__
FrameData
p1363
(dp1364
g6
g1280
sg8
g9
(g13
S'\xc0\n\x1f\x00\xc6H\x1c@'
p1365
tp1366
Rp1367
sg19
I0
sg20
g21
(S'\x07\xdd\t\x1d\x13\x0c$\x0b\x1d\xfa'
p1368
tp1369
Rp1370
sg25
I0
sg26
g27
(g28
(I0
tp1371
g30
tp1372
Rp1373
(I1
(I2
tp1374
g36
I00
S'\x1e\x00\x00\x00p\x00\x00\x00'
p1375
tp1376
bsba(i__main__
FrameData
p1377
(dp1378
g6
g1280
sg8
g9
(g13
S'9\xdcc\xb3\xbfT\x18@'
p1379
tp1380
Rp1381
sg19
I0
sg20
g21
(S'\x07\xdd\t\x1d\x13\x0c$\x0b\xa9\xd4'
p1382
tp1383
Rp1384
sg25
I0
sg26
g27
(g28
(I0
tp1385
g30
tp1386
Rp1387
(I1
(I2
tp1388
g36
I00
S'\x1d\x00\x00\x00p\x00\x00\x00'
p1389
tp1390
bsba(i__main__
FrameData
p1391
(dp1392
g6
g1280
sg8
g9
(g13
S'\xf6/\x12_ee\x14@'
p1393
tp1394
Rp1395
sg19
I0
sg20
g21
(S'\x07\xdd\t\x1d\x13\x0c$\x0c+s'
p1396
tp1397
Rp1398
sg25
I0
sg26
g27
(g28
(I0
tp1399
g30
tp1400
Rp1401
(I1
(I2
tp1402
g36
I00
S'\x1c\x00\x00\x00p\x00\x00\x00'
p1403
tp1404
bsba(i__main__
FrameData
p1405
(dp1406
g6
g1280
sg8
g9
(g13
S'\x07\xed\xaff\x0f~\x10@'
p1407
tp1408
Rp1409
sg19
I0
sg20
g21
(S'\x07\xdd\t\x1d\x13\x0c$\x0cl\xc1'
p1410
tp1411
Rp1412
sg25
I0
sg26
g27
(g28
(I0
tp1413
g30
tp1414
Rp1415
(I1
(I2
tp1416
g36
I00
S'\x1b\x00\x00\x00p\x00\x00\x00'
p1417
tp1418
bsba(i__main__
FrameData
p1419
(dp1420
g6
g1280
sg8
g9
(g13
S'\x00\x00\x00\x00\x00\x00\x08@'
p1421
tp1422
Rp1423
sg19
I0
sg20
g21
(S'\x07\xdd\t\x1d\x13\x0c$\x0c\xefm'
p1424
tp1425
Rp1426
sg25
I0
sg26
g27
(g28
(I0
tp1427
g30
tp1428
Rp1429
(I1
(I2
tp1430
g36
I00
S'\x1a\x00\x00\x00q\x00\x00\x00'
p1431
tp1432
bsba(i__main__
FrameData
p1433
(dp1434
g6
g1280
sg8
g9
(g13
S'\x00\x00\x00\x00\x00\x00\x00@'
p1435
tp1436
Rp1437
sg19
I0
sg20
g21
(S'\x07\xdd\t\x1d\x13\x0c$\ri\x80'
p1438
tp1439
Rp1440
sg25
I0
sg26
g27
(g28
(I0
tp1441
g30
tp1442
Rp1443
(I1
(I2
tp1444
g36
I00
S'\x19\x00\x00\x00q\x00\x00\x00'
p1445
tp1446
bsba(i__main__
FrameData
p1447
(dp1448
g6
g1280
sg8
g9
(g13
S'\x00\x00\x00\x00\x00\x00\xf0?'
p1449
tp1450
Rp1451
sg19
I0
sg20
g21
(S'\x07\xdd\t\x1d\x13\x0c$\r\xf5\xc1'
p1452
tp1453
Rp1454
sg25
I0
sg26
g27
(g28
(I0
tp1455
g30
tp1456
Rp1457
(I1
(I2
tp1458
g36
I00
S'\x18\x00\x00\x00q\x00\x00\x00'
p1459
tp1460
bsba(i__main__
FrameData
p1461
(dp1462
g6
g1280
sg8
g9
(g13
S'\x00\x00\x00\x00\x00\x00\x00\x00'
p1463
tp1464
Rp1465
sg19
I0
sg20
g21
(S'\x07\xdd\t\x1d\x13\x0c$\x0e3I'
p1466
tp1467
Rp1468
sg25
I0
sg26
g27
(g28
(I0
tp1469
g30
tp1470
Rp1471
(I1
(I2
tp1472
g36
I00
S'\x17\x00\x00\x00q\x00\x00\x00'
p1473
tp1474
bsba(i__main__
FrameData
p1475
(dp1476
g6
g1280
sg8
g9
(g13
S'\x00\x00\x00\x00\x00\x00\xf0?'
p1477
tp1478
Rp1479
sg19
I0
sg20
g21
(S'\x07\xdd\t\x1d\x13\x0c$\x0e\xb8\x93'
p1480
tp1481
Rp1482
sg25
I0
sg26
g27
(g28
(I0
tp1483
g30
tp1484
Rp1485
(I1
(I2
tp1486
g36
I00
S'\x16\x00\x00\x00q\x00\x00\x00'
p1487
tp1488
bsba(i__main__
FrameData
p1489
(dp1490
g6
g1280
sg8
g9
(g13
S'\x00\x00\x00\x00\x00\x00\x00@'
p1491
tp1492
Rp1493
sg19
I0
sg20
g21
(S'\x07\xdd\t\x1d\x13\x0c$\x0f2o'
p1494
tp1495
Rp1496
sg25
I0
sg26
g27
(g28
(I0
tp1497
g30
tp1498
Rp1499
(I1
(I2
tp1500
g36
I00
S'\x15\x00\x00\x00q\x00\x00\x00'
p1501
tp1502
bsba(i__main__
FrameData
p1503
(dp1504
g6
g1280
sg8
g9
(g13
S'\x00\x00\x00\x00\x00\x00\xf0?'
p1505
tp1506
Rp1507
sg19
I0
sg20
g21
(S'\x07\xdd\t\x1d\x13\x0c%\x03JU'
p1508
tp1509
Rp1510
sg25
I0
sg26
g27
(g28
(I0
tp1511
g30
tp1512
Rp1513
(I1
(I2
tp1514
g36
I00
S'\x16\x00\x00\x00q\x00\x00\x00'
p1515
tp1516
bsba(i__main__
FrameData
p1517
(dp1518
g6
g1280
sg8
g9
(g13
S'\x00\x00\x00\x00\x00\x00\x00\x00'
p1519
tp1520
Rp1521
sg19
I0
sg20
g21
(S'\x07\xdd\t\x1d\x13\x0c%\x03\x86B'
p1522
tp1523
Rp1524
sg25
I0
sg26
g27
(g28
(I0
tp1525
g30
tp1526
Rp1527
(I1
(I2
tp1528
g36
I00
S'\x17\x00\x00\x00q\x00\x00\x00'
p1529
tp1530
bsba(i__main__
FrameData
p1531
(dp1532
g6
g1280
sg8
g9
(g13
S'\x00\x00\x00\x00\x00\x00\xf0?'
p1533
tp1534
Rp1535
sg19
I0
sg20
g21
(S'\x07\xdd\t\x1d\x13\x0c%\x03\xce\xeb'
p1536
tp1537
Rp1538
sg25
I0
sg26
g27
(g28
(I0
tp1539
g30
tp1540
Rp1541
(I1
(I2
tp1542
g36
I00
S'\x18\x00\x00\x00q\x00\x00\x00'
p1543
tp1544
bsba(i__main__
FrameData
p1545
(dp1546
g6
g1280
sg8
g9
(g13
S'\x00\x00\x00\x00\x00\x00\x00@'
p1547
tp1548
Rp1549
sg19
I0
sg20
g21
(S'\x07\xdd\t\x1d\x13\x0c%\x04\x0fn'
p1550
tp1551
Rp1552
sg25
I0
sg26
g27
(g28
(I0
tp1553
g30
tp1554
Rp1555
(I1
(I2
tp1556
g36
I00
S'\x19\x00\x00\x00q\x00\x00\x00'
p1557
tp1558
bsba(i__main__
FrameData
p1559
(dp1560
g6
g1280
sg8
g9
(g13
S'\x00\x00\x00\x00\x00\x00\x08@'
p1561
tp1562
Rp1563
sg19
I0
sg20
g21
(S'\x07\xdd\t\x1d\x13\x0c%\x04\x88\xd3'
p1564
tp1565
Rp1566
sg25
I0
sg26
g27
(g28
(I0
tp1567
g30
tp1568
Rp1569
(I1
(I2
tp1570
g36
I00
S'\x1a\x00\x00\x00q\x00\x00\x00'
p1571
tp1572
bsba(i__main__
FrameData
p1573
(dp1574
g6
g1280
sg8
g9
(g13
S'\x00\x00\x00\x00\x00\x00\x10@'
p1575
tp1576
Rp1577
sg19
I0
sg20
g21
(S'\x07\xdd\t\x1d\x13\x0c%\x04\xd3X'
p1578
tp1579
Rp1580
sg25
I0
sg26
g27
(g28
(I0
tp1581
g30
tp1582
Rp1583
(I1
(I2
tp1584
g36
I00
S'\x1b\x00\x00\x00q\x00\x00\x00'
p1585
tp1586
bsba(i__main__
FrameData
p1587
(dp1588
g6
g1280
sg8
g9
(g13
S'\x00\x00\x00\x00\x00\x00\x14@'
p1589
tp1590
Rp1591
sg19
I0
sg20
g21
(S'\x07\xdd\t\x1d\x13\x0c%\x05\tD'
p1592
tp1593
Rp1594
sg25
I0
sg26
g27
(g28
(I0
tp1595
g30
tp1596
Rp1597
(I1
(I2
tp1598
g36
I00
S'\x1c\x00\x00\x00q\x00\x00\x00'
p1599
tp1600
bsba(i__main__
FrameData
p1601
(dp1602
g6
g1280
sg8
g9
(g13
S'\x00\x00\x00\x00\x00\x00\x18@'
p1603
tp1604
Rp1605
sg19
I0
sg20
g21
(S'\x07\xdd\t\x1d\x13\x0c%\x05T\xa3'
p1606
tp1607
Rp1608
sg25
I0
sg26
g27
(g28
(I0
tp1609
g30
tp1610
Rp1611
(I1
(I2
tp1612
g36
I00
S'\x1d\x00\x00\x00q\x00\x00\x00'
p1613
tp1614
bsba(i__main__
FrameData
p1615
(dp1616
g6
g1280
sg8
g9
(g13
S'\x00\x00\x00\x00\x00\x00\x1c@'
p1617
tp1618
Rp1619
sg19
I0
sg20
g21
(S'\x07\xdd\t\x1d\x13\x0c%\x05\x96\xe7'
p1620
tp1621
Rp1622
sg25
I0
sg26
g27
(g28
(I0
tp1623
g30
tp1624
Rp1625
(I1
(I2
tp1626
g36
I00
S'\x1e\x00\x00\x00q\x00\x00\x00'
p1627
tp1628
bsba(i__main__
FrameData
p1629
(dp1630
g6
g1280
sg8
g9
(g13
S'\xe9\xfbv \xd5\x1e\x1d@'
p1631
tp1632
Rp1633
sg19
I0
sg20
g21
(S'\x07\xdd\t\x1d\x13\x0c%\x05\xd7D'
p1634
tp1635
Rp1636
sg25
I0
sg26
g27
(g28
(I0
tp1637
g30
tp1638
Rp1639
(I1
(I2
tp1640
g36
I00
S'\x1e\x00\x00\x00o\x00\x00\x00'
p1641
tp1642
bsba(i__main__
FrameData
p1643
(dp1644
g6
g1280
sg8
g9
(g13
S'\x07\xed\xaff\x0f~ @'
p1645
tp1646
Rp1647
sg19
I0
sg20
g21
(S'\x07\xdd\t\x1d\x13\x0c%\x06\x17\xd8'
p1648
tp1649
Rp1650
sg25
I0
sg26
g27
(g28
(I0
tp1651
g30
tp1652
Rp1653
(I1
(I2
tp1654
g36
I00
S'\x1f\x00\x00\x00o\x00\x00\x00'
p1655
tp1656
bsba(i__main__
FrameData
p1657
(dp1658
g6
g1280
sg8
g9
(g13
S'~\xc4#,B\xf9"@'
p1659
tp1660
Rp1661
sg19
I0
sg20
g21
(S'\x07\xdd\t\x1d\x13\x0c%\x06N\xd4'
p1662
tp1663
Rp1664
sg25
I0
sg26
g27
(g28
(I0
tp1665
g30
tp1666
Rp1667
(I1
(I2
tp1668
g36
I00
S' \x00\x00\x00n\x00\x00\x00'
p1669
tp1670
bsba(i__main__
FrameData
p1671
(dp1672
g6
g1280
sg8
g9
(g13
S'7\xf9\xcf\xdao\xe1$@'
p1673
tp1674
Rp1675
sg19
I0
sg20
g21
(S'\x07\xdd\t\x1d\x13\x0c%\x06\x9d\x02'
p1676
tp1677
Rp1678
sg25
I0
sg26
g27
(g28
(I0
tp1679
g30
tp1680
Rp1681
(I1
(I2
tp1682
g36
I00
S'!\x00\x00\x00n\x00\x00\x00'
p1683
tp1684
bsba(i__main__
FrameData
p1685
(dp1686
g6
g1280
sg8
g9
(g13
S'\xbc\xfdP\xb5U\xdb+@'
p1687
tp1688
Rp1689
sg19
I0
sg20
g21
(S'\x07\xdd\t\x1d\x13\x0c%\x06\xdbW'
p1690
tp1691
Rp1692
sg25
I0
sg26
g27
(g28
(I0
tp1693
g30
tp1694
Rp1695
(I1
(I2
tp1696
g36
I00
S'$\x00\x00\x00l\x00\x00\x00'
p1697
tp1698
bsba(i__main__
FrameData
p1699
(dp1700
g6
g1055
sg8
g9
(g13
S'F\xc3\\\xa8\xc1i(@'
p1701
tp1702
Rp1703
sg19
I0
sg20
g21
(S'\x07\xdd\t\x1d\x13\x0c%\x07\x12O'
p1704
tp1705
Rp1706
sg25
I0
sg26
g27
(g28
(I0
tp1707
g30
tp1708
Rp1709
(I1
(I2
tp1710
g36
I00
S"'\x00\x00\x00j\x00\x00\x00"
p1711
tp1712
bsba(i__main__
FrameData
p1713
(dp1714
g6
g1055
sg8
g9
(g13
S'6\xd0\xd2x\xa2B%@'
p1715
tp1716
Rp1717
sg19
I0
sg20
g21
(S'\x07\xdd\t\x1d\x13\x0c%\x07_]'
p1718
tp1719
Rp1720
sg25
I0
sg26
g27
(g28
(I0
tp1721
g30
tp1722
Rp1723
(I1
(I2
tp1724
g36
I00
S'*\x00\x00\x00i\x00\x00\x00'
p1725
tp1726
bsba(i__main__
FrameData
p1727
(dp1728
g6
g1055
sg8
g9
(g13
S'bVc}\x9d\xb2#@'
p1729
tp1730
Rp1731
sg19
I0
sg20
g21
(S'\x07\xdd\t\x1d\x13\x0c%\x07\x96\x97'
p1732
tp1733
Rp1734
sg25
I0
sg26
g27
(g28
(I0
tp1735
g30
tp1736
Rp1737
(I1
(I2
tp1738
g36
I00
S'-\x00\x00\x00h\x00\x00\x00'
p1739
tp1740
bsba(i__main__
FrameData
p1741
(dp1742
g6
g1055
sg8
g9
(g13
S'\xf0)#L\x89\x19$@'
p1743
tp1744
Rp1745
sg19
I0
sg20
g21
(S'\x07\xdd\t\x1d\x13\x0c%\x07\xe4\x03'
p1746
tp1747
Rp1748
sg25
I0
sg26
g27
(g28
(I0
tp1749
g30
tp1750
Rp1751
(I1
(I2
tp1752
g36
I00
S'0\x00\x00\x00g\x00\x00\x00'
p1753
tp1754
bsba(i__main__
FrameData
p1755
(dp1756
g6
g1055
sg8
g9
(g13
S'S[\xda:XL)@'
p1757
tp1758
Rp1759
sg19
I0
sg20
g21
(S'\x07\xdd\t\x1d\x13\x0c%\x08#['
p1760
tp1761
Rp1762
sg25
I0
sg26
g27
(g28
(I0
tp1763
g30
tp1764
Rp1765
(I1
(I2
tp1766
g36
I00
S'5\x00\x00\x00e\x00\x00\x00'
p1767
tp1768
bsba(i__main__
FrameData
p1769
(dp1770
g6
g1055
sg8
g9
(g13
S'\xd0\xbaa?\xe0\x1f0@'
p1771
tp1772
Rp1773
sg19
I0
sg20
g21
(S'\x07\xdd\t\x1d\x13\x0c%\x08b\xf3'
p1774
tp1775
Rp1776
sg25
I0
sg26
g27
(g28
(I0
tp1777
g30
tp1778
Rp1779
(I1
(I2
tp1780
g36
I00
S'9\x00\x00\x00c\x00\x00\x00'
p1781
tp1782
bsba(i__main__
FrameData
p1783
(dp1784
g6
g1040
sg8
g9
(g13
S':\xf0c\xf6\x1b\xb93@'
p1785
tp1786
Rp1787
sg19
I0
sg20
g21
(S'\x07\xdd\t\x1d\x13\x0c%\x08\xa6\xd7'
p1788
tp1789
Rp1790
sg25
I0
sg26
g27
(g28
(I0
tp1791
g30
tp1792
Rp1793
(I1
(I2
tp1794
g36
I00
S'?\x00\x00\x00`\x00\x00\x00'
p1795
tp1796
bsba(i__main__
FrameData
p1797
(dp1798
g6
g1040
sg8
g9
(g13
S'X(/\x84y\xae2@'
p1799
tp1800
Rp1801
sg19
I0
sg20
g21
(S'\x07\xdd\t\x1d\x13\x0c%\x08\xe73'
p1802
tp1803
Rp1804
sg25
I0
sg26
g27
(g28
(I0
tp1805
g30
tp1806
Rp1807
(I1
(I2
tp1808
g36
I00
S'D\x00\x00\x00_\x00\x00\x00'
p1809
tp1810
bsba(i__main__
FrameData
p1811
(dp1812
g6
g1040
sg8
g9
(g13
S'\x8fJ\x95`e\x064@'
p1813
tp1814
Rp1815
sg19
I0
sg20
g21
(S'\x07\xdd\t\x1d\x13\x0c%\t$q'
p1816
tp1817
Rp1818
sg25
I0
sg26
g27
(g28
(I0
tp1819
g30
tp1820
Rp1821
(I1
(I2
tp1822
g36
I00
S'H\x00\x00\x00]\x00\x00\x00'
p1823
tp1824
bsba(i__main__
FrameData
p1825
(dp1826
g6
g450
sg8
g9
(g13
S'\xa0\x96\xf4\xe0T\xb81@'
p1827
tp1828
Rp1829
sg19
I0
sg20
g21
(S'\x07\xdd\t\x1d\x13\x0c%\t^\x05'
p1830
tp1831
Rp1832
sg25
I0
sg26
g27
(g28
(I0
tp1833
g30
tp1834
Rp1835
(I1
(I2
tp1836
g36
I00
S'M\x00\x00\x00\\\x00\x00\x00'
p1837
tp1838
bsba(i__main__
FrameData
p1839
(dp1840
g6
g450
sg8
g9
(g13
S'\xaf_\x109\x0c\x11.@'
p1841
tp1842
Rp1843
sg19
I0
sg20
g21
(S'\x07\xdd\t\x1d\x13\x0c%\t\xab<'
p1844
tp1845
Rp1846
sg25
I0
sg26
g27
(g28
(I0
tp1847
g30
tp1848
Rp1849
(I1
(I2
tp1850
g36
I00
S'Q\x00\x00\x00Z\x00\x00\x00'
p1851
tp1852
bsba(i__main__
FrameData
p1853
(dp1854
g6
g450
sg8
g9
(g13
S'/\xa4\xe3\\m\xbb-@'
p1855
tp1856
Rp1857
sg19
I0
sg20
g21
(S'\x07\xdd\t\x1d\x13\x0c%\t\xe8{'
p1858
tp1859
Rp1860
sg25
I0
sg26
g27
(g28
(I0
tp1861
g30
tp1862
Rp1863
(I1
(I2
tp1864
g36
I00
S'W\x00\x00\x00Y\x00\x00\x00'
p1865
tp1866
bsba(i__main__
FrameData
p1867
(dp1868
g6
g450
sg8
g9
(g13
S'l\xd0\xe82\x1a\xb11@'
p1869
tp1870
Rp1871
sg19
I0
sg20
g21
(S'\x07\xdd\t\x1d\x13\x0c%\n-\xba'
p1872
tp1873
Rp1874
sg25
I0
sg26
g27
(g28
(I0
tp1875
g30
tp1876
Rp1877
(I1
(I2
tp1878
g36
I00
S'^\x00\x00\x00X\x00\x00\x00'
p1879
tp1880
bsba(i__main__
FrameData
p1881
(dp1882
g6
S't'
p1883
sg8
g9
(g13
S'\xb9e(k\xee\xc8+@'
p1884
tp1885
Rp1886
sg19
I0
sg20
g21
(S'\x07\xdd\t\x1d\x13\x0c%\nb\xfc'
p1887
tp1888
Rp1889
sg25
I0
sg26
g27
(g28
(I0
tp1890
g30
tp1891
Rp1892
(I1
(I2
tp1893
g36
I00
S'c\x00\x00\x00W\x00\x00\x00'
p1894
tp1895
bsba(i__main__
FrameData
p1896
(dp1897
g6
g1883
sg8
g9
(g13
S'\x8a\xe3\x07\x1a\x17\xbd(@'
p1898
tp1899
Rp1900
sg19
I0
sg20
g21
(S'\x07\xdd\t\x1d\x13\x0c%\n\xa5X'
p1901
tp1902
Rp1903
sg25
I0
sg26
g27
(g28
(I0
tp1904
g30
tp1905
Rp1906
(I1
(I2
tp1907
g36
I00
S'g\x00\x00\x00W\x00\x00\x00'
p1908
tp1909
bsba(i__main__
FrameData
p1910
(dp1911
g6
g1883
sg8
g9
(g13
S'\x00\x00\x00\x00\x00\x00&@'
p1912
tp1913
Rp1914
sg19
I0
sg20
g21
(S'\x07\xdd\t\x1d\x13\x0c%\n\xe9\x8c'
p1915
tp1916
Rp1917
sg25
I0
sg26
g27
(g28
(I0
tp1918
g30
tp1919
Rp1920
(I1
(I2
tp1921
g36
I00
S'j\x00\x00\x00V\x00\x00\x00'
p1922
tp1923
bsba(i__main__
FrameData
p1924
(dp1925
g6
g1883
sg8
g9
(g13
S'\xd2\xf1}\x82U\\&@'
p1926
tp1927
Rp1928
sg19
I0
sg20
g21
(S'\x07\xdd\t\x1d\x13\x0c%\x0b3C'
p1929
tp1930
Rp1931
sg25
I0
sg26
g27
(g28
(I0
tp1932
g30
tp1933
Rp1934
(I1
(I2
tp1935
g36
I00
S'l\x00\x00\x00V\x00\x00\x00'
p1936
tp1937
bsba(i__main__
FrameData
p1938
(dp1939
g6
g1883
sg8
g9
(g13
S"\xe0\x11<m\xceh'@"
p1940
tp1941
Rp1942
sg19
I0
sg20
g21
(S'\x07\xdd\t\x1d\x13\x0c%\x0bq\xdd'
p1943
tp1944
Rp1945
sg25
I0
sg26
g27
(g28
(I0
tp1946
g30
tp1947
Rp1948
(I1
(I2
tp1949
g36
I00
S'n\x00\x00\x00V\x00\x00\x00'
p1950
tp1951
bsba(i__main__
FrameData
p1952
(dp1953
g6
g1883
sg8
g9
(g13
S'\xe4\x10\xe4sW\x0f)@'
p1954
tp1955
Rp1956
sg19
I0
sg20
g21
(S'\x07\xdd\t\x1d\x13\x0c%\x0b\xea)'
p1957
tp1958
Rp1959
sg25
I0
sg26
g27
(g28
(I0
tp1960
g30
tp1961
Rp1962
(I1
(I2
tp1963
g36
I00
S'p\x00\x00\x00V\x00\x00\x00'
p1964
tp1965
bsba(i__main__
FrameData
p1966
(dp1967
g6
g1883
sg8
g9
(g13
S'\xef\rI\xf1\xf33+@'
p1968
tp1969
Rp1970
sg19
I0
sg20
g21
(S'\x07\xdd\t\x1d\x13\x0c%\x0c-\x85'
p1971
tp1972
Rp1973
sg25
I0
sg26
g27
(g28
(I0
tp1974
g30
tp1975
Rp1976
(I1
(I2
tp1977
g36
I00
S'r\x00\x00\x00V\x00\x00\x00'
p1978
tp1979
bsba(i__main__
FrameData
p1980
(dp1981
g6
g1883
sg8
g9
(g13
S'?*\x98"\xe3l,@'
p1982
tp1983
Rp1984
sg19
I0
sg20
g21
(S'\x07\xdd\t\x1d\x13\x0c%\x0cl\xaf'
p1985
tp1986
Rp1987
sg25
I0
sg26
g27
(g28
(I0
tp1988
g30
tp1989
Rp1990
(I1
(I2
tp1991
g36
I00
S's\x00\x00\x00V\x00\x00\x00'
p1992
tp1993
bsba(i__main__
FrameData
p1994
(dp1995
g6
g1883
sg8
g9
(g13
S'/\xa4\xe3\\m\xbb-@'
p1996
tp1997
Rp1998
sg19
I0
sg20
g21
(S'\x07\xdd\t\x1d\x13\x0c%\x0c\xad\xef'
p1999
tp2000
Rp2001
sg25
I0
sg26
g27
(g28
(I0
tp2002
g30
tp2003
Rp2004
(I1
(I2
tp2005
g36
I00
S't\x00\x00\x00V\x00\x00\x00'
p2006
tp2007
bsba(i__main__
FrameData
p2008
(dp2009
g6
g1883
sg8
g9
(g13
S'/\xa4\xe3\\m\xbb-@'
p2010
tp2011
Rp2012
sg19
I0
sg20
g21
(S'\x07\xdd\t\x1d\x13\x0c%\x0c\xf0\xac'
p2013
tp2014
Rp2015
sg25
I0
sg26
g27
(g28
(I0
tp2016
g30
tp2017
Rp2018
(I1
(I2
tp2019
g36
I00
S'u\x00\x00\x00U\x00\x00\x00'
p2020
tp2021
bsba(i__main__
FrameData
p2022
(dp2023
g6
S'y'
p2024
sg8
g9
(g13
S'\xef\rI\xf1\xf33+@'
p2025
tp2026
Rp2027
sg19
I0
sg20
g21
(S'\x07\xdd\t\x1d\x13\x0c%\r0\xe1'
p2028
tp2029
Rp2030
sg25
I0
sg26
g27
(g28
(I0
tp2031
g30
tp2032
Rp2033
(I1
(I2
tp2034
g36
I00
S'w\x00\x00\x00U\x00\x00\x00'
p2035
tp2036
bsba(i__main__
FrameData
p2037
(dp2038
g6
g2024
sg8
g9
(g13
S'\x00\xff\x9f\x99\xcc\x9c)@'
p2039
tp2040
Rp2041
sg19
I0
sg20
g21
(S'\x07\xdd\t\x1d\x13\x0c%\rr('
p2042
tp2043
Rp2044
sg25
I0
sg26
g27
(g28
(I0
tp2045
g30
tp2046
Rp2047
(I1
(I2
tp2048
g36
I00
S'x\x00\x00\x00U\x00\x00\x00'
p2049
tp2050
bsba(i__main__
FrameData
p2051
(dp2052
g6
g2024
sg8
g9
(g13
S'\xeb\x12\xb2\xbb\xb2\xcd&@'
p2053
tp2054
Rp2055
sg19
I0
sg20
g21
(S'\x07\xdd\t\x1d\x13\x0c%\r\xb3t'
p2056
tp2057
Rp2058
sg25
I0
sg26
g27
(g28
(I0
tp2059
g30
tp2060
Rp2061
(I1
(I2
tp2062
g36
I00
S'y\x00\x00\x00T\x00\x00\x00'
p2063
tp2064
bsba(i__main__
FrameData
p2065
(dp2066
g6
g2024
sg8
g9
(g13
S'6\xd0\xd2x\xa2B%@'
p2067
tp2068
Rp2069
sg19
I0
sg20
g21
(S'\x07\xdd\t\x1d\x13\x0c%\r\xf5\xa2'
p2070
tp2071
Rp2072
sg25
I0
sg26
g27
(g28
(I0
tp2073
g30
tp2074
Rp2075
(I1
(I2
tp2076
g36
I00
S'z\x00\x00\x00T\x00\x00\x00'
p2077
tp2078
bsba(i__main__
FrameData
p2079
(dp2080
g6
g2024
sg8
g9
(g13
S'\x9a.\x90!hp"@'
p2081
tp2082
Rp2083
sg19
I0
sg20
g21
(S'\x07\xdd\t\x1d\x13\x0c%\x0e7\x08'
p2084
tp2085
Rp2086
sg25
I0
sg26
g27
(g28
(I0
tp2087
g30
tp2088
Rp2089
(I1
(I2
tp2090
g36
I00
S'{\x00\x00\x00S\x00\x00\x00'
p2091
tp2092
bsba(i__main__
FrameData
p2093
(dp2094
g6
g2024
sg8
g9
(g13
S'\xd9l\xdf\xccv\xf8 @'
p2095
tp2096
Rp2097
sg19
I0
sg20
g21
(S'\x07\xdd\t\x1d\x13\x0c%\x0e\xb8\x04'
p2098
tp2099
Rp2100
sg25
I0
sg26
g27
(g28
(I0
tp2101
g30
tp2102
Rp2103
(I1
(I2
tp2104
g36
I00
S'|\x00\x00\x00S\x00\x00\x00'
p2105
tp2106
bsba(i__main__
FrameData
p2107
(dp2108
g6
g2024
sg8
g9
(g13
S'htN\x17\xb2=\x1f@'
p2109
tp2110
Rp2111
sg19
I0
sg20
g21
(S'\x07\xdd\t\x1d\x13\x0c%\x0e\xf9\xad'
p2112
tp2113
Rp2114
sg25
I0
sg26
g27
(g28
(I0
tp2115
g30
tp2116
Rp2117
(I1
(I2
tp2118
g36
I00
S'|\x00\x00\x00R\x00\x00\x00'
p2119
tp2120
bsba(i__main__
FrameData
p2121
(dp2122
g6
g2024
sg8
g9
(g13
S'\xc0\n\x1f\x00\xc6H\x1c@'
p2123
tp2124
Rp2125
sg19
I0
sg20
g21
(S"\x07\xdd\t\x1d\x13\x0c%\x0f<'"
p2126
tp2127
Rp2128
sg25
I0
sg26
g27
(g28
(I0
tp2129
g30
tp2130
Rp2131
(I1
(I2
tp2132
g36
I00
S'}\x00\x00\x00R\x00\x00\x00'
p2133
tp2134
bsba(i__main__
FrameData
p2135
(dp2136
g6
g2024
sg8
g9
(g13
S'\xcd;\x7ff\x9e\xa0\x16@'
p2137
tp2138
Rp2139
sg19
I0
sg20
g21
(S'\x07\xdd\t\x1d\x13\x0c&\x009J'
p2140
tp2141
Rp2142
sg25
I0
sg26
g27
(g28
(I0
tp2143
g30
tp2144
Rp2145
(I1
(I2
tp2146
g36
I00
S'~\x00\x00\x00Q\x00\x00\x00'
p2147
tp2148
bsba(i__main__
FrameData
p2149
(dp2150
g6
g2024
sg8
g9
(g13
S'\x00\x00\x00\x00\x00\x00\x14@'
p2151
tp2152
Rp2153
sg19
I0
sg20
g21
(S'\x07\xdd\t\x1d\x13\x0c&\x00{i'
p2154
tp2155
Rp2156
sg25
I0
sg26
g27
(g28
(I0
tp2157
g30
tp2158
Rp2159
(I1
(I2
tp2160
g36
I00
S'\x7f\x00\x00\x00Q\x00\x00\x00'
p2161
tp2162
bsba(i__main__
FrameData
p2163
(dp2164
g6
g2024
sg8
g9
(g13
S'\xa8\xf4\x97\x9bw\xe3\x11@'
p2165
tp2166
Rp2167
sg19
I0
sg20
g21
(S'\x07\xdd\t\x1d\x13\x0c&\x00\xbd\xd1'
p2168
tp2169
Rp2170
sg25
I0
sg26
g27
(g28
(I0
tp2171
g30
tp2172
Rp2173
(I1
(I2
tp2174
g36
I00
S'\x80\x00\x00\x00Q\x00\x00\x00'
p2175
tp2176
bsba(i__main__
FrameData
p2177
(dp2178
g6
g2024
sg8
g9
(g13
S'\xf3YaD+\xd8\x0c@'
p2179
tp2180
Rp2181
sg19
I0
sg20
g21
(S'\x07\xdd\t\x1d\x13\x0c&\x01\x0co'
p2182
tp2183
Rp2184
sg25
I0
sg26
g27
(g28
(I0
tp2185
g30
tp2186
Rp2187
(I1
(I2
tp2188
g36
I00
S'\x80\x00\x00\x00P\x00\x00\x00'
p2189
tp2190
bsba(i__main__
FrameData
p2191
(dp2192
g6
g2024
sg8
g9
(g13
S'\x00\x00\x00\x00\x00\x00\x00@'
p2193
tp2194
Rp2195
sg19
I0
sg20
g21
(S'\x07\xdd\t\x1d\x13\x0c&\x01\x81\x18'
p2196
tp2197
Rp2198
sg25
I0
sg26
g27
(g28
(I0
tp2199
g30
tp2200
Rp2201
(I1
(I2
tp2202
g36
I00
S'\x82\x00\x00\x00O\x00\x00\x00'
p2203
tp2204
bsba(i__main__
FrameData
p2205
(dp2206
g6
g2024
sg8
g9
(g13
S'\xa8\xf4\x97\x9bw\xe3\x01@'
p2207
tp2208
Rp2209
sg19
I0
sg20
g21
(S'\x07\xdd\t\x1d\x13\x0c&\x01\xc0\xc9'
p2210
tp2211
Rp2212
sg25
I0
sg26
g27
(g28
(I0
tp2213
g30
tp2214
Rp2215
(I1
(I2
tp2216
g36
I00
S'\x83\x00\x00\x00O\x00\x00\x00'
p2217
tp2218
bsba(i__main__
FrameData
p2219
(dp2220
g6
g2024
sg8
g9
(g13
S'\xcd;\x7ff\x9e\xa0\xf6?'
p2221
tp2222
Rp2223
sg19
I0
sg20
g21
(S'\x07\xdd\t\x1d\x13\x0c&\x02\x04\xad'
p2224
tp2225
Rp2226
sg25
I0
sg26
g27
(g28
(I0
tp2227
g30
tp2228
Rp2229
(I1
(I2
tp2230
g36
I00
S'\x83\x00\x00\x00N\x00\x00\x00'
p2231
tp2232
bsba(i__main__
FrameData
p2233
(dp2234
g6
g2024
sg8
g9
(g13
S'\x00\x00\x00\x00\x00\x00\x00@'
p2235
tp2236
Rp2237
sg19
I0
sg20
g21
(S'\x07\xdd\t\x1d\x13\x0c&\x03\t\xa5'
p2238
tp2239
Rp2240
sg25
I0
sg26
g27
(g28
(I0
tp2241
g30
tp2242
Rp2243
(I1
(I2
tp2244
g36
I00
S'\x84\x00\x00\x00M\x00\x00\x00'
p2245
tp2246
bsba(i__main__
FrameData
p2247
(dp2248
g6
g2024
sg8
g9
(g13
S'\xa8\xf4\x97\x9bw\xe3\x01@'
p2249
tp2250
Rp2251
sg19
I0
sg20
g21
(S'\x07\xdd\t\x1d\x13\x0c&\x07\xe2\x03'
p2252
tp2253
Rp2254
sg25
I0
sg26
g27
(g28
(I0
tp2255
g30
tp2256
Rp2257
(I1
(I2
tp2258
g36
I00
S'\x84\x00\x00\x00N\x00\x00\x00'
p2259
tp2260
bsba(i__main__
FrameData
p2261
(dp2262
g6
g2024
sg8
g9
(g13
S'\xcd;\x7ff\x9e\xa0\x06@'
p2263
tp2264
Rp2265
sg19
I0
sg20
g21
(S'\x07\xdd\t\x1d\x13\x0c&\x08#5'
p2266
tp2267
Rp2268
sg25
I0
sg26
g27
(g28
(I0
tp2269
g30
tp2270
Rp2271
(I1
(I2
tp2272
g36
I00
S'\x84\x00\x00\x00O\x00\x00\x00'
p2273
tp2274
bsba(i__main__
FrameData
p2275
(dp2276
g6
g2024
sg8
g9
(g13
S'\xf3YaD+\xd8\x0c@'
p2277
tp2278
Rp2279
sg19
I0
sg20
g21
(S'\x07\xdd\t\x1d\x13\x0c&\tj\xae'
p2280
tp2281
Rp2282
sg25
I0
sg26
g27
(g28
(I0
tp2283
g30
tp2284
Rp2285
(I1
(I2
tp2286
g36
I00
S'\x84\x00\x00\x00P\x00\x00\x00'
p2287
tp2288
bsba(i__main__
FrameData
p2289
(dp2290
g6
g2024
sg8
g9
(g13
S'\xd9l\xdf\xccv\xf8\x10@'
p2291
tp2292
Rp2293
sg19
I0
sg20
g21
(S'\x07\xdd\t\x1d\x13\x0c&\t\xaa\xe9'
p2294
tp2295
Rp2296
sg25
I0
sg26
g27
(g28
(I0
tp2297
g30
tp2298
Rp2299
(I1
(I2
tp2300
g36
I00
S'\x85\x00\x00\x00P\x00\x00\x00'
p2301
tp2302
bsba(i__main__
FrameData
p2303
(dp2304
g6
g2024
sg8
g9
(g13
S'\x00\x00\x00\x00\x00\x00\x14@'
p2305
tp2306
Rp2307
sg19
I0
sg20
g21
(S'\x07\xdd\t\x1d\x13\x0c&\t\xedy'
p2308
tp2309
Rp2310
sg25
I0
sg26
g27
(g28
(I0
tp2311
g30
tp2312
Rp2313
(I1
(I2
tp2314
g36
I00
S'\x85\x00\x00\x00Q\x00\x00\x00'
p2315
tp2316
bsba(i__main__
FrameData
p2317
(dp2318
g6
g2024
sg8
g9
(g13
S'\x00\xff\x9f\x99\xcc\x9c\x19@'
p2319
tp2320
Rp2321
sg19
I0
sg20
g21
(S'\x07\xdd\t\x1d\x13\x0c&\n-\xc7'
p2322
tp2323
Rp2324
sg25
I0
sg26
g27
(g28
(I0
tp2325
g30
tp2326
Rp2327
(I1
(I2
tp2328
g36
I00
S'\x87\x00\x00\x00Q\x00\x00\x00'
p2329
tp2330
bsba(i__main__
FrameData
p2331
(dp2332
g6
g2024
sg8
g9
(g13
S'\xd0\xbaa?\xe0\x1f @'
p2333
tp2334
Rp2335
sg19
I0
sg20
g21
(S'\x07\xdd\t\x1d\x13\x0c&\nk\xc6'
p2336
tp2337
Rp2338
sg25
I0
sg26
g27
(g28
(I0
tp2339
g30
tp2340
Rp2341
(I1
(I2
tp2342
g36
I00
S'\x89\x00\x00\x00Q\x00\x00\x00'
p2343
tp2344
bsba(i__main__
FrameData
p2345
(dp2346
g6
g2024
sg8
g9
(g13
S'A\x87b\xc62\xde"@'
p2347
tp2348
Rp2349
sg19
I0
sg20
g21
(S'\x07\xdd\t\x1d\x13\x0c&\n\xb0_'
p2350
tp2351
Rp2352
sg25
I0
sg26
g27
(g28
(I0
tp2353
g30
tp2354
Rp2355
(I1
(I2
tp2356
g36
I00
S'\x8a\x00\x00\x00R\x00\x00\x00'
p2357
tp2358
bsba(i__main__
FrameData
p2359
(dp2360
g6
g2024
sg8
g9
(g13
S'\xfc\xeeci3\xd5*@'
p2361
tp2362
Rp2363
sg19
I0
sg20
g21
(S'\x07\xdd\t\x1d\x13\x0c&\n\xf3*'
p2364
tp2365
Rp2366
sg25
I0
sg26
g27
(g28
(I0
tp2367
g30
tp2368
Rp2369
(I1
(I2
tp2370
g36
I00
S'\x8e\x00\x00\x00S\x00\x00\x00'
p2371
tp2372
bsba(i__main__
FrameData
p2373
(dp2374
g6
S'u'
p2375
sg8
g9
(g13
S'\x00\xff\x9f\x99\xcc\x9c)@'
p2376
tp2377
Rp2378
sg19
I0
sg20
g21
(S'\x07\xdd\t\x1d\x13\x0c&\x0b2\xf2'
p2379
tp2380
Rp2381
sg25
I0
sg26
g27
(g28
(I0
tp2382
g30
tp2383
Rp2384
(I1
(I2
tp2385
g36
I00
S'\x90\x00\x00\x00T\x00\x00\x00'
p2386
tp2387
bsba(i__main__
FrameData
p2388
(dp2389
g6
g2375
sg8
g9
(g13
S'\xeb\x12\xb2\xbb\xb2\xcd&@'
p2390
tp2391
Rp2392
sg19
I0
sg20
g21
(S'\x07\xdd\t\x1d\x13\x0c&\x0btQ'
p2393
tp2394
Rp2395
sg25
I0
sg26
g27
(g28
(I0
tp2396
g30
tp2397
Rp2398
(I1
(I2
tp2399
g36
I00
S'\x95\x00\x00\x00U\x00\x00\x00'
p2400
tp2401
bsba(i__main__
FrameData
p2402
(dp2403
g6
g2375
sg8
g9
(g13
S'H\xaa*\x8f9\x17&@'
p2404
tp2405
Rp2406
sg19
I0
sg20
g21
(S'\x07\xdd\t\x1d\x13\x0c&\x0b\xb7\x07'
p2407
tp2408
Rp2409
sg25
I0
sg26
g27
(g28
(I0
tp2410
g30
tp2411
Rp2412
(I1
(I2
tp2413
g36
I00
S'\x97\x00\x00\x00U\x00\x00\x00'
p2414
tp2415
bsba(i__main__
FrameData
p2416
(dp2417
g6
g2375
sg8
g9
(g13
S'\x00\x00\x00\x00\x00\x00&@'
p2418
tp2419
Rp2420
sg19
I0
sg20
g21
(S'\x07\xdd\t\x1d\x13\x0c&\x0b\xf7\x15'
p2421
tp2422
Rp2423
sg25
I0
sg26
g27
(g28
(I0
tp2424
g30
tp2425
Rp2426
(I1
(I2
tp2427
g36
I00
S'\x98\x00\x00\x00U\x00\x00\x00'
p2428
tp2429
bsba(i__main__
FrameData
p2430
(dp2431
g6
g2375
sg8
g9
(g13
S'H\xaa*\x8f9\x17&@'
p2432
tp2433
Rp2434
sg19
I0
sg20
g21
(S'\x07\xdd\t\x1d\x13\x0c&\x0c9o'
p2435
tp2436
Rp2437
sg25
I0
sg26
g27
(g28
(I0
tp2438
g30
tp2439
Rp2440
(I1
(I2
tp2441
g36
I00
S'\x99\x00\x00\x00U\x00\x00\x00'
p2442
tp2443
bsba(i__main__
FrameData
p2444
(dp2445
g6
g2375
sg8
g9
(g13
S'\xeb\x12\xb2\xbb\xb2\xcd&@'
p2446
tp2447
Rp2448
sg19
I0
sg20
g21
(S'\x07\xdd\t\x1d\x13\x0c&\x0cy\xa1'
p2449
tp2450
Rp2451
sg25
I0
sg26
g27
(g28
(I0
tp2452
g30
tp2453
Rp2454
(I1
(I2
tp2455
g36
I00
S'\x9b\x00\x00\x00U\x00\x00\x00'
p2456
tp2457
bsba(i__main__
FrameData
p2458
(dp2459
g6
g2375
sg8
g9
(g13
S"\xe0\x11<m\xceh'@"
p2460
tp2461
Rp2462
sg19
I0
sg20
g21
(S'\x07\xdd\t\x1d\x13\x0c&\x0c\xba\xdd'
p2463
tp2464
Rp2465
sg25
I0
sg26
g27
(g28
(I0
tp2466
g30
tp2467
Rp2468
(I1
(I2
tp2469
g36
I00
S'\x9c\x00\x00\x00U\x00\x00\x00'
p2470
tp2471
bsba(i__main__
FrameData
p2472
(dp2473
g6
g2375
sg8
g9
(g13
S'lNy\x00\x85*(@'
p2474
tp2475
Rp2476
sg19
I0
sg20
g21
(S'\x07\xdd\t\x1d\x13\x0c&\x0c\xfc:'
p2477
tp2478
Rp2479
sg25
I0
sg26
g27
(g28
(I0
tp2480
g30
tp2481
Rp2482
(I1
(I2
tp2483
g36
I00
S'\x9d\x00\x00\x00U\x00\x00\x00'
p2484
tp2485
bsba(i__main__
FrameData
p2486
(dp2487
g6
g2375
sg8
g9
(g13
S'\xe4\x10\xe4sW\x0f)@'
p2488
tp2489
Rp2490
sg19
I0
sg20
g21
(S'\x07\xdd\t\x1d\x13\x0c&\r>\xc5'
p2491
tp2492
Rp2493
sg25
I0
sg26
g27
(g28
(I0
tp2494
g30
tp2495
Rp2496
(I1
(I2
tp2497
g36
I00
S'\x9e\x00\x00\x00U\x00\x00\x00'
p2498
tp2499
bsba(i__main__
FrameData
p2500
(dp2501
g6
g2375
sg8
g9
(g13
S'\xef\rI\xf1\xf33+@'
p2502
tp2503
Rp2504
sg19
I0
sg20
g21
(S'\x07\xdd\t\x1d\x13\x0c&\r~\xd8'
p2505
tp2506
Rp2507
sg25
I0
sg26
g27
(g28
(I0
tp2508
g30
tp2509
Rp2510
(I1
(I2
tp2511
g36
I00
S'\xa0\x00\x00\x00U\x00\x00\x00'
p2512
tp2513
bsba(i__main__
FrameData
p2514
(dp2515
g6
g2375
sg8
g9
(g13
S'?*\x98"\xe3l,@'
p2516
tp2517
Rp2518
sg19
I0
sg20
g21
(S'\x07\xdd\t\x1d\x13\x0c&\r\xbbD'
p2519
tp2520
Rp2521
sg25
I0
sg26
g27
(g28
(I0
tp2522
g30
tp2523
Rp2524
(I1
(I2
tp2525
g36
I00
S'\xa1\x00\x00\x00U\x00\x00\x00'
p2526
tp2527
bsba(i__main__
FrameData
p2528
(dp2529
g6
g2375
sg8
g9
(g13
S'/\xa4\xe3\\m\xbb-@'
p2530
tp2531
Rp2532
sg19
I0
sg20
g21
(S'\x07\xdd\t\x1d\x13\x0c&\x0e\x01\x91'
p2533
tp2534
Rp2535
sg25
I0
sg26
g27
(g28
(I0
tp2536
g30
tp2537
Rp2538
(I1
(I2
tp2539
g36
I00
S'\xa2\x00\x00\x00U\x00\x00\x00'
p2540
tp2541
bsba(i__main__
FrameData
p2542
(dp2543
g6
g2375
sg8
g9
(g13
S'\x10\xb3]\xc9`G0@'
p2544
tp2545
Rp2546
sg19
I0
sg20
g21
(S'\x07\xdd\t\x1d\x13\x0c&\x0eAT'
p2547
tp2548
Rp2549
sg25
I0
sg26
g27
(g28
(I0
tp2550
g30
tp2551
Rp2552
(I1
(I2
tp2553
g36
I00
S'\xa4\x00\x00\x00U\x00\x00\x00'
p2554
tp2555
bsba(i__main__
FrameData
p2556
(dp2557
g6
S'i'
p2558
sg8
g9
(g13
S'\x0f\xab\xa8Q\xb6f0@'
p2559
tp2560
Rp2561
sg19
I0
sg20
g21
(S'\x07\xdd\t\x1d\x13\x0c&\x0e\x85,'
p2562
tp2563
Rp2564
sg25
I0
sg26
g27
(g28
(I0
tp2565
g30
tp2566
Rp2567
(I1
(I2
tp2568
g36
I00
S'\xa5\x00\x00\x00U\x00\x00\x00'
p2569
tp2570
bsba(i__main__
FrameData
p2571
(dp2572
g6
g2558
sg8
g9
(g13
S'htN\x17\xb2=/@'
p2573
tp2574
Rp2575
sg19
I0
sg20
g21
(S'\x07\xdd\t\x1d\x13\x0c&\x0e\xc0\xbf'
p2576
tp2577
Rp2578
sg25
I0
sg26
g27
(g28
(I0
tp2579
g30
tp2580
Rp2581
(I1
(I2
tp2582
g36
I00
S'\xa6\x00\x00\x00U\x00\x00\x00'
p2583
tp2584
bsba(i__main__
FrameData
p2585
(dp2586
g6
g2558
sg8
g9
(g13
S'/\xa4\xe3\\m\xbb-@'
p2587
tp2588
Rp2589
sg19
I0
sg20
g21
(S'\x07\xdd\t\x1d\x13\x0c&\x0f\x06\xaf'
p2590
tp2591
Rp2592
sg25
I0
sg26
g27
(g28
(I0
tp2593
g30
tp2594
Rp2595
(I1
(I2
tp2596
g36
I00
S'\xa7\x00\x00\x00U\x00\x00\x00'
p2597
tp2598
bsba(i__main__
FrameData
p2599
(dp2600
g6
g2558
sg8
g9
(g13
S'\xc0\n\x1f\x00\xc6H,@'
p2601
tp2602
Rp2603
sg19
I0
sg20
g21
(S"\x07\xdd\t\x1d\x13\x0c'\x00\x05\xc4"
p2604
tp2605
Rp2606
sg25
I0
sg26
g27
(g28
(I0
tp2607
g30
tp2608
Rp2609
(I1
(I2
tp2610
g36
I00
S'\xa8\x00\x00\x00U\x00\x00\x00'
p2611
tp2612
bsba(i__main__
FrameData
p2613
(dp2614
g6
g2558
sg8
g9
(g13
S'\xb4\xb8=iA\xe8*@'
p2615
tp2616
Rp2617
sg19
I0
sg20
g21
(S"\x07\xdd\t\x1d\x13\x0c'\x00B\xcd"
p2618
tp2619
Rp2620
sg25
I0
sg26
g27
(g28
(I0
tp2621
g30
tp2622
Rp2623
(I1
(I2
tp2624
g36
I00
S'\xa9\x00\x00\x00U\x00\x00\x00'
p2625
tp2626
bsba(i__main__
FrameData
p2627
(dp2628
g6
g2558
sg8
g9
(g13
S'\x00\xff\x9f\x99\xcc\x9c)@'
p2629
tp2630
Rp2631
sg19
I0
sg20
g21
(S"\x07\xdd\t\x1d\x13\x0c'\x00\x88P"
p2632
tp2633
Rp2634
sg25
I0
sg26
g27
(g28
(I0
tp2635
g30
tp2636
Rp2637
(I1
(I2
tp2638
g36
I00
S'\xaa\x00\x00\x00U\x00\x00\x00'
p2639
tp2640
bsba(i__main__
FrameData
p2641
(dp2642
g6
g2558
sg8
g9
(g13
S"\xa2\xa3\xb3\r\xe5R'@"
p2643
tp2644
Rp2645
sg19
I0
sg20
g21
(S"\x07\xdd\t\x1d\x13\x0c'\x00\xc9\x13"
p2646
tp2647
Rp2648
sg25
I0
sg26
g27
(g28
(I0
tp2649
g30
tp2650
Rp2651
(I1
(I2
tp2652
g36
I00
S'\xac\x00\x00\x00U\x00\x00\x00'
p2653
tp2654
bsba(i__main__
FrameData
p2655
(dp2656
g6
g2558
sg8
g9
(g13
S'\xd2\xf1}\x82U\\&@'
p2657
tp2658
Rp2659
sg19
I0
sg20
g21
(S"\x07\xdd\t\x1d\x13\x0c'\x01\n\x9d"
p2660
tp2661
Rp2662
sg25
I0
sg26
g27
(g28
(I0
tp2663
g30
tp2664
Rp2665
(I1
(I2
tp2666
g36
I00
S'\xad\x00\x00\x00U\x00\x00\x00'
p2667
tp2668
bsba(i__main__
FrameData
p2669
(dp2670
g6
g2558
sg8
g9
(g13
S'7\xf9\xcf\xdao\xe1$@'
p2671
tp2672
Rp2673
sg19
I0
sg20
g21
(S"\x07\xdd\t\x1d\x13\x0c'\x01K\x81"
p2674
tp2675
Rp2676
sg25
I0
sg26
g27
(g28
(I0
tp2677
g30
tp2678
Rp2679
(I1
(I2
tp2680
g36
I00
S'\xaf\x00\x00\x00U\x00\x00\x00'
p2681
tp2682
bsba(i__main__
FrameData
p2683
(dp2684
g6
g2558
sg8
g9
(g13
S'\x9a.\x90!hp"@'
p2685
tp2686
Rp2687
sg19
I0
sg20
g21
(S"\x07\xdd\t\x1d\x13\x0c'\x01\x8b\xff"
p2688
tp2689
Rp2690
sg25
I0
sg26
g27
(g28
(I0
tp2691
g30
tp2692
Rp2693
(I1
(I2
tp2694
g36
I00
S'\xb0\x00\x00\x00T\x00\x00\x00'
p2695
tp2696
bsba(i__main__
FrameData
p2697
(dp2698
g6
g2558
sg8
g9
(g13
S'\x00\x00\x00\x00\x00\x00"@'
p2699
tp2700
Rp2701
sg19
I0
sg20
g21
(S"\x07\xdd\t\x1d\x13\x0c'\x01\xc9\x1d"
p2702
tp2703
Rp2704
sg25
I0
sg26
g27
(g28
(I0
tp2705
g30
tp2706
Rp2707
(I1
(I2
tp2708
g36
I00
S'\xb2\x00\x00\x00T\x00\x00\x00'
p2709
tp2710
bsba(i__main__
FrameData
p2711
(dp2712
g6
g2558
sg8
g9
(g13
S'\x07\xed\xaff\x0f~ @'
p2713
tp2714
Rp2715
sg19
I0
sg20
g21
(S"\x07\xdd\t\x1d\x13\x0c'\x02\x10Y"
p2716
tp2717
Rp2718
sg25
I0
sg26
g27
(g28
(I0
tp2719
g30
tp2720
Rp2721
(I1
(I2
tp2722
g36
I00
S'\xb4\x00\x00\x00S\x00\x00\x00'
p2723
tp2724
bsba(i__main__
FrameData
p2725
(dp2726
g6
g2558
sg8
g9
(g13
S'\xa8\xf4\x97\x9bw\xe3!@'
p2727
tp2728
Rp2729
sg19
I0
sg20
g21
(S"\x07\xdd\t\x1d\x13\x0c'\x02Q\xaa"
p2730
tp2731
Rp2732
sg25
I0
sg26
g27
(g28
(I0
tp2733
g30
tp2734
Rp2735
(I1
(I2
tp2736
g36
I00
S'\xb6\x00\x00\x00S\x00\x00\x00'
p2737
tp2738
bsba(i__main__
FrameData
p2739
(dp2740
g6
g2558
sg8
g9
(g13
S'\x9a.\x90!hp"@'
p2741
tp2742
Rp2743
sg19
I0
sg20
g21
(S"\x07\xdd\t\x1d\x13\x0c'\x02\x94\x0b"
p2744
tp2745
Rp2746
sg25
I0
sg26
g27
(g28
(I0
tp2747
g30
tp2748
Rp2749
(I1
(I2
tp2750
g36
I00
S'\xb8\x00\x00\x00R\x00\x00\x00'
p2751
tp2752
bsba(i__main__
FrameData
p2753
(dp2754
g6
g2558
sg8
g9
(g13
S'\xeb\x12\xb2\xbb\xb2\xcd&@'
p2755
tp2756
Rp2757
sg19
I0
sg20
g21
(S"\x07\xdd\t\x1d\x13\x0c'\x02\xd4>"
p2758
tp2759
Rp2760
sg25
I0
sg26
g27
(g28
(I0
tp2761
g30
tp2762
Rp2763
(I1
(I2
tp2764
g36
I00
S'\xbb\x00\x00\x00R\x00\x00\x00'
p2765
tp2766
bsba(i__main__
FrameData
p2767
(dp2768
g6
g2558
sg8
g9
(g13
S'Qf\x99\xcb\xa9\x13*@'
p2769
tp2770
Rp2771
sg19
I0
sg20
g21
(S"\x07\xdd\t\x1d\x13\x0c'\x03P\x98"
p2772
tp2773
Rp2774
sg25
I0
sg26
g27
(g28
(I0
tp2775
g30
tp2776
Rp2777
(I1
(I2
tp2778
g36
I00
S'\xbd\x00\x00\x00R\x00\x00\x00'
p2779
tp2780
bsba(i__main__
FrameData
p2781
(dp2782
g6
g2558
sg8
g9
(g13
S'\xb9e(k\xee\xc8+@'
p2783
tp2784
Rp2785
sg19
I0
sg20
g21
(S"\x07\xdd\t\x1d\x13\x0c'\x03\x98t"
p2786
tp2787
Rp2788
sg25
I0
sg26
g27
(g28
(I0
tp2789
g30
tp2790
Rp2791
(I1
(I2
tp2792
g36
I00
S'\xbe\x00\x00\x00R\x00\x00\x00'
p2793
tp2794
bsba(i__main__
FrameData
p2795
(dp2796
g6
S'o'
p2797
sg8
g9
(g13
S'Qf\x99\xcb\xa9\x13*@'
p2798
tp2799
Rp2800
sg19
I0
sg20
g21
(S"\x07\xdd\t\x1d\x13\x0c'\x03\xd9\xbc"
p2801
tp2802
Rp2803
sg25
I0
sg26
g27
(g28
(I0
tp2804
g30
tp2805
Rp2806
(I1
(I2
tp2807
g36
I00
S'\xbf\x00\x00\x00R\x00\x00\x00'
p2808
tp2809
bsba(i__main__
FrameData
p2810
(dp2811
g6
g2797
sg8
g9
(g13
S'F\xc3\\\xa8\xc1i(@'
p2812
tp2813
Rp2814
sg19
I0
sg20
g21
(S"\x07\xdd\t\x1d\x13\x0c'\x04\x1b\x86"
p2815
tp2816
Rp2817
sg25
I0
sg26
g27
(g28
(I0
tp2818
g30
tp2819
Rp2820
(I1
(I2
tp2821
g36
I00
S'\xc0\x00\x00\x00R\x00\x00\x00'
p2822
tp2823
bsba(i__main__
FrameData
p2824
(dp2825
g6
g2797
sg8
g9
(g13
S'\xeb\x12\xb2\xbb\xb2\xcd&@'
p2826
tp2827
Rp2828
sg19
I0
sg20
g21
(S"\x07\xdd\t\x1d\x13\x0c'\x04\x97i"
p2829
tp2830
Rp2831
sg25
I0
sg26
g27
(g28
(I0
tp2832
g30
tp2833
Rp2834
(I1
(I2
tp2835
g36
I00
S'\xc1\x00\x00\x00R\x00\x00\x00'
p2836
tp2837
bsba(i__main__
FrameData
p2838
(dp2839
g6
g2797
sg8
g9
(g13
S'\x00\x00\x00\x00\x00\x00$@'
p2840
tp2841
Rp2842
sg19
I0
sg20
g21
(S"\x07\xdd\t\x1d\x13\x0c'\x04\xd8\x12"
p2843
tp2844
Rp2845
sg25
I0
sg26
g27
(g28
(I0
tp2846
g30
tp2847
Rp2848
(I1
(I2
tp2849
g36
I00
S'\xc2\x00\x00\x00Q\x00\x00\x00'
p2850
tp2851
bsba(i__main__
FrameData
p2852
(dp2853
g6
g2797
sg8
g9
(g13
S'\x9a.\x90!hp"@'
p2854
tp2855
Rp2856
sg19
I0
sg20
g21
(S"\x07\xdd\t\x1d\x13\x0c'\x05 5"
p2857
tp2858
Rp2859
sg25
I0
sg26
g27
(g28
(I0
tp2860
g30
tp2861
Rp2862
(I1
(I2
tp2863
g36
I00
S'\xc3\x00\x00\x00Q\x00\x00\x00'
p2864
tp2865
bsba(i__main__
FrameData
p2866
(dp2867
g6
g2797
sg8
g9
(g13
S'N\x017\xfac4!@'
p2868
tp2869
Rp2870
sg19
I0
sg20
g21
(S"\x07\xdd\t\x1d\x13\x0c'\x05\xa2\xd7"
p2871
tp2872
Rp2873
sg25
I0
sg26
g27
(g28
(I0
tp2874
g30
tp2875
Rp2876
(I1
(I2
tp2877
g36
I00
S'\xc3\x00\x00\x00P\x00\x00\x00'
p2878
tp2879
bsba(i__main__
FrameData
p2880
(dp2881
g6
g2797
sg8
g9
(g13
S'\xf3YaD+\xd8\x1c@'
p2882
tp2883
Rp2884
sg19
I0
sg20
g21
(S"\x07\xdd\t\x1d\x13\x0c'\x06_M"
p2885
tp2886
Rp2887
sg25
I0
sg26
g27
(g28
(I0
tp2888
g30
tp2889
Rp2890
(I1
(I2
tp2891
g36
I00
S'\xc4\x00\x00\x00O\x00\x00\x00'
p2892
tp2893
bsba(i__main__
FrameData
p2894
(dp2895
g6
g2797
sg8
g9
(g13
S'\x00\xff\x9f\x99\xcc\x9c\x19@'
p2896
tp2897
Rp2898
sg19
I0
sg20
g21
(S"\x07\xdd\t\x1d\x13\x0c'\x06\xa8-"
p2899
tp2900
Rp2901
sg25
I0
sg26
g27
(g28
(I0
tp2902
g30
tp2903
Rp2904
(I1
(I2
tp2905
g36
I00
S'\xc5\x00\x00\x00O\x00\x00\x00'
p2906
tp2907
bsba(i__main__
FrameData
p2908
(dp2909
g6
g2797
sg8
g9
(g13
S'\xa2\xa3\xb3\r\xe5R\x17@'
p2910
tp2911
Rp2912
sg19
I0
sg20
g21
(S"\x07\xdd\t\x1d\x13\x0c'\x06\xe9,"
p2913
tp2914
Rp2915
sg25
I0
sg26
g27
(g28
(I0
tp2916
g30
tp2917
Rp2918
(I1
(I2
tp2919
g36
I00
S'\xc5\x00\x00\x00N\x00\x00\x00'
p2920
tp2921
bsba(i__main__
FrameData
p2922
(dp2923
g6
g2797
sg8
g9
(g13
S'\x00\x00\x00\x00\x00\x00\x14@'
p2924
tp2925
Rp2926
sg19
I0
sg20
g21
(S"\x07\xdd\t\x1d\x13\x0c'\x07'X"
p2927
tp2928
Rp2929
sg25
I0
sg26
g27
(g28
(I0
tp2930
g30
tp2931
Rp2932
(I1
(I2
tp2933
g36
I00
S'\xc6\x00\x00\x00N\x00\x00\x00'
p2934
tp2935
bsba(i__main__
FrameData
p2936
(dp2937
g6
g2797
sg8
g9
(g13
S'\xf3YaD+\xd8\x0c@'
p2938
tp2939
Rp2940
sg19
I0
sg20
g21
(S"\x07\xdd\t\x1d\x13\x0c'\x07f\x0f"
p2941
tp2942
Rp2943
sg25
I0
sg26
g27
(g28
(I0
tp2944
g30
tp2945
Rp2946
(I1
(I2
tp2947
g36
I00
S'\xc7\x00\x00\x00M\x00\x00\x00'
p2948
tp2949
bsba(i__main__
FrameData
p2950
(dp2951
g6
g2797
sg8
g9
(g13
S'\xcd;\x7ff\x9e\xa0\x06@'
p2952
tp2953
Rp2954
sg19
I0
sg20
g21
(S"\x07\xdd\t\x1d\x13\x0c'\x07\xec\x1e"
p2955
tp2956
Rp2957
sg25
I0
sg26
g27
(g28
(I0
tp2958
g30
tp2959
Rp2960
(I1
(I2
tp2961
g36
I00
S'\xc8\x00\x00\x00M\x00\x00\x00'
p2962
tp2963
bsba(i__main__
FrameData
p2964
(dp2965
g6
g2797
sg8
g9
(g13
S'\x00\x00\x00\x00\x00\x00\x00@'
p2966
tp2967
Rp2968
sg19
I0
sg20
g21
(S"\x07\xdd\t\x1d\x13\x0c'\x080\x18"
p2969
tp2970
Rp2971
sg25
I0
sg26
g27
(g28
(I0
tp2972
g30
tp2973
Rp2974
(I1
(I2
tp2975
g36
I00
S'\xc8\x00\x00\x00K\x00\x00\x00'
p2976
tp2977
bsba(i__main__
FrameData
p2978
(dp2979
g6
g2797
sg8
g9
(g13
S'\x00\x00\x00\x00\x00\x00\xf0?'
p2980
tp2981
Rp2982
sg19
I0
sg20
g21
(S"\x07\xdd\t\x1d\x13\x0c'\x08qv"
p2983
tp2984
Rp2985
sg25
I0
sg26
g27
(g28
(I0
tp2986
g30
tp2987
Rp2988
(I1
(I2
tp2989
g36
I00
S'\xc9\x00\x00\x00K\x00\x00\x00'
p2990
tp2991
bsba(i__main__
FrameData
p2992
(dp2993
g6
g2797
sg8
g9
(g13
S'\xcd;\x7ff\x9e\xa0\xf6?'
p2994
tp2995
Rp2996
sg19
I0
sg20
g21
(S"\x07\xdd\t\x1d\x13\x0c'\x08\xb0R"
p2997
tp2998
Rp2999
sg25
I0
sg26
g27
(g28
(I0
tp3000
g30
tp3001
Rp3002
(I1
(I2
tp3003
g36
I00
S'\xc9\x00\x00\x00J\x00\x00\x00'
p3004
tp3005
bsba(i__main__
FrameData
p3006
(dp3007
g6
g2797
sg8
g9
(g13
S'\x00\x00\x00\x00\x00\x00\xf0?'
p3008
tp3009
Rp3010
sg19
I0
sg20
g21
(S"\x07\xdd\t\x1d\x13\x0c'\x08\xeb\xd2"
p3011
tp3012
Rp3013
sg25
I0
sg26
g27
(g28
(I0
tp3014
g30
tp3015
Rp3016
(I1
(I2
tp3017
g36
I00
S'\xca\x00\x00\x00J\x00\x00\x00'
p3018
tp3019
bsba(i__main__
FrameData
p3020
(dp3021
g6
g2797
sg8
g9
(g13
S'\x00\x00\x00\x00\x00\x00\x00@'
p3022
tp3023
Rp3024
sg19
I0
sg20
g21
(S"\x07\xdd\t\x1d\x13\x0c'\t5N"
p3025
tp3026
Rp3027
sg25
I0
sg26
g27
(g28
(I0
tp3028
g30
tp3029
Rp3030
(I1
(I2
tp3031
g36
I00
S'\xca\x00\x00\x00I\x00\x00\x00'
p3032
tp3033
bsba(i__main__
FrameData
p3034
(dp3035
g6
g2797
sg8
g9
(g13
S'\xa8\xf4\x97\x9bw\xe3\x01@'
p3036
tp3037
Rp3038
sg19
I0
sg20
g21
(S"\x07\xdd\t\x1d\x13\x0c'\ts\xdd"
p3039
tp3040
Rp3041
sg25
I0
sg26
g27
(g28
(I0
tp3042
g30
tp3043
Rp3044
(I1
(I2
tp3045
g36
I00
S'\xcb\x00\x00\x00I\x00\x00\x00'
p3046
tp3047
bsba(i__main__
FrameData
p3048
(dp3049
g6
g2797
sg8
g9
(g13
S'S[\xda:XL\t@'
p3050
tp3051
Rp3052
sg19
I0
sg20
g21
(S"\x07\xdd\t\x1d\x13\x0c'\t\xb7\xe9"
p3053
tp3054
Rp3055
sg25
I0
sg26
g27
(g28
(I0
tp3056
g30
tp3057
Rp3058
(I1
(I2
tp3059
g36
I00
S'\xcb\x00\x00\x00H\x00\x00\x00'
p3060
tp3061
bsba(i__main__
FrameData
p3062
(dp3063
g6
g2797
sg8
g9
(g13
S'\xf3YaD+\xd8\x0c@'
p3064
tp3065
Rp3066
sg19
I0
sg20
g21
(S"\x07\xdd\t\x1d\x13\x0c'\t\xf9/"
p3067
tp3068
Rp3069
sg25
I0
sg26
g27
(g28
(I0
tp3070
g30
tp3071
Rp3072
(I1
(I2
tp3073
g36
I00
S'\xcc\x00\x00\x00H\x00\x00\x00'
p3074
tp3075
bsba(i__main__
FrameData
p3076
(dp3077
g6
g2797
sg8
g9
(g13
S'S[\xda:XL\t@'
p3078
tp3079
Rp3080
sg19
I0
sg20
g21
(S'\x07\xdd\t\x1d\x13\x0c(\x00\x8b '
p3081
tp3082
Rp3083
sg25
I0
sg26
g27
(g28
(I0
tp3084
g30
tp3085
Rp3086
(I1
(I2
tp3087
g36
I00
S'\xcb\x00\x00\x00H\x00\x00\x00'
p3088
tp3089
bsba(i__main__
FrameData
p3090
(dp3091
g6
g2797
sg8
g9
(g13
S'\xa8\xf4\x97\x9bw\xe3\x01@'
p3092
tp3093
Rp3094
sg19
I0
sg20
g21
(S'\x07\xdd\t\x1d\x13\x0c(\x01\x0ft'
p3095
tp3096
Rp3097
sg25
I0
sg26
g27
(g28
(I0
tp3098
g30
tp3099
Rp3100
(I1
(I2
tp3101
g36
I00
S'\xcb\x00\x00\x00I\x00\x00\x00'
p3102
tp3103
bsba(i__main__
FrameData
p3104
(dp3105
g6
g2797
sg8
g9
(g13
S'\x00\x00\x00\x00\x00\x00\x00@'
p3106
tp3107
Rp3108
sg19
I0
sg20
g21
(S'\x07\xdd\t\x1d\x13\x0c(\x01ZJ'
p3109
tp3110
Rp3111
sg25
I0
sg26
g27
(g28
(I0
tp3112
g30
tp3113
Rp3114
(I1
(I2
tp3115
g36
I00
S'\xca\x00\x00\x00I\x00\x00\x00'
p3116
tp3117
bsba(i__main__
FrameData
p3118
(dp3119
g6
g2797
sg8
g9
(g13
S'\x00\x00\x00\x00\x00\x00\xf0?'
p3120
tp3121
Rp3122
sg19
I0
sg20
g21
(S'\x07\xdd\t\x1d\x13\x0c(\x01\x9a\x8f'
p3123
tp3124
Rp3125
sg25
I0
sg26
g27
(g28
(I0
tp3126
g30
tp3127
Rp3128
(I1
(I2
tp3129
g36
I00
S'\xca\x00\x00\x00J\x00\x00\x00'
p3130
tp3131
bsba(i__main__
FrameData
p3132
(dp3133
g6
g2797
sg8
g9
(g13
S'\xa8\xf4\x97\x9bw\xe3\x01@'
p3134
tp3135
Rp3136
sg19
I0
sg20
g21
(S'\x07\xdd\t\x1d\x13\x0c(\x01\xd2S'
p3137
tp3138
Rp3139
sg25
I0
sg26
g27
(g28
(I0
tp3140
g30
tp3141
Rp3142
(I1
(I2
tp3143
g36
I00
S'\xc8\x00\x00\x00J\x00\x00\x00'
p3144
tp3145
bsba(i__main__
FrameData
p3146
(dp3147
g6
g2797
sg8
g9
(g13
S'\x00\x00\x00\x00\x00\x00\x08@'
p3148
tp3149
Rp3150
sg19
I0
sg20
g21
(S'\x07\xdd\t\x1d\x13\x0c(\x02\x1dU'
p3151
tp3152
Rp3153
sg25
I0
sg26
g27
(g28
(I0
tp3154
g30
tp3155
Rp3156
(I1
(I2
tp3157
g36
I00
S'\xc7\x00\x00\x00K\x00\x00\x00'
p3158
tp3159
bsba(i__main__
FrameData
p3160
(dp3161
g6
g2797
sg8
g9
(g13
S'\x00\x00\x00\x00\x00\x00\x10@'
p3162
tp3163
Rp3164
sg19
I0
sg20
g21
(S'\x07\xdd\t\x1d\x13\x0c(\x02_\xad'
p3165
tp3166
Rp3167
sg25
I0
sg26
g27
(g28
(I0
tp3168
g30
tp3169
Rp3170
(I1
(I2
tp3171
g36
I00
S'\xc6\x00\x00\x00K\x00\x00\x00'
p3172
tp3173
bsba(i__main__
FrameData
p3174
(dp3175
g6
g2797
sg8
g9
(g13
S'\xa8\xf4\x97\x9bw\xe3\x11@'
p3176
tp3177
Rp3178
sg19
I0
sg20
g21
(S'\x07\xdd\t\x1d\x13\x0c(\x02\xa1\t'
p3179
tp3180
Rp3181
sg25
I0
sg26
g27
(g28
(I0
tp3182
g30
tp3183
Rp3184
(I1
(I2
tp3185
g36
I00
S'\xc6\x00\x00\x00M\x00\x00\x00'
p3186
tp3187
bsba(i__main__
FrameData
p3188
(dp3189
g6
g2797
sg8
g9
(g13
S'\xa2\xa3\xb3\r\xe5R\x17@'
p3190
tp3191
Rp3192
sg19
I0
sg20
g21
(S'\x07\xdd\t\x1d\x13\x0c(\x02\xe2y'
p3193
tp3194
Rp3195
sg25
I0
sg26
g27
(g28
(I0
tp3196
g30
tp3197
Rp3198
(I1
(I2
tp3199
g36
I00
S'\xc5\x00\x00\x00N\x00\x00\x00'
p3200
tp3201
bsba(i__main__
FrameData
p3202
(dp3203
g6
g2797
sg8
g9
(g13
S'\xf3YaD+\xd8\x1c@'
p3204
tp3205
Rp3206
sg19
I0
sg20
g21
(S'\x07\xdd\t\x1d\x13\x0c(\x03\x17X'
p3207
tp3208
Rp3209
sg25
I0
sg26
g27
(g28
(I0
tp3210
g30
tp3211
Rp3212
(I1
(I2
tp3213
g36
I00
S'\xc4\x00\x00\x00O\x00\x00\x00'
p3214
tp3215
bsba(i__main__
FrameData
p3216
(dp3217
g6
g2797
sg8
g9
(g13
S'\x00\x00\x00\x00\x00\x00$@'
p3218
tp3219
Rp3220
sg19
I0
sg20
g21
(S'\x07\xdd\t\x1d\x13\x0c(\x03a\x97'
p3221
tp3222
Rp3223
sg25
I0
sg26
g27
(g28
(I0
tp3224
g30
tp3225
Rp3226
(I1
(I2
tp3227
g36
I00
S'\xc2\x00\x00\x00Q\x00\x00\x00'
p3228
tp3229
bsba(i__main__
FrameData
p3230
(dp3231
g6
g2797
sg8
g9
(g13
S'&5w\xe2K\x15(@'
p3232
tp3233
Rp3234
sg19
I0
sg20
g21
(S'\x07\xdd\t\x1d\x13\x0c(\x03\xa6a'
p3235
tp3236
Rp3237
sg25
I0
sg26
g27
(g28
(I0
tp3238
g30
tp3239
Rp3240
(I1
(I2
tp3241
g36
I00
S'\xc1\x00\x00\x00S\x00\x00\x00'
p3242
tp3243
bsba(i__main__
FrameData
p3244
(dp3245
g6
g2797
sg8
g9
(g13
S'\xb4\xb8=iA\xe8*@'
p3246
tp3247
Rp3248
sg19
I0
sg20
g21
(S'\x07\xdd\t\x1d\x13\x0c(\x03\xda\xe3'
p3249
tp3250
Rp3251
sg25
I0
sg26
g27
(g28
(I0
tp3252
g30
tp3253
Rp3254
(I1
(I2
tp3255
g36
I00
S'\xc0\x00\x00\x00T\x00\x00\x00'
p3256
tp3257
bsba(i__main__
FrameData
p3258
(dp3259
g6
g2797
sg8
g9
(g13
S'/\xa4\xe3\\m\xbb-@'
p3260
tp3261
Rp3262
sg19
I0
sg20
g21
(S'\x07\xdd\t\x1d\x13\x0c(\x04\x1dj'
p3263
tp3264
Rp3265
sg25
I0
sg26
g27
(g28
(I0
tp3266
g30
tp3267
Rp3268
(I1
(I2
tp3269
g36
I00
S'\xbf\x00\x00\x00U\x00\x00\x00'
p3270
tp3271
bsba(i__main__
FrameData
p3272
(dp3273
g6
g2558
sg8
g9
(g13
S'\x10\xb3]\xc9`G0@'
p3274
tp3275
Rp3276
sg19
I0
sg20
g21
(S'\x07\xdd\t\x1d\x13\x0c(\x04`\x91'
p3277
tp3278
Rp3279
sg25
I0
sg26
g27
(g28
(I0
tp3280
g30
tp3281
Rp3282
(I1
(I2
tp3283
g36
I00
S'\xbe\x00\x00\x00V\x00\x00\x00'
p3284
tp3285
bsba(i__main__
FrameData
p3286
(dp3287
g6
g2558
sg8
g9
(g13
S'\x10\xb3]\xc9`G0@'
p3288
tp3289
Rp3290
sg19
I0
sg20
g21
(S'\x07\xdd\t\x1d\x13\x0c(\x04\x9f<'
p3291
tp3292
Rp3293
sg25
I0
sg26
g27
(g28
(I0
tp3294
g30
tp3295
Rp3296
(I1
(I2
tp3297
g36
I00
S'\xbd\x00\x00\x00W\x00\x00\x00'
p3298
tp3299
bsba(i__main__
FrameData
p3300
(dp3301
g6
g2558
sg8
g9
(g13
S'\xbf\x8f+\t\x89[2@'
p3302
tp3303
Rp3304
sg19
I0
sg20
g21
(S'\x07\xdd\t\x1d\x13\x0c(\x04\xedG'
p3305
tp3306
Rp3307
sg25
I0
sg26
g27
(g28
(I0
tp3308
g30
tp3309
Rp3310
(I1
(I2
tp3311
g36
I00
S'\xbb\x00\x00\x00[\x00\x00\x00'
p3312
tp3313
bsba(i__main__
FrameData
p3314
(dp3315
g6
g2558
sg8
g9
(g13
S'\xcey?\xdc\x9a?4@'
p3316
tp3317
Rp3318
sg19
I0
sg20
g21
(S'\x07\xdd\t\x1d\x13\x0c(\x05!\xa3'
p3319
tp3320
Rp3321
sg25
I0
sg26
g27
(g28
(I0
tp3322
g30
tp3323
Rp3324
(I1
(I2
tp3325
g36
I00
S'\xb9\x00\x00\x00^\x00\x00\x00'
p3326
tp3327
bsba(i__main__
FrameData
p3328
(dp3329
g6
S'k'
p3330
sg8
g9
(g13
S'\x00\x00\x00\x00\x00\x001@'
p3331
tp3332
Rp3333
sg19
I0
sg20
g21
(S'\x07\xdd\t\x1d\x13\x0c(\x05l\xa7'
p3334
tp3335
Rp3336
sg25
I0
sg26
g27
(g28
(I0
tp3337
g30
tp3338
Rp3339
(I1
(I2
tp3340
g36
I00
S'\xb6\x00\x00\x00c\x00\x00\x00'
p3341
tp3342
bsba(i__main__
FrameData
p3343
(dp3344
g6
g3330
sg8
g9
(g13
S'/\xa4\xe3\\m\xbb-@'
p3345
tp3346
Rp3347
sg19
I0
sg20
g21
(S'\x07\xdd\t\x1d\x13\x0c(\x05\xab\x0e'
p3348
tp3349
Rp3350
sg25
I0
sg26
g27
(g28
(I0
tp3351
g30
tp3352
Rp3353
(I1
(I2
tp3354
g36
I00
S'\xb4\x00\x00\x00g\x00\x00\x00'
p3355
tp3356
bsba(i__main__
FrameData
p3357
(dp3358
g6
g3330
sg8
g9
(g13
S'\xb4\xb8=iA\xe8*@'
p3359
tp3360
Rp3361
sg19
I0
sg20
g21
(S'\x07\xdd\t\x1d\x13\x0c(\x05\xe5\xf6'
p3362
tp3363
Rp3364
sg25
I0
sg26
g27
(g28
(I0
tp3365
g30
tp3366
Rp3367
(I1
(I2
tp3368
g36
I00
S'\xb4\x00\x00\x00i\x00\x00\x00'
p3369
tp3370
bsba(i__main__
FrameData
p3371
(dp3372
g6
g3330
sg8
g9
(g13
S'\xef\rI\xf1\xf33+@'
p3373
tp3374
Rp3375
sg19
I0
sg20
g21
(S'\x07\xdd\t\x1d\x13\x0c(\x064\xa7'
p3376
tp3377
Rp3378
sg25
I0
sg26
g27
(g28
(I0
tp3379
g30
tp3380
Rp3381
(I1
(I2
tp3382
g36
I00
S'\xb3\x00\x00\x00j\x00\x00\x00'
p3383
tp3384
bsba(i__main__
FrameData
p3385
(dp3386
g6
g3330
sg8
g9
(g13
S'\xe4\x10\xe4sW\x0f)@'
p3387
tp3388
Rp3389
sg19
I0
sg20
g21
(S'\x07\xdd\t\x1d\x13\x0c(\x06s\xd3'
p3390
tp3391
Rp3392
sg25
I0
sg26
g27
(g28
(I0
tp3393
g30
tp3394
Rp3395
(I1
(I2
tp3396
g36
I00
S'\xb3\x00\x00\x00l\x00\x00\x00'
p3397
tp3398
bsba(i__main__
FrameData
p3399
(dp3400
g6
S'j'
p3401
sg8
g9
(g13
S"\xe0\x11<m\xceh'@"
p3402
tp3403
Rp3404
sg19
I0
sg20
g21
(S'\x07\xdd\t\x1d\x13\x0c(\x06\xb6O'
p3405
tp3406
Rp3407
sg25
I0
sg26
g27
(g28
(I0
tp3408
g30
tp3409
Rp3410
(I1
(I2
tp3411
g36
I00
S'\xb2\x00\x00\x00n\x00\x00\x00'
p3412
tp3413
bsba(i__main__
FrameData
p3414
(dp3415
g6
g3401
sg8
g9
(g13
S'\xf6/\x12_ee$@'
p3416
tp3417
Rp3418
sg19
I0
sg20
g21
(S'\x07\xdd\t\x1d\x13\x0c(\x06\xea\xfd'
p3419
tp3420
Rp3421
sg25
I0
sg26
g27
(g28
(I0
tp3422
g30
tp3423
Rp3424
(I1
(I2
tp3425
g36
I00
S'\xb1\x00\x00\x00p\x00\x00\x00'
p3426
tp3427
bsba(i__main__
FrameData
p3428
(dp3429
g6
g3401
sg8
g9
(g13
S'$\xf8\xd9p[\x1c"@'
p3430
tp3431
Rp3432
sg19
I0
sg20
g21
(S'\x07\xdd\t\x1d\x13\x0c(\x078\xfa'
p3433
tp3434
Rp3435
sg25
I0
sg26
g27
(g28
(I0
tp3436
g30
tp3437
Rp3438
(I1
(I2
tp3439
g36
I00
S'\xb0\x00\x00\x00s\x00\x00\x00'
p3440
tp3441
bsba(i__main__
FrameData
p3442
(dp3443
g6
g3401
sg8
g9
(g13
S'\xa8\xf4\x97\x9bw\xe3!@'
p3444
tp3445
Rp3446
sg19
I0
sg20
g21
(S'\x07\xdd\t\x1d\x13\x0c(\x07}<'
p3447
tp3448
Rp3449
sg25
I0
sg26
g27
(g28
(I0
tp3450
g30
tp3451
Rp3452
(I1
(I2
tp3453
g36
I00
S'\xaf\x00\x00\x00v\x00\x00\x00'
p3454
tp3455
bsba(i__main__
FrameData
p3456
(dp3457
g6
g3401
sg8
g9
(g13
S'\x9a.\x90!hp"@'
p3458
tp3459
Rp3460
sg19
I0
sg20
g21
(S'\x07\xdd\t\x1d\x13\x0c(\x07\xba\xc5'
p3461
tp3462
Rp3463
sg25
I0
sg26
g27
(g28
(I0
tp3464
g30
tp3465
Rp3466
(I1
(I2
tp3467
g36
I00
S'\xae\x00\x00\x00x\x00\x00\x00'
p3468
tp3469
bsba(i__main__
FrameData
p3470
(dp3471
g6
g3401
sg8
g9
(g13
S'\x9a.\x90!hp"@'
p3472
tp3473
Rp3474
sg19
I0
sg20
g21
(S'\x07\xdd\t\x1d\x13\x0c(\x07\xef\xdd'
p3475
tp3476
Rp3477
sg25
I0
sg26
g27
(g28
(I0
tp3478
g30
tp3479
Rp3480
(I1
(I2
tp3481
g36
I00
S'\xad\x00\x00\x00y\x00\x00\x00'
p3482
tp3483
bsba(i__main__
FrameData
p3484
(dp3485
g6
g3401
sg8
g9
(g13
S'\xe4\x10\xe4sW\x0f)@'
p3486
tp3487
Rp3488
sg19
I0
sg20
g21
(S'\x07\xdd\t\x1d\x13\x0c(\x080\xb3'
p3489
tp3490
Rp3491
sg25
I0
sg26
g27
(g28
(I0
tp3492
g30
tp3493
Rp3494
(I1
(I2
tp3495
g36
I00
S'\xad\x00\x00\x00}\x00\x00\x00'
p3496
tp3497
bsba(i__main__
FrameData
p3498
(dp3499
g6
g3401
sg8
g9
(g13
S'\x00\x00\x00\x00\x00\x00*@'
p3500
tp3501
Rp3502
sg19
I0
sg20
g21
(S'\x07\xdd\t\x1d\x13\x0c(\x08rd'
p3503
tp3504
Rp3505
sg25
I0
sg26
g27
(g28
(I0
tp3506
g30
tp3507
Rp3508
(I1
(I2
tp3509
g36
I00
S'\xac\x00\x00\x00~\x00\x00\x00'
p3510
tp3511
bsba(i__main__
FrameData
p3512
(dp3513
g6
g3401
sg8
g9
(g13
S'\xbc\xfdP\xb5U\xdb+@'
p3514
tp3515
Rp3516
sg19
I0
sg20
g21
(S'\x07\xdd\t\x1d\x13\x0c(\x08\xbf\x8d'
p3517
tp3518
Rp3519
sg25
I0
sg26
g27
(g28
(I0
tp3520
g30
tp3521
Rp3522
(I1
(I2
tp3523
g36
I00
S'\xac\x00\x00\x00\x7f\x00\x00\x00'
p3524
tp3525
bsba(i__main__
FrameData
p3526
(dp3527
g6
g3401
sg8
g9
(g13
S'/\xa4\xe3\\m\xbb-@'
p3528
tp3529
Rp3530
sg19
I0
sg20
g21
(S'\x07\xdd\t\x1d\x13\x0c(\x08\xf6\x1a'
p3531
tp3532
Rp3533
sg25
I0
sg26
g27
(g28
(I0
tp3534
g30
tp3535
Rp3536
(I1
(I2
tp3537
g36
I00
S'\xac\x00\x00\x00\x80\x00\x00\x00'
p3538
tp3539
bsba(i__main__
FrameData
p3540
(dp3541
g6
g3401
sg8
g9
(g13
S'\xe9\xfbv \xd5\x1e-@'
p3542
tp3543
Rp3544
sg19
I0
sg20
g21
(S'\x07\xdd\t\x1d\x13\x0c(\tB}'
p3545
tp3546
Rp3547
sg25
I0
sg26
g27
(g28
(I0
tp3548
g30
tp3549
Rp3550
(I1
(I2
tp3551
g36
I00
S'\xab\x00\x00\x00\x80\x00\x00\x00'
p3552
tp3553
bsba(i__main__
FrameData
p3554
(dp3555
g6
g3401
sg8
g9
(g13
S'\x07\xed\xaff\x0f~0@'
p3556
tp3557
Rp3558
sg19
I0
sg20
g21
(S'\x07\xdd\t\x1d\x13\x0c(\tw|'
p3559
tp3560
Rp3561
sg25
I0
sg26
g27
(g28
(I0
tp3562
g30
tp3563
Rp3564
(I1
(I2
tp3565
g36
I00
S'\xab\x00\x00\x00\x82\x00\x00\x00'
p3566
tp3567
bsba(i__main__
FrameData
p3568
(dp3569
g6
g3401
sg8
g9
(g13
S'\xa8y\x0c\t\xd9v1@'
p3570
tp3571
Rp3572
sg19
I0
sg20
g21
(S'\x07\xdd\t\x1d\x13\x0c(\t\xb8\x01'
p3573
tp3574
Rp3575
sg25
I0
sg26
g27
(g28
(I0
tp3576
g30
tp3577
Rp3578
(I1
(I2
tp3579
g36
I00
S'\xab\x00\x00\x00\x83\x00\x00\x00'
p3580
tp3581
bsba(i__main__
FrameData
p3582
(dp3583
g6
g3401
sg8
g9
(g13
S'\x9a.\x90!hp2@'
p3584
tp3585
Rp3586
sg19
I0
sg20
g21
(S'\x07\xdd\t\x1d\x13\x0c(\t\xfaT'
p3587
tp3588
Rp3589
sg25
I0
sg26
g27
(g28
(I0
tp3590
g30
tp3591
Rp3592
(I1
(I2
tp3593
g36
I00
S'\xab\x00\x00\x00\x84\x00\x00\x00'
p3594
tp3595
bsba(i__main__
FrameData
p3596
(dp3597
g6
g3401
sg8
g9
(g13
S'\xc9\xe0>!B<3@'
p3598
tp3599
Rp3600
sg19
I0
sg20
g21
(S'\x07\xdd\t\x1d\x13\x0c(\n<\x18'
p3601
tp3602
Rp3603
sg25
I0
sg26
g27
(g28
(I0
tp3604
g30
tp3605
Rp3606
(I1
(I2
tp3607
g36
I00
S'\xaa\x00\x00\x00\x85\x00\x00\x00'
p3608
tp3609
bsba(i__main__
FrameData
p3610
(dp3611
g6
g3401
sg8
g9
(g13
S'\xbd\xec\x81\x93G94@'
p3612
tp3613
Rp3614
sg19
I0
sg20
g21
(S'\x07\xdd\t\x1d\x13\x0c(\n\x8a\r'
p3615
tp3616
Rp3617
sg25
I0
sg26
g27
(g28
(I0
tp3618
g30
tp3619
Rp3620
(I1
(I2
tp3621
g36
I00
S'\xaa\x00\x00\x00\x86\x00\x00\x00'
p3622
tp3623
bsba(i__main__
FrameData
p3624
(dp3625
g6
g3401
sg8
g9
(g13
S'\xf0)#L\x89\x194@'
p3626
tp3627
Rp3628
sg19
I0
sg20
g21
(S'\x07\xdd\t\x1d\x13\x0c(\n\xbf7'
p3629
tp3630
Rp3631
sg25
I0
sg26
g27
(g28
(I0
tp3632
g30
tp3633
Rp3634
(I1
(I2
tp3635
g36
I00
S'\xa9\x00\x00\x00\x86\x00\x00\x00'
p3636
tp3637
bsba(i__main__
FrameData
p3638
(dp3639
g6
S'n'
p3640
sg8
g9
(g13
S'\xc9\xe0>!B<3@'
p3641
tp3642
Rp3643
sg19
I0
sg20
g21
(S'\x07\xdd\t\x1d\x13\x0c(\n\xfe\xc6'
p3644
tp3645
Rp3646
sg25
I0
sg26
g27
(g28
(I0
tp3647
g30
tp3648
Rp3649
(I1
(I2
tp3650
g36
I00
S'\xa9\x00\x00\x00\x88\x00\x00\x00'
p3651
tp3652
bsba(i__main__
FrameData
p3653
(dp3654
g6
g3640
sg8
g9
(g13
S'\xbf\x8f+\t\x89[2@'
p3655
tp3656
Rp3657
sg19
I0
sg20
g21
(S'\x07\xdd\t\x1d\x13\x0c(\x0b@\xfc'
p3658
tp3659
Rp3660
sg25
I0
sg26
g27
(g28
(I0
tp3661
g30
tp3662
Rp3663
(I1
(I2
tp3664
g36
I00
S'\xa9\x00\x00\x00\x89\x00\x00\x00'
p3665
tp3666
bsba(i__main__
FrameData
p3667
(dp3668
g6
g3640
sg8
g9
(g13
S'\xb9\xbaF\xca+~1@'
p3669
tp3670
Rp3671
sg19
I0
sg20
g21
(S'\x07\xdd\t\x1d\x13\x0c(\x0b\x80\xef'
p3672
tp3673
Rp3674
sg25
I0
sg26
g27
(g28
(I0
tp3675
g30
tp3676
Rp3677
(I1
(I2
tp3678
g36
I00
S'\xa9\x00\x00\x00\x8a\x00\x00\x00'
p3679
tp3680
bsba(i__main__
FrameData
p3681
(dp3682
g6
g3640
sg8
g9
(g13
S'\xd0\xbaa?\xe0\x1f0@'
p3683
tp3684
Rp3685
sg19
I0
sg20
g21
(S'\x07\xdd\t\x1d\x13\x0c(\x0b\xcfz'
p3686
tp3687
Rp3688
sg25
I0
sg26
g27
(g28
(I0
tp3689
g30
tp3690
Rp3691
(I1
(I2
tp3692
g36
I00
S'\xa8\x00\x00\x00\x8b\x00\x00\x00'
p3693
tp3694
bsba(i__main__
FrameData
p3695
(dp3696
g6
g3640
sg8
g9
(g13
S'\xc5Bl?W\x87.@'
p3697
tp3698
Rp3699
sg19
I0
sg20
g21
(S'\x07\xdd\t\x1d\x13\x0c(\x0c\x05H'
p3700
tp3701
Rp3702
sg25
I0
sg26
g27
(g28
(I0
tp3703
g30
tp3704
Rp3705
(I1
(I2
tp3706
g36
I00
S'\xa8\x00\x00\x00\x8c\x00\x00\x00'
p3707
tp3708
bsba(i__main__
FrameData
p3709
(dp3710
g6
g3640
sg8
g9
(g13
S'\xef\rI\xf1\xf33+@'
p3711
tp3712
Rp3713
sg19
I0
sg20
g21
(S'\x07\xdd\t\x1d\x13\x0c(\x0cE('
p3714
tp3715
Rp3716
sg25
I0
sg26
g27
(g28
(I0
tp3717
g30
tp3718
Rp3719
(I1
(I2
tp3720
g36
I00
S'\xa8\x00\x00\x00\x8e\x00\x00\x00'
p3721
tp3722
bsba(i__main__
FrameData
p3723
(dp3724
g6
g3640
sg8
g9
(g13
S'\x00\xff\x9f\x99\xcc\x9c)@'
p3725
tp3726
Rp3727
sg19
I0
sg20
g21
(S'\x07\xdd\t\x1d\x13\x0c(\x0c\x87\xda'
p3728
tp3729
Rp3730
sg25
I0
sg26
g27
(g28
(I0
tp3731
g30
tp3732
Rp3733
(I1
(I2
tp3734
g36
I00
S'\xa8\x00\x00\x00\x8f\x00\x00\x00'
p3735
tp3736
bsba(i__main__
FrameData
p3737
(dp3738
g6
g3640
sg8
g9
(g13
S'\xcd;\x7ff\x9e\xa0&@'
p3739
tp3740
Rp3741
sg19
I0
sg20
g21
(S'\x07\xdd\t\x1d\x13\x0c(\x0c\xca\xd5'
p3742
tp3743
Rp3744
sg25
I0
sg26
g27
(g28
(I0
tp3745
g30
tp3746
Rp3747
(I1
(I2
tp3748
g36
I00
S'\xa8\x00\x00\x00\x91\x00\x00\x00'
p3749
tp3750
bsba(i__main__
FrameData
p3751
(dp3752
g6
g3640
sg8
g9
(g13
S'\x9a.\x90!hp"@'
p3753
tp3754
Rp3755
sg19
I0
sg20
g21
(S'\x07\xdd\t\x1d\x13\x0c(\r\x0c\xf2'
p3756
tp3757
Rp3758
sg25
I0
sg26
g27
(g28
(I0
tp3759
g30
tp3760
Rp3761
(I1
(I2
tp3762
g36
I00
S'\xa7\x00\x00\x00\x93\x00\x00\x00'
p3763
tp3764
bsba(i__main__
FrameData
p3765
(dp3766
g6
g3640
sg8
g9
(g13
S'N\x017\xfac4!@'
p3767
tp3768
Rp3769
sg19
I0
sg20
g21
(S'\x07\xdd\t\x1d\x13\x0c(\rI\xdf'
p3770
tp3771
Rp3772
sg25
I0
sg26
g27
(g28
(I0
tp3773
g30
tp3774
Rp3775
(I1
(I2
tp3776
g36
I00
S'\xa7\x00\x00\x00\x94\x00\x00\x00'
p3777
tp3778
bsba(i__main__
FrameData
p3779
(dp3780
g6
g3640
sg8
g9
(g13
S'\xc0\n\x1f\x00\xc6H\x1c@'
p3781
tp3782
Rp3783
sg19
I0
sg20
g21
(S'\x07\xdd\t\x1d\x13\x0c(\r\x8b\x1a'
p3784
tp3785
Rp3786
sg25
I0
sg26
g27
(g28
(I0
tp3787
g30
tp3788
Rp3789
(I1
(I2
tp3790
g36
I00
S'\xa5\x00\x00\x00\x94\x00\x00\x00'
p3791
tp3792
bsba(i__main__
FrameData
p3793
(dp3794
g6
g3640
sg8
g9
(g13
S'\x00\xff\x9f\x99\xcc\x9c\x19@'
p3795
tp3796
Rp3797
sg19
I0
sg20
g21
(S'\x07\xdd\t\x1d\x13\x0c(\r\xcdC'
p3798
tp3799
Rp3800
sg25
I0
sg26
g27
(g28
(I0
tp3801
g30
tp3802
Rp3803
(I1
(I2
tp3804
g36
I00
S'\xa5\x00\x00\x00\x95\x00\x00\x00'
p3805
tp3806
bsba(i__main__
FrameData
p3807
(dp3808
g6
g3640
sg8
g9
(g13
S'\xa2\xa3\xb3\r\xe5R\x17@'
p3809
tp3810
Rp3811
sg19
I0
sg20
g21
(S'\x07\xdd\t\x1d\x13\x0c(\x0e\r\xe2'
p3812
tp3813
Rp3814
sg25
I0
sg26
g27
(g28
(I0
tp3815
g30
tp3816
Rp3817
(I1
(I2
tp3818
g36
I00
S'\xa5\x00\x00\x00\x96\x00\x00\x00'
p3819
tp3820
bsba(i__main__
FrameData
p3821
(dp3822
g6
g3640
sg8
g9
(g13
S'S[\xda:XL\t@'
p3823
tp3824
Rp3825
sg19
I0
sg20
g21
(S'\x07\xdd\t\x1d\x13\x0c(\x0eQz'
p3826
tp3827
Rp3828
sg25
I0
sg26
g27
(g28
(I0
tp3829
g30
tp3830
Rp3831
(I1
(I2
tp3832
g36
I00
S'\xa3\x00\x00\x00\x98\x00\x00\x00'
p3833
tp3834
bsba(i__main__
FrameData
p3835
(dp3836
g6
g3640
sg8
g9
(g13
S'\x00\x00\x00\x00\x00\x00\x08@'
p3837
tp3838
Rp3839
sg19
I0
sg20
g21
(S'\x07\xdd\t\x1d\x13\x0c(\x0e\x8f\xb0'
p3840
tp3841
Rp3842
sg25
I0
sg26
g27
(g28
(I0
tp3843
g30
tp3844
Rp3845
(I1
(I2
tp3846
g36
I00
S'\xa3\x00\x00\x00\x99\x00\x00\x00'
p3847
tp3848
bsba(i__main__
FrameData
p3849
(dp3850
g6
g3640
sg8
g9
(g13
S'S[\xda:XL\t@'
p3851
tp3852
Rp3853
sg19
I0
sg20
g21
(S'\x07\xdd\t\x1d\x13\x0c(\x0e\xd1\xe3'
p3854
tp3855
Rp3856
sg25
I0
sg26
g27
(g28
(I0
tp3857
g30
tp3858
Rp3859
(I1
(I2
tp3860
g36
I00
S'\xa3\x00\x00\x00\x9a\x00\x00\x00'
p3861
tp3862
bsba(i__main__
FrameData
p3863
(dp3864
g6
g3640
sg8
g9
(g13
S'\xcd;\x7ff\x9e\xa0\x06@'
p3865
tp3866
Rp3867
sg19
I0
sg20
g21
(S'\x07\xdd\t\x1d\x13\x0c(\x0f\x11~'
p3868
tp3869
Rp3870
sg25
I0
sg26
g27
(g28
(I0
tp3871
g30
tp3872
Rp3873
(I1
(I2
tp3874
g36
I00
S'\xa2\x00\x00\x00\x9b\x00\x00\x00'
p3875
tp3876
bsba(i__main__
FrameData
p3877
(dp3878
g6
g3640
sg8
g9
(g13
S'\xf3YaD+\xd8\x0c@'
p3879
tp3880
Rp3881
sg19
I0
sg20
g21
(S'\x07\xdd\t\x1d\x13\x0c)\x00S"'
p3882
tp3883
Rp3884
sg25
I0
sg26
g27
(g28
(I0
tp3885
g30
tp3886
Rp3887
(I1
(I2
tp3888
g36
I00
S'\xa2\x00\x00\x00\x9c\x00\x00\x00'
p3889
tp3890
bsba(i__main__
FrameData
p3891
(dp3892
g6
g3640
sg8
g9
(g13
S'S[\xda:XL\t@'
p3893
tp3894
Rp3895
sg19
I0
sg20
g21
(S'\x07\xdd\t\x1d\x13\x0c)\x00\xd8\x10'
p3896
tp3897
Rp3898
sg25
I0
sg26
g27
(g28
(I0
tp3899
g30
tp3900
Rp3901
(I1
(I2
tp3902
g36
I00
S'\xa1\x00\x00\x00\x9c\x00\x00\x00'
p3903
tp3904
bsba(i__main__
FrameData
p3905
(dp3906
g6
g3640
sg8
g9
(g13
S'\x07\xed\xaff\x0f~\x10@'
p3907
tp3908
Rp3909
sg19
I0
sg20
g21
(S'\x07\xdd\t\x1d\x13\x0c)\x01\x16\x8a'
p3910
tp3911
Rp3912
sg25
I0
sg26
g27
(g28
(I0
tp3913
g30
tp3914
Rp3915
(I1
(I2
tp3916
g36
I00
S'\xa1\x00\x00\x00\x9d\x00\x00\x00'
p3917
tp3918
bsbasS'_fileName'
p3919
S'training/trajectory2013-09-29_19:12:26.390043'
p3920
sS'word'
p3921
S'crayon'
p3922
sb.