(i__main__
SwypeTrajectory
p0
(dp1
S'_frameDataList'
p2
(lp3
(i__main__
FrameData
p4
(dp5
S'closestLetter'
p6
S'b'
p7
sS'letterDistance'
p8
cnumpy.core.multiarray
scalar
p9
(cnumpy
dtype
p10
(S'f8'
p11
I0
I1
tp12
Rp13
(I3
S'<'
p14
NNNI-1
I-1
I0
tp15
bS'S[\xda:XL\t@'
p16
tp17
Rp18
sS'accel'
p19
I0
sS'time'
p20
cdatetime
datetime
p21
(S'\x07\xdd\t\x1d\x13\x132\x06[Z'
p22
tp23
Rp24
sS'velocity'
p25
I0
sS'position'
p26
cnumpy.core.multiarray
_reconstruct
p27
(cnumpy
ndarray
p28
(I0
tp29
g7
tp30
Rp31
(I1
(I2
tp32
g10
(S'i4'
p33
I0
I1
tp34
Rp35
(I3
S'<'
p36
NNNI-1
I-1
I0
tp37
bI00
S'\x89\x00\x00\x00\x9d\x00\x00\x00'
p38
tp39
bsba(i__main__
FrameData
p40
(dp41
g6
g7
sg8
g9
(g13
S'\x00\x00\x00\x00\x00\x00\x00@'
p42
tp43
Rp44
sg19
I0
sg20
g21
(S'\x07\xdd\t\x1d\x13\x132\x06\x981'
p45
tp46
Rp47
sg25
I0
sg26
g27
(g28
(I0
tp48
g7
tp49
Rp50
(I1
(I2
tp51
g35
I00
S'\x88\x00\x00\x00\x9c\x00\x00\x00'
p52
tp53
bsba(i__main__
FrameData
p54
(dp55
g6
g7
sg8
g9
(g13
S'\xa8\xf4\x97\x9bw\xe3\x11@'
p56
tp57
Rp58
sg19
I0
sg20
g21
(S'\x07\xdd\t\x1d\x13\x132\x06\xd8\xf8'
p59
tp60
Rp61
sg25
I0
sg26
g27
(g28
(I0
tp62
g7
tp63
Rp64
(I1
(I2
tp65
g35
I00
S'\x84\x00\x00\x00\x98\x00\x00\x00'
p66
tp67
bsba(i__main__
FrameData
p68
(dp69
g6
g7
sg8
g9
(g13
S'6\xd0\xd2x\xa2B%@'
p70
tp71
Rp72
sg19
I0
sg20
g21
(S'\x07\xdd\t\x1d\x13\x132\x07\x19\x10'
p73
tp74
Rp75
sg25
I0
sg26
g27
(g28
(I0
tp76
g7
tp77
Rp78
(I1
(I2
tp79
g35
I00
S'\x80\x00\x00\x00\x93\x00\x00\x00'
p80
tp81
bsba(i__main__
FrameData
p82
(dp83
g6
g7
sg8
g9
(g13
S'/\xa4\xe3\\m\xbb-@'
p84
tp85
Rp86
sg19
I0
sg20
g21
(S'\x07\xdd\t\x1d\x13\x132\x07^2'
p87
tp88
Rp89
sg25
I0
sg26
g27
(g28
(I0
tp90
g7
tp91
Rp92
(I1
(I2
tp93
g35
I00
S'}\x00\x00\x00\x90\x00\x00\x00'
p94
tp95
bsba(i__main__
FrameData
p96
(dp97
g6
S'v'
p98
sg8
g9
(g13
S'\x10\xb3]\xc9`G0@'
p99
tp100
Rp101
sg19
I0
sg20
g21
(S'\x07\xdd\t\x1d\x13\x132\x07\xa0\x1a'
p102
tp103
Rp104
sg25
I0
sg26
g27
(g28
(I0
tp105
g7
tp106
Rp107
(I1
(I2
tp108
g35
I00
S'|\x00\x00\x00\x8f\x00\x00\x00'
p109
tp110
bsba(i__main__
FrameData
p111
(dp112
g6
g98
sg8
g9
(g13
S"'\xf2\x90In\x9f/@"
p113
tp114
Rp115
sg19
I0
sg20
g21
(S'\x07\xdd\t\x1d\x13\x132\x07\xdf\xb5'
p116
tp117
Rp118
sg25
I0
sg26
g27
(g28
(I0
tp119
g7
tp120
Rp121
(I1
(I2
tp122
g35
I00
S'z\x00\x00\x00\x8e\x00\x00\x00'
p123
tp124
bsba(i__main__
FrameData
p125
(dp126
g6
g98
sg8
g9
(g13
S'\xa8y\x0c\t\xd9v1@'
p127
tp128
Rp129
sg19
I0
sg20
g21
(S'\x07\xdd\t\x1d\x13\x132\x08\x1e]'
p130
tp131
Rp132
sg25
I0
sg26
g27
(g28
(I0
tp133
g7
tp134
Rp135
(I1
(I2
tp136
g35
I00
S'x\x00\x00\x00\x8b\x00\x00\x00'
p137
tp138
bsba(i__main__
FrameData
p139
(dp140
g6
g98
sg8
g9
(g13
S'X(/\x84y\xae2@'
p141
tp142
Rp143
sg19
I0
sg20
g21
(S'\x07\xdd\t\x1d\x13\x132\x08b6'
p144
tp145
Rp146
sg25
I0
sg26
g27
(g28
(I0
tp147
g7
tp148
Rp149
(I1
(I2
tp150
g35
I00
S'v\x00\x00\x00\x89\x00\x00\x00'
p151
tp152
bsba(i__main__
FrameData
p153
(dp154
g6
g98
sg8
g9
(g13
S'\xf0)#L\x89\x194@'
p155
tp156
Rp157
sg19
I0
sg20
g21
(S'\x07\xdd\t\x1d\x13\x132\x08\xa5\x9d'
p158
tp159
Rp160
sg25
I0
sg26
g27
(g28
(I0
tp161
g7
tp162
Rp163
(I1
(I2
tp164
g35
I00
S's\x00\x00\x00\x87\x00\x00\x00'
p165
tp166
bsba(i__main__
FrameData
p167
(dp168
g6
g98
sg8
g9
(g13
S'\x00\x00\x00\x00\x00\x005@'
p169
tp170
Rp171
sg19
I0
sg20
g21
(S'\x07\xdd\t\x1d\x13\x132\x08\xe6Z'
p172
tp173
Rp174
sg25
I0
sg26
g27
(g28
(I0
tp175
g7
tp176
Rp177
(I1
(I2
tp178
g35
I00
S'q\x00\x00\x00\x86\x00\x00\x00'
p179
tp180
bsba(i__main__
FrameData
p181
(dp182
g6
S'g'
p183
sg8
g9
(g13
S'\x88\x80v\xd5\\\x974@'
p184
tp185
Rp186
sg19
I0
sg20
g21
(S'\x07\xdd\t\x1d\x13\x132\t#E'
p187
tp188
Rp189
sg25
I0
sg26
g27
(g28
(I0
tp190
g7
tp191
Rp192
(I1
(I2
tp193
g35
I00
S'n\x00\x00\x00\x84\x00\x00\x00'
p194
tp195
bsba(i__main__
FrameData
p196
(dp197
g6
g183
sg8
g9
(g13
S'\xcey?\xdc\x9a?4@'
p198
tp199
Rp200
sg19
I0
sg20
g21
(S'\x07\xdd\t\x1d\x13\x132\tg\xbf'
p201
tp202
Rp203
sg25
I0
sg26
g27
(g28
(I0
tp204
g7
tp205
Rp206
(I1
(I2
tp207
g35
I00
S'm\x00\x00\x00\x83\x00\x00\x00'
p208
tp209
bsba(i__main__
FrameData
p210
(dp211
g6
S'f'
p212
sg8
g9
(g13
S'\xc9\xe0>!B<3@'
p213
tp214
Rp215
sg19
I0
sg20
g21
(S'\x07\xdd\t\x1d\x13\x132\t\xa8\x9e'
p216
tp217
Rp218
sg25
I0
sg26
g27
(g28
(I0
tp219
g7
tp220
Rp221
(I1
(I2
tp222
g35
I00
S'i\x00\x00\x00\x83\x00\x00\x00'
p223
tp224
bsba(i__main__
FrameData
p225
(dp226
g6
g212
sg8
g9
(g13
S'\xa8\xf4\x97\x9bw\xe31@'
p227
tp228
Rp229
sg19
I0
sg20
g21
(S'\x07\xdd\t\x1d\x13\x132\t\xe6y'
p230
tp231
Rp232
sg25
I0
sg26
g27
(g28
(I0
tp233
g7
tp234
Rp235
(I1
(I2
tp236
g35
I00
S'h\x00\x00\x00\x82\x00\x00\x00'
p237
tp238
bsba(i__main__
FrameData
p239
(dp240
g6
g212
sg8
g9
(g13
S"v\xa3~{\xce'0@"
p241
tp242
Rp243
sg19
I0
sg20
g21
(S'\x07\xdd\t\x1d\x13\x132\n)\xfc'
p244
tp245
Rp246
sg25
I0
sg26
g27
(g28
(I0
tp247
g7
tp248
Rp249
(I1
(I2
tp250
g35
I00
S'f\x00\x00\x00\x81\x00\x00\x00'
p251
tp252
bsba(i__main__
FrameData
p253
(dp254
g6
g212
sg8
g9
(g13
S'\xf7\x80Aq\xb9\xa2,@'
p255
tp256
Rp257
sg19
I0
sg20
g21
(S'\x07\xdd\t\x1d\x13\x132\nj\xb3'
p258
tp259
Rp260
sg25
I0
sg26
g27
(g28
(I0
tp261
g7
tp262
Rp263
(I1
(I2
tp264
g35
I00
S'c\x00\x00\x00\x80\x00\x00\x00'
p265
tp266
bsba(i__main__
FrameData
p267
(dp268
g6
g212
sg8
g9
(g13
S')\x03\xec/C\x12,@'
p269
tp270
Rp271
sg19
I0
sg20
g21
(S'\x07\xdd\t\x1d\x13\x132\n\xac\x16'
p272
tp273
Rp274
sg25
I0
sg26
g27
(g28
(I0
tp275
g7
tp276
Rp277
(I1
(I2
tp278
g35
I00
S'a\x00\x00\x00\x80\x00\x00\x00'
p279
tp280
bsba(i__main__
FrameData
p281
(dp282
g6
g212
sg8
g9
(g13
S'\xde4\xda\xfeNN*@'
p283
tp284
Rp285
sg19
I0
sg20
g21
(S'\x07\xdd\t\x1d\x13\x132\n\xec.'
p286
tp287
Rp288
sg25
I0
sg26
g27
(g28
(I0
tp289
g7
tp290
Rp291
(I1
(I2
tp292
g35
I00
S'^\x00\x00\x00\x7f\x00\x00\x00'
p293
tp294
bsba(i__main__
FrameData
p295
(dp296
g6
g212
sg8
g9
(g13
S'\xe4\x10\xe4sW\x0f)@'
p297
tp298
Rp299
sg19
I0
sg20
g21
(S'\x07\xdd\t\x1d\x13\x132\x0b,\xd8'
p300
tp301
Rp302
sg25
I0
sg26
g27
(g28
(I0
tp303
g7
tp304
Rp305
(I1
(I2
tp306
g35
I00
S'Z\x00\x00\x00}\x00\x00\x00'
p307
tp308
bsba(i__main__
FrameData
p309
(dp310
g6
g212
sg8
g9
(g13
S'\xc0\n\x1f\x00\xc6H,@'
p311
tp312
Rp313
sg19
I0
sg20
g21
(S'\x07\xdd\t\x1d\x13\x132\x0bo\xba'
p314
tp315
Rp316
sg25
I0
sg26
g27
(g28
(I0
tp317
g7
tp318
Rp319
(I1
(I2
tp320
g35
I00
S'V\x00\x00\x00|\x00\x00\x00'
p321
tp322
bsba(i__main__
FrameData
p323
(dp324
g6
S'd'
p325
sg8
g9
(g13
S'\xc0\n\x1f\x00\xc6H,@'
p326
tp327
Rp328
sg19
I0
sg20
g21
(S'\x07\xdd\t\x1d\x13\x132\x0b\xb5\xe5'
p329
tp330
Rp331
sg25
I0
sg26
g27
(g28
(I0
tp332
g7
tp333
Rp334
(I1
(I2
tp335
g35
I00
S'S\x00\x00\x00{\x00\x00\x00'
p336
tp337
bsba(i__main__
FrameData
p338
(dp339
g6
g325
sg8
g9
(g13
S'\x00\xff\x9f\x99\xcc\x9c)@'
p340
tp341
Rp342
sg19
I0
sg20
g21
(S'\x07\xdd\t\x1d\x13\x132\x0b\xf6\xe1'
p343
tp344
Rp345
sg25
I0
sg26
g27
(g28
(I0
tp346
g7
tp347
Rp348
(I1
(I2
tp349
g35
I00
S'Q\x00\x00\x00{\x00\x00\x00'
p350
tp351
bsba(i__main__
FrameData
p352
(dp353
g6
g325
sg8
g9
(g13
S'\x88\x80v\xd5\\\x97$@'
p354
tp355
Rp356
sg19
I0
sg20
g21
(S'\x07\xdd\t\x1d\x13\x132\x0c3\xa5'
p357
tp358
Rp359
sg25
I0
sg26
g27
(g28
(I0
tp360
g7
tp361
Rp362
(I1
(I2
tp363
g35
I00
S'N\x00\x00\x00z\x00\x00\x00'
p364
tp365
bsba(i__main__
FrameData
p366
(dp367
g6
g325
sg8
g9
(g13
S'~\xc4#,B\xf9"@'
p368
tp369
Rp370
sg19
I0
sg20
g21
(S'\x07\xdd\t\x1d\x13\x132\x0cv\x92'
p371
tp372
Rp373
sg25
I0
sg26
g27
(g28
(I0
tp374
g7
tp375
Rp376
(I1
(I2
tp377
g35
I00
S'L\x00\x00\x00z\x00\x00\x00'
p378
tp379
bsba(i__main__
FrameData
p380
(dp381
g6
g325
sg8
g9
(g13
S'$\xf8\xd9p[\x1c"@'
p382
tp383
Rp384
sg19
I0
sg20
g21
(S'\x07\xdd\t\x1d\x13\x132\x0c\xb52'
p385
tp386
Rp387
sg25
I0
sg26
g27
(g28
(I0
tp388
g7
tp389
Rp390
(I1
(I2
tp391
g35
I00
S'J\x00\x00\x00z\x00\x00\x00'
p392
tp393
bsba(i__main__
FrameData
p394
(dp395
g6
g325
sg8
g9
(g13
S'$\xf8\xd9p[\x1c"@'
p396
tp397
Rp398
sg19
I0
sg20
g21
(S'\x07\xdd\t\x1d\x13\x132\x0c\xf6\xcb'
p399
tp400
Rp401
sg25
I0
sg26
g27
(g28
(I0
tp402
g7
tp403
Rp404
(I1
(I2
tp405
g35
I00
S'H\x00\x00\x00z\x00\x00\x00'
p406
tp407
bsba(i__main__
FrameData
p408
(dp409
g6
g325
sg8
g9
(g13
S'~\xc4#,B\xf9"@'
p410
tp411
Rp412
sg19
I0
sg20
g21
(S'\x07\xdd\t\x1d\x13\x132\r:\x13'
p413
tp414
Rp415
sg25
I0
sg26
g27
(g28
(I0
tp416
g7
tp417
Rp418
(I1
(I2
tp419
g35
I00
S'F\x00\x00\x00z\x00\x00\x00'
p420
tp421
bsba(i__main__
FrameData
p422
(dp423
g6
g325
sg8
g9
(g13
S'\x88\x80v\xd5\\\x97$@'
p424
tp425
Rp426
sg19
I0
sg20
g21
(S'\x07\xdd\t\x1d\x13\x132\r~\xa1'
p427
tp428
Rp429
sg25
I0
sg26
g27
(g28
(I0
tp430
g7
tp431
Rp432
(I1
(I2
tp433
g35
I00
S'D\x00\x00\x00z\x00\x00\x00'
p434
tp435
bsba(i__main__
FrameData
p436
(dp437
g6
g325
sg8
g9
(g13
S'w\x03Is \xa2%@'
p438
tp439
Rp440
sg19
I0
sg20
g21
(S'\x07\xdd\t\x1d\x13\x132\r\xbc\xd6'
p441
tp442
Rp443
sg25
I0
sg26
g27
(g28
(I0
tp444
g7
tp445
Rp446
(I1
(I2
tp447
g35
I00
S'C\x00\x00\x00z\x00\x00\x00'
p448
tp449
bsba(i__main__
FrameData
p450
(dp451
g6
g325
sg8
g9
(g13
S'6\xd0\xd2x\xa2B%@'
p452
tp453
Rp454
sg19
I0
sg20
g21
(S'\x07\xdd\t\x1d\x13\x132\r\xfcT'
p455
tp456
Rp457
sg25
I0
sg26
g27
(g28
(I0
tp458
g7
tp459
Rp460
(I1
(I2
tp461
g35
I00
S'A\x00\x00\x00x\x00\x00\x00'
p462
tp463
bsba(i__main__
FrameData
p464
(dp465
g6
g325
sg8
g9
(g13
S'F\xc3\\\xa8\xc1i(@'
p466
tp467
Rp468
sg19
I0
sg20
g21
(S'\x07\xdd\t\x1d\x13\x132\x0e@\xc4'
p469
tp470
Rp471
sg25
I0
sg26
g27
(g28
(I0
tp472
g7
tp473
Rp474
(I1
(I2
tp475
g35
I00
S'?\x00\x00\x00x\x00\x00\x00'
p476
tp477
bsba(i__main__
FrameData
p478
(dp479
g6
S's'
p480
sg8
g9
(g13
S'\xb9e(k\xee\xc8+@'
p481
tp482
Rp483
sg19
I0
sg20
g21
(S'\x07\xdd\t\x1d\x13\x132\x0e\x81z'
p484
tp485
Rp486
sg25
I0
sg26
g27
(g28
(I0
tp487
g7
tp488
Rp489
(I1
(I2
tp490
g35
I00
S'=\x00\x00\x00x\x00\x00\x00'
p491
tp492
bsba(i__main__
FrameData
p493
(dp494
g6
g480
sg8
g9
(g13
S"\xa2\xa3\xb3\r\xe5R'@"
p495
tp496
Rp497
sg19
I0
sg20
g21
(S'\x07\xdd\t\x1d\x13\x132\x0e\xbf\x84'
p498
tp499
Rp500
sg25
I0
sg26
g27
(g28
(I0
tp501
g7
tp502
Rp503
(I1
(I2
tp504
g35
I00
S';\x00\x00\x00w\x00\x00\x00'
p505
tp506
bsba(i__main__
FrameData
p507
(dp508
g6
g480
sg8
g9
(g13
S'\x9a.\x90!hp"@'
p509
tp510
Rp511
sg19
I0
sg20
g21
(S'\x07\xdd\t\x1d\x13\x132\x0e\xff.'
p512
tp513
Rp514
sg25
I0
sg26
g27
(g28
(I0
tp515
g7
tp516
Rp517
(I1
(I2
tp518
g35
I00
S'8\x00\x00\x00w\x00\x00\x00'
p519
tp520
bsba(i__main__
FrameData
p521
(dp522
g6
g480
sg8
g9
(g13
S'htN\x17\xb2=\x1f@'
p523
tp524
Rp525
sg19
I0
sg20
g21
(S'\x07\xdd\t\x1d\x13\x133\x00\x01w'
p526
tp527
Rp528
sg25
I0
sg26
g27
(g28
(I0
tp529
g7
tp530
Rp531
(I1
(I2
tp532
g35
I00
S'6\x00\x00\x00w\x00\x00\x00'
p533
tp534
bsba(i__main__
FrameData
p535
(dp536
g6
g480
sg8
g9
(g13
S'\xfc\xeeci3\xd5\x1a@'
p537
tp538
Rp539
sg19
I0
sg20
g21
(S'\x07\xdd\t\x1d\x13\x133\x00B?'
p540
tp541
Rp542
sg25
I0
sg26
g27
(g28
(I0
tp543
g7
tp544
Rp545
(I1
(I2
tp546
g35
I00
S'4\x00\x00\x00w\x00\x00\x00'
p547
tp548
bsba(i__main__
FrameData
p549
(dp550
g6
g480
sg8
g9
(g13
S'S[\xda:XL\x19@'
p551
tp552
Rp553
sg19
I0
sg20
g21
(S'\x07\xdd\t\x1d\x13\x133\x00\x81&'
p554
tp555
Rp556
sg25
I0
sg26
g27
(g28
(I0
tp557
g7
tp558
Rp559
(I1
(I2
tp560
g35
I00
S'3\x00\x00\x00w\x00\x00\x00'
p561
tp562
bsba(i__main__
FrameData
p563
(dp564
g6
g480
sg8
g9
(g13
S'\x00\x00\x00\x00\x00\x00\x18@'
p565
tp566
Rp567
sg19
I0
sg20
g21
(S'\x07\xdd\t\x1d\x13\x133\x00\xc4\xdf'
p568
tp569
Rp570
sg25
I0
sg26
g27
(g28
(I0
tp571
g7
tp572
Rp573
(I1
(I2
tp574
g35
I00
S'1\x00\x00\x00w\x00\x00\x00'
p575
tp576
bsba(i__main__
FrameData
p577
(dp578
g6
g480
sg8
g9
(g13
S'9\xdcc\xb3\xbfT\x18@'
p579
tp580
Rp581
sg19
I0
sg20
g21
(S'\x07\xdd\t\x1d\x13\x133\x01\x03\xe3'
p582
tp583
Rp584
sg25
I0
sg26
g27
(g28
(I0
tp585
g7
tp586
Rp587
(I1
(I2
tp588
g35
I00
S'0\x00\x00\x00w\x00\x00\x00'
p589
tp590
bsba(i__main__
FrameData
p591
(dp592
g6
g480
sg8
g9
(g13
S'\xfc\xeeci3\xd5\x1a@'
p593
tp594
Rp595
sg19
I0
sg20
g21
(S'\x07\xdd\t\x1d\x13\x133\x01H\xed'
p596
tp597
Rp598
sg25
I0
sg26
g27
(g28
(I0
tp599
g7
tp600
Rp601
(I1
(I2
tp602
g35
I00
S'.\x00\x00\x00w\x00\x00\x00'
p603
tp604
bsba(i__main__
FrameData
p605
(dp606
g6
g480
sg8
g9
(g13
S'htN\x17\xb2=\x1f@'
p607
tp608
Rp609
sg19
I0
sg20
g21
(S'\x07\xdd\t\x1d\x13\x133\x01\x89\xc7'
p610
tp611
Rp612
sg25
I0
sg26
g27
(g28
(I0
tp613
g7
tp614
Rp615
(I1
(I2
tp616
g35
I00
S',\x00\x00\x00w\x00\x00\x00'
p617
tp618
bsba(i__main__
FrameData
p619
(dp620
g6
g480
sg8
g9
(g13
S'\x9a.\x90!hp"@'
p621
tp622
Rp623
sg19
I0
sg20
g21
(S'\x07\xdd\t\x1d\x13\x133\x02\x0b '
p624
tp625
Rp626
sg25
I0
sg26
g27
(g28
(I0
tp627
g7
tp628
Rp629
(I1
(I2
tp630
g35
I00
S'*\x00\x00\x00w\x00\x00\x00'
p631
tp632
bsba(i__main__
FrameData
p633
(dp634
g6
g480
sg8
g9
(g13
S'\x00\x00\x00\x00\x00\x00$@'
p635
tp636
Rp637
sg19
I0
sg20
g21
(S'\x07\xdd\t\x1d\x13\x133\x02K\xcd'
p638
tp639
Rp640
sg25
I0
sg26
g27
(g28
(I0
tp641
g7
tp642
Rp643
(I1
(I2
tp644
g35
I00
S')\x00\x00\x00w\x00\x00\x00'
p645
tp646
bsba(i__main__
FrameData
p647
(dp648
g6
g480
sg8
g9
(g13
S'w\x03Is \xa2%@'
p649
tp650
Rp651
sg19
I0
sg20
g21
(S'\x07\xdd\t\x1d\x13\x133\x02\x8ba'
p652
tp653
Rp654
sg25
I0
sg26
g27
(g28
(I0
tp655
g7
tp656
Rp657
(I1
(I2
tp658
g35
I00
S'(\x00\x00\x00w\x00\x00\x00'
p659
tp660
bsba(i__main__
FrameData
p661
(dp662
g6
g480
sg8
g9
(g13
S"\xa2\xa3\xb3\r\xe5R'@"
p663
tp664
Rp665
sg19
I0
sg20
g21
(S'\x07\xdd\t\x1d\x13\x133\x02\xd1%'
p666
tp667
Rp668
sg25
I0
sg26
g27
(g28
(I0
tp669
g7
tp670
Rp671
(I1
(I2
tp672
g35
I00
S"'\x00\x00\x00w\x00\x00\x00"
p673
tp674
bsba(i__main__
FrameData
p675
(dp676
g6
g480
sg8
g9
(g13
S'\xfc\xeeci3\xd5*@'
p677
tp678
Rp679
sg19
I0
sg20
g21
(S'\x07\xdd\t\x1d\x13\x133\x03\x0fT'
p680
tp681
Rp682
sg25
I0
sg26
g27
(g28
(I0
tp683
g7
tp684
Rp685
(I1
(I2
tp686
g35
I00
S'%\x00\x00\x00w\x00\x00\x00'
p687
tp688
bsba(i__main__
FrameData
p689
(dp690
g6
S'a'
p691
sg8
g9
(g13
S'S[\xda:XL)@'
p692
tp693
Rp694
sg19
I0
sg20
g21
(S'\x07\xdd\t\x1d\x13\x133\x03O\xeb'
p695
tp696
Rp697
sg25
I0
sg26
g27
(g28
(I0
tp698
g7
tp699
Rp700
(I1
(I2
tp701
g35
I00
S'#\x00\x00\x00u\x00\x00\x00'
p702
tp703
bsba(i__main__
FrameData
p704
(dp705
g6
g691
sg8
g9
(g13
S'bVc}\x9d\xb2#@'
p706
tp707
Rp708
sg19
I0
sg20
g21
(S'\x07\xdd\t\x1d\x13\x133\x03\x97\x13'
p709
tp710
Rp711
sg25
I0
sg26
g27
(g28
(I0
tp712
g7
tp713
Rp714
(I1
(I2
tp715
g35
I00
S' \x00\x00\x00u\x00\x00\x00'
p716
tp717
bsba(i__main__
FrameData
p718
(dp719
g6
g691
sg8
g9
(g13
S'p\xc4\x9d9\x8dv\x1e@'
p720
tp721
Rp722
sg19
I0
sg20
g21
(S'\x07\xdd\t\x1d\x13\x133\x03\xd1\\'
p723
tp724
Rp725
sg25
I0
sg26
g27
(g28
(I0
tp726
g7
tp727
Rp728
(I1
(I2
tp729
g35
I00
S'\x1e\x00\x00\x00t\x00\x00\x00'
p730
tp731
bsba(i__main__
FrameData
p732
(dp733
g6
g691
sg8
g9
(g13
S'\xa2\xa3\xb3\r\xe5R\x17@'
p734
tp735
Rp736
sg19
I0
sg20
g21
(S'\x07\xdd\t\x1d\x13\x133\x04\x15\x0e'
p737
tp738
Rp739
sg25
I0
sg26
g27
(g28
(I0
tp740
g7
tp741
Rp742
(I1
(I2
tp743
g35
I00
S'\x1c\x00\x00\x00t\x00\x00\x00'
p744
tp745
bsba(i__main__
FrameData
p746
(dp747
g6
g691
sg8
g9
(g13
S'\x00\x00\x00\x00\x00\x00\x14@'
p748
tp749
Rp750
sg19
I0
sg20
g21
(S'\x07\xdd\t\x1d\x13\x133\x04UO'
p751
tp752
Rp753
sg25
I0
sg26
g27
(g28
(I0
tp754
g7
tp755
Rp756
(I1
(I2
tp757
g35
I00
S'\x1b\x00\x00\x00t\x00\x00\x00'
p758
tp759
bsba(i__main__
FrameData
p760
(dp761
g6
g691
sg8
g9
(g13
S'\xd9l\xdf\xccv\xf8\x10@'
p762
tp763
Rp764
sg19
I0
sg20
g21
(S'\x07\xdd\t\x1d\x13\x133\x04\x99\xdc'
p765
tp766
Rp767
sg25
I0
sg26
g27
(g28
(I0
tp768
g7
tp769
Rp770
(I1
(I2
tp771
g35
I00
S'\x1a\x00\x00\x00t\x00\x00\x00'
p772
tp773
bsba(i__main__
FrameData
p774
(dp775
g6
g691
sg8
g9
(g13
S'\xf3YaD+\xd8\x0c@'
p776
tp777
Rp778
sg19
I0
sg20
g21
(S'\x07\xdd\t\x1d\x13\x133\x04\xd6\x1f'
p779
tp780
Rp781
sg25
I0
sg26
g27
(g28
(I0
tp782
g7
tp783
Rp784
(I1
(I2
tp785
g35
I00
S'\x19\x00\x00\x00t\x00\x00\x00'
p786
tp787
bsba(i__main__
FrameData
p788
(dp789
g6
g691
sg8
g9
(g13
S'\xa8\xf4\x97\x9bw\xe3\x01@'
p790
tp791
Rp792
sg19
I0
sg20
g21
(S'\x07\xdd\t\x1d\x13\x133\x05\x175'
p793
tp794
Rp795
sg25
I0
sg26
g27
(g28
(I0
tp796
g7
tp797
Rp798
(I1
(I2
tp799
g35
I00
S'\x18\x00\x00\x00s\x00\x00\x00'
p800
tp801
bsba(i__main__
FrameData
p802
(dp803
g6
g691
sg8
g9
(g13
S'\x00\x00\x00\x00\x00\x00\x00@'
p804
tp805
Rp806
sg19
I0
sg20
g21
(S'\x07\xdd\t\x1d\x13\x133\x05\x9ah'
p807
tp808
Rp809
sg25
I0
sg26
g27
(g28
(I0
tp810
g7
tp811
Rp812
(I1
(I2
tp813
g35
I00
S'\x17\x00\x00\x00s\x00\x00\x00'
p814
tp815
bsba(i__main__
FrameData
p816
(dp817
g6
g691
sg8
g9
(g13
S'\xa8\xf4\x97\x9bw\xe3\x01@'
p818
tp819
Rp820
sg19
I0
sg20
g21
(S'\x07\xdd\t\x1d\x13\x133\tl\xaa'
p821
tp822
Rp823
sg25
I0
sg26
g27
(g28
(I0
tp824
g7
tp825
Rp826
(I1
(I2
tp827
g35
I00
S'\x18\x00\x00\x00s\x00\x00\x00'
p828
tp829
bsba(i__main__
FrameData
p830
(dp831
g6
g691
sg8
g9
(g13
S'\xcd;\x7ff\x9e\xa0\x06@'
p832
tp833
Rp834
sg19
I0
sg20
g21
(S'\x07\xdd\t\x1d\x13\x133\t\xaf\xda'
p835
tp836
Rp837
sg25
I0
sg26
g27
(g28
(I0
tp838
g7
tp839
Rp840
(I1
(I2
tp841
g35
I00
S'\x19\x00\x00\x00s\x00\x00\x00'
p842
tp843
bsba(i__main__
FrameData
p844
(dp845
g6
g691
sg8
g9
(g13
S'\xf3YaD+\xd8\x0c@'
p846
tp847
Rp848
sg19
I0
sg20
g21
(S'\x07\xdd\t\x1d\x13\x133\n1V'
p849
tp850
Rp851
sg25
I0
sg26
g27
(g28
(I0
tp852
g7
tp853
Rp854
(I1
(I2
tp855
g35
I00
S'\x1a\x00\x00\x00s\x00\x00\x00'
p856
tp857
bsba(i__main__
FrameData
p858
(dp859
g6
g691
sg8
g9
(g13
S'\xa8\xf4\x97\x9bw\xe3\x11@'
p860
tp861
Rp862
sg19
I0
sg20
g21
(S'\x07\xdd\t\x1d\x13\x133\nr\x07'
p863
tp864
Rp865
sg25
I0
sg26
g27
(g28
(I0
tp866
g7
tp867
Rp868
(I1
(I2
tp869
g35
I00
S'\x1b\x00\x00\x00s\x00\x00\x00'
p870
tp871
bsba(i__main__
FrameData
p872
(dp873
g6
g691
sg8
g9
(g13
S'\xf3\xd9\xa8\xa4h\x8a\x15@'
p874
tp875
Rp876
sg19
I0
sg20
g21
(S'\x07\xdd\t\x1d\x13\x133\n\xb2\xc8'
p877
tp878
Rp879
sg25
I0
sg26
g27
(g28
(I0
tp880
g7
tp881
Rp882
(I1
(I2
tp883
g35
I00
S'\x1c\x00\x00\x00s\x00\x00\x00'
p884
tp885
bsba(i__main__
FrameData
p886
(dp887
g6
g691
sg8
g9
(g13
S'\xe9\xfbv \xd5\x1e\x1d@'
p888
tp889
Rp890
sg19
I0
sg20
g21
(S'\x07\xdd\t\x1d\x13\x133\n\xf4\x9f'
p891
tp892
Rp893
sg25
I0
sg26
g27
(g28
(I0
tp894
g7
tp895
Rp896
(I1
(I2
tp897
g35
I00
S'\x1e\x00\x00\x00s\x00\x00\x00'
p898
tp899
bsba(i__main__
FrameData
p900
(dp901
g6
g480
sg8
g9
(g13
S'\x00\x00\x00\x00\x00\x00(@'
p902
tp903
Rp904
sg19
I0
sg20
g21
(S'\x07\xdd\t\x1d\x13\x133\x0b8\x0e'
p905
tp906
Rp907
sg25
I0
sg26
g27
(g28
(I0
tp908
g7
tp909
Rp910
(I1
(I2
tp911
g35
I00
S'%\x00\x00\x00q\x00\x00\x00'
p912
tp913
bsba(i__main__
FrameData
p914
(dp915
g6
g480
sg8
g9
(g13
S'S[\xda:XL\t@'
p916
tp917
Rp918
sg19
I0
sg20
g21
(S'\x07\xdd\t\x1d\x13\x133\x0bw\xce'
p919
tp920
Rp921
sg25
I0
sg26
g27
(g28
(I0
tp922
g7
tp923
Rp924
(I1
(I2
tp925
g35
I00
S'.\x00\x00\x00p\x00\x00\x00'
p926
tp927
bsba(i__main__
FrameData
p928
(dp929
g6
g480
sg8
g9
(g13
S'\x8a\xe3\x07\x1a\x17\xbd(@'
p930
tp931
Rp932
sg19
I0
sg20
g21
(S'\x07\xdd\t\x1d\x13\x133\x0b\xba\xaa'
p933
tp934
Rp935
sg25
I0
sg26
g27
(g28
(I0
tp936
g7
tp937
Rp938
(I1
(I2
tp939
g35
I00
S'=\x00\x00\x00n\x00\x00\x00'
p940
tp941
bsba(i__main__
FrameData
p942
(dp943
g6
g325
sg8
g9
(g13
S'\xf3\xd9\xa8\xa4h\x8a\x15@'
p944
tp945
Rp946
sg19
I0
sg20
g21
(S'\x07\xdd\t\x1d\x13\x133\x0b\xfak'
p947
tp948
Rp949
sg25
I0
sg26
g27
(g28
(I0
tp950
g7
tp951
Rp952
(I1
(I2
tp953
g35
I00
S'K\x00\x00\x00l\x00\x00\x00'
p954
tp955
bsba(i__main__
FrameData
p956
(dp957
g6
g212
sg8
g9
(g13
S'\xef\rI\xf1\xf33+@'
p958
tp959
Rp960
sg19
I0
sg20
g21
(S'\x07\xdd\t\x1d\x13\x133\x0c;0'
p961
tp962
Rp963
sg25
I0
sg26
g27
(g28
(I0
tp964
g7
tp965
Rp966
(I1
(I2
tp967
g35
I00
S'U\x00\x00\x00j\x00\x00\x00'
p968
tp969
bsba(i__main__
FrameData
p970
(dp971
g6
g212
sg8
g9
(g13
S'\xa8\xf4\x97\x9bw\xe3!@'
p972
tp973
Rp974
sg19
I0
sg20
g21
(S'\x07\xdd\t\x1d\x13\x133\x0c\x80\x8b'
p975
tp976
Rp977
sg25
I0
sg26
g27
(g28
(I0
tp978
g7
tp979
Rp980
(I1
(I2
tp981
g35
I00
S'\\\x00\x00\x00j\x00\x00\x00'
p982
tp983
bsba(i__main__
FrameData
p984
(dp985
g6
g212
sg8
g9
(g13
S'$\xf8\xd9p[\x1c"@'
p986
tp987
Rp988
sg19
I0
sg20
g21
(S'\x07\xdd\t\x1d\x13\x133\x0c\xbc\xbc'
p989
tp990
Rp991
sg25
I0
sg26
g27
(g28
(I0
tp992
g7
tp993
Rp994
(I1
(I2
tp995
g35
I00
S'_\x00\x00\x00i\x00\x00\x00'
p996
tp997
bsba(i__main__
FrameData
p998
(dp999
g6
g212
sg8
g9
(g13
S'\x9a.\x90!hp"@'
p1000
tp1001
Rp1002
sg19
I0
sg20
g21
(S'\x07\xdd\t\x1d\x13\x133\x0c\xfe<'
p1003
tp1004
Rp1005
sg25
I0
sg26
g27
(g28
(I0
tp1006
g7
tp1007
Rp1008
(I1
(I2
tp1009
g35
I00
S'b\x00\x00\x00i\x00\x00\x00'
p1010
tp1011
bsba(i__main__
FrameData
p1012
(dp1013
g6
g212
sg8
g9
(g13
S'7\xf9\xcf\xdao\xe1$@'
p1014
tp1015
Rp1016
sg19
I0
sg20
g21
(S'\x07\xdd\t\x1d\x13\x133\rB\xe1'
p1017
tp1018
Rp1019
sg25
I0
sg26
g27
(g28
(I0
tp1020
g7
tp1021
Rp1022
(I1
(I2
tp1023
g35
I00
S'c\x00\x00\x00h\x00\x00\x00'
p1024
tp1025
bsba(i__main__
FrameData
p1026
(dp1027
g6
g212
sg8
g9
(g13
S'\xd2\xf1}\x82U\\&@'
p1028
tp1029
Rp1030
sg19
I0
sg20
g21
(S'\x07\xdd\t\x1d\x13\x133\r\x86B'
p1031
tp1032
Rp1033
sg25
I0
sg26
g27
(g28
(I0
tp1034
g7
tp1035
Rp1036
(I1
(I2
tp1037
g35
I00
S'e\x00\x00\x00h\x00\x00\x00'
p1038
tp1039
bsba(i__main__
FrameData
p1040
(dp1041
g6
g212
sg8
g9
(g13
S'\xef\rI\xf1\xf33+@'
p1042
tp1043
Rp1044
sg19
I0
sg20
g21
(S'\x07\xdd\t\x1d\x13\x133\r\xc1\x96'
p1045
tp1046
Rp1047
sg25
I0
sg26
g27
(g28
(I0
tp1048
g7
tp1049
Rp1050
(I1
(I2
tp1051
g35
I00
S'h\x00\x00\x00g\x00\x00\x00'
p1052
tp1053
bsba(i__main__
FrameData
p1054
(dp1055
g6
g212
sg8
g9
(g13
S'\x10\xb3]\xc9`G0@'
p1056
tp1057
Rp1058
sg19
I0
sg20
g21
(S'\x07\xdd\t\x1d\x13\x133\x0e\x05F'
p1059
tp1060
Rp1061
sg25
I0
sg26
g27
(g28
(I0
tp1062
g7
tp1063
Rp1064
(I1
(I2
tp1065
g35
I00
S'k\x00\x00\x00f\x00\x00\x00'
p1066
tp1067
bsba(i__main__
FrameData
p1068
(dp1069
g6
g183
sg8
g9
(g13
S'\x10\xb3]\xc9`G0@'
p1070
tp1071
Rp1072
sg19
I0
sg20
g21
(S'\x07\xdd\t\x1d\x13\x133\x0eD\x95'
p1073
tp1074
Rp1075
sg25
I0
sg26
g27
(g28
(I0
tp1076
g7
tp1077
Rp1078
(I1
(I2
tp1079
g35
I00
S'm\x00\x00\x00f\x00\x00\x00'
p1080
tp1081
bsba(i__main__
FrameData
p1082
(dp1083
g6
g183
sg8
g9
(g13
S'\xc5Bl?W\x87.@'
p1084
tp1085
Rp1086
sg19
I0
sg20
g21
(S'\x07\xdd\t\x1d\x13\x133\x0e\x891'
p1087
tp1088
Rp1089
sg25
I0
sg26
g27
(g28
(I0
tp1090
g7
tp1091
Rp1092
(I1
(I2
tp1093
g35
I00
S'p\x00\x00\x00e\x00\x00\x00'
p1094
tp1095
bsba(i__main__
FrameData
p1096
(dp1097
g6
g183
sg8
g9
(g13
S'p\xc4\x9d9\x8dv.@'
p1098
tp1099
Rp1100
sg19
I0
sg20
g21
(S'\x07\xdd\t\x1d\x13\x133\x0e\xc7p'
p1101
tp1102
Rp1103
sg25
I0
sg26
g27
(g28
(I0
tp1104
g7
tp1105
Rp1106
(I1
(I2
tp1107
g35
I00
S'r\x00\x00\x00d\x00\x00\x00'
p1108
tp1109
bsba(i__main__
FrameData
p1110
(dp1111
g6
g183
sg8
g9
(g13
S'\xb3\xa73\xa0`\x0c/@'
p1112
tp1113
Rp1114
sg19
I0
sg20
g21
(S'\x07\xdd\t\x1d\x13\x133\x0f\x07\xfa'
p1115
tp1116
Rp1117
sg25
I0
sg26
g27
(g28
(I0
tp1118
g7
tp1119
Rp1120
(I1
(I2
tp1121
g35
I00
S't\x00\x00\x00c\x00\x00\x00'
p1122
tp1123
bsba(i__main__
FrameData
p1124
(dp1125
g6
g183
sg8
g9
(g13
S'p`\xff\x00\xfe\x070@'
p1126
tp1127
Rp1128
sg19
I0
sg20
g21
(S'\x07\xdd\t\x1d\x13\x134\x00\x0c\xce'
p1129
tp1130
Rp1131
sg25
I0
sg26
g27
(g28
(I0
tp1132
g7
tp1133
Rp1134
(I1
(I2
tp1135
g35
I00
S'w\x00\x00\x00b\x00\x00\x00'
p1136
tp1137
bsba(i__main__
FrameData
p1138
(dp1139
g6
g183
sg8
g9
(g13
S')\x9ah\xdd\x85\x071@'
p1140
tp1141
Rp1142
sg19
I0
sg20
g21
(S'\x07\xdd\t\x1d\x13\x134\x00I}'
p1143
tp1144
Rp1145
sg25
I0
sg26
g27
(g28
(I0
tp1146
g7
tp1147
Rp1148
(I1
(I2
tp1149
g35
I00
S'y\x00\x00\x00a\x00\x00\x00'
p1150
tp1151
bsba(i__main__
FrameData
p1152
(dp1153
g6
g183
sg8
g9
(g13
S'\x9a.\x90!hp2@'
p1154
tp1155
Rp1156
sg19
I0
sg20
g21
(S'\x07\xdd\t\x1d\x13\x134\x00\x8eP'
p1157
tp1158
Rp1159
sg25
I0
sg26
g27
(g28
(I0
tp1160
g7
tp1161
Rp1162
(I1
(I2
tp1163
g35
I00
S'|\x00\x00\x00`\x00\x00\x00'
p1164
tp1165
bsba(i__main__
FrameData
p1166
(dp1167
g6
S'y'
p1168
sg8
g9
(g13
S'+\xe5\x8a\xc6\x8f?2@'
p1169
tp1170
Rp1171
sg19
I0
sg20
g21
(S'\x07\xdd\t\x1d\x13\x134\x00\xcb<'
p1172
tp1173
Rp1174
sg25
I0
sg26
g27
(g28
(I0
tp1175
g7
tp1176
Rp1177
(I1
(I2
tp1178
g35
I00
S'\x7f\x00\x00\x00_\x00\x00\x00'
p1179
tp1180
bsba(i__main__
FrameData
p1181
(dp1182
g6
g1168
sg8
g9
(g13
S'8\xd8\xbc\n\x1b\x072@'
p1183
tp1184
Rp1185
sg19
I0
sg20
g21
(S'\x07\xdd\t\x1d\x13\x134\x01\r\x0c'
p1186
tp1187
Rp1188
sg25
I0
sg26
g27
(g28
(I0
tp1189
g7
tp1190
Rp1191
(I1
(I2
tp1192
g35
I00
S'\x81\x00\x00\x00_\x00\x00\x00'
p1193
tp1194
bsba(i__main__
FrameData
p1195
(dp1196
g6
g1168
sg8
g9
(g13
S')\x9ah\xdd\x85\x071@'
p1197
tp1198
Rp1199
sg19
I0
sg20
g21
(S'\x07\xdd\t\x1d\x13\x134\x01L\xb2'
p1200
tp1201
Rp1202
sg25
I0
sg26
g27
(g28
(I0
tp1203
g7
tp1204
Rp1205
(I1
(I2
tp1206
g35
I00
S'\x83\x00\x00\x00^\x00\x00\x00'
p1207
tp1208
bsba(i__main__
FrameData
p1209
(dp1210
g6
g1168
sg8
g9
(g13
S'\xf2G\x9b\x0e\x18\x98.@'
p1211
tp1212
Rp1213
sg19
I0
sg20
g21
(S'\x07\xdd\t\x1d\x13\x134\x01\x91!'
p1214
tp1215
Rp1216
sg25
I0
sg26
g27
(g28
(I0
tp1217
g7
tp1218
Rp1219
(I1
(I2
tp1220
g35
I00
S'\x85\x00\x00\x00\\\x00\x00\x00'
p1221
tp1222
bsba(i__main__
FrameData
p1223
(dp1224
g6
g1168
sg8
g9
(g13
S"'\xf2\x90In\x9f/@"
p1225
tp1226
Rp1227
sg19
I0
sg20
g21
(S'\x07\xdd\t\x1d\x13\x134\x01\xcf|'
p1228
tp1229
Rp1230
sg25
I0
sg26
g27
(g28
(I0
tp1231
g7
tp1232
Rp1233
(I1
(I2
tp1234
g35
I00
S'\x87\x00\x00\x00\\\x00\x00\x00'
p1235
tp1236
bsba(i__main__
FrameData
p1237
(dp1238
g6
g1168
sg8
g9
(g13
S'&\xecIP\x11N/@'
p1239
tp1240
Rp1241
sg19
I0
sg20
g21
(S'\x07\xdd\t\x1d\x13\x134\x02\x12\x9f'
p1242
tp1243
Rp1244
sg25
I0
sg26
g27
(g28
(I0
tp1245
g7
tp1246
Rp1247
(I1
(I2
tp1248
g35
I00
S'\x89\x00\x00\x00[\x00\x00\x00'
p1249
tp1250
bsba(i__main__
FrameData
p1251
(dp1252
g6
g1168
sg8
g9
(g13
S"'\xf2\x90In\x9f/@"
p1253
tp1254
Rp1255
sg19
I0
sg20
g21
(S'\x07\xdd\t\x1d\x13\x134\x02SN'
p1256
tp1257
Rp1258
sg25
I0
sg26
g27
(g28
(I0
tp1259
g7
tp1260
Rp1261
(I1
(I2
tp1262
g35
I00
S'\x8b\x00\x00\x00Z\x00\x00\x00'
p1263
tp1264
bsba(i__main__
FrameData
p1265
(dp1266
g6
g1168
sg8
g9
(g13
S'\x10\xb3]\xc9`G0@'
p1267
tp1268
Rp1269
sg19
I0
sg20
g21
(S'\x07\xdd\t\x1d\x13\x134\x02\x95\xef'
p1270
tp1271
Rp1272
sg25
I0
sg26
g27
(g28
(I0
tp1273
g7
tp1274
Rp1275
(I1
(I2
tp1276
g35
I00
S'\x8d\x00\x00\x00Y\x00\x00\x00'
p1277
tp1278
bsba(i__main__
FrameData
p1279
(dp1280
g6
S'u'
p1281
sg8
g9
(g13
S"'\xf2\x90In\x9f/@"
p1282
tp1283
Rp1284
sg19
I0
sg20
g21
(S'\x07\xdd\t\x1d\x13\x134\x02\xd8\xab'
p1285
tp1286
Rp1287
sg25
I0
sg26
g27
(g28
(I0
tp1288
g7
tp1289
Rp1290
(I1
(I2
tp1291
g35
I00
S'\x8f\x00\x00\x00W\x00\x00\x00'
p1292
tp1293
bsba(i__main__
FrameData
p1294
(dp1295
g6
g1281
sg8
g9
(g13
S'\xb9e(k\xee\xc8+@'
p1296
tp1297
Rp1298
sg19
I0
sg20
g21
(S'\x07\xdd\t\x1d\x13\x134\x03\x15`'
p1299
tp1300
Rp1301
sg25
I0
sg26
g27
(g28
(I0
tp1302
g7
tp1303
Rp1304
(I1
(I2
tp1305
g35
I00
S'\x91\x00\x00\x00V\x00\x00\x00'
p1306
tp1307
bsba(i__main__
FrameData
p1308
(dp1309
g6
g1281
sg8
g9
(g13
S'\xf3\xd9\xa8\xa4h\x8a%@'
p1310
tp1311
Rp1312
sg19
I0
sg20
g21
(S'\x07\xdd\t\x1d\x13\x134\x03WD'
p1313
tp1314
Rp1315
sg25
I0
sg26
g27
(g28
(I0
tp1316
g7
tp1317
Rp1318
(I1
(I2
tp1319
g35
I00
S'\x94\x00\x00\x00T\x00\x00\x00'
p1320
tp1321
bsba(i__main__
FrameData
p1322
(dp1323
g6
g1281
sg8
g9
(g13
S'\x00\x00\x00\x00\x00\x00 @'
p1324
tp1325
Rp1326
sg19
I0
sg20
g21
(S'\x07\xdd\t\x1d\x13\x134\x03\x9a\xa9'
p1327
tp1328
Rp1329
sg25
I0
sg26
g27
(g28
(I0
tp1330
g7
tp1331
Rp1332
(I1
(I2
tp1333
g35
I00
S'\x98\x00\x00\x00R\x00\x00\x00'
p1334
tp1335
bsba(i__main__
FrameData
p1336
(dp1337
g6
g1281
sg8
g9
(g13
S'\x07\xed\xaff\x0f~ @'
p1338
tp1339
Rp1340
sg19
I0
sg20
g21
(S'\x07\xdd\t\x1d\x13\x134\x03\xdb^'
p1341
tp1342
Rp1343
sg25
I0
sg26
g27
(g28
(I0
tp1344
g7
tp1345
Rp1346
(I1
(I2
tp1347
g35
I00
S'\x9a\x00\x00\x00R\x00\x00\x00'
p1348
tp1349
bsba(i__main__
FrameData
p1350
(dp1351
g6
g1281
sg8
g9
(g13
S'p\xc4\x9d9\x8dv\x1e@'
p1352
tp1353
Rp1354
sg19
I0
sg20
g21
(S'\x07\xdd\t\x1d\x13\x134\x04\x1d#'
p1355
tp1356
Rp1357
sg25
I0
sg26
g27
(g28
(I0
tp1358
g7
tp1359
Rp1360
(I1
(I2
tp1361
g35
I00
S'\x9b\x00\x00\x00Q\x00\x00\x00'
p1362
tp1363
bsba(i__main__
FrameData
p1364
(dp1365
g6
g1281
sg8
g9
(g13
S'\xf3YaD+\xd8\x1c@'
p1366
tp1367
Rp1368
sg19
I0
sg20
g21
(S'\x07\xdd\t\x1d\x13\x134\x04`\x95'
p1369
tp1370
Rp1371
sg25
I0
sg26
g27
(g28
(I0
tp1372
g7
tp1373
Rp1374
(I1
(I2
tp1375
g35
I00
S'\x9c\x00\x00\x00P\x00\x00\x00'
p1376
tp1377
bsba(i__main__
FrameData
p1378
(dp1379
g6
g1281
sg8
g9
(g13
S'htN\x17\xb2=\x1f@'
p1380
tp1381
Rp1382
sg19
I0
sg20
g21
(S'\x07\xdd\t\x1d\x13\x134\x04\x9df'
p1383
tp1384
Rp1385
sg25
I0
sg26
g27
(g28
(I0
tp1386
g7
tp1387
Rp1388
(I1
(I2
tp1389
g35
I00
S'\x9d\x00\x00\x00P\x00\x00\x00'
p1390
tp1391
bsba(i__main__
FrameData
p1392
(dp1393
g6
g1281
sg8
g9
(g13
S'\x00\xff\x9f\x99\xcc\x9c\x19@'
p1394
tp1395
Rp1396
sg19
I0
sg20
g21
(S'\x07\xdd\t\x1d\x13\x134\x04\xdfP'
p1397
tp1398
Rp1399
sg25
I0
sg26
g27
(g28
(I0
tp1400
g7
tp1401
Rp1402
(I1
(I2
tp1403
g35
I00
S'\x9d\x00\x00\x00N\x00\x00\x00'
p1404
tp1405
bsba(i__main__
FrameData
p1406
(dp1407
g6
g1281
sg8
g9
(g13
S'\xf3YaD+\xd8\x1c@'
p1408
tp1409
Rp1410
sg19
I0
sg20
g21
(S'\x07\xdd\t\x1d\x13\x134\x05"\xe7'
p1411
tp1412
Rp1413
sg25
I0
sg26
g27
(g28
(I0
tp1414
g7
tp1415
Rp1416
(I1
(I2
tp1417
g35
I00
S'\x9e\x00\x00\x00N\x00\x00\x00'
p1418
tp1419
bsba(i__main__
FrameData
p1420
(dp1421
g6
g1281
sg8
g9
(g13
S'\x07\xed\xaff\x0f~ @'
p1422
tp1423
Rp1424
sg19
I0
sg20
g21
(S'\x07\xdd\t\x1d\x13\x134\x05b\xba'
p1425
tp1426
Rp1427
sg25
I0
sg26
g27
(g28
(I0
tp1428
g7
tp1429
Rp1430
(I1
(I2
tp1431
g35
I00
S'\xa0\x00\x00\x00L\x00\x00\x00'
p1432
tp1433
bsba(i__main__
FrameData
p1434
(dp1435
g6
g1281
sg8
g9
(g13
S'\x9a.\x90!hp"@'
p1436
tp1437
Rp1438
sg19
I0
sg20
g21
(S'\x07\xdd\t\x1d\x13\x134\x05\xa2\x9c'
p1439
tp1440
Rp1441
sg25
I0
sg26
g27
(g28
(I0
tp1442
g7
tp1443
Rp1444
(I1
(I2
tp1445
g35
I00
S'\xa1\x00\x00\x00L\x00\x00\x00'
p1446
tp1447
bsba(i__main__
FrameData
p1448
(dp1449
g6
g1281
sg8
g9
(g13
S'\xf6/\x12_ee$@'
p1450
tp1451
Rp1452
sg19
I0
sg20
g21
(S'\x07\xdd\t\x1d\x13\x134\x05\xe4\xe4'
p1453
tp1454
Rp1455
sg25
I0
sg26
g27
(g28
(I0
tp1456
g7
tp1457
Rp1458
(I1
(I2
tp1459
g35
I00
S'\xa2\x00\x00\x00L\x00\x00\x00'
p1460
tp1461
bsba(i__main__
FrameData
p1462
(dp1463
g6
g1281
sg8
g9
(g13
S'\xd2\xf1}\x82U\\&@'
p1464
tp1465
Rp1466
sg19
I0
sg20
g21
(S'\x07\xdd\t\x1d\x13\x134\x06g\x9b'
p1467
tp1468
Rp1469
sg25
I0
sg26
g27
(g28
(I0
tp1470
g7
tp1471
Rp1472
(I1
(I2
tp1473
g35
I00
S'\xa3\x00\x00\x00L\x00\x00\x00'
p1474
tp1475
bsba(i__main__
FrameData
p1476
(dp1477
g6
g1281
sg8
g9
(g13
S'\x00\x00\x00\x00\x00\x00*@'
p1478
tp1479
Rp1480
sg19
I0
sg20
g21
(S'\x07\xdd\t\x1d\x13\x134\x06\xa7-'
p1481
tp1482
Rp1483
sg25
I0
sg26
g27
(g28
(I0
tp1484
g7
tp1485
Rp1486
(I1
(I2
tp1487
g35
I00
S'\xa5\x00\x00\x00J\x00\x00\x00'
p1488
tp1489
bsba(i__main__
FrameData
p1490
(dp1491
g6
S'i'
p1492
sg8
g9
(g13
S'H\xaa*\x8f9\x17&@'
p1493
tp1494
Rp1495
sg19
I0
sg20
g21
(S'\x07\xdd\t\x1d\x13\x134\x06\xef\x93'
p1496
tp1497
Rp1498
sg25
I0
sg26
g27
(g28
(I0
tp1499
g7
tp1500
Rp1501
(I1
(I2
tp1502
g35
I00
S'\xa7\x00\x00\x00J\x00\x00\x00'
p1503
tp1504
bsba(i__main__
FrameData
p1505
(dp1506
g6
g1492
sg8
g9
(g13
S'\xf0)#L\x89\x19$@'
p1507
tp1508
Rp1509
sg19
I0
sg20
g21
(S'\x07\xdd\t\x1d\x13\x134\x07/`'
p1510
tp1511
Rp1512
sg25
I0
sg26
g27
(g28
(I0
tp1513
g7
tp1514
Rp1515
(I1
(I2
tp1516
g35
I00
S'\xa8\x00\x00\x00J\x00\x00\x00'
p1517
tp1518
bsba(i__main__
FrameData
p1519
(dp1520
g6
g1492
sg8
g9
(g13
S'\xd0\xbaa?\xe0\x1f @'
p1521
tp1522
Rp1523
sg19
I0
sg20
g21
(S'\x07\xdd\t\x1d\x13\x134\x07qo'
p1524
tp1525
Rp1526
sg25
I0
sg26
g27
(g28
(I0
tp1527
g7
tp1528
Rp1529
(I1
(I2
tp1530
g35
I00
S'\xaa\x00\x00\x00J\x00\x00\x00'
p1531
tp1532
bsba(i__main__
FrameData
p1533
(dp1534
g6
g1492
sg8
g9
(g13
S'\xc0\n\x1f\x00\xc6H\x1c@'
p1535
tp1536
Rp1537
sg19
I0
sg20
g21
(S'\x07\xdd\t\x1d\x13\x134\x07\xab\xf1'
p1538
tp1539
Rp1540
sg25
I0
sg26
g27
(g28
(I0
tp1541
g7
tp1542
Rp1543
(I1
(I2
tp1544
g35
I00
S'\xab\x00\x00\x00J\x00\x00\x00'
p1545
tp1546
bsba(i__main__
FrameData
p1547
(dp1548
g6
g1492
sg8
g9
(g13
S'S[\xda:XL\x19@'
p1549
tp1550
Rp1551
sg19
I0
sg20
g21
(S'\x07\xdd\t\x1d\x13\x134\x07\xf1$'
p1552
tp1553
Rp1554
sg25
I0
sg26
g27
(g28
(I0
tp1555
g7
tp1556
Rp1557
(I1
(I2
tp1558
g35
I00
S'\xac\x00\x00\x00I\x00\x00\x00'
p1559
tp1560
bsba(i__main__
FrameData
p1561
(dp1562
g6
g1492
sg8
g9
(g13
S'\xf3\xd9\xa8\xa4h\x8a\x15@'
p1563
tp1564
Rp1565
sg19
I0
sg20
g21
(S'\x07\xdd\t\x1d\x13\x134\x08/D'
p1566
tp1567
Rp1568
sg25
I0
sg26
g27
(g28
(I0
tp1569
g7
tp1570
Rp1571
(I1
(I2
tp1572
g35
I00
S'\xad\x00\x00\x00I\x00\x00\x00'
p1573
tp1574
bsba(i__main__
FrameData
p1575
(dp1576
g6
g1492
sg8
g9
(g13
S'\xa8\xf4\x97\x9bw\xe3\x11@'
p1577
tp1578
Rp1579
sg19
I0
sg20
g21
(S'\x07\xdd\t\x1d\x13\x134\x08\xb4\x82'
p1580
tp1581
Rp1582
sg25
I0
sg26
g27
(g28
(I0
tp1583
g7
tp1584
Rp1585
(I1
(I2
tp1586
g35
I00
S'\xae\x00\x00\x00I\x00\x00\x00'
p1587
tp1588
bsba(i__main__
FrameData
p1589
(dp1590
g6
g1492
sg8
g9
(g13
S'\xf3YaD+\xd8\x0c@'
p1591
tp1592
Rp1593
sg19
I0
sg20
g21
(S'\x07\xdd\t\x1d\x13\x134\x08\xf59'
p1594
tp1595
Rp1596
sg25
I0
sg26
g27
(g28
(I0
tp1597
g7
tp1598
Rp1599
(I1
(I2
tp1600
g35
I00
S'\xaf\x00\x00\x00I\x00\x00\x00'
p1601
tp1602
bsba(i__main__
FrameData
p1603
(dp1604
g6
g1492
sg8
g9
(g13
S'\x00\x00\x00\x00\x00\x00\x14@'
p1605
tp1606
Rp1607
sg19
I0
sg20
g21
(S'\x07\xdd\t\x1d\x13\x134\t:\x92'
p1608
tp1609
Rp1610
sg25
I0
sg26
g27
(g28
(I0
tp1611
g7
tp1612
Rp1613
(I1
(I2
tp1614
g35
I00
S'\xaf\x00\x00\x00G\x00\x00\x00'
p1615
tp1616
bsba(i__main__
FrameData
p1617
(dp1618
g6
g1492
sg8
g9
(g13
S'\xa8\xf4\x97\x9bw\xe3\x11@'
p1619
tp1620
Rp1621
sg19
I0
sg20
g21
(S'\x07\xdd\t\x1d\x13\x134\x0b\xc6\xa9'
p1622
tp1623
Rp1624
sg25
I0
sg26
g27
(g28
(I0
tp1625
g7
tp1626
Rp1627
(I1
(I2
tp1628
g35
I00
S'\xb0\x00\x00\x00G\x00\x00\x00'
p1629
tp1630
bsba(i__main__
FrameData
p1631
(dp1632
g6
g1492
sg8
g9
(g13
S'\xf3YaD+\xd8\x0c@'
p1633
tp1634
Rp1635
sg19
I0
sg20
g21
(S'\x07\xdd\t\x1d\x13\x134\r\x89\xc7'
p1636
tp1637
Rp1638
sg25
I0
sg26
g27
(g28
(I0
tp1639
g7
tp1640
Rp1641
(I1
(I2
tp1642
g35
I00
S'\xb0\x00\x00\x00H\x00\x00\x00'
p1643
tp1644
bsba(i__main__
FrameData
p1645
(dp1646
g6
g1492
sg8
g9
(g13
S'\xcd;\x7ff\x9e\xa0\x06@'
p1647
tp1648
Rp1649
sg19
I0
sg20
g21
(S'\x07\xdd\t\x1d\x13\x134\x0e\x0cc'
p1650
tp1651
Rp1652
sg25
I0
sg26
g27
(g28
(I0
tp1653
g7
tp1654
Rp1655
(I1
(I2
tp1656
g35
I00
S'\xb0\x00\x00\x00I\x00\x00\x00'
p1657
tp1658
bsba(i__main__
FrameData
p1659
(dp1660
g6
g1492
sg8
g9
(g13
S'\xa8\xf4\x97\x9bw\xe3\x01@'
p1661
tp1662
Rp1663
sg19
I0
sg20
g21
(S'\x07\xdd\t\x1d\x13\x134\x0eS\x98'
p1664
tp1665
Rp1666
sg25
I0
sg26
g27
(g28
(I0
tp1667
g7
tp1668
Rp1669
(I1
(I2
tp1670
g35
I00
S'\xb0\x00\x00\x00J\x00\x00\x00'
p1671
tp1672
bsba(i__main__
FrameData
p1673
(dp1674
g6
g1492
sg8
g9
(g13
S'\xa8\xf4\x97\x9bw\xe3\x01@'
p1675
tp1676
Rp1677
sg19
I0
sg20
g21
(S'\x07\xdd\t\x1d\x13\x134\x0e\x90\x8d'
p1678
tp1679
Rp1680
sg25
I0
sg26
g27
(g28
(I0
tp1681
g7
tp1682
Rp1683
(I1
(I2
tp1684
g35
I00
S'\xb0\x00\x00\x00L\x00\x00\x00'
p1685
tp1686
bsba(i__main__
FrameData
p1687
(dp1688
g6
g1492
sg8
g9
(g13
S'S[\xda:XL\t@'
p1689
tp1690
Rp1691
sg19
I0
sg20
g21
(S'\x07\xdd\t\x1d\x13\x134\x0e\xce\xfe'
p1692
tp1693
Rp1694
sg25
I0
sg26
g27
(g28
(I0
tp1695
g7
tp1696
Rp1697
(I1
(I2
tp1698
g35
I00
S'\xaf\x00\x00\x00L\x00\x00\x00'
p1699
tp1700
bsba(i__main__
FrameData
p1701
(dp1702
g6
g1492
sg8
g9
(g13
S'\xf3YaD+\xd8\x0c@'
p1703
tp1704
Rp1705
sg19
I0
sg20
g21
(S'\x07\xdd\t\x1d\x13\x134\x0f\x15\xd4'
p1706
tp1707
Rp1708
sg25
I0
sg26
g27
(g28
(I0
tp1709
g7
tp1710
Rp1711
(I1
(I2
tp1712
g35
I00
S'\xaf\x00\x00\x00M\x00\x00\x00'
p1713
tp1714
bsba(i__main__
FrameData
p1715
(dp1716
g6
g1492
sg8
g9
(g13
S'\xa8\xf4\x97\x9bw\xe3\x11@'
p1717
tp1718
Rp1719
sg19
I0
sg20
g21
(S'\x07\xdd\t\x1d\x13\x135\x00\x10\x8d'
p1720
tp1721
Rp1722
sg25
I0
sg26
g27
(g28
(I0
tp1723
g7
tp1724
Rp1725
(I1
(I2
tp1726
g35
I00
S'\xae\x00\x00\x00M\x00\x00\x00'
p1727
tp1728
bsba(i__main__
FrameData
p1729
(dp1730
g6
g1492
sg8
g9
(g13
S'\x00\xff\x9f\x99\xcc\x9c\x19@'
p1731
tp1732
Rp1733
sg19
I0
sg20
g21
(S'\x07\xdd\t\x1d\x13\x135\x00\x95\xc7'
p1734
tp1735
Rp1736
sg25
I0
sg26
g27
(g28
(I0
tp1737
g7
tp1738
Rp1739
(I1
(I2
tp1740
g35
I00
S'\xad\x00\x00\x00O\x00\x00\x00'
p1741
tp1742
bsba(i__main__
FrameData
p1743
(dp1744
g6
g1492
sg8
g9
(g13
S'htN\x17\xb2=\x1f@'
p1745
tp1746
Rp1747
sg19
I0
sg20
g21
(S'\x07\xdd\t\x1d\x13\x135\x00\xd6J'
p1748
tp1749
Rp1750
sg25
I0
sg26
g27
(g28
(I0
tp1751
g7
tp1752
Rp1753
(I1
(I2
tp1754
g35
I00
S'\xac\x00\x00\x00P\x00\x00\x00'
p1755
tp1756
bsba(i__main__
FrameData
p1757
(dp1758
g6
g1492
sg8
g9
(g13
S'N\x017\xfac4!@'
p1759
tp1760
Rp1761
sg19
I0
sg20
g21
(S'\x07\xdd\t\x1d\x13\x135\x01X\x0f'
p1762
tp1763
Rp1764
sg25
I0
sg26
g27
(g28
(I0
tp1765
g7
tp1766
Rp1767
(I1
(I2
tp1768
g35
I00
S'\xab\x00\x00\x00P\x00\x00\x00'
p1769
tp1770
bsba(i__main__
FrameData
p1771
(dp1772
g6
g1492
sg8
g9
(g13
S'A\x87b\xc62\xde"@'
p1773
tp1774
Rp1775
sg19
I0
sg20
g21
(S'\x07\xdd\t\x1d\x13\x135\x01\x98\xdd'
p1776
tp1777
Rp1778
sg25
I0
sg26
g27
(g28
(I0
tp1779
g7
tp1780
Rp1781
(I1
(I2
tp1782
g35
I00
S'\xaa\x00\x00\x00P\x00\x00\x00'
p1783
tp1784
bsba(i__main__
FrameData
p1785
(dp1786
g6
g1492
sg8
g9
(g13
S'6\xd0\xd2x\xa2B%@'
p1787
tp1788
Rp1789
sg19
I0
sg20
g21
(S'\x07\xdd\t\x1d\x13\x135\x01\xd8\x18'
p1790
tp1791
Rp1792
sg25
I0
sg26
g27
(g28
(I0
tp1793
g7
tp1794
Rp1795
(I1
(I2
tp1796
g35
I00
S'\xaa\x00\x00\x00R\x00\x00\x00'
p1797
tp1798
bsba(i__main__
FrameData
p1799
(dp1800
g6
g1492
sg8
g9
(g13
S'F\xc3\\\xa8\xc1i(@'
p1801
tp1802
Rp1803
sg19
I0
sg20
g21
(S'\x07\xdd\t\x1d\x13\x135\x02\x1d\xdc'
p1804
tp1805
Rp1806
sg25
I0
sg26
g27
(g28
(I0
tp1807
g7
tp1808
Rp1809
(I1
(I2
tp1810
g35
I00
S'\xa8\x00\x00\x00R\x00\x00\x00'
p1811
tp1812
bsba(i__main__
FrameData
p1813
(dp1814
g6
g1492
sg8
g9
(g13
S'Qf\x99\xcb\xa9\x13*@'
p1815
tp1816
Rp1817
sg19
I0
sg20
g21
(S'\x07\xdd\t\x1d\x13\x135\x02Z\xd7'
p1818
tp1819
Rp1820
sg25
I0
sg26
g27
(g28
(I0
tp1821
g7
tp1822
Rp1823
(I1
(I2
tp1824
g35
I00
S'\xa7\x00\x00\x00R\x00\x00\x00'
p1825
tp1826
bsba(i__main__
FrameData
p1827
(dp1828
g6
g1492
sg8
g9
(g13
S'\xb2\xdb]\xe3\x96\x87-@'
p1829
tp1830
Rp1831
sg19
I0
sg20
g21
(S'\x07\xdd\t\x1d\x13\x135\x02\x9b\xb0'
p1832
tp1833
Rp1834
sg25
I0
sg26
g27
(g28
(I0
tp1835
g7
tp1836
Rp1837
(I1
(I2
tp1838
g35
I00
S'\xa5\x00\x00\x00R\x00\x00\x00'
p1839
tp1840
bsba(i__main__
FrameData
p1841
(dp1842
g6
g1281
sg8
g9
(g13
S'\xf3YaD+\xd8,@'
p1843
tp1844
Rp1845
sg19
I0
sg20
g21
(S'\x07\xdd\t\x1d\x13\x135\x02\xdf2'
p1846
tp1847
Rp1848
sg25
I0
sg26
g27
(g28
(I0
tp1849
g7
tp1850
Rp1851
(I1
(I2
tp1852
g35
I00
S'\xa4\x00\x00\x00R\x00\x00\x00'
p1853
tp1854
bsba(i__main__
FrameData
p1855
(dp1856
g6
g1281
sg8
g9
(g13
S'\x00\xff\x9f\x99\xcc\x9c)@'
p1857
tp1858
Rp1859
sg19
I0
sg20
g21
(S'\x07\xdd\t\x1d\x13\x135\x03%\xc8'
p1860
tp1861
Rp1862
sg25
I0
sg26
g27
(g28
(I0
tp1863
g7
tp1864
Rp1865
(I1
(I2
tp1866
g35
I00
S'\xa2\x00\x00\x00R\x00\x00\x00'
p1867
tp1868
bsba(i__main__
FrameData
p1869
(dp1870
g6
g1281
sg8
g9
(g13
S'6\xd0\xd2x\xa2B%@'
p1871
tp1872
Rp1873
sg19
I0
sg20
g21
(S'\x07\xdd\t\x1d\x13\x135\x03eK'
p1874
tp1875
Rp1876
sg25
I0
sg26
g27
(g28
(I0
tp1877
g7
tp1878
Rp1879
(I1
(I2
tp1880
g35
I00
S'\x9f\x00\x00\x00R\x00\x00\x00'
p1881
tp1882
bsba(i__main__
FrameData
p1883
(dp1884
g6
g1281
sg8
g9
(g13
S'~\xc4#,B\xf9"@'
p1885
tp1886
Rp1887
sg19
I0
sg20
g21
(S'\x07\xdd\t\x1d\x13\x135\x03\xa0^'
p1888
tp1889
Rp1890
sg25
I0
sg26
g27
(g28
(I0
tp1891
g7
tp1892
Rp1893
(I1
(I2
tp1894
g35
I00
S'\x9b\x00\x00\x00S\x00\x00\x00'
p1895
tp1896
bsba(i__main__
FrameData
p1897
(dp1898
g6
g1281
sg8
g9
(g13
S'$\xf8\xd9p[\x1c"@'
p1899
tp1900
Rp1901
sg19
I0
sg20
g21
(S'\x07\xdd\t\x1d\x13\x135\x03\xe3\xf8'
p1902
tp1903
Rp1904
sg25
I0
sg26
g27
(g28
(I0
tp1905
g7
tp1906
Rp1907
(I1
(I2
tp1908
g35
I00
S'\x99\x00\x00\x00S\x00\x00\x00'
p1909
tp1910
bsba(i__main__
FrameData
p1911
(dp1912
g6
g1281
sg8
g9
(g13
S'$\xf8\xd9p[\x1c"@'
p1913
tp1914
Rp1915
sg19
I0
sg20
g21
(S'\x07\xdd\t\x1d\x13\x135\x04#\xdb'
p1916
tp1917
Rp1918
sg25
I0
sg26
g27
(g28
(I0
tp1919
g7
tp1920
Rp1921
(I1
(I2
tp1922
g35
I00
S'\x97\x00\x00\x00S\x00\x00\x00'
p1923
tp1924
bsba(i__main__
FrameData
p1925
(dp1926
g6
g1281
sg8
g9
(g13
S'~\xc4#,B\xf9"@'
p1927
tp1928
Rp1929
sg19
I0
sg20
g21
(S'\x07\xdd\t\x1d\x13\x135\x04hh'
p1930
tp1931
Rp1932
sg25
I0
sg26
g27
(g28
(I0
tp1933
g7
tp1934
Rp1935
(I1
(I2
tp1936
g35
I00
S'\x95\x00\x00\x00S\x00\x00\x00'
p1937
tp1938
bsba(i__main__
FrameData
p1939
(dp1940
g6
g1281
sg8
g9
(g13
S'\x88\x80v\xd5\\\x97$@'
p1941
tp1942
Rp1943
sg19
I0
sg20
g21
(S'\x07\xdd\t\x1d\x13\x135\x04\xa5F'
p1944
tp1945
Rp1946
sg25
I0
sg26
g27
(g28
(I0
tp1947
g7
tp1948
Rp1949
(I1
(I2
tp1950
g35
I00
S'\x93\x00\x00\x00S\x00\x00\x00'
p1951
tp1952
bsba(i__main__
FrameData
p1953
(dp1954
g6
g1281
sg8
g9
(g13
S'\xeb\x12\xb2\xbb\xb2\xcd&@'
p1955
tp1956
Rp1957
sg19
I0
sg20
g21
(S'\x07\xdd\t\x1d\x13\x135\x04\xe9\xa7'
p1958
tp1959
Rp1960
sg25
I0
sg26
g27
(g28
(I0
tp1961
g7
tp1962
Rp1963
(I1
(I2
tp1964
g35
I00
S'\x91\x00\x00\x00S\x00\x00\x00'
p1965
tp1966
bsba(i__main__
FrameData
p1967
(dp1968
g6
g1168
sg8
g9
(g13
S'\xe4\x10\xe4sW\x0f)@'
p1969
tp1970
Rp1971
sg19
I0
sg20
g21
(S'\x07\xdd\t\x1d\x13\x135\x05)T'
p1972
tp1973
Rp1974
sg25
I0
sg26
g27
(g28
(I0
tp1975
g7
tp1976
Rp1977
(I1
(I2
tp1978
g35
I00
S'\x8d\x00\x00\x00S\x00\x00\x00'
p1979
tp1980
bsba(i__main__
FrameData
p1981
(dp1982
g6
g1168
sg8
g9
(g13
S'w\x03Is \xa2%@'
p1983
tp1984
Rp1985
sg19
I0
sg20
g21
(S'\x07\xdd\t\x1d\x13\x135\x05n\xf4'
p1986
tp1987
Rp1988
sg25
I0
sg26
g27
(g28
(I0
tp1989
g7
tp1990
Rp1991
(I1
(I2
tp1992
g35
I00
S'\x8b\x00\x00\x00S\x00\x00\x00'
p1993
tp1994
bsba(i__main__
FrameData
p1995
(dp1996
g6
g1168
sg8
g9
(g13
S'\x9a.\x90!hp"@'
p1997
tp1998
Rp1999
sg19
I0
sg20
g21
(S'\x07\xdd\t\x1d\x13\x135\x05\xac\t'
p2000
tp2001
Rp2002
sg25
I0
sg26
g27
(g28
(I0
tp2003
g7
tp2004
Rp2005
(I1
(I2
tp2006
g35
I00
S'\x89\x00\x00\x00S\x00\x00\x00'
p2007
tp2008
bsba(i__main__
FrameData
p2009
(dp2010
g6
g1168
sg8
g9
(g13
S'htN\x17\xb2=\x1f@'
p2011
tp2012
Rp2013
sg19
I0
sg20
g21
(S'\x07\xdd\t\x1d\x13\x135\x05\xec\x17'
p2014
tp2015
Rp2016
sg25
I0
sg26
g27
(g28
(I0
tp2017
g7
tp2018
Rp2019
(I1
(I2
tp2020
g35
I00
S'\x87\x00\x00\x00S\x00\x00\x00'
p2021
tp2022
bsba(i__main__
FrameData
p2023
(dp2024
g6
g1168
sg8
g9
(g13
S'\xfc\xeeci3\xd5\x1a@'
p2025
tp2026
Rp2027
sg19
I0
sg20
g21
(S'\x07\xdd\t\x1d\x13\x135\x06-@'
p2028
tp2029
Rp2030
sg25
I0
sg26
g27
(g28
(I0
tp2031
g7
tp2032
Rp2033
(I1
(I2
tp2034
g35
I00
S'\x85\x00\x00\x00S\x00\x00\x00'
p2035
tp2036
bsba(i__main__
FrameData
p2037
(dp2038
g6
g1168
sg8
g9
(g13
S'\x00\x00\x00\x00\x00\x00\x14@'
p2039
tp2040
Rp2041
sg19
I0
sg20
g21
(S'\x07\xdd\t\x1d\x13\x135\x06q\xb3'
p2042
tp2043
Rp2044
sg25
I0
sg26
g27
(g28
(I0
tp2045
g7
tp2046
Rp2047
(I1
(I2
tp2048
g35
I00
S'\x82\x00\x00\x00R\x00\x00\x00'
p2049
tp2050
bsba(i__main__
FrameData
p2051
(dp2052
g6
g1168
sg8
g9
(g13
S'\x07\xed\xaff\x0f~\x10@'
p2053
tp2054
Rp2055
sg19
I0
sg20
g21
(S'\x07\xdd\t\x1d\x13\x135\x06\xaf\xb9'
p2056
tp2057
Rp2058
sg25
I0
sg26
g27
(g28
(I0
tp2059
g7
tp2060
Rp2061
(I1
(I2
tp2062
g35
I00
S'\x81\x00\x00\x00Q\x00\x00\x00'
p2063
tp2064
bsba(i__main__
FrameData
p2065
(dp2066
g6
g1168
sg8
g9
(g13
S'\x00\x00\x00\x00\x00\x00\x14@'
p2067
tp2068
Rp2069
sg19
I0
sg20
g21
(S'\x07\xdd\t\x1d\x13\x135\x06\xf0\xec'
p2070
tp2071
Rp2072
sg25
I0
sg26
g27
(g28
(I0
tp2073
g7
tp2074
Rp2075
(I1
(I2
tp2076
g35
I00
S'~\x00\x00\x00P\x00\x00\x00'
p2077
tp2078
bsba(i__main__
FrameData
p2079
(dp2080
g6
g1168
sg8
g9
(g13
S'\xa2\xa3\xb3\r\xe5R\x17@'
p2081
tp2082
Rp2083
sg19
I0
sg20
g21
(S'\x07\xdd\t\x1d\x13\x135\x074('
p2084
tp2085
Rp2086
sg25
I0
sg26
g27
(g28
(I0
tp2087
g7
tp2088
Rp2089
(I1
(I2
tp2090
g35
I00
S'}\x00\x00\x00P\x00\x00\x00'
p2091
tp2092
bsba(i__main__
FrameData
p2093
(dp2094
g6
g1168
sg8
g9
(g13
S'\x07\xed\xaff\x0f~ @'
p2095
tp2096
Rp2097
sg19
I0
sg20
g21
(S'\x07\xdd\t\x1d\x13\x135\x07t\xda'
p2098
tp2099
Rp2100
sg25
I0
sg26
g27
(g28
(I0
tp2101
g7
tp2102
Rp2103
(I1
(I2
tp2104
g35
I00
S'z\x00\x00\x00O\x00\x00\x00'
p2105
tp2106
bsba(i__main__
FrameData
p2107
(dp2108
g6
g1168
sg8
g9
(g13
S'\xf6/\x12_ee$@'
p2109
tp2110
Rp2111
sg19
I0
sg20
g21
(S'\x07\xdd\t\x1d\x13\x135\x07\xb4\x87'
p2112
tp2113
Rp2114
sg25
I0
sg26
g27
(g28
(I0
tp2115
g7
tp2116
Rp2117
(I1
(I2
tp2118
g35
I00
S'x\x00\x00\x00O\x00\x00\x00'
p2119
tp2120
bsba(i__main__
FrameData
p2121
(dp2122
g6
g1168
sg8
g9
(g13
S'&5w\xe2K\x15(@'
p2123
tp2124
Rp2125
sg19
I0
sg20
g21
(S'\x07\xdd\t\x1d\x13\x135\x07\xf6.'
p2126
tp2127
Rp2128
sg25
I0
sg26
g27
(g28
(I0
tp2129
g7
tp2130
Rp2131
(I1
(I2
tp2132
g35
I00
S'v\x00\x00\x00N\x00\x00\x00'
p2133
tp2134
bsba(i__main__
FrameData
p2135
(dp2136
g6
S't'
p2137
sg8
g9
(g13
S'7\xf9\xcf\xdao\xe1$@'
p2138
tp2139
Rp2140
sg19
I0
sg20
g21
(S'\x07\xdd\t\x1d\x13\x135\x086\xdc'
p2141
tp2142
Rp2143
sg25
I0
sg26
g27
(g28
(I0
tp2144
g7
tp2145
Rp2146
(I1
(I2
tp2147
g35
I00
S't\x00\x00\x00N\x00\x00\x00'
p2148
tp2149
bsba(i__main__
FrameData
p2150
(dp2151
g6
g2137
sg8
g9
(g13
S'\xf0)#L\x89\x19$@'
p2152
tp2153
Rp2154
sg19
I0
sg20
g21
(S'\x07\xdd\t\x1d\x13\x135\x08{b'
p2155
tp2156
Rp2157
sg25
I0
sg26
g27
(g28
(I0
tp2158
g7
tp2159
Rp2160
(I1
(I2
tp2161
g35
I00
S't\x00\x00\x00L\x00\x00\x00'
p2162
tp2163
bsba(i__main__
FrameData
p2164
(dp2165
g6
g2137
sg8
g9
(g13
S'$\xf8\xd9p[\x1c"@'
p2166
tp2167
Rp2168
sg19
I0
sg20
g21
(S'\x07\xdd\t\x1d\x13\x135\x08\xbc5'
p2169
tp2170
Rp2171
sg25
I0
sg26
g27
(g28
(I0
tp2172
g7
tp2173
Rp2174
(I1
(I2
tp2175
g35
I00
S's\x00\x00\x00L\x00\x00\x00'
p2176
tp2177
bsba(i__main__
FrameData
p2178
(dp2179
g6
g2137
sg8
g9
(g13
S'\xd0\xbaa?\xe0\x1f @'
p2180
tp2181
Rp2182
sg19
I0
sg20
g21
(S'\x07\xdd\t\x1d\x13\x135\x08\xfb\x1b'
p2183
tp2184
Rp2185
sg25
I0
sg26
g27
(g28
(I0
tp2186
g7
tp2187
Rp2188
(I1
(I2
tp2189
g35
I00
S'r\x00\x00\x00L\x00\x00\x00'
p2190
tp2191
bsba(i__main__
FrameData
p2192
(dp2193
g6
g2137
sg8
g9
(g13
S'\xd0\xbaa?\xe0\x1f @'
p2194
tp2195
Rp2196
sg19
I0
sg20
g21
(S'\x07\xdd\t\x1d\x13\x135\tAB'
p2197
tp2198
Rp2199
sg25
I0
sg26
g27
(g28
(I0
tp2200
g7
tp2201
Rp2202
(I1
(I2
tp2203
g35
I00
S'r\x00\x00\x00J\x00\x00\x00'
p2204
tp2205
bsba(i__main__
FrameData
p2206
(dp2207
g6
g2137
sg8
g9
(g13
S'\xc0\n\x1f\x00\xc6H\x1c@'
p2208
tp2209
Rp2210
sg19
I0
sg20
g21
(S'\x07\xdd\t\x1d\x13\x135\t~H'
p2211
tp2212
Rp2213
sg25
I0
sg26
g27
(g28
(I0
tp2214
g7
tp2215
Rp2216
(I1
(I2
tp2217
g35
I00
S'q\x00\x00\x00J\x00\x00\x00'
p2218
tp2219
bsba(i__main__
FrameData
p2220
(dp2221
g6
g2137
sg8
g9
(g13
S'S[\xda:XL\x19@'
p2222
tp2223
Rp2224
sg19
I0
sg20
g21
(S'\x07\xdd\t\x1d\x13\x135\t\xc0\x19'
p2225
tp2226
Rp2227
sg25
I0
sg26
g27
(g28
(I0
tp2228
g7
tp2229
Rp2230
(I1
(I2
tp2231
g35
I00
S'p\x00\x00\x00I\x00\x00\x00'
p2232
tp2233
bsba(i__main__
FrameData
p2234
(dp2235
g6
g2137
sg8
g9
(g13
S'\xa2\xa3\xb3\r\xe5R\x17@'
p2236
tp2237
Rp2238
sg19
I0
sg20
g21
(S'\x07\xdd\t\x1d\x13\x135\n\x03}'
p2239
tp2240
Rp2241
sg25
I0
sg26
g27
(g28
(I0
tp2242
g7
tp2243
Rp2244
(I1
(I2
tp2245
g35
I00
S'o\x00\x00\x00H\x00\x00\x00'
p2246
tp2247
bsba(i__main__
FrameData
p2248
(dp2249
g6
g2137
sg8
g9
(g13
S'\x00\x00\x00\x00\x00\x00\x14@'
p2250
tp2251
Rp2252
sg19
I0
sg20
g21
(S'\x07\xdd\t\x1d\x13\x135\nD\x82'
p2253
tp2254
Rp2255
sg25
I0
sg26
g27
(g28
(I0
tp2256
g7
tp2257
Rp2258
(I1
(I2
tp2259
g35
I00
S'n\x00\x00\x00H\x00\x00\x00'
p2260
tp2261
bsba(i__main__
FrameData
p2262
(dp2263
g6
g2137
sg8
g9
(g13
S'\xcd;\x7ff\x9e\xa0\x16@'
p2264
tp2265
Rp2266
sg19
I0
sg20
g21
(S'\x07\xdd\t\x1d\x13\x135\n\x88\xca'
p2267
tp2268
Rp2269
sg25
I0
sg26
g27
(g28
(I0
tp2270
g7
tp2271
Rp2272
(I1
(I2
tp2273
g35
I00
S'n\x00\x00\x00G\x00\x00\x00'
p2274
tp2275
bsba(i__main__
FrameData
p2276
(dp2277
g6
g2137
sg8
g9
(g13
S'\x00\x00\x00\x00\x00\x00\x14@'
p2278
tp2279
Rp2280
sg19
I0
sg20
g21
(S'\x07\xdd\t\x1d\x13\x135\n\xc5\x90'
p2281
tp2282
Rp2283
sg25
I0
sg26
g27
(g28
(I0
tp2284
g7
tp2285
Rp2286
(I1
(I2
tp2287
g35
I00
S'm\x00\x00\x00G\x00\x00\x00'
p2288
tp2289
bsba(i__main__
FrameData
p2290
(dp2291
g6
g2137
sg8
g9
(g13
S'\xa2\xa3\xb3\r\xe5R\x17@'
p2292
tp2293
Rp2294
sg19
I0
sg20
g21
(S'\x07\xdd\t\x1d\x13\x135\x0b\x06_'
p2295
tp2296
Rp2297
sg25
I0
sg26
g27
(g28
(I0
tp2298
g7
tp2299
Rp2300
(I1
(I2
tp2301
g35
I00
S'm\x00\x00\x00F\x00\x00\x00'
p2302
tp2303
bsba(i__main__
FrameData
p2304
(dp2305
g6
g2137
sg8
g9
(g13
S'\xfc\xeeci3\xd5\x1a@'
p2306
tp2307
Rp2308
sg19
I0
sg20
g21
(S'\x07\xdd\t\x1d\x13\x135\x0bJ\xe0'
p2309
tp2310
Rp2311
sg25
I0
sg26
g27
(g28
(I0
tp2312
g7
tp2313
Rp2314
(I1
(I2
tp2315
g35
I00
S'm\x00\x00\x00E\x00\x00\x00'
p2316
tp2317
bsbasS'_fileName'
p2318
S'training/trajectory2013-09-29_19:19:48.579358'
p2319
sS'word'
p2320
S'bait'
p2321
sb.