(i__main__
SwypeTrajectory
p0
(dp1
S'_frameDataList'
p2
(lp3
(i__main__
FrameData
p4
(dp5
S'closestLetter'
p6
S'g'
p7
sS'letterDistance'
p8
cnumpy.core.multiarray
scalar
p9
(cnumpy
dtype
p10
(S'f8'
p11
I0
I1
tp12
Rp13
(I3
S'<'
p14
NNNI-1
I-1
I0
tp15
bS'\xa8\xf4\x97\x9bw\xe3\x01@'
p16
tp17
Rp18
sS'accel'
p19
I0
sS'time'
p20
cdatetime
datetime
p21
(S'\x07\xdd\t\x1d\x13\x0c4\x05\x9e\xd9'
p22
tp23
Rp24
sS'velocity'
p25
I0
sS'position'
p26
cnumpy.core.multiarray
_reconstruct
p27
(cnumpy
ndarray
p28
(I0
tp29
S'b'
p30
tp31
Rp32
(I1
(I2
tp33
g10
(S'i4'
p34
I0
I1
tp35
Rp36
(I3
S'<'
p37
NNNI-1
I-1
I0
tp38
bI00
S'z\x00\x00\x00q\x00\x00\x00'
p39
tp40
bsba(i__main__
FrameData
p41
(dp42
g6
g7
sg8
g9
(g13
S'\x00\x00\x00\x00\x00\x00\xf0?'
p43
tp44
Rp45
sg19
I0
sg20
g21
(S'\x07\xdd\t\x1d\x13\x0c4\x05\xc6\x8b'
p46
tp47
Rp48
sg25
I0
sg26
g27
(g28
(I0
tp49
g30
tp50
Rp51
(I1
(I2
tp52
g36
I00
S'x\x00\x00\x00q\x00\x00\x00'
p53
tp54
bsba(i__main__
FrameData
p55
(dp56
g6
g7
sg8
g9
(g13
S'\x00\x00\x00\x00\x00\x00\x14@'
p57
tp58
Rp59
sg19
I0
sg20
g21
(S'\x07\xdd\t\x1d\x13\x0c4\x06\x12\xc4'
p60
tp61
Rp62
sg25
I0
sg26
g27
(g28
(I0
tp63
g30
tp64
Rp65
(I1
(I2
tp66
g36
I00
S't\x00\x00\x00o\x00\x00\x00'
p67
tp68
bsba(i__main__
FrameData
p69
(dp70
g6
g7
sg8
g9
(g13
S'\xfc\xeeci3\xd5\x1a@'
p71
tp72
Rp73
sg19
I0
sg20
g21
(S'\x07\xdd\t\x1d\x13\x0c4\x06M2'
p74
tp75
Rp76
sg25
I0
sg26
g27
(g28
(I0
tp77
g30
tp78
Rp79
(I1
(I2
tp80
g36
I00
S'r\x00\x00\x00o\x00\x00\x00'
p81
tp82
bsba(i__main__
FrameData
p83
(dp84
g6
g7
sg8
g9
(g13
S'\xa8\xf4\x97\x9bw\xe3!@'
p85
tp86
Rp87
sg19
I0
sg20
g21
(S'\x07\xdd\t\x1d\x13\x0c4\x06\x8a\xf1'
p88
tp89
Rp90
sg25
I0
sg26
g27
(g28
(I0
tp91
g30
tp92
Rp93
(I1
(I2
tp94
g36
I00
S'p\x00\x00\x00n\x00\x00\x00'
p95
tp96
bsba(i__main__
FrameData
p97
(dp98
g6
g7
sg8
g9
(g13
S'A\x87b\xc62\xde"@'
p99
tp100
Rp101
sg19
I0
sg20
g21
(S'\x07\xdd\t\x1d\x13\x0c4\x06\xd8\xef'
p102
tp103
Rp104
sg25
I0
sg26
g27
(g28
(I0
tp105
g30
tp106
Rp107
(I1
(I2
tp108
g36
I00
S'p\x00\x00\x00m\x00\x00\x00'
p109
tp110
bsba(i__main__
FrameData
p111
(dp112
g6
g7
sg8
g9
(g13
S'\xe4\x10\xe4sW\x0f)@'
p113
tp114
Rp115
sg19
I0
sg20
g21
(S'\x07\xdd\t\x1d\x13\x0c4\x07\x12\xaf'
p116
tp117
Rp118
sg25
I0
sg26
g27
(g28
(I0
tp119
g30
tp120
Rp121
(I1
(I2
tp122
g36
I00
S'm\x00\x00\x00l\x00\x00\x00'
p123
tp124
bsba(i__main__
FrameData
p125
(dp126
g6
S'f'
p127
sg8
g9
(g13
S'\xb9e(k\xee\xc8+@'
p128
tp129
Rp130
sg19
I0
sg20
g21
(S'\x07\xdd\t\x1d\x13\x0c4\x07R\xed'
p131
tp132
Rp133
sg25
I0
sg26
g27
(g28
(I0
tp134
g30
tp135
Rp136
(I1
(I2
tp137
g36
I00
S'l\x00\x00\x00k\x00\x00\x00'
p138
tp139
bsba(i__main__
FrameData
p140
(dp141
g6
g127
sg8
g9
(g13
S'\xef\rI\xf1\xf33+@'
p142
tp143
Rp144
sg19
I0
sg20
g21
(S'\x07\xdd\t\x1d\x13\x0c4\x07\xa0\x0c'
p145
tp146
Rp147
sg25
I0
sg26
g27
(g28
(I0
tp148
g30
tp149
Rp150
(I1
(I2
tp151
g36
I00
S'k\x00\x00\x00j\x00\x00\x00'
p152
tp153
bsba(i__main__
FrameData
p154
(dp155
g6
g127
sg8
g9
(g13
S'&5w\xe2K\x15(@'
p156
tp157
Rp158
sg19
I0
sg20
g21
(S'\x07\xdd\t\x1d\x13\x0c4\x07\xee3'
p159
tp160
Rp161
sg25
I0
sg26
g27
(g28
(I0
tp162
g30
tp163
Rp164
(I1
(I2
tp165
g36
I00
S'i\x00\x00\x00j\x00\x00\x00'
p166
tp167
bsba(i__main__
FrameData
p168
(dp169
g6
g127
sg8
g9
(g13
S'\xcd;\x7ff\x9e\xa0&@'
p170
tp171
Rp172
sg19
I0
sg20
g21
(S'\x07\xdd\t\x1d\x13\x0c4\x08\x14T'
p173
tp174
Rp175
sg25
I0
sg26
g27
(g28
(I0
tp176
g30
tp177
Rp178
(I1
(I2
tp179
g36
I00
S'h\x00\x00\x00j\x00\x00\x00'
p180
tp181
bsba(i__main__
FrameData
p182
(dp183
g6
g127
sg8
g9
(g13
S'\xeb\x12\xb2\xbb\xb2\xcd&@'
p184
tp185
Rp186
sg19
I0
sg20
g21
(S'\x07\xdd\t\x1d\x13\x0c4\x08Yi'
p187
tp188
Rp189
sg25
I0
sg26
g27
(g28
(I0
tp190
g30
tp191
Rp192
(I1
(I2
tp193
g36
I00
S'g\x00\x00\x00i\x00\x00\x00'
p194
tp195
bsba(i__main__
FrameData
p196
(dp197
g6
g127
sg8
g9
(g13
S"\xa2\xa3\xb3\r\xe5R'@"
p198
tp199
Rp200
sg19
I0
sg20
g21
(S"\x07\xdd\t\x1d\x13\x0c4\x08\xb0'"
p201
tp202
Rp203
sg25
I0
sg26
g27
(g28
(I0
tp204
g30
tp205
Rp206
(I1
(I2
tp207
g36
I00
S'f\x00\x00\x00h\x00\x00\x00'
p208
tp209
bsba(i__main__
FrameData
p210
(dp211
g6
g127
sg8
g9
(g13
S'lNy\x00\x85*(@'
p212
tp213
Rp214
sg19
I0
sg20
g21
(S'\x07\xdd\t\x1d\x13\x0c4\x08\xd8\xb5'
p215
tp216
Rp217
sg25
I0
sg26
g27
(g28
(I0
tp218
g30
tp219
Rp220
(I1
(I2
tp221
g36
I00
S'e\x00\x00\x00g\x00\x00\x00'
p222
tp223
bsba(i__main__
FrameData
p224
(dp225
g6
g127
sg8
g9
(g13
S'\x00\x00\x00\x00\x00\x00*@'
p226
tp227
Rp228
sg19
I0
sg20
g21
(S'\x07\xdd\t\x1d\x13\x0c4\t&\xb3'
p229
tp230
Rp231
sg25
I0
sg26
g27
(g28
(I0
tp232
g30
tp233
Rp234
(I1
(I2
tp235
g36
I00
S'e\x00\x00\x00f\x00\x00\x00'
p236
tp237
bsba(i__main__
FrameData
p238
(dp239
g6
g127
sg8
g9
(g13
S'\x8a\xe3\x07\x1a\x17\xbd(@'
p240
tp241
Rp242
sg19
I0
sg20
g21
(S'\x07\xdd\t\x1d\x13\x0c4\tu5'
p243
tp244
Rp245
sg25
I0
sg26
g27
(g28
(I0
tp246
g30
tp247
Rp248
(I1
(I2
tp249
g36
I00
S'c\x00\x00\x00f\x00\x00\x00'
p250
tp251
bsba(i__main__
FrameData
p252
(dp253
g6
g127
sg8
g9
(g13
S'8H\x9b\x97\xee\xae*@'
p254
tp255
Rp256
sg19
I0
sg20
g21
(S'\x07\xdd\t\x1d\x13\x0c4\t\x9a\xbc'
p257
tp258
Rp259
sg25
I0
sg26
g27
(g28
(I0
tp260
g30
tp261
Rp262
(I1
(I2
tp263
g36
I00
S'c\x00\x00\x00e\x00\x00\x00'
p264
tp265
bsba(i__main__
FrameData
p266
(dp267
g6
g127
sg8
g9
(g13
S'Qf\x99\xcb\xa9\x13*@'
p268
tp269
Rp270
sg19
I0
sg20
g21
(S'\x07\xdd\t\x1d\x13\x0c4\n7\xfd'
p271
tp272
Rp273
sg25
I0
sg26
g27
(g28
(I0
tp274
g30
tp275
Rp276
(I1
(I2
tp277
g36
I00
S'a\x00\x00\x00e\x00\x00\x00'
p278
tp279
bsba(i__main__
FrameData
p280
(dp281
g6
g127
sg8
g9
(g13
S')\x03\xec/C\x12,@'
p282
tp283
Rp284
sg19
I0
sg20
g21
(S'\x07\xdd\t\x1d\x13\x0c4\n_c'
p285
tp286
Rp287
sg25
I0
sg26
g27
(g28
(I0
tp288
g30
tp289
Rp290
(I1
(I2
tp291
g36
I00
S'a\x00\x00\x00d\x00\x00\x00'
p292
tp293
bsba(i__main__
FrameData
p294
(dp295
g6
g127
sg8
g9
(g13
S'p`\xff\x00\xfe\x070@'
p296
tp297
Rp298
sg19
I0
sg20
g21
(S'\x07\xdd\t\x1d\x13\x0c4\n\xad]'
p299
tp300
Rp301
sg25
I0
sg26
g27
(g28
(I0
tp302
g30
tp303
Rp304
(I1
(I2
tp305
g36
I00
S'_\x00\x00\x00b\x00\x00\x00'
p306
tp307
bsba(i__main__
FrameData
p308
(dp309
g6
g127
sg8
g9
(g13
S'f\xee@\x9f\x03\x1e1@'
p310
tp311
Rp312
sg19
I0
sg20
g21
(S'\x07\xdd\t\x1d\x13\x0c4\n\xfbe'
p313
tp314
Rp315
sg25
I0
sg26
g27
(g28
(I0
tp316
g30
tp317
Rp318
(I1
(I2
tp319
g36
I00
S'^\x00\x00\x00a\x00\x00\x00'
p320
tp321
bsba(i__main__
FrameData
p322
(dp323
g6
g127
sg8
g9
(g13
S'$\xf8\xd9p[\x1c2@'
p324
tp325
Rp326
sg19
I0
sg20
g21
(S'\x07\xdd\t\x1d\x13\x0c4\x0b!\x8c'
p327
tp328
Rp329
sg25
I0
sg26
g27
(g28
(I0
tp330
g30
tp331
Rp332
(I1
(I2
tp333
g36
I00
S'^\x00\x00\x00`\x00\x00\x00'
p334
tp335
bsba(i__main__
FrameData
p336
(dp337
g6
g127
sg8
g9
(g13
S'\xc9\xe0>!B<3@'
p338
tp339
Rp340
sg19
I0
sg20
g21
(S'\x07\xdd\t\x1d\x13\x0c4\x0bp\xff'
p341
tp342
Rp343
sg25
I0
sg26
g27
(g28
(I0
tp344
g30
tp345
Rp346
(I1
(I2
tp347
g36
I00
S']\x00\x00\x00_\x00\x00\x00'
p348
tp349
bsba(i__main__
FrameData
p350
(dp351
g6
g127
sg8
g9
(g13
S'\xf6/\x12_ee4@'
p352
tp353
Rp354
sg19
I0
sg20
g21
(S'\x07\xdd\t\x1d\x13\x0c4\x0b\xbe\xcf'
p355
tp356
Rp357
sg25
I0
sg26
g27
(g28
(I0
tp358
g30
tp359
Rp360
(I1
(I2
tp361
g36
I00
S'\\\x00\x00\x00^\x00\x00\x00'
p362
tp363
bsba(i__main__
FrameData
p364
(dp365
g6
S'r'
p366
sg8
g9
(g13
S'\x88\x80v\xd5\\\x974@'
p367
tp368
Rp369
sg19
I0
sg20
g21
(S'\x07\xdd\t\x1d\x13\x0c4\x0b\xe6\x02'
p370
tp371
Rp372
sg25
I0
sg26
g27
(g28
(I0
tp373
g30
tp374
Rp375
(I1
(I2
tp376
g36
I00
S'\\\x00\x00\x00]\x00\x00\x00'
p377
tp378
bsba(i__main__
FrameData
p379
(dp380
g6
g366
sg8
g9
(g13
S'\xa8\xf4\x97\x9bw\xe31@'
p381
tp382
Rp383
sg19
I0
sg20
g21
(S'\x07\xdd\t\x1d\x13\x0c4\x0c&\xb2'
p384
tp385
Rp386
sg25
I0
sg26
g27
(g28
(I0
tp387
g30
tp388
Rp389
(I1
(I2
tp390
g36
I00
S'Z\x00\x00\x00[\x00\x00\x00'
p391
tp392
bsba(i__main__
FrameData
p393
(dp394
g6
g366
sg8
g9
(g13
S'\xe4\x10\xe4sW\x0f)@'
p395
tp396
Rp397
sg19
I0
sg20
g21
(S'\x07\xdd\t\x1d\x13\x0c4\x0c\x822'
p398
tp399
Rp400
sg25
I0
sg26
g27
(g28
(I0
tp401
g30
tp402
Rp403
(I1
(I2
tp404
g36
I00
S'X\x00\x00\x00V\x00\x00\x00'
p405
tp406
bsba(i__main__
FrameData
p407
(dp408
g6
g366
sg8
g9
(g13
S'\xf3YaD+\xd8\x1c@'
p409
tp410
Rp411
sg19
I0
sg20
g21
(S'\x07\xdd\t\x1d\x13\x0c4\x0c\xa9k'
p412
tp413
Rp414
sg25
I0
sg26
g27
(g28
(I0
tp415
g30
tp416
Rp417
(I1
(I2
tp418
g36
I00
S'V\x00\x00\x00Q\x00\x00\x00'
p419
tp420
bsba(i__main__
FrameData
p421
(dp422
g6
g366
sg8
g9
(g13
S'\x00\x00\x00\x00\x00\x00\x00@'
p423
tp424
Rp425
sg19
I0
sg20
g21
(S'\x07\xdd\t\x1d\x13\x0c4\x0c\xf8\x05'
p426
tp427
Rp428
sg25
I0
sg26
g27
(g28
(I0
tp429
g30
tp430
Rp431
(I1
(I2
tp432
g36
I00
S'T\x00\x00\x00K\x00\x00\x00'
p433
tp434
bsba(i__main__
FrameData
p435
(dp436
g6
g366
sg8
g9
(g13
S'\xa8\xf4\x97\x9bw\xe3\x01@'
p437
tp438
Rp439
sg19
I0
sg20
g21
(S'\x07\xdd\t\x1d\x13\x0c4\rE\x88'
p440
tp441
Rp442
sg25
I0
sg26
g27
(g28
(I0
tp443
g30
tp444
Rp445
(I1
(I2
tp446
g36
I00
S'T\x00\x00\x00J\x00\x00\x00'
p447
tp448
bsba(i__main__
FrameData
p449
(dp450
g6
g366
sg8
g9
(g13
S'S[\xda:XL\t@'
p451
tp452
Rp453
sg19
I0
sg20
g21
(S'\x07\xdd\t\x1d\x13\x0c4\rkn'
p454
tp455
Rp456
sg25
I0
sg26
g27
(g28
(I0
tp457
g30
tp458
Rp459
(I1
(I2
tp460
g36
I00
S'S\x00\x00\x00H\x00\x00\x00'
p461
tp462
bsba(i__main__
FrameData
p463
(dp464
g6
g366
sg8
g9
(g13
S'\x07\xed\xaff\x0f~\x10@'
p465
tp466
Rp467
sg19
I0
sg20
g21
(S'\x07\xdd\t\x1d\x13\x0c4\r\xbb\xa8'
p468
tp469
Rp470
sg25
I0
sg26
g27
(g28
(I0
tp471
g30
tp472
Rp473
(I1
(I2
tp474
g36
I00
S'S\x00\x00\x00G\x00\x00\x00'
p475
tp476
bsba(i__main__
FrameData
p477
(dp478
g6
g366
sg8
g9
(g13
S'\xf6/\x12_ee\x14@'
p479
tp480
Rp481
sg19
I0
sg20
g21
(S'\x07\xdd\t\x1d\x13\x0c4\x0e\t\x8f'
p482
tp483
Rp484
sg25
I0
sg26
g27
(g28
(I0
tp485
g30
tp486
Rp487
(I1
(I2
tp488
g36
I00
S'S\x00\x00\x00F\x00\x00\x00'
p489
tp490
bsba(i__main__
FrameData
p491
(dp492
g6
g366
sg8
g9
(g13
S'9\xdcc\xb3\xbfT\x18@'
p493
tp494
Rp495
sg19
I0
sg20
g21
(S'\x07\xdd\t\x1d\x13\x0c4\x0e\x7f\\'
p496
tp497
Rp498
sg25
I0
sg26
g27
(g28
(I0
tp499
g30
tp500
Rp501
(I1
(I2
tp502
g36
I00
S'S\x00\x00\x00E\x00\x00\x00'
p503
tp504
bsba(i__main__
FrameData
p505
(dp506
g6
g366
sg8
g9
(g13
S'\xc0\n\x1f\x00\xc6H\x1c@'
p507
tp508
Rp509
sg19
I0
sg20
g21
(S'\x07\xdd\t\x1d\x13\x0c4\x0e\xbb\x10'
p510
tp511
Rp512
sg25
I0
sg26
g27
(g28
(I0
tp513
g30
tp514
Rp515
(I1
(I2
tp516
g36
I00
S'S\x00\x00\x00D\x00\x00\x00'
p517
tp518
bsba(i__main__
FrameData
p519
(dp520
g6
g366
sg8
g9
(g13
S'\xc0\n\x1f\x00\xc6H\x1c@'
p521
tp522
Rp523
sg19
I0
sg20
g21
(S'\x07\xdd\t\x1d\x13\x0c4\x0e\xf3~'
p524
tp525
Rp526
sg25
I0
sg26
g27
(g28
(I0
tp527
g30
tp528
Rp529
(I1
(I2
tp530
g36
I00
S'Q\x00\x00\x00D\x00\x00\x00'
p531
tp532
bsba(i__main__
FrameData
p533
(dp534
g6
g366
sg8
g9
(g13
S'\xd0\xbaa?\xe0\x1f @'
p535
tp536
Rp537
sg19
I0
sg20
g21
(S'\x07\xdd\t\x1d\x13\x0c4\x0f5\x9a'
p538
tp539
Rp540
sg25
I0
sg26
g27
(g28
(I0
tp541
g30
tp542
Rp543
(I1
(I2
tp544
g36
I00
S'Q\x00\x00\x00C\x00\x00\x00'
p545
tp546
bsba(i__main__
FrameData
p547
(dp548
g6
g366
sg8
g9
(g13
S'\xc0\n\x1f\x00\xc6H\x1c@'
p549
tp550
Rp551
sg19
I0
sg20
g21
(S'\x07\xdd\t\x1d\x13\x0c5\x02\x8b)'
p552
tp553
Rp554
sg25
I0
sg26
g27
(g28
(I0
tp555
g30
tp556
Rp557
(I1
(I2
tp558
g36
I00
S'Q\x00\x00\x00D\x00\x00\x00'
p559
tp560
bsba(i__main__
FrameData
p561
(dp562
g6
g366
sg8
g9
(g13
S'9\xdcc\xb3\xbfT\x18@'
p563
tp564
Rp565
sg19
I0
sg20
g21
(S'\x07\xdd\t\x1d\x13\x0c5\x03!\xe8'
p566
tp567
Rp568
sg25
I0
sg26
g27
(g28
(I0
tp569
g30
tp570
Rp571
(I1
(I2
tp572
g36
I00
S'Q\x00\x00\x00E\x00\x00\x00'
p573
tp574
bsba(i__main__
FrameData
p575
(dp576
g6
g366
sg8
g9
(g13
S'\xf6/\x12_ee\x14@'
p577
tp578
Rp579
sg19
I0
sg20
g21
(S'\x07\xdd\t\x1d\x13\x0c5\x03\x9c\xa8'
p580
tp581
Rp582
sg25
I0
sg26
g27
(g28
(I0
tp583
g30
tp584
Rp585
(I1
(I2
tp586
g36
I00
S'Q\x00\x00\x00F\x00\x00\x00'
p587
tp588
bsba(i__main__
FrameData
p589
(dp590
g6
g366
sg8
g9
(g13
S'\x07\xed\xaff\x0f~\x10@'
p591
tp592
Rp593
sg19
I0
sg20
g21
(S'\x07\xdd\t\x1d\x13\x0c5\x04\x11\x05'
p594
tp595
Rp596
sg25
I0
sg26
g27
(g28
(I0
tp597
g30
tp598
Rp599
(I1
(I2
tp600
g36
I00
S'Q\x00\x00\x00G\x00\x00\x00'
p601
tp602
bsba(i__main__
FrameData
p603
(dp604
g6
g366
sg8
g9
(g13
S'S[\xda:XL\t@'
p605
tp606
Rp607
sg19
I0
sg20
g21
(S'\x07\xdd\t\x1d\x13\x0c5\x04\xae\x8f'
p608
tp609
Rp610
sg25
I0
sg26
g27
(g28
(I0
tp611
g30
tp612
Rp613
(I1
(I2
tp614
g36
I00
S'Q\x00\x00\x00H\x00\x00\x00'
p615
tp616
bsba(i__main__
FrameData
p617
(dp618
g6
g366
sg8
g9
(g13
S'\xa8\xf4\x97\x9bw\xe3\x01@'
p619
tp620
Rp621
sg19
I0
sg20
g21
(S'\x07\xdd\t\x1d\x13\x0c5\x04\xd4N'
p622
tp623
Rp624
sg25
I0
sg26
g27
(g28
(I0
tp625
g30
tp626
Rp627
(I1
(I2
tp628
g36
I00
S'Q\x00\x00\x00I\x00\x00\x00'
p629
tp630
bsba(i__main__
FrameData
p631
(dp632
g6
g366
sg8
g9
(g13
S'\xcd;\x7ff\x9e\xa0\xf6?'
p633
tp634
Rp635
sg19
I0
sg20
g21
(S'\x07\xdd\t\x1d\x13\x0c5\x05\x0b]'
p636
tp637
Rp638
sg25
I0
sg26
g27
(g28
(I0
tp639
g30
tp640
Rp641
(I1
(I2
tp642
g36
I00
S'Q\x00\x00\x00J\x00\x00\x00'
p643
tp644
bsba(i__main__
FrameData
p645
(dp646
g6
g366
sg8
g9
(g13
S'\x00\x00\x00\x00\x00\x00\xf0?'
p647
tp648
Rp649
sg19
I0
sg20
g21
(S'\x07\xdd\t\x1d\x13\x0c5\x05q\xaf'
p650
tp651
Rp652
sg25
I0
sg26
g27
(g28
(I0
tp653
g30
tp654
Rp655
(I1
(I2
tp656
g36
I00
S'Q\x00\x00\x00K\x00\x00\x00'
p657
tp658
bsba(i__main__
FrameData
p659
(dp660
g6
g366
sg8
g9
(g13
S'\xa8\xf4\x97\x9bw\xe3\x01@'
p661
tp662
Rp663
sg19
I0
sg20
g21
(S'\x07\xdd\t\x1d\x13\x0c5\x05\x98\xf5'
p664
tp665
Rp666
sg25
I0
sg26
g27
(g28
(I0
tp667
g30
tp668
Rp669
(I1
(I2
tp670
g36
I00
S'Q\x00\x00\x00M\x00\x00\x00'
p671
tp672
bsba(i__main__
FrameData
p673
(dp674
g6
g366
sg8
g9
(g13
S'S[\xda:XL\t@'
p675
tp676
Rp677
sg19
I0
sg20
g21
(S'\x07\xdd\t\x1d\x13\x0c5\x05\xe7\x16'
p678
tp679
Rp680
sg25
I0
sg26
g27
(g28
(I0
tp681
g30
tp682
Rp683
(I1
(I2
tp684
g36
I00
S'Q\x00\x00\x00N\x00\x00\x00'
p685
tp686
bsba(i__main__
FrameData
p687
(dp688
g6
g366
sg8
g9
(g13
S'\x07\xed\xaff\x0f~\x10@'
p689
tp690
Rp691
sg19
I0
sg20
g21
(S'\x07\xdd\t\x1d\x13\x0c5\x06\x11\xd7'
p692
tp693
Rp694
sg25
I0
sg26
g27
(g28
(I0
tp695
g30
tp696
Rp697
(I1
(I2
tp698
g36
I00
S'Q\x00\x00\x00O\x00\x00\x00'
p699
tp700
bsba(i__main__
FrameData
p701
(dp702
g6
g366
sg8
g9
(g13
S'\xf6/\x12_ee\x14@'
p703
tp704
Rp705
sg19
I0
sg20
g21
(S'\x07\xdd\t\x1d\x13\x0c5\x06\xa2\xc9'
p706
tp707
Rp708
sg25
I0
sg26
g27
(g28
(I0
tp709
g30
tp710
Rp711
(I1
(I2
tp712
g36
I00
S'Q\x00\x00\x00P\x00\x00\x00'
p713
tp714
bsba(i__main__
FrameData
p715
(dp716
g6
g366
sg8
g9
(g13
S'\x00\x00\x00\x00\x00\x00\x14@'
p717
tp718
Rp719
sg19
I0
sg20
g21
(S'\x07\xdd\t\x1d\x13\x0c5\x07\x1e\xc0'
p720
tp721
Rp722
sg25
I0
sg26
g27
(g28
(I0
tp723
g30
tp724
Rp725
(I1
(I2
tp726
g36
I00
S'R\x00\x00\x00P\x00\x00\x00'
p727
tp728
bsba(i__main__
FrameData
p729
(dp730
g6
g366
sg8
g9
(g13
S'\xf6/\x12_ee\x14@'
p731
tp732
Rp733
sg19
I0
sg20
g21
(S'\x07\xdd\t\x1d\x13\x0c5\x07X$'
p734
tp735
Rp736
sg25
I0
sg26
g27
(g28
(I0
tp737
g30
tp738
Rp739
(I1
(I2
tp740
g36
I00
S'S\x00\x00\x00P\x00\x00\x00'
p741
tp742
bsba(i__main__
FrameData
p743
(dp744
g6
g366
sg8
g9
(g13
S'\xf3\xd9\xa8\xa4h\x8a\x15@'
p745
tp746
Rp747
sg19
I0
sg20
g21
(S'\x07\xdd\t\x1d\x13\x0c5\x07\xe36'
p748
tp749
Rp750
sg25
I0
sg26
g27
(g28
(I0
tp751
g30
tp752
Rp753
(I1
(I2
tp754
g36
I00
S'T\x00\x00\x00P\x00\x00\x00'
p755
tp756
bsba(i__main__
FrameData
p757
(dp758
g6
g366
sg8
g9
(g13
S'\xa2\xa3\xb3\r\xe5R\x17@'
p759
tp760
Rp761
sg19
I0
sg20
g21
(S'\x07\xdd\t\x1d\x13\x0c5\x081v'
p762
tp763
Rp764
sg25
I0
sg26
g27
(g28
(I0
tp765
g30
tp766
Rp767
(I1
(I2
tp768
g36
I00
S'U\x00\x00\x00P\x00\x00\x00'
p769
tp770
bsba(i__main__
FrameData
p771
(dp772
g6
g366
sg8
g9
(g13
S'\x00\xff\x9f\x99\xcc\x9c\x19@'
p773
tp774
Rp775
sg19
I0
sg20
g21
(S"\x07\xdd\t\x1d\x13\x0c5\x08m'"
p776
tp777
Rp778
sg25
I0
sg26
g27
(g28
(I0
tp779
g30
tp780
Rp781
(I1
(I2
tp782
g36
I00
S'V\x00\x00\x00P\x00\x00\x00'
p783
tp784
bsba(i__main__
FrameData
p785
(dp786
g6
g366
sg8
g9
(g13
S'\xc0\n\x1f\x00\xc6H\x1c@'
p787
tp788
Rp789
sg19
I0
sg20
g21
(S'\x07\xdd\t\x1d\x13\x0c5\x08\xa6\xb8'
p790
tp791
Rp792
sg25
I0
sg26
g27
(g28
(I0
tp793
g30
tp794
Rp795
(I1
(I2
tp796
g36
I00
S'W\x00\x00\x00P\x00\x00\x00'
p797
tp798
bsba(i__main__
FrameData
p799
(dp800
g6
g366
sg8
g9
(g13
S'htN\x17\xb2=\x1f@'
p801
tp802
Rp803
sg19
I0
sg20
g21
(S'\x07\xdd\t\x1d\x13\x0c5\x08\xf5\x01'
p804
tp805
Rp806
sg25
I0
sg26
g27
(g28
(I0
tp807
g30
tp808
Rp809
(I1
(I2
tp810
g36
I00
S'X\x00\x00\x00P\x00\x00\x00'
p811
tp812
bsba(i__main__
FrameData
p813
(dp814
g6
g366
sg8
g9
(g13
S'N\x017\xfac4!@'
p815
tp816
Rp817
sg19
I0
sg20
g21
(S'\x07\xdd\t\x1d\x13\x0c5\t o'
p818
tp819
Rp820
sg25
I0
sg26
g27
(g28
(I0
tp821
g30
tp822
Rp823
(I1
(I2
tp824
g36
I00
S'Y\x00\x00\x00P\x00\x00\x00'
p825
tp826
bsba(i__main__
FrameData
p827
(dp828
g6
g366
sg8
g9
(g13
S'\x88\x80v\xd5\\\x97$@'
p829
tp830
Rp831
sg19
I0
sg20
g21
(S'\x07\xdd\t\x1d\x13\x0c5\tar'
p832
tp833
Rp834
sg25
I0
sg26
g27
(g28
(I0
tp835
g30
tp836
Rp837
(I1
(I2
tp838
g36
I00
S'[\x00\x00\x00P\x00\x00\x00'
p839
tp840
bsba(i__main__
FrameData
p841
(dp842
g6
S't'
p843
sg8
g9
(g13
S'\xd2\xf1}\x82U\\&@'
p844
tp845
Rp846
sg19
I0
sg20
g21
(S'\x07\xdd\t\x1d\x13\x0c5\t\xaa\xb6'
p847
tp848
Rp849
sg25
I0
sg26
g27
(g28
(I0
tp850
g30
tp851
Rp852
(I1
(I2
tp853
g36
I00
S'`\x00\x00\x00P\x00\x00\x00'
p854
tp855
bsba(i__main__
FrameData
p856
(dp857
g6
g843
sg8
g9
(g13
S'N\x017\xfac4!@'
p858
tp859
Rp860
sg19
I0
sg20
g21
(S'\x07\xdd\t\x1d\x13\x0c5\t\xe8\xc7'
p861
tp862
Rp863
sg25
I0
sg26
g27
(g28
(I0
tp864
g30
tp865
Rp866
(I1
(I2
tp867
g36
I00
S'e\x00\x00\x00R\x00\x00\x00'
p868
tp869
bsba(i__main__
FrameData
p870
(dp871
g6
g843
sg8
g9
(g13
S'\x07\xed\xaff\x0f~ @'
p872
tp873
Rp874
sg19
I0
sg20
g21
(S'\x07\xdd\t\x1d\x13\x0c5\n-\x02'
p875
tp876
Rp877
sg25
I0
sg26
g27
(g28
(I0
tp878
g30
tp879
Rp880
(I1
(I2
tp881
g36
I00
S'l\x00\x00\x00S\x00\x00\x00'
p882
tp883
bsba(i__main__
FrameData
p884
(dp885
g6
g843
sg8
g9
(g13
S'F\xc3\\\xa8\xc1i(@'
p886
tp887
Rp888
sg19
I0
sg20
g21
(S'\x07\xdd\t\x1d\x13\x0c5\nn,'
p889
tp890
Rp891
sg25
I0
sg26
g27
(g28
(I0
tp892
g30
tp893
Rp894
(I1
(I2
tp895
g36
I00
S'q\x00\x00\x00U\x00\x00\x00'
p896
tp897
bsba(i__main__
FrameData
p898
(dp899
g6
S'y'
p900
sg8
g9
(g13
S'\xef\rI\xf1\xf33+@'
p901
tp902
Rp903
sg19
I0
sg20
g21
(S'\x07\xdd\t\x1d\x13\x0c5\n\xbc6'
p904
tp905
Rp906
sg25
I0
sg26
g27
(g28
(I0
tp907
g30
tp908
Rp909
(I1
(I2
tp910
g36
I00
S'w\x00\x00\x00U\x00\x00\x00'
p911
tp912
bsba(i__main__
FrameData
p913
(dp914
g6
g900
sg8
g9
(g13
S'\xd0\xbaa?\xe0\x1f @'
p915
tp916
Rp917
sg19
I0
sg20
g21
(S'\x07\xdd\t\x1d\x13\x0c5\x0b\nf'
p918
tp919
Rp920
sg25
I0
sg26
g27
(g28
(I0
tp921
g30
tp922
Rp923
(I1
(I2
tp924
g36
I00
S'\x81\x00\x00\x00U\x00\x00\x00'
p925
tp926
bsba(i__main__
FrameData
p927
(dp928
g6
g900
sg8
g9
(g13
S'\xa8\xf4\x97\x9bw\xe3!@'
p929
tp930
Rp931
sg19
I0
sg20
g21
(S'\x07\xdd\t\x1d\x13\x0c5\x0b0E'
p932
tp933
Rp934
sg25
I0
sg26
g27
(g28
(I0
tp935
g30
tp936
Rp937
(I1
(I2
tp938
g36
I00
S'\x86\x00\x00\x00U\x00\x00\x00'
p939
tp940
bsba(i__main__
FrameData
p941
(dp942
g6
g900
sg8
g9
(g13
S'\x00\xff\x9f\x99\xcc\x9c)@'
p943
tp944
Rp945
sg19
I0
sg20
g21
(S'\x07\xdd\t\x1d\x13\x0c5\x0b\x7f\x85'
p946
tp947
Rp948
sg25
I0
sg26
g27
(g28
(I0
tp949
g30
tp950
Rp951
(I1
(I2
tp952
g36
I00
S'\x8c\x00\x00\x00U\x00\x00\x00'
p953
tp954
bsba(i__main__
FrameData
p955
(dp956
g6
S'u'
p957
sg8
g9
(g13
S'Qf\x99\xcb\xa9\x13*@'
p958
tp959
Rp960
sg19
I0
sg20
g21
(S'\x07\xdd\t\x1d\x13\x0c5\x0b\xbf\x84'
p961
tp962
Rp963
sg25
I0
sg26
g27
(g28
(I0
tp964
g30
tp965
Rp966
(I1
(I2
tp967
g36
I00
S'\x91\x00\x00\x00U\x00\x00\x00'
p968
tp969
bsba(i__main__
FrameData
p970
(dp971
g6
g957
sg8
g9
(g13
S"\xe0\x11<m\xceh'@"
p972
tp973
Rp974
sg19
I0
sg20
g21
(S'\x07\xdd\t\x1d\x13\x0c5\x0b\xf5\xf8'
p975
tp976
Rp977
sg25
I0
sg26
g27
(g28
(I0
tp978
g30
tp979
Rp980
(I1
(I2
tp981
g36
I00
S'\x94\x00\x00\x00U\x00\x00\x00'
p982
tp983
bsba(i__main__
FrameData
p984
(dp985
g6
g957
sg8
g9
(g13
S'\xd2\xf1}\x82U\\&@'
p986
tp987
Rp988
sg19
I0
sg20
g21
(S'\x07\xdd\t\x1d\x13\x0c5\x0cB\xc6'
p989
tp990
Rp991
sg25
I0
sg26
g27
(g28
(I0
tp992
g30
tp993
Rp994
(I1
(I2
tp995
g36
I00
S'\x96\x00\x00\x00U\x00\x00\x00'
p996
tp997
bsba(i__main__
FrameData
p998
(dp999
g6
g957
sg8
g9
(g13
S'\x00\x00\x00\x00\x00\x00&@'
p1000
tp1001
Rp1002
sg19
I0
sg20
g21
(S'\x07\xdd\t\x1d\x13\x0c5\x0c\x90\xb3'
p1003
tp1004
Rp1005
sg25
I0
sg26
g27
(g28
(I0
tp1006
g30
tp1007
Rp1008
(I1
(I2
tp1009
g36
I00
S'\x98\x00\x00\x00U\x00\x00\x00'
p1010
tp1011
bsba(i__main__
FrameData
p1012
(dp1013
g6
g957
sg8
g9
(g13
S'\xeb\x12\xb2\xbb\xb2\xcd&@'
p1014
tp1015
Rp1016
sg19
I0
sg20
g21
(S'\x07\xdd\t\x1d\x13\x0c5\x0c\xb7\xfc'
p1017
tp1018
Rp1019
sg25
I0
sg26
g27
(g28
(I0
tp1020
g30
tp1021
Rp1022
(I1
(I2
tp1023
g36
I00
S'\x9b\x00\x00\x00U\x00\x00\x00'
p1024
tp1025
bsba(i__main__
FrameData
p1026
(dp1027
g6
g957
sg8
g9
(g13
S"\xe0\x11<m\xceh'@"
p1028
tp1029
Rp1030
sg19
I0
sg20
g21
(S'\x07\xdd\t\x1d\x13\x0c5\x0c\xf3m'
p1031
tp1032
Rp1033
sg25
I0
sg26
g27
(g28
(I0
tp1034
g30
tp1035
Rp1036
(I1
(I2
tp1037
g36
I00
S'\x9c\x00\x00\x00U\x00\x00\x00'
p1038
tp1039
bsba(i__main__
FrameData
p1040
(dp1041
g6
g957
sg8
g9
(g13
S'\xe4\x10\xe4sW\x0f)@'
p1042
tp1043
Rp1044
sg19
I0
sg20
g21
(S'\x07\xdd\t\x1d\x13\x0c5\rU\x1c'
p1045
tp1046
Rp1047
sg25
I0
sg26
g27
(g28
(I0
tp1048
g30
tp1049
Rp1050
(I1
(I2
tp1051
g36
I00
S'\x9e\x00\x00\x00U\x00\x00\x00'
p1052
tp1053
bsba(i__main__
FrameData
p1054
(dp1055
g6
g957
sg8
g9
(g13
S'F\xc3\\\xa8\xc1i(@'
p1056
tp1057
Rp1058
sg19
I0
sg20
g21
(S'\x07\xdd\t\x1d\x13\x0c5\r{s'
p1059
tp1060
Rp1061
sg25
I0
sg26
g27
(g28
(I0
tp1062
g30
tp1063
Rp1064
(I1
(I2
tp1065
g36
I00
S'\x9f\x00\x00\x00T\x00\x00\x00'
p1066
tp1067
bsba(i__main__
FrameData
p1068
(dp1069
g6
g957
sg8
g9
(g13
S'\x00\xff\x9f\x99\xcc\x9c)@'
p1070
tp1071
Rp1072
sg19
I0
sg20
g21
(S'\x07\xdd\t\x1d\x13\x0c5\r\xc8\x98'
p1073
tp1074
Rp1075
sg25
I0
sg26
g27
(g28
(I0
tp1076
g30
tp1077
Rp1078
(I1
(I2
tp1079
g36
I00
S'\xa0\x00\x00\x00T\x00\x00\x00'
p1080
tp1081
bsba(i__main__
FrameData
p1082
(dp1083
g6
g957
sg8
g9
(g13
S'\xcd;\x7ff\x9e\xa0&@'
p1084
tp1085
Rp1086
sg19
I0
sg20
g21
(S'\x07\xdd\t\x1d\x13\x0c5\x0e\x17]'
p1087
tp1088
Rp1089
sg25
I0
sg26
g27
(g28
(I0
tp1090
g30
tp1091
Rp1092
(I1
(I2
tp1093
g36
I00
S'\xa0\x00\x00\x00R\x00\x00\x00'
p1094
tp1095
bsba(i__main__
FrameData
p1096
(dp1097
g6
g957
sg8
g9
(g13
S'&5w\xe2K\x15(@'
p1098
tp1099
Rp1100
sg19
I0
sg20
g21
(S'\x07\xdd\t\x1d\x13\x0c5\x0e\x8c\xe5'
p1101
tp1102
Rp1103
sg25
I0
sg26
g27
(g28
(I0
tp1104
g30
tp1105
Rp1106
(I1
(I2
tp1107
g36
I00
S'\xa1\x00\x00\x00R\x00\x00\x00'
p1108
tp1109
bsba(i__main__
FrameData
p1110
(dp1111
g6
g957
sg8
g9
(g13
S'\xeb\x12\xb2\xbb\xb2\xcd&@'
p1112
tp1113
Rp1114
sg19
I0
sg20
g21
(S'\x07\xdd\t\x1d\x13\x0c5\x0f\x01\x01'
p1115
tp1116
Rp1117
sg25
I0
sg26
g27
(g28
(I0
tp1118
g30
tp1119
Rp1120
(I1
(I2
tp1121
g36
I00
S'\xa1\x00\x00\x00Q\x00\x00\x00'
p1122
tp1123
bsba(i__main__
FrameData
p1124
(dp1125
g6
g957
sg8
g9
(g13
S'w\x03Is \xa2%@'
p1126
tp1127
Rp1128
sg19
I0
sg20
g21
(S'\x07\xdd\t\x1d\x13\x0c5\x0f<\xef'
p1129
tp1130
Rp1131
sg25
I0
sg26
g27
(g28
(I0
tp1132
g30
tp1133
Rp1134
(I1
(I2
tp1135
g36
I00
S'\xa1\x00\x00\x00P\x00\x00\x00'
p1136
tp1137
bsba(i__main__
FrameData
p1138
(dp1139
g6
g957
sg8
g9
(g13
S'\xe4\x10\xe4sW\x0f)@'
p1140
tp1141
Rp1142
sg19
I0
sg20
g21
(S'\x07\xdd\t\x1d\x13\x0c6\x00[\x99'
p1143
tp1144
Rp1145
sg25
I0
sg26
g27
(g28
(I0
tp1146
g30
tp1147
Rp1148
(I1
(I2
tp1149
g36
I00
S'\xa3\x00\x00\x00P\x00\x00\x00'
p1150
tp1151
bsba(i__main__
FrameData
p1152
(dp1153
g6
g957
sg8
g9
(g13
S'lNy\x00\x85*(@'
p1154
tp1155
Rp1156
sg19
I0
sg20
g21
(S'\x07\xdd\t\x1d\x13\x0c6\x00\x83!'
p1157
tp1158
Rp1159
sg25
I0
sg26
g27
(g28
(I0
tp1160
g30
tp1161
Rp1162
(I1
(I2
tp1163
g36
I00
S'\xa3\x00\x00\x00O\x00\x00\x00'
p1164
tp1165
bsba(i__main__
FrameData
p1166
(dp1167
g6
g957
sg8
g9
(g13
S"\xe0\x11<m\xceh'@"
p1168
tp1169
Rp1170
sg19
I0
sg20
g21
(S'\x07\xdd\t\x1d\x13\x0c6\x00\xbeX'
p1171
tp1172
Rp1173
sg25
I0
sg26
g27
(g28
(I0
tp1174
g30
tp1175
Rp1176
(I1
(I2
tp1177
g36
I00
S'\xa3\x00\x00\x00N\x00\x00\x00'
p1178
tp1179
bsba(i__main__
FrameData
p1180
(dp1181
g6
g957
sg8
g9
(g13
S'\xeb\x12\xb2\xbb\xb2\xcd&@'
p1182
tp1183
Rp1184
sg19
I0
sg20
g21
(S'\x07\xdd\t\x1d\x13\x0c6\x01\x1f+'
p1185
tp1186
Rp1187
sg25
I0
sg26
g27
(g28
(I0
tp1188
g30
tp1189
Rp1190
(I1
(I2
tp1191
g36
I00
S'\xa3\x00\x00\x00M\x00\x00\x00'
p1192
tp1193
bsba(i__main__
FrameData
p1194
(dp1195
g6
g957
sg8
g9
(g13
S'\xd2\xf1}\x82U\\&@'
p1196
tp1197
Rp1198
sg19
I0
sg20
g21
(S'\x07\xdd\t\x1d\x13\x0c6\x01Ek'
p1199
tp1200
Rp1201
sg25
I0
sg26
g27
(g28
(I0
tp1202
g30
tp1203
Rp1204
(I1
(I2
tp1205
g36
I00
S'\xa3\x00\x00\x00L\x00\x00\x00'
p1206
tp1207
bsba(i__main__
FrameData
p1208
(dp1209
g6
g957
sg8
g9
(g13
S'H\xaa*\x8f9\x17&@'
p1210
tp1211
Rp1212
sg19
I0
sg20
g21
(S'\x07\xdd\t\x1d\x13\x0c6\x01\x93E'
p1213
tp1214
Rp1215
sg25
I0
sg26
g27
(g28
(I0
tp1216
g30
tp1217
Rp1218
(I1
(I2
tp1219
g36
I00
S'\xa3\x00\x00\x00K\x00\x00\x00'
p1220
tp1221
bsba(i__main__
FrameData
p1222
(dp1223
g6
g957
sg8
g9
(g13
S'\x00\x00\x00\x00\x00\x00&@'
p1224
tp1225
Rp1226
sg19
I0
sg20
g21
(S'\x07\xdd\t\x1d\x13\x0c6\x01\xdey'
p1227
tp1228
Rp1229
sg25
I0
sg26
g27
(g28
(I0
tp1230
g30
tp1231
Rp1232
(I1
(I2
tp1233
g36
I00
S'\xa3\x00\x00\x00J\x00\x00\x00'
p1234
tp1235
bsba(i__main__
FrameData
p1236
(dp1237
g6
g957
sg8
g9
(g13
S'H\xaa*\x8f9\x17&@'
p1238
tp1239
Rp1240
sg19
I0
sg20
g21
(S'\x07\xdd\t\x1d\x13\x0c6\x02\tv'
p1241
tp1242
Rp1243
sg25
I0
sg26
g27
(g28
(I0
tp1244
g30
tp1245
Rp1246
(I1
(I2
tp1247
g36
I00
S'\xa3\x00\x00\x00I\x00\x00\x00'
p1248
tp1249
bsba(i__main__
FrameData
p1250
(dp1251
g6
g957
sg8
g9
(g13
S'\xd2\xf1}\x82U\\&@'
p1252
tp1253
Rp1254
sg19
I0
sg20
g21
(S'\x07\xdd\t\x1d\x13\x0c6\x03\x11\x83'
p1255
tp1256
Rp1257
sg25
I0
sg26
g27
(g28
(I0
tp1258
g30
tp1259
Rp1260
(I1
(I2
tp1261
g36
I00
S'\xa3\x00\x00\x00H\x00\x00\x00'
p1262
tp1263
bsba(i__main__
FrameData
p1264
(dp1265
g6
g957
sg8
g9
(g13
S'\xf6/\x12_ee$@'
p1266
tp1267
Rp1268
sg19
I0
sg20
g21
(S'\x07\xdd\t\x1d\x13\x0c6\x04$\x17'
p1269
tp1270
Rp1271
sg25
I0
sg26
g27
(g28
(I0
tp1272
g30
tp1273
Rp1274
(I1
(I2
tp1275
g36
I00
S'\xa2\x00\x00\x00H\x00\x00\x00'
p1276
tp1277
bsba(i__main__
FrameData
p1278
(dp1279
g6
g957
sg8
g9
(g13
S'\x9a.\x90!hp"@'
p1280
tp1281
Rp1282
sg19
I0
sg20
g21
(S'\x07\xdd\t\x1d\x13\x0c6\x04\xa1\xa1'
p1283
tp1284
Rp1285
sg25
I0
sg26
g27
(g28
(I0
tp1286
g30
tp1287
Rp1288
(I1
(I2
tp1289
g36
I00
S'\xa1\x00\x00\x00H\x00\x00\x00'
p1290
tp1291
bsba(i__main__
FrameData
p1292
(dp1293
g6
g957
sg8
g9
(g13
S'\x07\xed\xaff\x0f~ @'
p1294
tp1295
Rp1296
sg19
I0
sg20
g21
(S'\x07\xdd\t\x1d\x13\x0c6\x04\xf0\x0f'
p1297
tp1298
Rp1299
sg25
I0
sg26
g27
(g28
(I0
tp1300
g30
tp1301
Rp1302
(I1
(I2
tp1303
g36
I00
S'\xa0\x00\x00\x00H\x00\x00\x00'
p1304
tp1305
bsba(i__main__
FrameData
p1306
(dp1307
g6
g957
sg8
g9
(g13
S'\xe9\xfbv \xd5\x1e\x1d@'
p1308
tp1309
Rp1310
sg19
I0
sg20
g21
(S'\x07\xdd\t\x1d\x13\x0c6\x05b\x7f'
p1311
tp1312
Rp1313
sg25
I0
sg26
g27
(g28
(I0
tp1314
g30
tp1315
Rp1316
(I1
(I2
tp1317
g36
I00
S'\x9f\x00\x00\x00H\x00\x00\x00'
p1318
tp1319
bsba(i__main__
FrameData
p1320
(dp1321
g6
g957
sg8
g9
(g13
S'S[\xda:XL\x19@'
p1322
tp1323
Rp1324
sg19
I0
sg20
g21
(S'\x07\xdd\t\x1d\x13\x0c6\x05\xb2\xef'
p1325
tp1326
Rp1327
sg25
I0
sg26
g27
(g28
(I0
tp1328
g30
tp1329
Rp1330
(I1
(I2
tp1331
g36
I00
S'\x9e\x00\x00\x00H\x00\x00\x00'
p1332
tp1333
bsba(i__main__
FrameData
p1334
(dp1335
g6
g957
sg8
g9
(g13
S'\xf3\xd9\xa8\xa4h\x8a\x15@'
p1336
tp1337
Rp1338
sg19
I0
sg20
g21
(S'\x07\xdd\t\x1d\x13\x0c6\x06(B'
p1339
tp1340
Rp1341
sg25
I0
sg26
g27
(g28
(I0
tp1342
g30
tp1343
Rp1344
(I1
(I2
tp1345
g36
I00
S'\x9d\x00\x00\x00H\x00\x00\x00'
p1346
tp1347
bsba(i__main__
FrameData
p1348
(dp1349
g6
g957
sg8
g9
(g13
S'\xa8\xf4\x97\x9bw\xe3\x11@'
p1350
tp1351
Rp1352
sg19
I0
sg20
g21
(S'\x07\xdd\t\x1d\x13\x0c6\x06u%'
p1353
tp1354
Rp1355
sg25
I0
sg26
g27
(g28
(I0
tp1356
g30
tp1357
Rp1358
(I1
(I2
tp1359
g36
I00
S'\x9c\x00\x00\x00H\x00\x00\x00'
p1360
tp1361
bsba(i__main__
FrameData
p1362
(dp1363
g6
g957
sg8
g9
(g13
S'\xf3YaD+\xd8\x0c@'
p1364
tp1365
Rp1366
sg19
I0
sg20
g21
(S'\x07\xdd\t\x1d\x13\x0c6\x06\x9e\xf6'
p1367
tp1368
Rp1369
sg25
I0
sg26
g27
(g28
(I0
tp1370
g30
tp1371
Rp1372
(I1
(I2
tp1373
g36
I00
S'\x9b\x00\x00\x00H\x00\x00\x00'
p1374
tp1375
bsba(i__main__
FrameData
p1376
(dp1377
g6
g957
sg8
g9
(g13
S'\xd9l\xdf\xccv\xf8\x10@'
p1378
tp1379
Rp1380
sg19
I0
sg20
g21
(S'\x07\xdd\t\x1d\x13\x0c6\x07`\xae'
p1381
tp1382
Rp1383
sg25
I0
sg26
g27
(g28
(I0
tp1384
g30
tp1385
Rp1386
(I1
(I2
tp1387
g36
I00
S'\x9b\x00\x00\x00G\x00\x00\x00'
p1388
tp1389
bsba(i__main__
FrameData
p1390
(dp1391
g6
g957
sg8
g9
(g13
S'\xf3YaD+\xd8\x0c@'
p1392
tp1393
Rp1394
sg19
I0
sg20
g21
(S'\x07\xdd\t\x1d\x13\x0c6\x07\xb0\x12'
p1395
tp1396
Rp1397
sg25
I0
sg26
g27
(g28
(I0
tp1398
g30
tp1399
Rp1400
(I1
(I2
tp1401
g36
I00
S'\x9a\x00\x00\x00G\x00\x00\x00'
p1402
tp1403
bsba(i__main__
FrameData
p1404
(dp1405
g6
g957
sg8
g9
(g13
S'\xd9l\xdf\xccv\xf8\x10@'
p1406
tp1407
Rp1408
sg19
I0
sg20
g21
(S'\x07\xdd\t\x1d\x13\x0c6\r\xa0z'
p1409
tp1410
Rp1411
sg25
I0
sg26
g27
(g28
(I0
tp1412
g30
tp1413
Rp1414
(I1
(I2
tp1415
g36
I00
S'\x9b\x00\x00\x00G\x00\x00\x00'
p1416
tp1417
bsba(i__main__
FrameData
p1418
(dp1419
g6
g957
sg8
g9
(g13
S'\x00\x00\x00\x00\x00\x00\x14@'
p1420
tp1421
Rp1422
sg19
I0
sg20
g21
(S'\x07\xdd\t\x1d\x13\x0c6\r\xc9B'
p1423
tp1424
Rp1425
sg25
I0
sg26
g27
(g28
(I0
tp1426
g30
tp1427
Rp1428
(I1
(I2
tp1429
g36
I00
S'\x9c\x00\x00\x00G\x00\x00\x00'
p1430
tp1431
bsba(i__main__
FrameData
p1432
(dp1433
g6
g957
sg8
g9
(g13
S'\xa2\xa3\xb3\r\xe5R\x17@'
p1434
tp1435
Rp1436
sg19
I0
sg20
g21
(S'\x07\xdd\t\x1d\x13\x0c6\x0e\x16\xa8'
p1437
tp1438
Rp1439
sg25
I0
sg26
g27
(g28
(I0
tp1440
g30
tp1441
Rp1442
(I1
(I2
tp1443
g36
I00
S'\x9d\x00\x00\x00G\x00\x00\x00'
p1444
tp1445
bsba(i__main__
FrameData
p1446
(dp1447
g6
g957
sg8
g9
(g13
S'\xfc\xeeci3\xd5\x1a@'
p1448
tp1449
Rp1450
sg19
I0
sg20
g21
(S'\x07\xdd\t\x1d\x13\x0c6\x0e\x82\x0e'
p1451
tp1452
Rp1453
sg25
I0
sg26
g27
(g28
(I0
tp1454
g30
tp1455
Rp1456
(I1
(I2
tp1457
g36
I00
S'\x9e\x00\x00\x00G\x00\x00\x00'
p1458
tp1459
bsba(i__main__
FrameData
p1460
(dp1461
g6
g957
sg8
g9
(g13
S'p\xc4\x9d9\x8dv\x1e@'
p1462
tp1463
Rp1464
sg19
I0
sg20
g21
(S'\x07\xdd\t\x1d\x13\x0c6\x0e\xd0('
p1465
tp1466
Rp1467
sg25
I0
sg26
g27
(g28
(I0
tp1468
g30
tp1469
Rp1470
(I1
(I2
tp1471
g36
I00
S'\x9f\x00\x00\x00G\x00\x00\x00'
p1472
tp1473
bsba(i__main__
FrameData
p1474
(dp1475
g6
g957
sg8
g9
(g13
S'\xa3\x14\xae\xa8\x87\x16!@'
p1476
tp1477
Rp1478
sg19
I0
sg20
g21
(S'\x07\xdd\t\x1d\x13\x0c7\x00\x02\xa2'
p1479
tp1480
Rp1481
sg25
I0
sg26
g27
(g28
(I0
tp1482
g30
tp1483
Rp1484
(I1
(I2
tp1485
g36
I00
S'\xa0\x00\x00\x00G\x00\x00\x00'
p1486
tp1487
bsba(i__main__
FrameData
p1488
(dp1489
g6
g957
sg8
g9
(g13
S'~\xc4#,B\xf9"@'
p1490
tp1491
Rp1492
sg19
I0
sg20
g21
(S'\x07\xdd\t\x1d\x13\x0c7\x00\x9d\xf4'
p1493
tp1494
Rp1495
sg25
I0
sg26
g27
(g28
(I0
tp1496
g30
tp1497
Rp1498
(I1
(I2
tp1499
g36
I00
S'\xa1\x00\x00\x00G\x00\x00\x00'
p1500
tp1501
bsba(i__main__
FrameData
p1502
(dp1503
g6
g957
sg8
g9
(g13
S'\x9a.\x90!hp"@'
p1504
tp1505
Rp1506
sg19
I0
sg20
g21
(S'\x07\xdd\t\x1d\x13\x0c7\x01\x14r'
p1507
tp1508
Rp1509
sg25
I0
sg26
g27
(g28
(I0
tp1510
g30
tp1511
Rp1512
(I1
(I2
tp1513
g36
I00
S'\xa1\x00\x00\x00H\x00\x00\x00'
p1514
tp1515
bsba(i__main__
FrameData
p1516
(dp1517
g6
g957
sg8
g9
(g13
S'\xf6/\x12_ee$@'
p1518
tp1519
Rp1520
sg19
I0
sg20
g21
(S'\x07\xdd\t\x1d\x13\x0c7\x01bI'
p1521
tp1522
Rp1523
sg25
I0
sg26
g27
(g28
(I0
tp1524
g30
tp1525
Rp1526
(I1
(I2
tp1527
g36
I00
S'\xa2\x00\x00\x00H\x00\x00\x00'
p1528
tp1529
bsba(i__main__
FrameData
p1530
(dp1531
g6
g957
sg8
g9
(g13
S'\x00\x00\x00\x00\x00\x00$@'
p1532
tp1533
Rp1534
sg19
I0
sg20
g21
(S'\x07\xdd\t\x1d\x13\x0c7\x01\x89\xd7'
p1535
tp1536
Rp1537
sg25
I0
sg26
g27
(g28
(I0
tp1538
g30
tp1539
Rp1540
(I1
(I2
tp1541
g36
I00
S'\xa2\x00\x00\x00J\x00\x00\x00'
p1542
tp1543
bsba(i__main__
FrameData
p1544
(dp1545
g6
g957
sg8
g9
(g13
S'\xf0)#L\x89\x19$@'
p1546
tp1547
Rp1548
sg19
I0
sg20
g21
(S'\x07\xdd\t\x1d\x13\x0c7\x01\xcf\x9f'
p1549
tp1550
Rp1551
sg25
I0
sg26
g27
(g28
(I0
tp1552
g30
tp1553
Rp1554
(I1
(I2
tp1555
g36
I00
S'\xa2\x00\x00\x00K\x00\x00\x00'
p1556
tp1557
bsba(i__main__
FrameData
p1558
(dp1559
g6
g957
sg8
g9
(g13
S'\xf6/\x12_ee$@'
p1560
tp1561
Rp1562
sg19
I0
sg20
g21
(S'\x07\xdd\t\x1d\x13\x0c7\x02\r?'
p1563
tp1564
Rp1565
sg25
I0
sg26
g27
(g28
(I0
tp1566
g30
tp1567
Rp1568
(I1
(I2
tp1569
g36
I00
S'\xa2\x00\x00\x00L\x00\x00\x00'
p1570
tp1571
bsba(i__main__
FrameData
p1572
(dp1573
g6
g957
sg8
g9
(g13
S'\xf3\xd9\xa8\xa4h\x8a%@'
p1574
tp1575
Rp1576
sg19
I0
sg20
g21
(S'\x07\xdd\t\x1d\x13\x0c7\x02O\xd6'
p1577
tp1578
Rp1579
sg25
I0
sg26
g27
(g28
(I0
tp1580
g30
tp1581
Rp1582
(I1
(I2
tp1583
g36
I00
S'\xa2\x00\x00\x00N\x00\x00\x00'
p1584
tp1585
bsba(i__main__
FrameData
p1586
(dp1587
g6
g957
sg8
g9
(g13
S'lNy\x00\x85*(@'
p1588
tp1589
Rp1590
sg19
I0
sg20
g21
(S'\x07\xdd\t\x1d\x13\x0c7\x02\x94@'
p1591
tp1592
Rp1593
sg25
I0
sg26
g27
(g28
(I0
tp1594
g30
tp1595
Rp1596
(I1
(I2
tp1597
g36
I00
S'\xa3\x00\x00\x00O\x00\x00\x00'
p1598
tp1599
bsba(i__main__
FrameData
p1600
(dp1601
g6
g957
sg8
g9
(g13
S'\xe4\x10\xe4sW\x0f)@'
p1602
tp1603
Rp1604
sg19
I0
sg20
g21
(S'\x07\xdd\t\x1d\x13\x0c7\x02\xd23'
p1605
tp1606
Rp1607
sg25
I0
sg26
g27
(g28
(I0
tp1608
g30
tp1609
Rp1610
(I1
(I2
tp1611
g36
I00
S'\xa3\x00\x00\x00P\x00\x00\x00'
p1612
tp1613
bsba(i__main__
FrameData
p1614
(dp1615
g6
g957
sg8
g9
(g13
S'\xef\rI\xf1\xf33+@'
p1616
tp1617
Rp1618
sg19
I0
sg20
g21
(S'\x07\xdd\t\x1d\x13\x0c7\x03\x1e\xc7'
p1619
tp1620
Rp1621
sg25
I0
sg26
g27
(g28
(I0
tp1622
g30
tp1623
Rp1624
(I1
(I2
tp1625
g36
I00
S'\xa3\x00\x00\x00R\x00\x00\x00'
p1626
tp1627
bsba(i__main__
FrameData
p1628
(dp1629
g6
g957
sg8
g9
(g13
S'?*\x98"\xe3l,@'
p1630
tp1631
Rp1632
sg19
I0
sg20
g21
(S'\x07\xdd\t\x1d\x13\x0c7\x03a"'
p1633
tp1634
Rp1635
sg25
I0
sg26
g27
(g28
(I0
tp1636
g30
tp1637
Rp1638
(I1
(I2
tp1639
g36
I00
S'\xa3\x00\x00\x00S\x00\x00\x00'
p1640
tp1641
bsba(i__main__
FrameData
p1642
(dp1643
g6
g957
sg8
g9
(g13
S'\x10\xb3]\xc9`G0@'
p1644
tp1645
Rp1646
sg19
I0
sg20
g21
(S'\x07\xdd\t\x1d\x13\x0c7\x03\x96\x1f'
p1647
tp1648
Rp1649
sg25
I0
sg26
g27
(g28
(I0
tp1650
g30
tp1651
Rp1652
(I1
(I2
tp1653
g36
I00
S'\xa4\x00\x00\x00U\x00\x00\x00'
p1654
tp1655
bsba(i__main__
FrameData
p1656
(dp1657
g6
g957
sg8
g9
(g13
S'l\xd0\xe82\x1a\xb11@'
p1658
tp1659
Rp1660
sg19
I0
sg20
g21
(S'\x07\xdd\t\x1d\x13\x0c7\x03\xda\x9b'
p1661
tp1662
Rp1663
sg25
I0
sg26
g27
(g28
(I0
tp1664
g30
tp1665
Rp1666
(I1
(I2
tp1667
g36
I00
S'\xa4\x00\x00\x00W\x00\x00\x00'
p1668
tp1669
bsba(i__main__
FrameData
p1670
(dp1671
g6
S'i'
p1672
sg8
g9
(g13
S'^\x9e\x9f\x85\xdf\x1a3@'
p1673
tp1674
Rp1675
sg19
I0
sg20
g21
(S'\x07\xdd\t\x1d\x13\x0c7\x04\x1b\xb8'
p1676
tp1677
Rp1678
sg25
I0
sg26
g27
(g28
(I0
tp1679
g30
tp1680
Rp1681
(I1
(I2
tp1682
g36
I00
S'\xa5\x00\x00\x00Y\x00\x00\x00'
p1683
tp1684
bsba(i__main__
FrameData
p1685
(dp1686
g6
g1672
sg8
g9
(g13
S'\xb1\xe1\xb2\xa5\xa3f5@'
p1687
tp1688
Rp1689
sg19
I0
sg20
g21
(S'\x07\xdd\t\x1d\x13\x0c7\x04_\xb0'
p1690
tp1691
Rp1692
sg25
I0
sg26
g27
(g28
(I0
tp1693
g30
tp1694
Rp1695
(I1
(I2
tp1696
g36
I00
S'\xa5\x00\x00\x00\\\x00\x00\x00'
p1697
tp1698
bsba(i__main__
FrameData
p1699
(dp1700
g6
S'j'
p1701
sg8
g9
(g13
S'\x8fJ\x95`e\x064@'
p1702
tp1703
Rp1704
sg19
I0
sg20
g21
(S'\x07\xdd\t\x1d\x13\x0c7\x04\x9d\x13'
p1705
tp1706
Rp1707
sg25
I0
sg26
g27
(g28
(I0
tp1708
g30
tp1709
Rp1710
(I1
(I2
tp1711
g36
I00
S'\xa6\x00\x00\x00^\x00\x00\x00'
p1712
tp1713
bsba(i__main__
FrameData
p1714
(dp1715
g6
g1701
sg8
g9
(g13
S'\x00\x00\x00\x00\x00\x002@'
p1716
tp1717
Rp1718
sg19
I0
sg20
g21
(S'\x07\xdd\t\x1d\x13\x0c7\x04\xdb\xbb'
p1719
tp1720
Rp1721
sg25
I0
sg26
g27
(g28
(I0
tp1722
g30
tp1723
Rp1724
(I1
(I2
tp1725
g36
I00
S'\xa7\x00\x00\x00`\x00\x00\x00'
p1726
tp1727
bsba(i__main__
FrameData
p1728
(dp1729
g6
g1701
sg8
g9
(g13
S'\x00\x00\x00\x00\x00\x000@'
p1730
tp1731
Rp1732
sg19
I0
sg20
g21
(S'\x07\xdd\t\x1d\x13\x0c7\x05\x1b\x83'
p1733
tp1734
Rp1735
sg25
I0
sg26
g27
(g28
(I0
tp1736
g30
tp1737
Rp1738
(I1
(I2
tp1739
g36
I00
S'\xa7\x00\x00\x00b\x00\x00\x00'
p1740
tp1741
bsba(i__main__
FrameData
p1742
(dp1743
g6
g1701
sg8
g9
(g13
S'\x00\x00\x00\x00\x00\x00,@'
p1744
tp1745
Rp1746
sg19
I0
sg20
g21
(S'\x07\xdd\t\x1d\x13\x0c7\x05\\\xce'
p1747
tp1748
Rp1749
sg25
I0
sg26
g27
(g28
(I0
tp1750
g30
tp1751
Rp1752
(I1
(I2
tp1753
g36
I00
S'\xa7\x00\x00\x00d\x00\x00\x00'
p1754
tp1755
bsba(i__main__
FrameData
p1756
(dp1757
g6
g1701
sg8
g9
(g13
S'\x00\x00\x00\x00\x00\x00*@'
p1758
tp1759
Rp1760
sg19
I0
sg20
g21
(S'\x07\xdd\t\x1d\x13\x0c7\x05\xaf\xdd'
p1761
tp1762
Rp1763
sg25
I0
sg26
g27
(g28
(I0
tp1764
g30
tp1765
Rp1766
(I1
(I2
tp1767
g36
I00
S'\xa7\x00\x00\x00e\x00\x00\x00'
p1768
tp1769
bsba(i__main__
FrameData
p1770
(dp1771
g6
g1701
sg8
g9
(g13
S'\x00\x00\x00\x00\x00\x00(@'
p1772
tp1773
Rp1774
sg19
I0
sg20
g21
(S'\x07\xdd\t\x1d\x13\x0c7\x05\xe0!'
p1775
tp1776
Rp1777
sg25
I0
sg26
g27
(g28
(I0
tp1778
g30
tp1779
Rp1780
(I1
(I2
tp1781
g36
I00
S'\xa7\x00\x00\x00f\x00\x00\x00'
p1782
tp1783
bsba(i__main__
FrameData
p1784
(dp1785
g6
g1701
sg8
g9
(g13
S'\x00\x00\x00\x00\x00\x00&@'
p1786
tp1787
Rp1788
sg19
I0
sg20
g21
(S'\x07\xdd\t\x1d\x13\x0c7\x06%&'
p1789
tp1790
Rp1791
sg25
I0
sg26
g27
(g28
(I0
tp1792
g30
tp1793
Rp1794
(I1
(I2
tp1795
g36
I00
S'\xa7\x00\x00\x00g\x00\x00\x00'
p1796
tp1797
bsba(i__main__
FrameData
p1798
(dp1799
g6
g1701
sg8
g9
(g13
S'\x00\x00\x00\x00\x00\x00"@'
p1800
tp1801
Rp1802
sg19
I0
sg20
g21
(S'\x07\xdd\t\x1d\x13\x0c7\x06s\xfd'
p1803
tp1804
Rp1805
sg25
I0
sg26
g27
(g28
(I0
tp1806
g30
tp1807
Rp1808
(I1
(I2
tp1809
g36
I00
S'\xa7\x00\x00\x00i\x00\x00\x00'
p1810
tp1811
bsba(i__main__
FrameData
p1812
(dp1813
g6
g1701
sg8
g9
(g13
S'\x00\x00\x00\x00\x00\x00\x1c@'
p1814
tp1815
Rp1816
sg19
I0
sg20
g21
(S'\x07\xdd\t\x1d\x13\x0c7\x06\xc1\xf7'
p1817
tp1818
Rp1819
sg25
I0
sg26
g27
(g28
(I0
tp1820
g30
tp1821
Rp1822
(I1
(I2
tp1823
g36
I00
S'\xa7\x00\x00\x00k\x00\x00\x00'
p1824
tp1825
bsba(i__main__
FrameData
p1826
(dp1827
g6
g1701
sg8
g9
(g13
S'\x00\x00\x00\x00\x00\x00\x14@'
p1828
tp1829
Rp1830
sg19
I0
sg20
g21
(S'\x07\xdd\t\x1d\x13\x0c7\x06\xe7\x9a'
p1831
tp1832
Rp1833
sg25
I0
sg26
g27
(g28
(I0
tp1834
g30
tp1835
Rp1836
(I1
(I2
tp1837
g36
I00
S'\xa7\x00\x00\x00m\x00\x00\x00'
p1838
tp1839
bsba(i__main__
FrameData
p1840
(dp1841
g6
g1701
sg8
g9
(g13
S'\x00\x00\x00\x00\x00\x00\x08@'
p1842
tp1843
Rp1844
sg19
I0
sg20
g21
(S'\x07\xdd\t\x1d\x13\x0c7\x075\xed'
p1845
tp1846
Rp1847
sg25
I0
sg26
g27
(g28
(I0
tp1848
g30
tp1849
Rp1850
(I1
(I2
tp1851
g36
I00
S'\xa7\x00\x00\x00o\x00\x00\x00'
p1852
tp1853
bsba(i__main__
FrameData
p1854
(dp1855
g6
g1701
sg8
g9
(g13
S'\x00\x00\x00\x00\x00\x00\xf0?'
p1856
tp1857
Rp1858
sg19
I0
sg20
g21
(S'\x07\xdd\t\x1d\x13\x0c7\x07\x88\x93'
p1859
tp1860
Rp1861
sg25
I0
sg26
g27
(g28
(I0
tp1862
g30
tp1863
Rp1864
(I1
(I2
tp1865
g36
I00
S'\xa7\x00\x00\x00s\x00\x00\x00'
p1866
tp1867
bsba(i__main__
FrameData
p1868
(dp1869
g6
g1701
sg8
g9
(g13
S'\x00\x00\x00\x00\x00\x00\x00@'
p1870
tp1871
Rp1872
sg19
I0
sg20
g21
(S'\x07\xdd\t\x1d\x13\x0c7\x07\xa8\x96'
p1873
tp1874
Rp1875
sg25
I0
sg26
g27
(g28
(I0
tp1876
g30
tp1877
Rp1878
(I1
(I2
tp1879
g36
I00
S'\xa7\x00\x00\x00t\x00\x00\x00'
p1880
tp1881
bsba(i__main__
FrameData
p1882
(dp1883
g6
g1701
sg8
g9
(g13
S'\x00\x00\x00\x00\x00\x00\x10@'
p1884
tp1885
Rp1886
sg19
I0
sg20
g21
(S'\x07\xdd\t\x1d\x13\x0c7\x07\xfa\x05'
p1887
tp1888
Rp1889
sg25
I0
sg26
g27
(g28
(I0
tp1890
g30
tp1891
Rp1892
(I1
(I2
tp1893
g36
I00
S'\xa7\x00\x00\x00v\x00\x00\x00'
p1894
tp1895
bsba(i__main__
FrameData
p1896
(dp1897
g6
g1701
sg8
g9
(g13
S'\x00\x00\x00\x00\x00\x00\x14@'
p1898
tp1899
Rp1900
sg19
I0
sg20
g21
(S'\x07\xdd\t\x1d\x13\x0c7\x08/e'
p1901
tp1902
Rp1903
sg25
I0
sg26
g27
(g28
(I0
tp1904
g30
tp1905
Rp1906
(I1
(I2
tp1907
g36
I00
S'\xa7\x00\x00\x00w\x00\x00\x00'
p1908
tp1909
bsba(i__main__
FrameData
p1910
(dp1911
g6
g1701
sg8
g9
(g13
S'\x00\x00\x00\x00\x00\x00\x1c@'
p1912
tp1913
Rp1914
sg19
I0
sg20
g21
(S'\x07\xdd\t\x1d\x13\x0c7\x08od'
p1915
tp1916
Rp1917
sg25
I0
sg26
g27
(g28
(I0
tp1918
g30
tp1919
Rp1920
(I1
(I2
tp1921
g36
I00
S'\xa7\x00\x00\x00y\x00\x00\x00'
p1922
tp1923
bsba(i__main__
FrameData
p1924
(dp1925
g6
g1701
sg8
g9
(g13
S'\x00\x00\x00\x00\x00\x00"@'
p1926
tp1927
Rp1928
sg19
I0
sg20
g21
(S'\x07\xdd\t\x1d\x13\x0c7\x08\xad\xc6'
p1929
tp1930
Rp1931
sg25
I0
sg26
g27
(g28
(I0
tp1932
g30
tp1933
Rp1934
(I1
(I2
tp1935
g36
I00
S'\xa7\x00\x00\x00{\x00\x00\x00'
p1936
tp1937
bsba(i__main__
FrameData
p1938
(dp1939
g6
g1701
sg8
g9
(g13
S'\x00\x00\x00\x00\x00\x00$@'
p1940
tp1941
Rp1942
sg19
I0
sg20
g21
(S'\x07\xdd\t\x1d\x13\x0c7\t\x0bv'
p1943
tp1944
Rp1945
sg25
I0
sg26
g27
(g28
(I0
tp1946
g30
tp1947
Rp1948
(I1
(I2
tp1949
g36
I00
S'\xa7\x00\x00\x00|\x00\x00\x00'
p1950
tp1951
bsba(i__main__
FrameData
p1952
(dp1953
g6
g1701
sg8
g9
(g13
S'\x00\x00\x00\x00\x00\x00(@'
p1954
tp1955
Rp1956
sg19
I0
sg20
g21
(S'\x07\xdd\t\x1d\x13\x0c7\t1\x8b'
p1957
tp1958
Rp1959
sg25
I0
sg26
g27
(g28
(I0
tp1960
g30
tp1961
Rp1962
(I1
(I2
tp1963
g36
I00
S'\xa7\x00\x00\x00~\x00\x00\x00'
p1964
tp1965
bsba(i__main__
FrameData
p1966
(dp1967
g6
g1701
sg8
g9
(g13
S'\x00\x00\x00\x00\x00\x00,@'
p1968
tp1969
Rp1970
sg19
I0
sg20
g21
(S'\x07\xdd\t\x1d\x13\x0c7\t\x7f\x96'
p1971
tp1972
Rp1973
sg25
I0
sg26
g27
(g28
(I0
tp1974
g30
tp1975
Rp1976
(I1
(I2
tp1977
g36
I00
S'\xa7\x00\x00\x00\x80\x00\x00\x00'
p1978
tp1979
bsba(i__main__
FrameData
p1980
(dp1981
g6
g1701
sg8
g9
(g13
S'\x00\x00\x00\x00\x00\x000@'
p1982
tp1983
Rp1984
sg19
I0
sg20
g21
(S'\x07\xdd\t\x1d\x13\x0c7\t\xc5\x99'
p1985
tp1986
Rp1987
sg25
I0
sg26
g27
(g28
(I0
tp1988
g30
tp1989
Rp1990
(I1
(I2
tp1991
g36
I00
S'\xa7\x00\x00\x00\x82\x00\x00\x00'
p1992
tp1993
bsba(i__main__
FrameData
p1994
(dp1995
g6
g1701
sg8
g9
(g13
S'\x00\x00\x00\x00\x00\x001@'
p1996
tp1997
Rp1998
sg19
I0
sg20
g21
(S'\x07\xdd\t\x1d\x13\x0c7\t\xf4\x97'
p1999
tp2000
Rp2001
sg25
I0
sg26
g27
(g28
(I0
tp2002
g30
tp2003
Rp2004
(I1
(I2
tp2005
g36
I00
S'\xa7\x00\x00\x00\x83\x00\x00\x00'
p2006
tp2007
bsba(i__main__
FrameData
p2008
(dp2009
g6
g1701
sg8
g9
(g13
S'\x00\x00\x00\x00\x00\x003@'
p2010
tp2011
Rp2012
sg19
I0
sg20
g21
(S'\x07\xdd\t\x1d\x13\x0c7\nD\xae'
p2013
tp2014
Rp2015
sg25
I0
sg26
g27
(g28
(I0
tp2016
g30
tp2017
Rp2018
(I1
(I2
tp2019
g36
I00
S'\xa7\x00\x00\x00\x85\x00\x00\x00'
p2020
tp2021
bsba(i__main__
FrameData
p2022
(dp2023
g6
g1701
sg8
g9
(g13
S'\x00\x00\x00\x00\x00\x004@'
p2024
tp2025
Rp2026
sg19
I0
sg20
g21
(S'\x07\xdd\t\x1d\x13\x0c7\n\x92\x08'
p2027
tp2028
Rp2029
sg25
I0
sg26
g27
(g28
(I0
tp2030
g30
tp2031
Rp2032
(I1
(I2
tp2033
g36
I00
S'\xa7\x00\x00\x00\x86\x00\x00\x00'
p2034
tp2035
bsba(i__main__
FrameData
p2036
(dp2037
g6
S'n'
p2038
sg8
g9
(g13
S'8\xd8\xbc\n\x1b\x072@'
p2039
tp2040
Rp2041
sg19
I0
sg20
g21
(S'\x07\xdd\t\x1d\x13\x0c7\x0b\x07j'
p2042
tp2043
Rp2044
sg25
I0
sg26
g27
(g28
(I0
tp2045
g30
tp2046
Rp2047
(I1
(I2
tp2048
g36
I00
S'\xa6\x00\x00\x00\x88\x00\x00\x00'
p2049
tp2050
bsba(i__main__
FrameData
p2051
(dp2052
g6
g2038
sg8
g9
(g13
S'\xa3\x14\xae\xa8\x87\x161@'
p2053
tp2054
Rp2055
sg19
I0
sg20
g21
(S'\x07\xdd\t\x1d\x13\x0c7\x0bUb'
p2056
tp2057
Rp2058
sg25
I0
sg26
g27
(g28
(I0
tp2059
g30
tp2060
Rp2061
(I1
(I2
tp2062
g36
I00
S'\xa6\x00\x00\x00\x89\x00\x00\x00'
p2063
tp2064
bsba(i__main__
FrameData
p2065
(dp2066
g6
g2038
sg8
g9
(g13
S"v\xa3~{\xce'0@"
p2067
tp2068
Rp2069
sg19
I0
sg20
g21
(S'\x07\xdd\t\x1d\x13\x0c7\x0b|\x81'
p2070
tp2071
Rp2072
sg25
I0
sg26
g27
(g28
(I0
tp2073
g30
tp2074
Rp2075
(I1
(I2
tp2076
g36
I00
S'\xa6\x00\x00\x00\x8a\x00\x00\x00'
p2077
tp2078
bsba(i__main__
FrameData
p2079
(dp2080
g6
g2038
sg8
g9
(g13
S'p\xc4\x9d9\x8dv.@'
p2081
tp2082
Rp2083
sg19
I0
sg20
g21
(S'\x07\xdd\t\x1d\x13\x0c7\x0b\xc9w'
p2084
tp2085
Rp2086
sg25
I0
sg26
g27
(g28
(I0
tp2087
g30
tp2088
Rp2089
(I1
(I2
tp2090
g36
I00
S'\xa6\x00\x00\x00\x8b\x00\x00\x00'
p2091
tp2092
bsba(i__main__
FrameData
p2093
(dp2094
g6
g2038
sg8
g9
(g13
S'S[\xda:XL)@'
p2095
tp2096
Rp2097
sg19
I0
sg20
g21
(S'\x07\xdd\t\x1d\x13\x0c7\x0b\xfd\xa1'
p2098
tp2099
Rp2100
sg25
I0
sg26
g27
(g28
(I0
tp2101
g30
tp2102
Rp2103
(I1
(I2
tp2104
g36
I00
S'\xa4\x00\x00\x00\x8d\x00\x00\x00'
p2105
tp2106
bsba(i__main__
FrameData
p2107
(dp2108
g6
g2038
sg8
g9
(g13
S"\xe0\x11<m\xceh'@"
p2109
tp2110
Rp2111
sg19
I0
sg20
g21
(S'\x07\xdd\t\x1d\x13\x0c7\x0c?\xd6'
p2112
tp2113
Rp2114
sg25
I0
sg26
g27
(g28
(I0
tp2115
g30
tp2116
Rp2117
(I1
(I2
tp2118
g36
I00
S'\xa4\x00\x00\x00\x8e\x00\x00\x00'
p2119
tp2120
bsba(i__main__
FrameData
p2121
(dp2122
g6
g2038
sg8
g9
(g13
S'\xeb\x12\xb2\xbb\xb2\xcd&@'
p2123
tp2124
Rp2125
sg19
I0
sg20
g21
(S'\x07\xdd\t\x1d\x13\x0c7\x0c\x8e\xee'
p2126
tp2127
Rp2128
sg25
I0
sg26
g27
(g28
(I0
tp2129
g30
tp2130
Rp2131
(I1
(I2
tp2132
g36
I00
S'\xa3\x00\x00\x00\x8e\x00\x00\x00'
p2133
tp2134
bsba(i__main__
FrameData
p2135
(dp2136
g6
g2038
sg8
g9
(g13
S'7\xf9\xcf\xdao\xe1$@'
p2137
tp2138
Rp2139
sg19
I0
sg20
g21
(S'\x07\xdd\t\x1d\x13\x0c7\x0c\xdc.'
p2140
tp2141
Rp2142
sg25
I0
sg26
g27
(g28
(I0
tp2143
g30
tp2144
Rp2145
(I1
(I2
tp2146
g36
I00
S'\xa3\x00\x00\x00\x8f\x00\x00\x00'
p2147
tp2148
bsba(i__main__
FrameData
p2149
(dp2150
g6
g2038
sg8
g9
(g13
S'~\xc4#,B\xf9"@'
p2151
tp2152
Rp2153
sg19
I0
sg20
g21
(S'\x07\xdd\t\x1d\x13\x0c7\r\x03k'
p2154
tp2155
Rp2156
sg25
I0
sg26
g27
(g28
(I0
tp2157
g30
tp2158
Rp2159
(I1
(I2
tp2160
g36
I00
S'\xa3\x00\x00\x00\x90\x00\x00\x00'
p2161
tp2162
bsba(i__main__
FrameData
p2163
(dp2164
g6
g2038
sg8
g9
(g13
S'\xa3\x14\xae\xa8\x87\x16!@'
p2165
tp2166
Rp2167
sg19
I0
sg20
g21
(S'\x07\xdd\t\x1d\x13\x0c7\rQ|'
p2168
tp2169
Rp2170
sg25
I0
sg26
g27
(g28
(I0
tp2171
g30
tp2172
Rp2173
(I1
(I2
tp2174
g36
I00
S'\xa3\x00\x00\x00\x91\x00\x00\x00'
p2175
tp2176
bsba(i__main__
FrameData
p2177
(dp2178
g6
g2038
sg8
g9
(g13
S'\xe9\xfbv \xd5\x1e\x1d@'
p2179
tp2180
Rp2181
sg19
I0
sg20
g21
(S'\x07\xdd\t\x1d\x13\x0c7\r\x84\x98'
p2182
tp2183
Rp2184
sg25
I0
sg26
g27
(g28
(I0
tp2185
g30
tp2186
Rp2187
(I1
(I2
tp2188
g36
I00
S'\xa2\x00\x00\x00\x92\x00\x00\x00'
p2189
tp2190
bsba(i__main__
FrameData
p2191
(dp2192
g6
g2038
sg8
g9
(g13
S'S[\xda:XL\x19@'
p2193
tp2194
Rp2195
sg19
I0
sg20
g21
(S'\x07\xdd\t\x1d\x13\x0c7\r\xc6\xcc'
p2196
tp2197
Rp2198
sg25
I0
sg26
g27
(g28
(I0
tp2199
g30
tp2200
Rp2201
(I1
(I2
tp2202
g36
I00
S'\xa2\x00\x00\x00\x93\x00\x00\x00'
p2203
tp2204
bsba(i__main__
FrameData
p2205
(dp2206
g6
g2038
sg8
g9
(g13
S'\xa8\xf4\x97\x9bw\xe3\x11@'
p2207
tp2208
Rp2209
sg19
I0
sg20
g21
(S'\x07\xdd\t\x1d\x13\x0c7\x0eb\xd2'
p2210
tp2211
Rp2212
sg25
I0
sg26
g27
(g28
(I0
tp2213
g30
tp2214
Rp2215
(I1
(I2
tp2216
g36
I00
S'\xa2\x00\x00\x00\x95\x00\x00\x00'
p2217
tp2218
bsba(i__main__
FrameData
p2219
(dp2220
g6
g2038
sg8
g9
(g13
S'S[\xda:XL\t@'
p2221
tp2222
Rp2223
sg19
I0
sg20
g21
(S'\x07\xdd\t\x1d\x13\x0c7\x0e\x8a9'
p2224
tp2225
Rp2226
sg25
I0
sg26
g27
(g28
(I0
tp2227
g30
tp2228
Rp2229
(I1
(I2
tp2230
g36
I00
S'\xa1\x00\x00\x00\x96\x00\x00\x00'
p2231
tp2232
bsba(i__main__
FrameData
p2233
(dp2234
g6
g2038
sg8
g9
(g13
S'\xa8\xf4\x97\x9bw\xe3\x01@'
p2235
tp2236
Rp2237
sg19
I0
sg20
g21
(S'\x07\xdd\t\x1d\x13\x0c7\x0e\xd7\xcc'
p2238
tp2239
Rp2240
sg25
I0
sg26
g27
(g28
(I0
tp2241
g30
tp2242
Rp2243
(I1
(I2
tp2244
g36
I00
S'\xa1\x00\x00\x00\x97\x00\x00\x00'
p2245
tp2246
bsba(i__main__
FrameData
p2247
(dp2248
g6
g2038
sg8
g9
(g13
S'\xcd;\x7ff\x9e\xa0\xf6?'
p2249
tp2250
Rp2251
sg19
I0
sg20
g21
(S'\x07\xdd\t\x1d\x13\x0c7\x0f&?'
p2252
tp2253
Rp2254
sg25
I0
sg26
g27
(g28
(I0
tp2255
g30
tp2256
Rp2257
(I1
(I2
tp2258
g36
I00
S'\xa1\x00\x00\x00\x98\x00\x00\x00'
p2259
tp2260
bsba(i__main__
FrameData
p2261
(dp2262
g6
g2038
sg8
g9
(g13
S'\x00\x00\x00\x00\x00\x00\xf0?'
p2263
tp2264
Rp2265
sg19
I0
sg20
g21
(S'\x07\xdd\t\x1d\x13\x0c8\x04?\xae'
p2266
tp2267
Rp2268
sg25
I0
sg26
g27
(g28
(I0
tp2269
g30
tp2270
Rp2271
(I1
(I2
tp2272
g36
I00
S'\xa1\x00\x00\x00\x99\x00\x00\x00'
p2273
tp2274
bsba(i__main__
FrameData
p2275
(dp2276
g6
g2038
sg8
g9
(g13
S'\xcd;\x7ff\x9e\xa0\xf6?'
p2277
tp2278
Rp2279
sg19
I0
sg20
g21
(S'\x07\xdd\t\x1d\x13\x0c8\x07u\t'
p2280
tp2281
Rp2282
sg25
I0
sg26
g27
(g28
(I0
tp2283
g30
tp2284
Rp2285
(I1
(I2
tp2286
g36
I00
S'\xa1\x00\x00\x00\x98\x00\x00\x00'
p2287
tp2288
bsba(i__main__
FrameData
p2289
(dp2290
g6
g2038
sg8
g9
(g13
S'\xa8\xf4\x97\x9bw\xe3\x01@'
p2291
tp2292
Rp2293
sg19
I0
sg20
g21
(S'\x07\xdd\t\x1d\x13\x0c8\x08\x11l'
p2294
tp2295
Rp2296
sg25
I0
sg26
g27
(g28
(I0
tp2297
g30
tp2298
Rp2299
(I1
(I2
tp2300
g36
I00
S'\xa1\x00\x00\x00\x97\x00\x00\x00'
p2301
tp2302
bsba(i__main__
FrameData
p2303
(dp2304
g6
g2038
sg8
g9
(g13
S'S[\xda:XL\t@'
p2305
tp2306
Rp2307
sg19
I0
sg20
g21
(S'\x07\xdd\t\x1d\x13\x0c8\x08}%'
p2308
tp2309
Rp2310
sg25
I0
sg26
g27
(g28
(I0
tp2311
g30
tp2312
Rp2313
(I1
(I2
tp2314
g36
I00
S'\xa1\x00\x00\x00\x96\x00\x00\x00'
p2315
tp2316
bsba(i__main__
FrameData
p2317
(dp2318
g6
g2038
sg8
g9
(g13
S'\x07\xed\xaff\x0f~\x10@'
p2319
tp2320
Rp2321
sg19
I0
sg20
g21
(S'\x07\xdd\t\x1d\x13\x0c8\tI\xb1'
p2322
tp2323
Rp2324
sg25
I0
sg26
g27
(g28
(I0
tp2325
g30
tp2326
Rp2327
(I1
(I2
tp2328
g36
I00
S'\xa1\x00\x00\x00\x95\x00\x00\x00'
p2329
tp2330
bsba(i__main__
FrameData
p2331
(dp2332
g6
g2038
sg8
g9
(g13
S'\xf6/\x12_ee\x14@'
p2333
tp2334
Rp2335
sg19
I0
sg20
g21
(S'\x07\xdd\t\x1d\x13\x0c8\t\x98H'
p2336
tp2337
Rp2338
sg25
I0
sg26
g27
(g28
(I0
tp2339
g30
tp2340
Rp2341
(I1
(I2
tp2342
g36
I00
S'\xa1\x00\x00\x00\x94\x00\x00\x00'
p2343
tp2344
bsba(i__main__
FrameData
p2345
(dp2346
g6
g2038
sg8
g9
(g13
S'9\xdcc\xb3\xbfT\x18@'
p2347
tp2348
Rp2349
sg19
I0
sg20
g21
(S'\x07\xdd\t\x1d\x13\x0c8\n\r\xae'
p2350
tp2351
Rp2352
sg25
I0
sg26
g27
(g28
(I0
tp2353
g30
tp2354
Rp2355
(I1
(I2
tp2356
g36
I00
S'\xa1\x00\x00\x00\x93\x00\x00\x00'
p2357
tp2358
bsba(i__main__
FrameData
p2359
(dp2360
g6
g2038
sg8
g9
(g13
S'\x00\x00\x00\x00\x00\x00\x18@'
p2361
tp2362
Rp2363
sg19
I0
sg20
g21
(S'\x07\xdd\t\x1d\x13\x0c8\n[4'
p2364
tp2365
Rp2366
sg25
I0
sg26
g27
(g28
(I0
tp2367
g30
tp2368
Rp2369
(I1
(I2
tp2370
g36
I00
S'\xa0\x00\x00\x00\x93\x00\x00\x00'
p2371
tp2372
bsba(i__main__
FrameData
p2373
(dp2374
g6
g2038
sg8
g9
(g13
S'\x00\x00\x00\x00\x00\x00\x1c@'
p2375
tp2376
Rp2377
sg19
I0
sg20
g21
(S'\x07\xdd\t\x1d\x13\x0c8\n\x82Z'
p2378
tp2379
Rp2380
sg25
I0
sg26
g27
(g28
(I0
tp2381
g30
tp2382
Rp2383
(I1
(I2
tp2384
g36
I00
S'\xa0\x00\x00\x00\x92\x00\x00\x00'
p2385
tp2386
bsba(i__main__
FrameData
p2387
(dp2388
g6
g2038
sg8
g9
(g13
S'\xd0\xbaa?\xe0\x1f @'
p2389
tp2390
Rp2391
sg19
I0
sg20
g21
(S'\x07\xdd\t\x1d\x13\x0c8\n\xcf6'
p2392
tp2393
Rp2394
sg25
I0
sg26
g27
(g28
(I0
tp2395
g30
tp2396
Rp2397
(I1
(I2
tp2398
g36
I00
S'\x9f\x00\x00\x00\x91\x00\x00\x00'
p2399
tp2400
bsba(i__main__
FrameData
p2401
(dp2402
g6
g2038
sg8
g9
(g13
S'$\xf8\xd9p[\x1c"@'
p2403
tp2404
Rp2405
sg19
I0
sg20
g21
(S'\x07\xdd\t\x1d\x13\x0c8\x0b\x15|'
p2406
tp2407
Rp2408
sg25
I0
sg26
g27
(g28
(I0
tp2409
g30
tp2410
Rp2411
(I1
(I2
tp2412
g36
I00
S'\x9f\x00\x00\x00\x90\x00\x00\x00'
p2413
tp2414
bsba(i__main__
FrameData
p2415
(dp2416
g6
g2038
sg8
g9
(g13
S'\xf0)#L\x89\x19$@'
p2417
tp2418
Rp2419
sg19
I0
sg20
g21
(S'\x07\xdd\t\x1d\x13\x0c8\x0b\x93\x91'
p2420
tp2421
Rp2422
sg25
I0
sg26
g27
(g28
(I0
tp2423
g30
tp2424
Rp2425
(I1
(I2
tp2426
g36
I00
S'\x9f\x00\x00\x00\x8f\x00\x00\x00'
p2427
tp2428
bsba(i__main__
FrameData
p2429
(dp2430
g6
g2038
sg8
g9
(g13
S'H\xaa*\x8f9\x17&@'
p2431
tp2432
Rp2433
sg19
I0
sg20
g21
(S'\x07\xdd\t\x1d\x13\x0c9\x03\xff\xa8'
p2434
tp2435
Rp2436
sg25
I0
sg26
g27
(g28
(I0
tp2437
g30
tp2438
Rp2439
(I1
(I2
tp2440
g36
I00
S'\x9f\x00\x00\x00\x8e\x00\x00\x00'
p2441
tp2442
bsba(i__main__
FrameData
p2443
(dp2444
g6
g2038
sg8
g9
(g13
S'&5w\xe2K\x15(@'
p2445
tp2446
Rp2447
sg19
I0
sg20
g21
(S'\x07\xdd\t\x1d\x13\x0c9\x04h\xd8'
p2448
tp2449
Rp2450
sg25
I0
sg26
g27
(g28
(I0
tp2451
g30
tp2452
Rp2453
(I1
(I2
tp2454
g36
I00
S'\x9f\x00\x00\x00\x8d\x00\x00\x00'
p2455
tp2456
bsba(i__main__
FrameData
p2457
(dp2458
g6
g2038
sg8
g9
(g13
S'Qf\x99\xcb\xa9\x13*@'
p2459
tp2460
Rp2461
sg19
I0
sg20
g21
(S'\x07\xdd\t\x1d\x13\x0c9\x04\xeb+'
p2462
tp2463
Rp2464
sg25
I0
sg26
g27
(g28
(I0
tp2465
g30
tp2466
Rp2467
(I1
(I2
tp2468
g36
I00
S'\x9f\x00\x00\x00\x8c\x00\x00\x00'
p2469
tp2470
bsba(i__main__
FrameData
p2471
(dp2472
g6
g2038
sg8
g9
(g13
S'\xc0\n\x1f\x00\xc6H,@'
p2473
tp2474
Rp2475
sg19
I0
sg20
g21
(S'\x07\xdd\t\x1d\x13\x0c9\x05.\xce'
p2476
tp2477
Rp2478
sg25
I0
sg26
g27
(g28
(I0
tp2479
g30
tp2480
Rp2481
(I1
(I2
tp2482
g36
I00
S'\x9e\x00\x00\x00\x8b\x00\x00\x00'
p2483
tp2484
bsba(i__main__
FrameData
p2485
(dp2486
g6
g2038
sg8
g9
(g13
S'[y\xf7F\xf7C.@'
p2487
tp2488
Rp2489
sg19
I0
sg20
g21
(S'\x07\xdd\t\x1d\x13\x0c9\x05ok'
p2490
tp2491
Rp2492
sg25
I0
sg26
g27
(g28
(I0
tp2493
g30
tp2494
Rp2495
(I1
(I2
tp2496
g36
I00
S'\x9e\x00\x00\x00\x8a\x00\x00\x00'
p2497
tp2498
bsba(i__main__
FrameData
p2499
(dp2500
g6
g2038
sg8
g9
(g13
S'\x10\xb3]\xc9`G0@'
p2501
tp2502
Rp2503
sg19
I0
sg20
g21
(S'\x07\xdd\t\x1d\x13\x0c9\x05\xb1\x0c'
p2504
tp2505
Rp2506
sg25
I0
sg26
g27
(g28
(I0
tp2507
g30
tp2508
Rp2509
(I1
(I2
tp2510
g36
I00
S'\x9d\x00\x00\x00\x89\x00\x00\x00'
p2511
tp2512
bsba(i__main__
FrameData
p2513
(dp2514
g6
g2038
sg8
g9
(g13
S'+\xe5\x8a\xc6\x8f?2@'
p2515
tp2516
Rp2517
sg19
I0
sg20
g21
(S'\x07\xdd\t\x1d\x13\x0c9\x05\xfd\xcb'
p2518
tp2519
Rp2520
sg25
I0
sg26
g27
(g28
(I0
tp2521
g30
tp2522
Rp2523
(I1
(I2
tp2524
g36
I00
S'\x9d\x00\x00\x00\x87\x00\x00\x00'
p2525
tp2526
bsba(i__main__
FrameData
p2527
(dp2528
g6
g2038
sg8
g9
(g13
S'I\xe8[@\x93\x9d4@'
p2529
tp2530
Rp2531
sg19
I0
sg20
g21
(S'\x07\xdd\t\x1d\x13\x0c9\x061\xdf'
p2532
tp2533
Rp2534
sg25
I0
sg26
g27
(g28
(I0
tp2535
g30
tp2536
Rp2537
(I1
(I2
tp2538
g36
I00
S'\x9b\x00\x00\x00\x85\x00\x00\x00'
p2539
tp2540
bsba(i__main__
FrameData
p2541
(dp2542
g6
S'h'
p2543
sg8
g9
(g13
S'\xb9\xbaF\xca+~1@'
p2544
tp2545
Rp2546
sg19
I0
sg20
g21
(S'\x07\xdd\t\x1d\x13\x0c9\x06yH'
p2547
tp2548
Rp2549
sg25
I0
sg26
g27
(g28
(I0
tp2550
g30
tp2551
Rp2552
(I1
(I2
tp2553
g36
I00
S'\x99\x00\x00\x00\x81\x00\x00\x00'
p2554
tp2555
bsba(i__main__
FrameData
p2556
(dp2557
g6
g2543
sg8
g9
(g13
S'\xc5Bl?W\x87.@'
p2558
tp2559
Rp2560
sg19
I0
sg20
g21
(S'\x07\xdd\t\x1d\x13\x0c9\x06\xb7\xd9'
p2561
tp2562
Rp2563
sg25
I0
sg26
g27
(g28
(I0
tp2564
g30
tp2565
Rp2566
(I1
(I2
tp2567
g36
I00
S'\x98\x00\x00\x00\x7f\x00\x00\x00'
p2568
tp2569
bsba(i__main__
FrameData
p2570
(dp2571
g6
g2543
sg8
g9
(g13
S"\xa2\xa3\xb3\r\xe5R'@"
p2572
tp2573
Rp2574
sg19
I0
sg20
g21
(S'\x07\xdd\t\x1d\x13\x0c9\x06\xf5J'
p2575
tp2576
Rp2577
sg25
I0
sg26
g27
(g28
(I0
tp2578
g30
tp2579
Rp2580
(I1
(I2
tp2581
g36
I00
S'\x96\x00\x00\x00|\x00\x00\x00'
p2582
tp2583
bsba(i__main__
FrameData
p2584
(dp2585
g6
g2543
sg8
g9
(g13
S'N\x017\xfac4!@'
p2586
tp2587
Rp2588
sg19
I0
sg20
g21
(S'\x07\xdd\t\x1d\x13\x0c9\x07?\xd9'
p2589
tp2590
Rp2591
sg25
I0
sg26
g27
(g28
(I0
tp2592
g30
tp2593
Rp2594
(I1
(I2
tp2595
g36
I00
S'\x95\x00\x00\x00y\x00\x00\x00'
p2596
tp2597
bsba(i__main__
FrameData
p2598
(dp2599
g6
g2543
sg8
g9
(g13
S'\xf3YaD+\xd8\x1c@'
p2600
tp2601
Rp2602
sg19
I0
sg20
g21
(S'\x07\xdd\t\x1d\x13\x0c9\x07\x907'
p2603
tp2604
Rp2605
sg25
I0
sg26
g27
(g28
(I0
tp2606
g30
tp2607
Rp2608
(I1
(I2
tp2609
g36
I00
S'\x94\x00\x00\x00x\x00\x00\x00'
p2610
tp2611
bsba(i__main__
FrameData
p2612
(dp2613
g6
g2543
sg8
g9
(g13
S'\xd9l\xdf\xccv\xf8\x10@'
p2614
tp2615
Rp2616
sg19
I0
sg20
g21
(S'\x07\xdd\t\x1d\x13\x0c9\x07\xc1\x9a'
p2617
tp2618
Rp2619
sg25
I0
sg26
g27
(g28
(I0
tp2620
g30
tp2621
Rp2622
(I1
(I2
tp2623
g36
I00
S'\x93\x00\x00\x00u\x00\x00\x00'
p2624
tp2625
bsba(i__main__
FrameData
p2626
(dp2627
g6
g2543
sg8
g9
(g13
S'\xa8\xf4\x97\x9bw\xe3\x01@'
p2628
tp2629
Rp2630
sg19
I0
sg20
g21
(S'\x07\xdd\t\x1d\x13\x0c9\x08\x1c6'
p2631
tp2632
Rp2633
sg25
I0
sg26
g27
(g28
(I0
tp2634
g30
tp2635
Rp2636
(I1
(I2
tp2637
g36
I00
S'\x91\x00\x00\x00t\x00\x00\x00'
p2638
tp2639
bsba(i__main__
FrameData
p2640
(dp2641
g6
g2543
sg8
g9
(g13
S'\x00\x00\x00\x00\x00\x00\xf0?'
p2642
tp2643
Rp2644
sg19
I0
sg20
g21
(S'\x07\xdd\t\x1d\x13\x0c9\x08?\x82'
p2645
tp2646
Rp2647
sg25
I0
sg26
g27
(g28
(I0
tp2648
g30
tp2649
Rp2650
(I1
(I2
tp2651
g36
I00
S'\x91\x00\x00\x00r\x00\x00\x00'
p2652
tp2653
bsba(i__main__
FrameData
p2654
(dp2655
g6
g2543
sg8
g9
(g13
S'\x00\x00\x00\x00\x00\x00\xf0?'
p2656
tp2657
Rp2658
sg19
I0
sg20
g21
(S'\x07\xdd\t\x1d\x13\x0c9\x08|\xd0'
p2659
tp2660
Rp2661
sg25
I0
sg26
g27
(g28
(I0
tp2662
g30
tp2663
Rp2664
(I1
(I2
tp2665
g36
I00
S'\x90\x00\x00\x00q\x00\x00\x00'
p2666
tp2667
bsba(i__main__
FrameData
p2668
(dp2669
g6
g2543
sg8
g9
(g13
S'\xa8\xf4\x97\x9bw\xe3\x01@'
p2670
tp2671
Rp2672
sg19
I0
sg20
g21
(S'\x07\xdd\t\x1d\x13\x0c9\x08\xcb\x03'
p2673
tp2674
Rp2675
sg25
I0
sg26
g27
(g28
(I0
tp2676
g30
tp2677
Rp2678
(I1
(I2
tp2679
g36
I00
S'\x8f\x00\x00\x00p\x00\x00\x00'
p2680
tp2681
bsba(i__main__
FrameData
p2682
(dp2683
g6
g2543
sg8
g9
(g13
S'\x00\x00\x00\x00\x00\x00\x14@'
p2684
tp2685
Rp2686
sg19
I0
sg20
g21
(S'\x07\xdd\t\x1d\x13\x0c9\t\x05\x83'
p2687
tp2688
Rp2689
sg25
I0
sg26
g27
(g28
(I0
tp2690
g30
tp2691
Rp2692
(I1
(I2
tp2693
g36
I00
S'\x8d\x00\x00\x00n\x00\x00\x00'
p2694
tp2695
bsba(i__main__
FrameData
p2696
(dp2697
g6
g2543
sg8
g9
(g13
S'\xf3YaD+\xd8\x1c@'
p2698
tp2699
Rp2700
sg19
I0
sg20
g21
(S'\x07\xdd\t\x1d\x13\x0c9\tI.'
p2701
tp2702
Rp2703
sg25
I0
sg26
g27
(g28
(I0
tp2704
g30
tp2705
Rp2706
(I1
(I2
tp2707
g36
I00
S'\x8c\x00\x00\x00l\x00\x00\x00'
p2708
tp2709
bsba(i__main__
FrameData
p2710
(dp2711
g6
g2543
sg8
g9
(g13
S'w\x03Is \xa2%@'
p2712
tp2713
Rp2714
sg19
I0
sg20
g21
(S'\x07\xdd\t\x1d\x13\x0c9\t\x86\x88'
p2715
tp2716
Rp2717
sg25
I0
sg26
g27
(g28
(I0
tp2718
g30
tp2719
Rp2720
(I1
(I2
tp2721
g36
I00
S'\x8a\x00\x00\x00i\x00\x00\x00'
p2722
tp2723
bsba(i__main__
FrameData
p2724
(dp2725
g6
g2543
sg8
g9
(g13
S'F\xc3\\\xa8\xc1i(@'
p2726
tp2727
Rp2728
sg19
I0
sg20
g21
(S'\x07\xdd\t\x1d\x13\x0c9\t\xc5\x13'
p2729
tp2730
Rp2731
sg25
I0
sg26
g27
(g28
(I0
tp2732
g30
tp2733
Rp2734
(I1
(I2
tp2735
g36
I00
S'\x89\x00\x00\x00h\x00\x00\x00'
p2736
tp2737
bsba(i__main__
FrameData
p2738
(dp2739
g6
g2543
sg8
g9
(g13
S'\xf3YaD+\xd8,@'
p2740
tp2741
Rp2742
sg19
I0
sg20
g21
(S'\x07\xdd\t\x1d\x13\x0c9\n\x04\xfd'
p2743
tp2744
Rp2745
sg25
I0
sg26
g27
(g28
(I0
tp2746
g30
tp2747
Rp2748
(I1
(I2
tp2749
g36
I00
S'\x88\x00\x00\x00f\x00\x00\x00'
p2750
tp2751
bsba(i__main__
FrameData
p2752
(dp2753
g6
g2543
sg8
g9
(g13
S"'\xf2\x90In\x9f/@"
p2754
tp2755
Rp2756
sg19
I0
sg20
g21
(S'\x07\xdd\t\x1d\x13\x0c9\nb\xeb'
p2757
tp2758
Rp2759
sg25
I0
sg26
g27
(g28
(I0
tp2760
g30
tp2761
Rp2762
(I1
(I2
tp2763
g36
I00
S'\x87\x00\x00\x00e\x00\x00\x00'
p2764
tp2765
bsba(i__main__
FrameData
p2766
(dp2767
g6
g2543
sg8
g9
(g13
S'N\x017\xfac41@'
p2768
tp2769
Rp2770
sg19
I0
sg20
g21
(S'\x07\xdd\t\x1d\x13\x0c9\n\x96\xf5'
p2771
tp2772
Rp2773
sg25
I0
sg26
g27
(g28
(I0
tp2774
g30
tp2775
Rp2776
(I1
(I2
tp2777
g36
I00
S'\x86\x00\x00\x00d\x00\x00\x00'
p2778
tp2779
bsba(i__main__
FrameData
p2780
(dp2781
g6
g2543
sg8
g9
(g13
S'8\xd8\xbc\n\x1b\x072@'
p2782
tp2783
Rp2784
sg19
I0
sg20
g21
(S'\x07\xdd\t\x1d\x13\x0c9\n\xe4\x8b'
p2785
tp2786
Rp2787
sg25
I0
sg26
g27
(g28
(I0
tp2788
g30
tp2789
Rp2790
(I1
(I2
tp2791
g36
I00
S'\x86\x00\x00\x00c\x00\x00\x00'
p2792
tp2793
bsba(i__main__
FrameData
p2794
(dp2795
g6
g7
sg8
g9
(g13
S'@\xff7s\x9953@'
p2796
tp2797
Rp2798
sg19
I0
sg20
g21
(S'\x07\xdd\t\x1d\x13\x0c9\x0b\x0b\xaa'
p2799
tp2800
Rp2801
sg25
I0
sg26
g27
(g28
(I0
tp2802
g30
tp2803
Rp2804
(I1
(I2
tp2805
g36
I00
S'\x84\x00\x00\x00c\x00\x00\x00'
p2806
tp2807
bsba(i__main__
FrameData
p2808
(dp2809
g6
g7
sg8
g9
(g13
S'\x00\x00\x00\x00\x00\x004@'
p2810
tp2811
Rp2812
sg19
I0
sg20
g21
(S'\x07\xdd\t\x1d\x13\x0c9\x0b\xa2U'
p2813
tp2814
Rp2815
sg25
I0
sg26
g27
(g28
(I0
tp2816
g30
tp2817
Rp2818
(I1
(I2
tp2819
g36
I00
S'\x84\x00\x00\x00b\x00\x00\x00'
p2820
tp2821
bsba(i__main__
FrameData
p2822
(dp2823
g6
g7
sg8
g9
(g13
S'/vo\xf2\x9ej3@'
p2824
tp2825
Rp2826
sg19
I0
sg20
g21
(S'\x07\xdd\t\x1d\x13\x0c9\x0b\xd15'
p2827
tp2828
Rp2829
sg25
I0
sg26
g27
(g28
(I0
tp2830
g30
tp2831
Rp2832
(I1
(I2
tp2833
g36
I00
S'\x83\x00\x00\x00b\x00\x00\x00'
p2834
tp2835
bsba(i__main__
FrameData
p2836
(dp2837
g6
g900
sg8
g9
(g13
S'\xc3\xe7Zp\xbb\x063@'
p2838
tp2839
Rp2840
sg19
I0
sg20
g21
(S'\x07\xdd\t\x1d\x13\x0c9\x0c\x1c\xf2'
p2841
tp2842
Rp2843
sg25
I0
sg26
g27
(g28
(I0
tp2844
g30
tp2845
Rp2846
(I1
(I2
tp2847
g36
I00
S'\x83\x00\x00\x00`\x00\x00\x00'
p2848
tp2849
bsba(i__main__
FrameData
p2850
(dp2851
g6
g900
sg8
g9
(g13
S'\x00\x00\x00\x00\x00\x002@'
p2852
tp2853
Rp2854
sg19
I0
sg20
g21
(S'\x07\xdd\t\x1d\x13\x0c9\x0cl?'
p2855
tp2856
Rp2857
sg25
I0
sg26
g27
(g28
(I0
tp2858
g30
tp2859
Rp2860
(I1
(I2
tp2861
g36
I00
S'\x82\x00\x00\x00_\x00\x00\x00'
p2862
tp2863
bsba(i__main__
FrameData
p2864
(dp2865
g6
g900
sg8
g9
(g13
S'\x00\x00\x00\x00\x00\x001@'
p2866
tp2867
Rp2868
sg19
I0
sg20
g21
(S'\x07\xdd\t\x1d\x13\x0c9\x0c\x91\x1f'
p2869
tp2870
Rp2871
sg25
I0
sg26
g27
(g28
(I0
tp2872
g30
tp2873
Rp2874
(I1
(I2
tp2875
g36
I00
S'\x82\x00\x00\x00^\x00\x00\x00'
p2876
tp2877
bsba(i__main__
FrameData
p2878
(dp2879
g6
g900
sg8
g9
(g13
S'f\xee@\x9f\x03\x1e1@'
p2880
tp2881
Rp2882
sg19
I0
sg20
g21
(S'\x07\xdd\t\x1d\x13\x0c9\x0c\xe1V'
p2883
tp2884
Rp2885
sg25
I0
sg26
g27
(g28
(I0
tp2886
g30
tp2887
Rp2888
(I1
(I2
tp2889
g36
I00
S'\x80\x00\x00\x00^\x00\x00\x00'
p2890
tp2891
bsba(i__main__
FrameData
p2892
(dp2893
g6
g900
sg8
g9
(g13
S'\xd0\xbaa?\xe0\x1f0@'
p2894
tp2895
Rp2896
sg19
I0
sg20
g21
(S'\x07\xdd\t\x1d\x13\x0c9\r\x13}'
p2897
tp2898
Rp2899
sg25
I0
sg26
g27
(g28
(I0
tp2900
g30
tp2901
Rp2902
(I1
(I2
tp2903
g36
I00
S'\x80\x00\x00\x00]\x00\x00\x00'
p2904
tp2905
bsba(i__main__
FrameData
p2906
(dp2907
g6
g900
sg8
g9
(g13
S'[y\xf7F\xf7C.@'
p2908
tp2909
Rp2910
sg19
I0
sg20
g21
(S'\x07\xdd\t\x1d\x13\x0c9\rU\x84'
p2911
tp2912
Rp2913
sg25
I0
sg26
g27
(g28
(I0
tp2914
g30
tp2915
Rp2916
(I1
(I2
tp2917
g36
I00
S'\x80\x00\x00\x00\\\x00\x00\x00'
p2918
tp2919
bsba(i__main__
FrameData
p2920
(dp2921
g6
g900
sg8
g9
(g13
S'\xb3\xa73\xa0`\x0c/@'
p2922
tp2923
Rp2924
sg19
I0
sg20
g21
(S'\x07\xdd\t\x1d\x13\x0c9\r\xa4\xb7'
p2925
tp2926
Rp2927
sg25
I0
sg26
g27
(g28
(I0
tp2928
g30
tp2929
Rp2930
(I1
(I2
tp2931
g36
I00
S'~\x00\x00\x00\\\x00\x00\x00'
p2932
tp2933
bsba(i__main__
FrameData
p2934
(dp2935
g6
g900
sg8
g9
(g13
S'/\xa4\xe3\\m\xbb-@'
p2936
tp2937
Rp2938
sg19
I0
sg20
g21
(S'\x07\xdd\t\x1d\x13\x0c9\r\xf2\xd1'
p2939
tp2940
Rp2941
sg25
I0
sg26
g27
(g28
(I0
tp2942
g30
tp2943
Rp2944
(I1
(I2
tp2945
g36
I00
S'}\x00\x00\x00[\x00\x00\x00'
p2946
tp2947
bsba(i__main__
FrameData
p2948
(dp2949
g6
g900
sg8
g9
(g13
S'\x00\x00\x00\x00\x00\x00*@'
p2950
tp2951
Rp2952
sg19
I0
sg20
g21
(S'\x07\xdd\t\x1d\x13\x0c9\x0e\x1a\x01'
p2953
tp2954
Rp2955
sg25
I0
sg26
g27
(g28
(I0
tp2956
g30
tp2957
Rp2958
(I1
(I2
tp2959
g36
I00
S'}\x00\x00\x00Y\x00\x00\x00'
p2960
tp2961
bsba(i__main__
FrameData
p2962
(dp2963
g6
g900
sg8
g9
(g13
S'\xe4\x10\xe4sW\x0f)@'
p2964
tp2965
Rp2966
sg19
I0
sg20
g21
(S'\x07\xdd\t\x1d\x13\x0c9\x0eh\x18'
p2967
tp2968
Rp2969
sg25
I0
sg26
g27
(g28
(I0
tp2970
g30
tp2971
Rp2972
(I1
(I2
tp2973
g36
I00
S'|\x00\x00\x00X\x00\x00\x00'
p2974
tp2975
bsba(i__main__
FrameData
p2976
(dp2977
g6
g900
sg8
g9
(g13
S'w\x03Is \xa2%@'
p2978
tp2979
Rp2980
sg19
I0
sg20
g21
(S'\x07\xdd\t\x1d\x13\x0c9\x0e\xb1\xd6'
p2981
tp2982
Rp2983
sg25
I0
sg26
g27
(g28
(I0
tp2984
g30
tp2985
Rp2986
(I1
(I2
tp2987
g36
I00
S'y\x00\x00\x00S\x00\x00\x00'
p2988
tp2989
bsba(i__main__
FrameData
p2990
(dp2991
g6
g900
sg8
g9
(g13
S"\xe0\x11<m\xceh'@"
p2992
tp2993
Rp2994
sg19
I0
sg20
g21
(S'\x07\xdd\t\x1d\x13\x0c9\x0e\xdc\x1f'
p2995
tp2996
Rp2997
sg25
I0
sg26
g27
(g28
(I0
tp2998
g30
tp2999
Rp3000
(I1
(I2
tp3001
g36
I00
S'w\x00\x00\x00Q\x00\x00\x00'
p3002
tp3003
bsba(i__main__
FrameData
p3004
(dp3005
g6
g900
sg8
g9
(g13
S'9\xdcc\xb3\xbfT(@'
p3006
tp3007
Rp3008
sg19
I0
sg20
g21
(S'\x07\xdd\t\x1d\x13\x0c9\x0f+t'
p3009
tp3010
Rp3011
sg25
I0
sg26
g27
(g28
(I0
tp3012
g30
tp3013
Rp3014
(I1
(I2
tp3015
g36
I00
S'v\x00\x00\x00O\x00\x00\x00'
p3016
tp3017
bsba(i__main__
FrameData
p3018
(dp3019
g6
g900
sg8
g9
(g13
S'&5w\xe2K\x15(@'
p3020
tp3021
Rp3022
sg19
I0
sg20
g21
(S'\x07\xdd\t\x1d\x13\x0c:\x007b'
p3023
tp3024
Rp3025
sg25
I0
sg26
g27
(g28
(I0
tp3026
g30
tp3027
Rp3028
(I1
(I2
tp3029
g36
I00
S'v\x00\x00\x00N\x00\x00\x00'
p3030
tp3031
bsba(i__main__
FrameData
p3032
(dp3033
g6
g843
sg8
g9
(g13
S'\xf0)#L\x89\x19$@'
p3034
tp3035
Rp3036
sg19
I0
sg20
g21
(S'\x07\xdd\t\x1d\x13\x0c:\x00\xa5\x8a'
p3037
tp3038
Rp3039
sg25
I0
sg26
g27
(g28
(I0
tp3040
g30
tp3041
Rp3042
(I1
(I2
tp3043
g36
I00
S't\x00\x00\x00L\x00\x00\x00'
p3044
tp3045
bsba(i__main__
FrameData
p3046
(dp3047
g6
g843
sg8
g9
(g13
S'$\xf8\xd9p[\x1c"@'
p3048
tp3049
Rp3050
sg19
I0
sg20
g21
(S'\x07\xdd\t\x1d\x13\x0c:\x00\xf9M'
p3051
tp3052
Rp3053
sg25
I0
sg26
g27
(g28
(I0
tp3054
g30
tp3055
Rp3056
(I1
(I2
tp3057
g36
I00
S's\x00\x00\x00L\x00\x00\x00'
p3058
tp3059
bsba(i__main__
FrameData
p3060
(dp3061
g6
g843
sg8
g9
(g13
S'$\xf8\xd9p[\x1c"@'
p3062
tp3063
Rp3064
sg19
I0
sg20
g21
(S'\x07\xdd\t\x1d\x13\x0c:\x01!\xae'
p3065
tp3066
Rp3067
sg25
I0
sg26
g27
(g28
(I0
tp3068
g30
tp3069
Rp3070
(I1
(I2
tp3071
g36
I00
S's\x00\x00\x00J\x00\x00\x00'
p3072
tp3073
bsba(i__main__
FrameData
p3074
(dp3075
g6
g843
sg8
g9
(g13
S'\x07\xed\xaff\x0f~ @'
p3076
tp3077
Rp3078
sg19
I0
sg20
g21
(S'\x07\xdd\t\x1d\x13\x0c:\x01\xbe\x18'
p3079
tp3080
Rp3081
sg25
I0
sg26
g27
(g28
(I0
tp3082
g30
tp3083
Rp3084
(I1
(I2
tp3085
g36
I00
S'r\x00\x00\x00I\x00\x00\x00'
p3086
tp3087
bsba(i__main__
FrameData
p3088
(dp3089
g6
g843
sg8
g9
(g13
S'\xa3\x14\xae\xa8\x87\x16!@'
p3090
tp3091
Rp3092
sg19
I0
sg20
g21
(S'\x07\xdd\t\x1d\x13\x0c:\x023\x9d'
p3093
tp3094
Rp3095
sg25
I0
sg26
g27
(g28
(I0
tp3096
g30
tp3097
Rp3098
(I1
(I2
tp3099
g36
I00
S'r\x00\x00\x00H\x00\x00\x00'
p3100
tp3101
bsba(i__main__
FrameData
p3102
(dp3103
g6
g843
sg8
g9
(g13
S'p\xc4\x9d9\x8dv\x1e@'
p3104
tp3105
Rp3106
sg19
I0
sg20
g21
(S'\x07\xdd\t\x1d\x13\x0c:\x02\x81\x0b'
p3107
tp3108
Rp3109
sg25
I0
sg26
g27
(g28
(I0
tp3110
g30
tp3111
Rp3112
(I1
(I2
tp3113
g36
I00
S'q\x00\x00\x00H\x00\x00\x00'
p3114
tp3115
bsba(i__main__
FrameData
p3116
(dp3117
g6
g843
sg8
g9
(g13
S'\xd0\xbaa?\xe0\x1f @'
p3118
tp3119
Rp3120
sg19
I0
sg20
g21
(S'\x07\xdd\t\x1d\x13\x0c:\x02\xcf\x1a'
p3121
tp3122
Rp3123
sg25
I0
sg26
g27
(g28
(I0
tp3124
g30
tp3125
Rp3126
(I1
(I2
tp3127
g36
I00
S'q\x00\x00\x00G\x00\x00\x00'
p3128
tp3129
bsba(i__main__
FrameData
p3130
(dp3131
g6
g843
sg8
g9
(g13
S'\x00\xff\x9f\x99\xcc\x9c\x19@'
p3132
tp3133
Rp3134
sg19
I0
sg20
g21
(S'\x07\xdd\t\x1d\x13\x0c:\x02\xf6\x84'
p3135
tp3136
Rp3137
sg25
I0
sg26
g27
(g28
(I0
tp3138
g30
tp3139
Rp3140
(I1
(I2
tp3141
g36
I00
S'o\x00\x00\x00G\x00\x00\x00'
p3142
tp3143
bsba(i__main__
FrameData
p3144
(dp3145
g6
g843
sg8
g9
(g13
S'\x00\xff\x9f\x99\xcc\x9c\x19@'
p3146
tp3147
Rp3148
sg19
I0
sg20
g21
(S'\x07\xdd\t\x1d\x13\x0c:\x03l$'
p3149
tp3150
Rp3151
sg25
I0
sg26
g27
(g28
(I0
tp3152
g30
tp3153
Rp3154
(I1
(I2
tp3155
g36
I00
S'n\x00\x00\x00F\x00\x00\x00'
p3156
tp3157
bsba(i__main__
FrameData
p3158
(dp3159
g6
g843
sg8
g9
(g13
S'\xa2\xa3\xb3\r\xe5R\x17@'
p3160
tp3161
Rp3162
sg19
I0
sg20
g21
(S'\x07\xdd\t\x1d\x13\x0c:\x03\xbaQ'
p3163
tp3164
Rp3165
sg25
I0
sg26
g27
(g28
(I0
tp3166
g30
tp3167
Rp3168
(I1
(I2
tp3169
g36
I00
S'm\x00\x00\x00F\x00\x00\x00'
p3170
tp3171
bsba(i__main__
FrameData
p3172
(dp3173
g6
g843
sg8
g9
(g13
S'\xf3\xd9\xa8\xa4h\x8a\x15@'
p3174
tp3175
Rp3176
sg19
I0
sg20
g21
(S'\x07\xdd\t\x1d\x13\x0c:\x04{\xc1'
p3177
tp3178
Rp3179
sg25
I0
sg26
g27
(g28
(I0
tp3180
g30
tp3181
Rp3182
(I1
(I2
tp3183
g36
I00
S'l\x00\x00\x00F\x00\x00\x00'
p3184
tp3185
bsba(i__main__
FrameData
p3186
(dp3187
g6
g843
sg8
g9
(g13
S'S[\xda:XL\x19@'
p3188
tp3189
Rp3190
sg19
I0
sg20
g21
(S'\x07\xdd\t\x1d\x13\x0c:\x05\x1a\x14'
p3191
tp3192
Rp3193
sg25
I0
sg26
g27
(g28
(I0
tp3194
g30
tp3195
Rp3196
(I1
(I2
tp3197
g36
I00
S'l\x00\x00\x00E\x00\x00\x00'
p3198
tp3199
bsba(i__main__
FrameData
p3200
(dp3201
g6
g843
sg8
g9
(g13
S'9\xdcc\xb3\xbfT\x18@'
p3202
tp3203
Rp3204
sg19
I0
sg20
g21
(S'\x07\xdd\t\x1d\x13\x0c:\x05@E'
p3205
tp3206
Rp3207
sg25
I0
sg26
g27
(g28
(I0
tp3208
g30
tp3209
Rp3210
(I1
(I2
tp3211
g36
I00
S'k\x00\x00\x00E\x00\x00\x00'
p3212
tp3213
bsbasS'_fileName'
p3214
S'training/trajectory2013-09-29_19:12:45.983545'
p3215
sS'word'
p3216
S'grunt'
p3217
sb.