(i__main__
SwypeTrajectory
p0
(dp1
S'_frameDataList'
p2
(lp3
(i__main__
FrameData
p4
(dp5
S'closestLetter'
p6
S'z'
p7
sS'letterDistance'
p8
cnumpy.core.multiarray
scalar
p9
(cnumpy
dtype
p10
(S'f8'
p11
I0
I1
tp12
Rp13
(I3
S'<'
p14
NNNI-1
I-1
I0
tp15
bS'\xcd;\x7ff\x9e\xa0\xf6?'
p16
tp17
Rp18
sS'accel'
p19
I0
sS'time'
p20
cdatetime
datetime
p21
(S'\x07\xdd\t\x1d\x13\t2\x00\xb2\xf0'
p22
tp23
Rp24
sS'velocity'
p25
I0
sS'position'
p26
cnumpy.core.multiarray
_reconstruct
p27
(cnumpy
ndarray
p28
(I0
tp29
S'b'
p30
tp31
Rp32
(I1
(I2
tp33
g10
(S'i4'
p34
I0
I1
tp35
Rp36
(I3
S'<'
p37
NNNI-1
I-1
I0
tp38
bI00
S'(\x00\x00\x00\x9c\x00\x00\x00'
p39
tp40
bsba(i__main__
FrameData
p41
(dp42
g6
g7
sg8
g9
(g13
S'\xcd;\x7ff\x9e\xa0\xf6?'
p43
tp44
Rp45
sg19
I0
sg20
g21
(S'\x07\xdd\t\x1d\x13\t2\x00\xeeC'
p46
tp47
Rp48
sg25
I0
sg26
g27
(g28
(I0
tp49
g30
tp50
Rp51
(I1
(I2
tp52
g36
I00
S'(\x00\x00\x00\x9a\x00\x00\x00'
p53
tp54
bsba(i__main__
FrameData
p55
(dp56
g6
g7
sg8
g9
(g13
S'S[\xda:XL\x19@'
p57
tp58
Rp59
sg19
I0
sg20
g21
(S'\x07\xdd\t\x1d\x13\t2\x01+#'
p60
tp61
Rp62
sg25
I0
sg26
g27
(g28
(I0
tp63
g30
tp64
Rp65
(I1
(I2
tp66
g36
I00
S'+\x00\x00\x00\x95\x00\x00\x00'
p67
tp68
bsba(i__main__
FrameData
p69
(dp70
g6
g7
sg8
g9
(g13
S'bVc}\x9d\xb2#@'
p71
tp72
Rp73
sg19
I0
sg20
g21
(S'\x07\xdd\t\x1d\x13\t2\x01r\x9c'
p74
tp75
Rp76
sg25
I0
sg26
g27
(g28
(I0
tp77
g30
tp78
Rp79
(I1
(I2
tp80
g36
I00
S'-\x00\x00\x00\x92\x00\x00\x00'
p81
tp82
bsba(i__main__
FrameData
p83
(dp84
g6
g7
sg8
g9
(g13
S'\xc5Bl?W\x87.@'
p85
tp86
Rp87
sg19
I0
sg20
g21
(S'\x07\xdd\t\x1d\x13\t2\x01\xb2\xa3'
p88
tp89
Rp90
sg25
I0
sg26
g27
(g28
(I0
tp91
g30
tp92
Rp93
(I1
(I2
tp94
g36
I00
S'1\x00\x00\x00\x8e\x00\x00\x00'
p95
tp96
bsba(i__main__
FrameData
p97
(dp98
g6
g7
sg8
g9
(g13
S':\xf0c\xf6\x1b\xb93@'
p99
tp100
Rp101
sg19
I0
sg20
g21
(S'\x07\xdd\t\x1d\x13\t2\x01\xf3j'
p102
tp103
Rp104
sg25
I0
sg26
g27
(g28
(I0
tp105
g30
tp106
Rp107
(I1
(I2
tp108
g36
I00
S'3\x00\x00\x00\x8a\x00\x00\x00'
p109
tp110
bsba(i__main__
FrameData
p111
(dp112
g6
g7
sg8
g9
(g13
S'u\xa6<oS\x185@'
p113
tp114
Rp115
sg19
I0
sg20
g21
(S'\x07\xdd\t\x1d\x13\t2\x02,\x8d'
p116
tp117
Rp118
sg25
I0
sg26
g27
(g28
(I0
tp119
g30
tp120
Rp121
(I1
(I2
tp122
g36
I00
S'4\x00\x00\x00\x89\x00\x00\x00'
p123
tp124
bsba(i__main__
FrameData
p125
(dp126
g6
S's'
p127
sg8
g9
(g13
S'\xe7o\xbb\x8d\x9f\x8f6@'
p128
tp129
Rp130
sg19
I0
sg20
g21
(S'\x07\xdd\t\x1d\x13\t2\x02k\xb7'
p131
tp132
Rp133
sg25
I0
sg26
g27
(g28
(I0
tp134
g30
tp135
Rp136
(I1
(I2
tp137
g36
I00
S'6\x00\x00\x00\x87\x00\x00\x00'
p138
tp139
bsba(i__main__
FrameData
p140
(dp141
g6
g127
sg8
g9
(g13
S'\xef<Y\xd8\x1f\xd75@'
p142
tp143
Rp144
sg19
I0
sg20
g21
(S'\x07\xdd\t\x1d\x13\t2\x02\xb1\xb4'
p145
tp146
Rp147
sg25
I0
sg26
g27
(g28
(I0
tp148
g30
tp149
Rp150
(I1
(I2
tp151
g36
I00
S'7\x00\x00\x00\x86\x00\x00\x00'
p152
tp153
bsba(i__main__
FrameData
p154
(dp155
g6
g127
sg8
g9
(g13
S'\xa5\xf4a\xf1\x8a05@'
p156
tp157
Rp158
sg19
I0
sg20
g21
(S'\x07\xdd\t\x1d\x13\t2\x02\xf1Q'
p159
tp160
Rp161
sg25
I0
sg26
g27
(g28
(I0
tp162
g30
tp163
Rp164
(I1
(I2
tp165
g36
I00
S'8\x00\x00\x00\x85\x00\x00\x00'
p166
tp167
bsba(i__main__
FrameData
p168
(dp169
g6
g127
sg8
g9
(g13
S'I\xe8[@\x93\x9d4@'
p170
tp171
Rp172
sg19
I0
sg20
g21
(S'\x07\xdd\t\x1d\x13\t2\x034\xb8'
p173
tp174
Rp175
sg25
I0
sg26
g27
(g28
(I0
tp176
g30
tp177
Rp178
(I1
(I2
tp179
g36
I00
S'9\x00\x00\x00\x84\x00\x00\x00'
p180
tp181
bsba(i__main__
FrameData
p182
(dp183
g6
g127
sg8
g9
(g13
S'=\xf3\n\x8f\xe6\x1f4@'
p184
tp185
Rp186
sg19
I0
sg20
g21
(S'\x07\xdd\t\x1d\x13\t2\x03u\xe4'
p187
tp188
Rp189
sg25
I0
sg26
g27
(g28
(I0
tp190
g30
tp191
Rp192
(I1
(I2
tp193
g36
I00
S':\x00\x00\x00\x83\x00\x00\x00'
p194
tp195
bsba(i__main__
FrameData
p196
(dp197
g6
g127
sg8
g9
(g13
S':\xf0c\xf6\x1b\xb93@'
p198
tp199
Rp200
sg19
I0
sg20
g21
(S'\x07\xdd\t\x1d\x13\t2\x03\xb5F'
p201
tp202
Rp203
sg25
I0
sg26
g27
(g28
(I0
tp204
g30
tp205
Rp206
(I1
(I2
tp207
g36
I00
S';\x00\x00\x00\x82\x00\x00\x00'
p208
tp209
bsba(i__main__
FrameData
p210
(dp211
g6
S'd'
p212
sg8
g9
(g13
S'\xd5?\x80N\xf3\xcd1@'
p213
tp214
Rp215
sg19
I0
sg20
g21
(S'\x07\xdd\t\x1d\x13\t2\x04\x08\x8c'
p216
tp217
Rp218
sg25
I0
sg26
g27
(g28
(I0
tp219
g30
tp220
Rp221
(I1
(I2
tp222
g36
I00
S'>\x00\x00\x00\x7f\x00\x00\x00'
p223
tp224
bsba(i__main__
FrameData
p225
(dp226
g6
g212
sg8
g9
(g13
S'\xef\rI\xf1\xf33+@'
p227
tp228
Rp229
sg19
I0
sg20
g21
(S'\x07\xdd\t\x1d\x13\t2\x047@'
p230
tp231
Rp232
sg25
I0
sg26
g27
(g28
(I0
tp233
g30
tp234
Rp235
(I1
(I2
tp236
g36
I00
S'A\x00\x00\x00|\x00\x00\x00'
p237
tp238
bsba(i__main__
FrameData
p239
(dp240
g6
g212
sg8
g9
(g13
S'w\x03Is \xa2%@'
p241
tp242
Rp243
sg19
I0
sg20
g21
(S'\x07\xdd\t\x1d\x13\t2\x04v\x8c'
p244
tp245
Rp246
sg25
I0
sg26
g27
(g28
(I0
tp247
g30
tp248
Rp249
(I1
(I2
tp250
g36
I00
S'C\x00\x00\x00z\x00\x00\x00'
p251
tp252
bsba(i__main__
FrameData
p253
(dp254
g6
g212
sg8
g9
(g13
S'\xa8\xf4\x97\x9bw\xe3!@'
p255
tp256
Rp257
sg19
I0
sg20
g21
(S'\x07\xdd\t\x1d\x13\t2\x04\xc4\xbd'
p258
tp259
Rp260
sg25
I0
sg26
g27
(g28
(I0
tp261
g30
tp262
Rp263
(I1
(I2
tp264
g36
I00
S'E\x00\x00\x00y\x00\x00\x00'
p265
tp266
bsba(i__main__
FrameData
p267
(dp268
g6
g212
sg8
g9
(g13
S'p\xc4\x9d9\x8dv\x1e@'
p269
tp270
Rp271
sg19
I0
sg20
g21
(S'\x07\xdd\t\x1d\x13\t2\x05\x07\xf6'
p272
tp273
Rp274
sg25
I0
sg26
g27
(g28
(I0
tp275
g30
tp276
Rp277
(I1
(I2
tp278
g36
I00
S'F\x00\x00\x00x\x00\x00\x00'
p279
tp280
bsba(i__main__
FrameData
p281
(dp282
g6
g212
sg8
g9
(g13
S'9\xdcc\xb3\xbfT\x18@'
p283
tp284
Rp285
sg19
I0
sg20
g21
(S'\x07\xdd\t\x1d\x13\t2\x05:\xbf'
p286
tp287
Rp288
sg25
I0
sg26
g27
(g28
(I0
tp289
g30
tp290
Rp291
(I1
(I2
tp292
g36
I00
S'H\x00\x00\x00w\x00\x00\x00'
p293
tp294
bsba(i__main__
FrameData
p295
(dp296
g6
g212
sg8
g9
(g13
S'\xa8\xf4\x97\x9bw\xe3\x11@'
p297
tp298
Rp299
sg19
I0
sg20
g21
(S'\x07\xdd\t\x1d\x13\t2\x05\x87C'
p300
tp301
Rp302
sg25
I0
sg26
g27
(g28
(I0
tp303
g30
tp304
Rp305
(I1
(I2
tp306
g36
I00
S'K\x00\x00\x00u\x00\x00\x00'
p307
tp308
bsba(i__main__
FrameData
p309
(dp310
g6
g212
sg8
g9
(g13
S'\x00\x00\x00\x00\x00\x00\x14@'
p311
tp312
Rp313
sg19
I0
sg20
g21
(S'\x07\xdd\t\x1d\x13\t2\x05\xc8\xf7'
p314
tp315
Rp316
sg25
I0
sg26
g27
(g28
(I0
tp317
g30
tp318
Rp319
(I1
(I2
tp320
g36
I00
S'M\x00\x00\x00t\x00\x00\x00'
p321
tp322
bsba(i__main__
FrameData
p323
(dp324
g6
g212
sg8
g9
(g13
S'S[\xda:XL\x19@'
p325
tp326
Rp327
sg19
I0
sg20
g21
(S'\x07\xdd\t\x1d\x13\t2\x05\xfeR'
p328
tp329
Rp330
sg25
I0
sg26
g27
(g28
(I0
tp331
g30
tp332
Rp333
(I1
(I2
tp334
g36
I00
S'O\x00\x00\x00s\x00\x00\x00'
p335
tp336
bsba(i__main__
FrameData
p337
(dp338
g6
g212
sg8
g9
(g13
S'\xf0)#L\x89\x19$@'
p339
tp340
Rp341
sg19
I0
sg20
g21
(S"\x07\xdd\t\x1d\x13\t2\x06@'"
p342
tp343
Rp344
sg25
I0
sg26
g27
(g28
(I0
tp345
g30
tp346
Rp347
(I1
(I2
tp348
g36
I00
S'S\x00\x00\x00r\x00\x00\x00'
p349
tp350
bsba(i__main__
FrameData
p351
(dp352
g6
S'f'
p353
sg8
g9
(g13
S'\x00\x00\x00\x00\x00\x00&@'
p354
tp355
Rp356
sg19
I0
sg20
g21
(S'\x07\xdd\t\x1d\x13\t2\x06\x88\xc3'
p357
tp358
Rp359
sg25
I0
sg26
g27
(g28
(I0
tp360
g30
tp361
Rp362
(I1
(I2
tp363
g36
I00
S'U\x00\x00\x00r\x00\x00\x00'
p364
tp365
bsba(i__main__
FrameData
p366
(dp367
g6
g353
sg8
g9
(g13
S'\xf0)#L\x89\x19$@'
p368
tp369
Rp370
sg19
I0
sg20
g21
(S'\x07\xdd\t\x1d\x13\t2\x06\xc8m'
p371
tp372
Rp373
sg25
I0
sg26
g27
(g28
(I0
tp374
g30
tp375
Rp376
(I1
(I2
tp377
g36
I00
S'V\x00\x00\x00q\x00\x00\x00'
p378
tp379
bsba(i__main__
FrameData
p380
(dp381
g6
g353
sg8
g9
(g13
S'\xd0\xbaa?\xe0\x1f @'
p382
tp383
Rp384
sg19
I0
sg20
g21
(S'\x07\xdd\t\x1d\x13\t2\x07\n_'
p385
tp386
Rp387
sg25
I0
sg26
g27
(g28
(I0
tp388
g30
tp389
Rp390
(I1
(I2
tp391
g36
I00
S'X\x00\x00\x00q\x00\x00\x00'
p392
tp393
bsba(i__main__
FrameData
p394
(dp395
g6
g353
sg8
g9
(g13
S'9\xdcc\xb3\xbfT\x18@'
p396
tp397
Rp398
sg19
I0
sg20
g21
(S'\x07\xdd\t\x1d\x13\t2\x07G\x0b'
p399
tp400
Rp401
sg25
I0
sg26
g27
(g28
(I0
tp402
g30
tp403
Rp404
(I1
(I2
tp405
g36
I00
S'Z\x00\x00\x00q\x00\x00\x00'
p406
tp407
bsba(i__main__
FrameData
p408
(dp409
g6
g353
sg8
g9
(g13
S'\xa8\xf4\x97\x9bw\xe3\x11@'
p410
tp411
Rp412
sg19
I0
sg20
g21
(S'\x07\xdd\t\x1d\x13\t2\x07\x89\xd1'
p413
tp414
Rp415
sg25
I0
sg26
g27
(g28
(I0
tp416
g30
tp417
Rp418
(I1
(I2
tp419
g36
I00
S'\\\x00\x00\x00p\x00\x00\x00'
p420
tp421
bsba(i__main__
FrameData
p422
(dp423
g6
g353
sg8
g9
(g13
S'\xf3YaD+\xd8\x0c@'
p424
tp425
Rp426
sg19
I0
sg20
g21
(S'\x07\xdd\t\x1d\x13\t2\x07\xca\x17'
p427
tp428
Rp429
sg25
I0
sg26
g27
(g28
(I0
tp430
g30
tp431
Rp432
(I1
(I2
tp433
g36
I00
S'^\x00\x00\x00o\x00\x00\x00'
p434
tp435
bsba(i__main__
FrameData
p436
(dp437
g6
g353
sg8
g9
(g13
S'\x00\x00\x00\x00\x00\x00\x08@'
p438
tp439
Rp440
sg19
I0
sg20
g21
(S'\x07\xdd\t\x1d\x13\t2\x08\x0b\x97'
p441
tp442
Rp443
sg25
I0
sg26
g27
(g28
(I0
tp444
g30
tp445
Rp446
(I1
(I2
tp447
g36
I00
S'`\x00\x00\x00o\x00\x00\x00'
p448
tp449
bsba(i__main__
FrameData
p450
(dp451
g6
g353
sg8
g9
(g13
S'\x00\x00\x00\x00\x00\x00\x14@'
p452
tp453
Rp454
sg19
I0
sg20
g21
(S'\x07\xdd\t\x1d\x13\t2\x08\\\xde'
p455
tp456
Rp457
sg25
I0
sg26
g27
(g28
(I0
tp458
g30
tp459
Rp460
(I1
(I2
tp461
g36
I00
S'c\x00\x00\x00n\x00\x00\x00'
p462
tp463
bsba(i__main__
FrameData
p464
(dp465
g6
g353
sg8
g9
(g13
S'htN\x17\xb2=\x1f@'
p466
tp467
Rp468
sg19
I0
sg20
g21
(S'\x07\xdd\t\x1d\x13\t2\x08\x8b\x00'
p469
tp470
Rp471
sg25
I0
sg26
g27
(g28
(I0
tp472
g30
tp473
Rp474
(I1
(I2
tp475
g36
I00
S'f\x00\x00\x00m\x00\x00\x00'
p476
tp477
bsba(i__main__
FrameData
p478
(dp479
g6
g353
sg8
g9
(g13
S'\xd2\xf1}\x82U\\&@'
p480
tp481
Rp482
sg19
I0
sg20
g21
(S'\x07\xdd\t\x1d\x13\t2\x08\xcc\xa7'
p483
tp484
Rp485
sg25
I0
sg26
g27
(g28
(I0
tp486
g30
tp487
Rp488
(I1
(I2
tp489
g36
I00
S'j\x00\x00\x00m\x00\x00\x00'
p490
tp491
bsba(i__main__
FrameData
p492
(dp493
g6
S'g'
p494
sg8
g9
(g13
S'F\xc3\\\xa8\xc1i(@'
p495
tp496
Rp497
sg19
I0
sg20
g21
(S'\x07\xdd\t\x1d\x13\t2\t\x1c\xb2'
p498
tp499
Rp500
sg25
I0
sg26
g27
(g28
(I0
tp501
g30
tp502
Rp503
(I1
(I2
tp504
g36
I00
S'n\x00\x00\x00k\x00\x00\x00'
p505
tp506
bsba(i__main__
FrameData
p507
(dp508
g6
g494
sg8
g9
(g13
S'\xa8\xf4\x97\x9bw\xe3!@'
p509
tp510
Rp511
sg19
I0
sg20
g21
(S'\x07\xdd\t\x1d\x13\t2\tZt'
p512
tp513
Rp514
sg25
I0
sg26
g27
(g28
(I0
tp515
g30
tp516
Rp517
(I1
(I2
tp518
g36
I00
S't\x00\x00\x00j\x00\x00\x00'
p519
tp520
bsba(i__main__
FrameData
p521
(dp522
g6
g494
sg8
g9
(g13
S'$\xf8\xd9p[\x1c"@'
p523
tp524
Rp525
sg19
I0
sg20
g21
(S'\x07\xdd\t\x1d\x13\t2\t\x9cH'
p526
tp527
Rp528
sg25
I0
sg26
g27
(g28
(I0
tp529
g30
tp530
Rp531
(I1
(I2
tp532
g36
I00
S'w\x00\x00\x00i\x00\x00\x00'
p533
tp534
bsba(i__main__
FrameData
p535
(dp536
g6
g494
sg8
g9
(g13
S'7\xf9\xcf\xdao\xe1$@'
p537
tp538
Rp539
sg19
I0
sg20
g21
(S'\x07\xdd\t\x1d\x13\t2\t\xdc\x9d'
p540
tp541
Rp542
sg25
I0
sg26
g27
(g28
(I0
tp543
g30
tp544
Rp545
(I1
(I2
tp546
g36
I00
S'{\x00\x00\x00h\x00\x00\x00'
p547
tp548
bsba(i__main__
FrameData
p549
(dp550
g6
g494
sg8
g9
(g13
S'\xb9e(k\xee\xc8+@'
p551
tp552
Rp553
sg19
I0
sg20
g21
(S'\x07\xdd\t\x1d\x13\t2\n\x15f'
p554
tp555
Rp556
sg25
I0
sg26
g27
(g28
(I0
tp557
g30
tp558
Rp559
(I1
(I2
tp560
g36
I00
S'\x7f\x00\x00\x00f\x00\x00\x00'
p561
tp562
bsba(i__main__
FrameData
p563
(dp564
g6
g494
sg8
g9
(g13
S')\x9ah\xdd\x85\x071@'
p565
tp566
Rp567
sg19
I0
sg20
g21
(S'\x07\xdd\t\x1d\x13\t2\nS\x88'
p568
tp569
Rp570
sg25
I0
sg26
g27
(g28
(I0
tp571
g30
tp572
Rp573
(I1
(I2
tp574
g36
I00
S'\x83\x00\x00\x00e\x00\x00\x00'
p575
tp576
bsba(i__main__
FrameData
p577
(dp578
g6
S'h'
p579
sg8
g9
(g13
S'8\xd8\xbc\n\x1b\x072@'
p580
tp581
Rp582
sg19
I0
sg20
g21
(S'\x07\xdd\t\x1d\x13\t2\n\x98\xdf'
p583
tp584
Rp585
sg25
I0
sg26
g27
(g28
(I0
tp586
g30
tp587
Rp588
(I1
(I2
tp589
g36
I00
S'\x86\x00\x00\x00c\x00\x00\x00'
p590
tp591
bsba(i__main__
FrameData
p592
(dp593
g6
g579
sg8
g9
(g13
S'\xa3\x14\xae\xa8\x87\x161@'
p594
tp595
Rp596
sg19
I0
sg20
g21
(S'\x07\xdd\t\x1d\x13\t2\n\xd7u'
p597
tp598
Rp599
sg25
I0
sg26
g27
(g28
(I0
tp600
g30
tp601
Rp602
(I1
(I2
tp603
g36
I00
S'\x8a\x00\x00\x00b\x00\x00\x00'
p604
tp605
bsba(i__main__
FrameData
p606
(dp607
g6
g579
sg8
g9
(g13
S'\xfb\xefg\xc4>C1@'
p608
tp609
Rp610
sg19
I0
sg20
g21
(S'\x07\xdd\t\x1d\x13\t2\x0b\x16\xfc'
p611
tp612
Rp613
sg25
I0
sg26
g27
(g28
(I0
tp614
g30
tp615
Rp616
(I1
(I2
tp617
g36
I00
S'\x8d\x00\x00\x00a\x00\x00\x00'
p618
tp619
bsba(i__main__
FrameData
p620
(dp621
g6
g579
sg8
g9
(g13
S'\x00\x00\x00\x00\x00\x001@'
p622
tp623
Rp624
sg19
I0
sg20
g21
(S'\x07\xdd\t\x1d\x13\t2\x0bX\xd6'
p625
tp626
Rp627
sg25
I0
sg26
g27
(g28
(I0
tp628
g30
tp629
Rp630
(I1
(I2
tp631
g36
I00
S'\x90\x00\x00\x00a\x00\x00\x00'
p632
tp633
bsba(i__main__
FrameData
p634
(dp635
g6
g579
sg8
g9
(g13
S')\x9ah\xdd\x85\x071@'
p636
tp637
Rp638
sg19
I0
sg20
g21
(S'\x07\xdd\t\x1d\x13\t2\x0b\x9d='
p639
tp640
Rp641
sg25
I0
sg26
g27
(g28
(I0
tp642
g30
tp643
Rp644
(I1
(I2
tp645
g36
I00
S'\x91\x00\x00\x00a\x00\x00\x00'
p646
tp647
bsba(i__main__
FrameData
p648
(dp649
g6
g579
sg8
g9
(g13
S'+\xe5\x8a\xc6\x8f?2@'
p650
tp651
Rp652
sg19
I0
sg20
g21
(S'\x07\xdd\t\x1d\x13\t2\x0b\xdf\x00'
p653
tp654
Rp655
sg25
I0
sg26
g27
(g28
(I0
tp656
g30
tp657
Rp658
(I1
(I2
tp659
g36
I00
S'\x93\x00\x00\x00`\x00\x00\x00'
p660
tp661
bsba(i__main__
FrameData
p662
(dp663
g6
g579
sg8
g9
(g13
S'X(/\x84y\xae2@'
p664
tp665
Rp666
sg19
I0
sg20
g21
(S'\x07\xdd\t\x1d\x13\t2\x0c\x1f9'
p667
tp668
Rp669
sg25
I0
sg26
g27
(g28
(I0
tp670
g30
tp671
Rp672
(I1
(I2
tp673
g36
I00
S'\x95\x00\x00\x00`\x00\x00\x00'
p674
tp675
bsba(i__main__
FrameData
p676
(dp677
g6
g579
sg8
g9
(g13
S'\xcey?\xdc\x9a?4@'
p678
tp679
Rp680
sg19
I0
sg20
g21
(S'\x07\xdd\t\x1d\x13\t2\x0ca\xd9'
p681
tp682
Rp683
sg25
I0
sg26
g27
(g28
(I0
tp684
g30
tp685
Rp686
(I1
(I2
tp687
g36
I00
S'\x97\x00\x00\x00_\x00\x00\x00'
p688
tp689
bsba(i__main__
FrameData
p690
(dp691
g6
g579
sg8
g9
(g13
S'I\xe8[@\x93\x9d4@'
p692
tp693
Rp694
sg19
I0
sg20
g21
(S'\x07\xdd\t\x1d\x13\t2\x0c\xa0\xfe'
p695
tp696
Rp697
sg25
I0
sg26
g27
(g28
(I0
tp698
g30
tp699
Rp700
(I1
(I2
tp701
g36
I00
S'\x98\x00\x00\x00_\x00\x00\x00'
p702
tp703
bsba(i__main__
FrameData
p704
(dp705
g6
S'u'
p706
sg8
g9
(g13
S'\xc9\xe0>!B<3@'
p707
tp708
Rp709
sg19
I0
sg20
g21
(S'\x07\xdd\t\x1d\x13\t2\x0c\xeb\x87'
p710
tp711
Rp712
sg25
I0
sg26
g27
(g28
(I0
tp713
g30
tp714
Rp715
(I1
(I2
tp716
g36
I00
S'\x9b\x00\x00\x00]\x00\x00\x00'
p717
tp718
bsba(i__main__
FrameData
p719
(dp720
g6
g706
sg8
g9
(g13
S'X(/\x84y\xae2@'
p721
tp722
Rp723
sg19
I0
sg20
g21
(S'\x07\xdd\t\x1d\x13\t2\r \xa6'
p724
tp725
Rp726
sg25
I0
sg26
g27
(g28
(I0
tp727
g30
tp728
Rp729
(I1
(I2
tp730
g36
I00
S'\x9d\x00\x00\x00\\\x00\x00\x00'
p731
tp732
bsba(i__main__
FrameData
p733
(dp734
g6
g706
sg8
g9
(g13
S'VT\xdbd.P3@'
p735
tp736
Rp737
sg19
I0
sg20
g21
(S'\x07\xdd\t\x1d\x13\t2\rq\x1f'
p738
tp739
Rp740
sg25
I0
sg26
g27
(g28
(I0
tp741
g30
tp742
Rp743
(I1
(I2
tp744
g36
I00
S'\x9f\x00\x00\x00\\\x00\x00\x00'
p745
tp746
bsba(i__main__
FrameData
p747
(dp748
g6
g706
sg8
g9
(g13
S'5 \x89\xa6\xcd\xc92@'
p749
tp750
Rp751
sg19
I0
sg20
g21
(S'\x07\xdd\t\x1d\x13\t2\r\xa6\x05'
p752
tp753
Rp754
sg25
I0
sg26
g27
(g28
(I0
tp755
g30
tp756
Rp757
(I1
(I2
tp758
g36
I00
S'\xa0\x00\x00\x00[\x00\x00\x00'
p759
tp760
bsba(i__main__
FrameData
p761
(dp762
g6
g706
sg8
g9
(g13
S'\xc9\xe0>!B<3@'
p763
tp764
Rp765
sg19
I0
sg20
g21
(S'\x07\xdd\t\x1d\x13\t2\r\xf2\xa6'
p766
tp767
Rp768
sg25
I0
sg26
g27
(g28
(I0
tp769
g30
tp770
Rp771
(I1
(I2
tp772
g36
I00
S'\xa1\x00\x00\x00[\x00\x00\x00'
p773
tp774
bsba(i__main__
FrameData
p775
(dp776
g6
g706
sg8
g9
(g13
S'A\x87b\xc62\xde2@'
p777
tp778
Rp779
sg19
I0
sg20
g21
(S'\x07\xdd\t\x1d\x13\t2\x0e1\x9d'
p780
tp781
Rp782
sg25
I0
sg26
g27
(g28
(I0
tp783
g30
tp784
Rp785
(I1
(I2
tp786
g36
I00
S'\xa2\x00\x00\x00Z\x00\x00\x00'
p787
tp788
bsba(i__main__
FrameData
p789
(dp790
g6
g706
sg8
g9
(g13
S'u\x85\x18\x11\xe0\x992@'
p791
tp792
Rp793
sg19
I0
sg20
g21
(S'\x07\xdd\t\x1d\x13\t2\x0eq\xf8'
p794
tp795
Rp796
sg25
I0
sg26
g27
(g28
(I0
tp797
g30
tp798
Rp799
(I1
(I2
tp800
g36
I00
S'\xa3\x00\x00\x00Y\x00\x00\x00'
p801
tp802
bsba(i__main__
FrameData
p803
(dp804
g6
g706
sg8
g9
(g13
S'\x9a.\x90!hp2@'
p805
tp806
Rp807
sg19
I0
sg20
g21
(S'\x07\xdd\t\x1d\x13\t2\x0e\xf3\xda'
p808
tp809
Rp810
sg25
I0
sg26
g27
(g28
(I0
tp811
g30
tp812
Rp813
(I1
(I2
tp814
g36
I00
S'\xa4\x00\x00\x00X\x00\x00\x00'
p815
tp816
bsba(i__main__
FrameData
p817
(dp818
g6
g706
sg8
g9
(g13
S'l\xd0\xe82\x1a\xb11@'
p819
tp820
Rp821
sg19
I0
sg20
g21
(S'\x07\xdd\t\x1d\x13\t2\x0f3\t'
p822
tp823
Rp824
sg25
I0
sg26
g27
(g28
(I0
tp825
g30
tp826
Rp827
(I1
(I2
tp828
g36
I00
S'\xa4\x00\x00\x00W\x00\x00\x00'
p829
tp830
bsba(i__main__
FrameData
p831
(dp832
g6
S'i'
p833
sg8
g9
(g13
S')\x9ah\xdd\x85\x071@'
p834
tp835
Rp836
sg19
I0
sg20
g21
(S'\x07\xdd\t\x1d\x13\t3\x001\x0f'
p837
tp838
Rp839
sg25
I0
sg26
g27
(g28
(I0
tp840
g30
tp841
Rp842
(I1
(I2
tp843
g36
I00
S'\xa5\x00\x00\x00V\x00\x00\x00'
p844
tp845
bsba(i__main__
FrameData
p846
(dp847
g6
g833
sg8
g9
(g13
S'htN\x17\xb2=/@'
p848
tp849
Rp850
sg19
I0
sg20
g21
(S'\x07\xdd\t\x1d\x13\t3\x00r`'
p851
tp852
Rp853
sg25
I0
sg26
g27
(g28
(I0
tp854
g30
tp855
Rp856
(I1
(I2
tp857
g36
I00
S'\xa6\x00\x00\x00U\x00\x00\x00'
p858
tp859
bsba(i__main__
FrameData
p860
(dp861
g6
g833
sg8
g9
(g13
S'?*\x98"\xe3l,@'
p862
tp863
Rp864
sg19
I0
sg20
g21
(S'\x07\xdd\t\x1d\x13\t3\x00\xb1\x92'
p865
tp866
Rp867
sg25
I0
sg26
g27
(g28
(I0
tp868
g30
tp869
Rp870
(I1
(I2
tp871
g36
I00
S'\xa7\x00\x00\x00T\x00\x00\x00'
p872
tp873
bsba(i__main__
FrameData
p874
(dp875
g6
g833
sg8
g9
(g13
S'\x00\xff\x9f\x99\xcc\x9c)@'
p876
tp877
Rp878
sg19
I0
sg20
g21
(S'\x07\xdd\t\x1d\x13\t3\x00\xf3O'
p879
tp880
Rp881
sg25
I0
sg26
g27
(g28
(I0
tp882
g30
tp883
Rp884
(I1
(I2
tp885
g36
I00
S'\xa8\x00\x00\x00S\x00\x00\x00'
p886
tp887
bsba(i__main__
FrameData
p888
(dp889
g6
g833
sg8
g9
(g13
S'F\xc3\\\xa8\xc1i(@'
p890
tp891
Rp892
sg19
I0
sg20
g21
(S'\x07\xdd\t\x1d\x13\t3\x012y'
p893
tp894
Rp895
sg25
I0
sg26
g27
(g28
(I0
tp896
g30
tp897
Rp898
(I1
(I2
tp899
g36
I00
S'\xa8\x00\x00\x00R\x00\x00\x00'
p900
tp901
bsba(i__main__
FrameData
p902
(dp903
g6
g833
sg8
g9
(g13
S'6\xd0\xd2x\xa2B%@'
p904
tp905
Rp906
sg19
I0
sg20
g21
(S'\x07\xdd\t\x1d\x13\t3\x01q\x05'
p907
tp908
Rp909
sg25
I0
sg26
g27
(g28
(I0
tp910
g30
tp911
Rp912
(I1
(I2
tp913
g36
I00
S'\xaa\x00\x00\x00R\x00\x00\x00'
p914
tp915
bsba(i__main__
FrameData
p916
(dp917
g6
g833
sg8
g9
(g13
S'\x9a.\x90!hp"@'
p918
tp919
Rp920
sg19
I0
sg20
g21
(S'\x07\xdd\t\x1d\x13\t3\x01\xb6\x8b'
p921
tp922
Rp923
sg25
I0
sg26
g27
(g28
(I0
tp924
g30
tp925
Rp926
(I1
(I2
tp927
g36
I00
S'\xab\x00\x00\x00Q\x00\x00\x00'
p928
tp929
bsba(i__main__
FrameData
p930
(dp931
g6
g833
sg8
g9
(g13
S'htN\x17\xb2=\x1f@'
p932
tp933
Rp934
sg19
I0
sg20
g21
(S'\x07\xdd\t\x1d\x13\t3\x01\xf8\xa7'
p935
tp936
Rp937
sg25
I0
sg26
g27
(g28
(I0
tp938
g30
tp939
Rp940
(I1
(I2
tp941
g36
I00
S'\xac\x00\x00\x00P\x00\x00\x00'
p942
tp943
bsba(i__main__
FrameData
p944
(dp945
g6
g833
sg8
g9
(g13
S'\x00\xff\x9f\x99\xcc\x9c\x19@'
p946
tp947
Rp948
sg19
I0
sg20
g21
(S'\x07\xdd\t\x1d\x13\t3\x023Q'
p949
tp950
Rp951
sg25
I0
sg26
g27
(g28
(I0
tp952
g30
tp953
Rp954
(I1
(I2
tp955
g36
I00
S'\xad\x00\x00\x00O\x00\x00\x00'
p956
tp957
bsba(i__main__
FrameData
p958
(dp959
g6
g833
sg8
g9
(g13
S'\xcd;\x7ff\x9e\xa0\x16@'
p960
tp961
Rp962
sg19
I0
sg20
g21
(S'\x07\xdd\t\x1d\x13\t3\x02\x83\xb3'
p963
tp964
Rp965
sg25
I0
sg26
g27
(g28
(I0
tp966
g30
tp967
Rp968
(I1
(I2
tp969
g36
I00
S'\xae\x00\x00\x00O\x00\x00\x00'
p970
tp971
bsba(i__main__
FrameData
p972
(dp973
g6
g833
sg8
g9
(g13
S'\xd9l\xdf\xccv\xf8\x10@'
p974
tp975
Rp976
sg19
I0
sg20
g21
(S"\x07\xdd\t\x1d\x13\t3\x02\xc4'"
p977
tp978
Rp979
sg25
I0
sg26
g27
(g28
(I0
tp980
g30
tp981
Rp982
(I1
(I2
tp983
g36
I00
S'\xaf\x00\x00\x00N\x00\x00\x00'
p984
tp985
bsba(i__main__
FrameData
p986
(dp987
g6
g833
sg8
g9
(g13
S'\xcd;\x7ff\x9e\xa0\x06@'
p988
tp989
Rp990
sg19
I0
sg20
g21
(S'\x07\xdd\t\x1d\x13\t3\x03\x03\x88'
p991
tp992
Rp993
sg25
I0
sg26
g27
(g28
(I0
tp994
g30
tp995
Rp996
(I1
(I2
tp997
g36
I00
S'\xb0\x00\x00\x00M\x00\x00\x00'
p998
tp999
bsba(i__main__
FrameData
p1000
(dp1001
g6
g833
sg8
g9
(g13
S'\xcd;\x7ff\x9e\xa0\xf6?'
p1002
tp1003
Rp1004
sg19
I0
sg20
g21
(S'\x07\xdd\t\x1d\x13\t3\x03\x85^'
p1005
tp1006
Rp1007
sg25
I0
sg26
g27
(g28
(I0
tp1008
g30
tp1009
Rp1010
(I1
(I2
tp1011
g36
I00
S'\xb1\x00\x00\x00L\x00\x00\x00'
p1012
tp1013
bsba(i__main__
FrameData
p1014
(dp1015
g6
g833
sg8
g9
(g13
S'\x00\x00\x00\x00\x00\x00\xf0?'
p1016
tp1017
Rp1018
sg19
I0
sg20
g21
(S'\x07\xdd\t\x1d\x13\t3\x03\xbe3'
p1019
tp1020
Rp1021
sg25
I0
sg26
g27
(g28
(I0
tp1022
g30
tp1023
Rp1024
(I1
(I2
tp1025
g36
I00
S'\xb2\x00\x00\x00L\x00\x00\x00'
p1026
tp1027
bsba(i__main__
FrameData
p1028
(dp1029
g6
g833
sg8
g9
(g13
S'\x00\x00\x00\x00\x00\x00\x00\x00'
p1030
tp1031
Rp1032
sg19
I0
sg20
g21
(S'\x07\xdd\t\x1d\x13\t3\x04?\xb7'
p1033
tp1034
Rp1035
sg25
I0
sg26
g27
(g28
(I0
tp1036
g30
tp1037
Rp1038
(I1
(I2
tp1039
g36
I00
S'\xb2\x00\x00\x00K\x00\x00\x00'
p1040
tp1041
bsba(i__main__
FrameData
p1042
(dp1043
g6
g833
sg8
g9
(g13
S'\xcd;\x7ff\x9e\xa0\xf6?'
p1044
tp1045
Rp1046
sg19
I0
sg20
g21
(S'\x07\xdd\t\x1d\x13\t3\t\x1c\xbe'
p1047
tp1048
Rp1049
sg25
I0
sg26
g27
(g28
(I0
tp1050
g30
tp1051
Rp1052
(I1
(I2
tp1053
g36
I00
S'\xb3\x00\x00\x00L\x00\x00\x00'
p1054
tp1055
bsba(i__main__
FrameData
p1056
(dp1057
g6
g833
sg8
g9
(g13
S'\x00\x00\x00\x00\x00\x00\x00@'
p1058
tp1059
Rp1060
sg19
I0
sg20
g21
(S'\x07\xdd\t\x1d\x13\t3\t\x97\xe4'
p1061
tp1062
Rp1063
sg25
I0
sg26
g27
(g28
(I0
tp1064
g30
tp1065
Rp1066
(I1
(I2
tp1067
g36
I00
S'\xb2\x00\x00\x00M\x00\x00\x00'
p1068
tp1069
bsba(i__main__
FrameData
p1070
(dp1071
g6
g833
sg8
g9
(g13
S'S[\xda:XL\t@'
p1072
tp1073
Rp1074
sg19
I0
sg20
g21
(S'\x07\xdd\t\x1d\x13\t3\n\x1c\xc2'
p1075
tp1076
Rp1077
sg25
I0
sg26
g27
(g28
(I0
tp1078
g30
tp1079
Rp1080
(I1
(I2
tp1081
g36
I00
S'\xb1\x00\x00\x00N\x00\x00\x00'
p1082
tp1083
bsba(i__main__
FrameData
p1084
(dp1085
g6
g833
sg8
g9
(g13
S'\xf3YaD+\xd8\x0c@'
p1086
tp1087
Rp1088
sg19
I0
sg20
g21
(S'\x07\xdd\t\x1d\x13\t3\n\x9e\x8e'
p1089
tp1090
Rp1091
sg25
I0
sg26
g27
(g28
(I0
tp1092
g30
tp1093
Rp1094
(I1
(I2
tp1095
g36
I00
S'\xb0\x00\x00\x00N\x00\x00\x00'
p1096
tp1097
bsba(i__main__
FrameData
p1098
(dp1099
g6
g833
sg8
g9
(g13
S'\x00\x00\x00\x00\x00\x00\x14@'
p1100
tp1101
Rp1102
sg19
I0
sg20
g21
(S'\x07\xdd\t\x1d\x13\t3\n\xdd\xcd'
p1103
tp1104
Rp1105
sg25
I0
sg26
g27
(g28
(I0
tp1106
g30
tp1107
Rp1108
(I1
(I2
tp1109
g36
I00
S'\xaf\x00\x00\x00O\x00\x00\x00'
p1110
tp1111
bsba(i__main__
FrameData
p1112
(dp1113
g6
g833
sg8
g9
(g13
S'\x00\xff\x9f\x99\xcc\x9c\x19@'
p1114
tp1115
Rp1116
sg19
I0
sg20
g21
(S'\x07\xdd\t\x1d\x13\t3\x0b.\x10'
p1117
tp1118
Rp1119
sg25
I0
sg26
g27
(g28
(I0
tp1120
g30
tp1121
Rp1122
(I1
(I2
tp1123
g36
I00
S'\xae\x00\x00\x00P\x00\x00\x00'
p1124
tp1125
bsba(i__main__
FrameData
p1126
(dp1127
g6
g833
sg8
g9
(g13
S'htN\x17\xb2=\x1f@'
p1128
tp1129
Rp1130
sg19
I0
sg20
g21
(S'\x07\xdd\t\x1d\x13\t3\x0bk\xf7'
p1131
tp1132
Rp1133
sg25
I0
sg26
g27
(g28
(I0
tp1134
g30
tp1135
Rp1136
(I1
(I2
tp1137
g36
I00
S'\xad\x00\x00\x00Q\x00\x00\x00'
p1138
tp1139
bsba(i__main__
FrameData
p1140
(dp1141
g6
g833
sg8
g9
(g13
S'\x9a.\x90!hp"@'
p1142
tp1143
Rp1144
sg19
I0
sg20
g21
(S'\x07\xdd\t\x1d\x13\t3\x0b\xaf\xc2'
p1145
tp1146
Rp1147
sg25
I0
sg26
g27
(g28
(I0
tp1148
g30
tp1149
Rp1150
(I1
(I2
tp1151
g36
I00
S'\xab\x00\x00\x00Q\x00\x00\x00'
p1152
tp1153
bsba(i__main__
FrameData
p1154
(dp1155
g6
g833
sg8
g9
(g13
S'\x00\x00\x00\x00\x00\x00$@'
p1156
tp1157
Rp1158
sg19
I0
sg20
g21
(S'\x07\xdd\t\x1d\x13\t3\x0b\xe47'
p1159
tp1160
Rp1161
sg25
I0
sg26
g27
(g28
(I0
tp1162
g30
tp1163
Rp1164
(I1
(I2
tp1165
g36
I00
S'\xaa\x00\x00\x00Q\x00\x00\x00'
p1166
tp1167
bsba(i__main__
FrameData
p1168
(dp1169
g6
g833
sg8
g9
(g13
S"\xa2\xa3\xb3\r\xe5R'@"
p1170
tp1171
Rp1172
sg19
I0
sg20
g21
(S'\x07\xdd\t\x1d\x13\t3\x0c/H'
p1173
tp1174
Rp1175
sg25
I0
sg26
g27
(g28
(I0
tp1176
g30
tp1177
Rp1178
(I1
(I2
tp1179
g36
I00
S'\xa8\x00\x00\x00Q\x00\x00\x00'
p1180
tp1181
bsba(i__main__
FrameData
p1182
(dp1183
g6
g706
sg8
g9
(g13
S'\xef\rI\xf1\xf33+@'
p1184
tp1185
Rp1186
sg19
I0
sg20
g21
(S'\x07\xdd\t\x1d\x13\t3\x0co\x08'
p1187
tp1188
Rp1189
sg25
I0
sg26
g27
(g28
(I0
tp1190
g30
tp1191
Rp1192
(I1
(I2
tp1193
g36
I00
S'\xa3\x00\x00\x00R\x00\x00\x00'
p1194
tp1195
bsba(i__main__
FrameData
p1196
(dp1197
g6
g706
sg8
g9
(g13
S'\xf3\xd9\xa8\xa4h\x8a%@'
p1198
tp1199
Rp1200
sg19
I0
sg20
g21
(S'\x07\xdd\t\x1d\x13\t3\x0c\xaf\xf9'
p1201
tp1202
Rp1203
sg25
I0
sg26
g27
(g28
(I0
tp1204
g30
tp1205
Rp1206
(I1
(I2
tp1207
g36
I00
S'\x9c\x00\x00\x00T\x00\x00\x00'
p1208
tp1209
bsba(i__main__
FrameData
p1210
(dp1211
g6
g706
sg8
g9
(g13
S'Qf\x99\xcb\xa9\x13*@'
p1212
tp1213
Rp1214
sg19
I0
sg20
g21
(S'\x07\xdd\t\x1d\x13\t3\x0c\xf1:'
p1215
tp1216
Rp1217
sg25
I0
sg26
g27
(g28
(I0
tp1218
g30
tp1219
Rp1220
(I1
(I2
tp1221
g36
I00
S'\x97\x00\x00\x00W\x00\x00\x00'
p1222
tp1223
bsba(i__main__
FrameData
p1224
(dp1225
g6
g706
sg8
g9
(g13
S'\x00\x00\x00\x00\x00\x001@'
p1226
tp1227
Rp1228
sg19
I0
sg20
g21
(S'\x07\xdd\t\x1d\x13\t3\r)0'
p1229
tp1230
Rp1231
sg25
I0
sg26
g27
(g28
(I0
tp1232
g30
tp1233
Rp1234
(I1
(I2
tp1235
g36
I00
S'\x90\x00\x00\x00Y\x00\x00\x00'
p1236
tp1237
bsba(i__main__
FrameData
p1238
(dp1239
g6
S'y'
p1240
sg8
g9
(g13
S'\x0f\xab\xa8Q\xb6f0@'
p1241
tp1242
Rp1243
sg19
I0
sg20
g21
(S'\x07\xdd\t\x1d\x13\t3\rp\xb3'
p1244
tp1245
Rp1246
sg25
I0
sg26
g27
(g28
(I0
tp1247
g30
tp1248
Rp1249
(I1
(I2
tp1250
g36
I00
S'\x8c\x00\x00\x00Z\x00\x00\x00'
p1251
tp1252
bsba(i__main__
FrameData
p1253
(dp1254
g6
g1240
sg8
g9
(g13
S'&\xecIP\x11N/@'
p1255
tp1256
Rp1257
sg19
I0
sg20
g21
(S'\x07\xdd\t\x1d\x13\t3\r\xab\x88'
p1258
tp1259
Rp1260
sg25
I0
sg26
g27
(g28
(I0
tp1261
g30
tp1262
Rp1263
(I1
(I2
tp1264
g36
I00
S'\x89\x00\x00\x00[\x00\x00\x00'
p1265
tp1266
bsba(i__main__
FrameData
p1267
(dp1268
g6
g1240
sg8
g9
(g13
S'/\xa4\xe3\\m\xbb-@'
p1269
tp1270
Rp1271
sg19
I0
sg20
g21
(S'\x07\xdd\t\x1d\x13\t3\r\xf2\x81'
p1272
tp1273
Rp1274
sg25
I0
sg26
g27
(g28
(I0
tp1275
g30
tp1276
Rp1277
(I1
(I2
tp1278
g36
I00
S'\x87\x00\x00\x00[\x00\x00\x00'
p1279
tp1280
bsba(i__main__
FrameData
p1281
(dp1282
g6
g1240
sg8
g9
(g13
S'\xe9\xfbv \xd5\x1e-@'
p1283
tp1284
Rp1285
sg19
I0
sg20
g21
(S'\x07\xdd\t\x1d\x13\t3\x0e1\x83'
p1286
tp1287
Rp1288
sg25
I0
sg26
g27
(g28
(I0
tp1289
g30
tp1290
Rp1291
(I1
(I2
tp1292
g36
I00
S'\x86\x00\x00\x00[\x00\x00\x00'
p1293
tp1294
bsba(i__main__
FrameData
p1295
(dp1296
g6
g1240
sg8
g9
(g13
S'\xf7\x80Aq\xb9\xa2,@'
p1297
tp1298
Rp1299
sg19
I0
sg20
g21
(S'\x07\xdd\t\x1d\x13\t3\x0er\xf8'
p1300
tp1301
Rp1302
sg25
I0
sg26
g27
(g28
(I0
tp1303
g30
tp1304
Rp1305
(I1
(I2
tp1306
g36
I00
S'\x85\x00\x00\x00[\x00\x00\x00'
p1307
tp1308
bsba(i__main__
FrameData
p1309
(dp1310
g6
g1240
sg8
g9
(g13
S'\xc0\n\x1f\x00\xc6H,@'
p1311
tp1312
Rp1313
sg19
I0
sg20
g21
(S'\x07\xdd\t\x1d\x13\t3\x0e\xb2 '
p1314
tp1315
Rp1316
sg25
I0
sg26
g27
(g28
(I0
tp1317
g30
tp1318
Rp1319
(I1
(I2
tp1320
g36
I00
S'\x84\x00\x00\x00[\x00\x00\x00'
p1321
tp1322
bsba(i__main__
FrameData
p1323
(dp1324
g6
g1240
sg8
g9
(g13
S')\x03\xec/C\x12,@'
p1325
tp1326
Rp1327
sg19
I0
sg20
g21
(S'\x07\xdd\t\x1d\x13\t3\x0f\x02\x94'
p1328
tp1329
Rp1330
sg25
I0
sg26
g27
(g28
(I0
tp1331
g30
tp1332
Rp1333
(I1
(I2
tp1334
g36
I00
S'\x83\x00\x00\x00[\x00\x00\x00'
p1335
tp1336
bsba(i__main__
FrameData
p1337
(dp1338
g6
g1240
sg8
g9
(g13
S'\x00\x00\x00\x00\x00\x00,@'
p1339
tp1340
Rp1341
sg19
I0
sg20
g21
(S'\x07\xdd\t\x1d\x13\t3\x0f3\xb1'
p1342
tp1343
Rp1344
sg25
I0
sg26
g27
(g28
(I0
tp1345
g30
tp1346
Rp1347
(I1
(I2
tp1348
g36
I00
S'\x82\x00\x00\x00[\x00\x00\x00'
p1349
tp1350
bsba(i__main__
FrameData
p1351
(dp1352
g6
g1240
sg8
g9
(g13
S')\x03\xec/C\x12,@'
p1353
tp1354
Rp1355
sg19
I0
sg20
g21
(S'\x07\xdd\t\x1d\x13\t4\x00B\xf7'
p1356
tp1357
Rp1358
sg25
I0
sg26
g27
(g28
(I0
tp1359
g30
tp1360
Rp1361
(I1
(I2
tp1362
g36
I00
S'\x81\x00\x00\x00[\x00\x00\x00'
p1363
tp1364
bsba(i__main__
FrameData
p1365
(dp1366
g6
g1240
sg8
g9
(g13
S'\xc0\n\x1f\x00\xc6H,@'
p1367
tp1368
Rp1369
sg19
I0
sg20
g21
(S'\x07\xdd\t\x1d\x13\t4\x00\x81g'
p1370
tp1371
Rp1372
sg25
I0
sg26
g27
(g28
(I0
tp1373
g30
tp1374
Rp1375
(I1
(I2
tp1376
g36
I00
S'\x80\x00\x00\x00[\x00\x00\x00'
p1377
tp1378
bsba(i__main__
FrameData
p1379
(dp1380
g6
g1240
sg8
g9
(g13
S'8H\x9b\x97\xee\xae*@'
p1381
tp1382
Rp1383
sg19
I0
sg20
g21
(S'\x07\xdd\t\x1d\x13\t4\x00\xb5:'
p1384
tp1385
Rp1386
sg25
I0
sg26
g27
(g28
(I0
tp1387
g30
tp1388
Rp1389
(I1
(I2
tp1390
g36
I00
S'\x7f\x00\x00\x00Z\x00\x00\x00'
p1391
tp1392
bsba(i__main__
FrameData
p1393
(dp1394
g6
g1240
sg8
g9
(g13
S'\xef\rI\xf1\xf33+@'
p1395
tp1396
Rp1397
sg19
I0
sg20
g21
(S'\x07\xdd\t\x1d\x13\t4\x00\xf8\x99'
p1398
tp1399
Rp1400
sg25
I0
sg26
g27
(g28
(I0
tp1401
g30
tp1402
Rp1403
(I1
(I2
tp1404
g36
I00
S'~\x00\x00\x00Z\x00\x00\x00'
p1405
tp1406
bsba(i__main__
FrameData
p1407
(dp1408
g6
g1240
sg8
g9
(g13
S'\xbc\xfdP\xb5U\xdb+@'
p1409
tp1410
Rp1411
sg19
I0
sg20
g21
(S'\x07\xdd\t\x1d\x13\t4\x01:\xbf'
p1412
tp1413
Rp1414
sg25
I0
sg26
g27
(g28
(I0
tp1415
g30
tp1416
Rp1417
(I1
(I2
tp1418
g36
I00
S'}\x00\x00\x00Z\x00\x00\x00'
p1419
tp1420
bsba(i__main__
FrameData
p1421
(dp1422
g6
g1240
sg8
g9
(g13
S'\xfc\xeeci3\xd5*@'
p1423
tp1424
Rp1425
sg19
I0
sg20
g21
(S'\x07\xdd\t\x1d\x13\t4\x01\x824'
p1426
tp1427
Rp1428
sg25
I0
sg26
g27
(g28
(I0
tp1429
g30
tp1430
Rp1431
(I1
(I2
tp1432
g36
I00
S'|\x00\x00\x00Y\x00\x00\x00'
p1433
tp1434
bsba(i__main__
FrameData
p1435
(dp1436
g6
g1240
sg8
g9
(g13
S'Qf\x99\xcb\xa9\x13*@'
p1437
tp1438
Rp1439
sg19
I0
sg20
g21
(S'\x07\xdd\t\x1d\x13\t4\x01\xc2u'
p1440
tp1441
Rp1442
sg25
I0
sg26
g27
(g28
(I0
tp1443
g30
tp1444
Rp1445
(I1
(I2
tp1446
g36
I00
S'{\x00\x00\x00X\x00\x00\x00'
p1447
tp1448
bsba(i__main__
FrameData
p1449
(dp1450
g6
g1240
sg8
g9
(g13
S'\x00\xff\x9f\x99\xcc\x9c)@'
p1451
tp1452
Rp1453
sg19
I0
sg20
g21
(S'\x07\xdd\t\x1d\x13\t4\x02CA'
p1454
tp1455
Rp1456
sg25
I0
sg26
g27
(g28
(I0
tp1457
g30
tp1458
Rp1459
(I1
(I2
tp1460
g36
I00
S'z\x00\x00\x00W\x00\x00\x00'
p1461
tp1462
bsba(i__main__
FrameData
p1463
(dp1464
g6
g1240
sg8
g9
(g13
S'\xcd;\x7ff\x9e\xa0&@'
p1465
tp1466
Rp1467
sg19
I0
sg20
g21
(S'\x07\xdd\t\x1d\x13\t4\x02\xbfs'
p1468
tp1469
Rp1470
sg25
I0
sg26
g27
(g28
(I0
tp1471
g30
tp1472
Rp1473
(I1
(I2
tp1474
g36
I00
S'z\x00\x00\x00U\x00\x00\x00'
p1475
tp1476
bsba(i__main__
FrameData
p1477
(dp1478
g6
g1240
sg8
g9
(g13
S'\xeb\x12\xb2\xbb\xb2\xcd&@'
p1479
tp1480
Rp1481
sg19
I0
sg20
g21
(S'\x07\xdd\t\x1d\x13\t4\x03\x02\x7f'
p1482
tp1483
Rp1484
sg25
I0
sg26
g27
(g28
(I0
tp1485
g30
tp1486
Rp1487
(I1
(I2
tp1488
g36
I00
S'y\x00\x00\x00T\x00\x00\x00'
p1489
tp1490
bsba(i__main__
FrameData
p1491
(dp1492
g6
g1240
sg8
g9
(g13
S'Qf\x99\xcb\xa9\x13*@'
p1493
tp1494
Rp1495
sg19
I0
sg20
g21
(S'\x07\xdd\t\x1d\x13\t4\x03De'
p1496
tp1497
Rp1498
sg25
I0
sg26
g27
(g28
(I0
tp1499
g30
tp1500
Rp1501
(I1
(I2
tp1502
g36
I00
S'w\x00\x00\x00T\x00\x00\x00'
p1503
tp1504
bsba(i__main__
FrameData
p1505
(dp1506
g6
g1240
sg8
g9
(g13
S'\xe4\x10\xe4sW\x0f)@'
p1507
tp1508
Rp1509
sg19
I0
sg20
g21
(S'\x07\xdd\t\x1d\x13\t4\x03\xc5\x82'
p1510
tp1511
Rp1512
sg25
I0
sg26
g27
(g28
(I0
tp1513
g30
tp1514
Rp1515
(I1
(I2
tp1516
g36
I00
S'w\x00\x00\x00S\x00\x00\x00'
p1517
tp1518
bsba(i__main__
FrameData
p1519
(dp1520
g6
g1240
sg8
g9
(g13
S'\x00\x00\x00\x00\x00\x00*@'
p1521
tp1522
Rp1523
sg19
I0
sg20
g21
(S'\x07\xdd\t\x1d\x13\t4\x04\x05Q'
p1524
tp1525
Rp1526
sg25
I0
sg26
g27
(g28
(I0
tp1527
g30
tp1528
Rp1529
(I1
(I2
tp1530
g36
I00
S'v\x00\x00\x00R\x00\x00\x00'
p1531
tp1532
bsba(i__main__
FrameData
p1533
(dp1534
g6
g1240
sg8
g9
(g13
S'S[\xda:XL)@'
p1535
tp1536
Rp1537
sg19
I0
sg20
g21
(S'\x07\xdd\t\x1d\x13\t4\x04F\xf6'
p1538
tp1539
Rp1540
sg25
I0
sg26
g27
(g28
(I0
tp1541
g30
tp1542
Rp1543
(I1
(I2
tp1544
g36
I00
S'v\x00\x00\x00Q\x00\x00\x00'
p1545
tp1546
bsba(i__main__
FrameData
p1547
(dp1548
g6
S't'
p1549
sg8
g9
(g13
S"\xa2\xa3\xb3\r\xe5R'@"
p1550
tp1551
Rp1552
sg19
I0
sg20
g21
(S'\x07\xdd\t\x1d\x13\t4\x04\x96\x0c'
p1553
tp1554
Rp1555
sg25
I0
sg26
g27
(g28
(I0
tp1556
g30
tp1557
Rp1558
(I1
(I2
tp1559
g36
I00
S't\x00\x00\x00Q\x00\x00\x00'
p1560
tp1561
bsba(i__main__
FrameData
p1562
(dp1563
g6
g1549
sg8
g9
(g13
S'w\x03Is \xa2%@'
p1564
tp1565
Rp1566
sg19
I0
sg20
g21
(S'\x07\xdd\t\x1d\x13\t4\x04\xc8\xa5'
p1567
tp1568
Rp1569
sg25
I0
sg26
g27
(g28
(I0
tp1570
g30
tp1571
Rp1572
(I1
(I2
tp1573
g36
I00
S's\x00\x00\x00Q\x00\x00\x00'
p1574
tp1575
bsba(i__main__
FrameData
p1576
(dp1577
g6
g1549
sg8
g9
(g13
S'bVc}\x9d\xb2#@'
p1578
tp1579
Rp1580
sg19
I0
sg20
g21
(S'\x07\xdd\t\x1d\x13\t4\x05W\xcf'
p1581
tp1582
Rp1583
sg25
I0
sg26
g27
(g28
(I0
tp1584
g30
tp1585
Rp1586
(I1
(I2
tp1587
g36
I00
S's\x00\x00\x00O\x00\x00\x00'
p1588
tp1589
bsba(i__main__
FrameData
p1590
(dp1591
g6
g1549
sg8
g9
(g13
S'\xd0\xbaa?\xe0\x1f @'
p1592
tp1593
Rp1594
sg19
I0
sg20
g21
(S'\x07\xdd\t\x1d\x13\t4\x05\xd7\x95'
p1595
tp1596
Rp1597
sg25
I0
sg26
g27
(g28
(I0
tp1598
g30
tp1599
Rp1600
(I1
(I2
tp1601
g36
I00
S'q\x00\x00\x00O\x00\x00\x00'
p1602
tp1603
bsba(i__main__
FrameData
p1604
(dp1605
g6
g1549
sg8
g9
(g13
S'\x00\xff\x9f\x99\xcc\x9c\x19@'
p1606
tp1607
Rp1608
sg19
I0
sg20
g21
(S'\x07\xdd\t\x1d\x13\t4\x06\x17\xd7'
p1609
tp1610
Rp1611
sg25
I0
sg26
g27
(g28
(I0
tp1612
g30
tp1613
Rp1614
(I1
(I2
tp1615
g36
I00
S'o\x00\x00\x00O\x00\x00\x00'
p1616
tp1617
bsba(i__main__
FrameData
p1618
(dp1619
g6
g1549
sg8
g9
(g13
S'\x00\x00\x00\x00\x00\x00\x14@'
p1620
tp1621
Rp1622
sg19
I0
sg20
g21
(S'\x07\xdd\t\x1d\x13\t4\x06\x98\x99'
p1623
tp1624
Rp1625
sg25
I0
sg26
g27
(g28
(I0
tp1626
g30
tp1627
Rp1628
(I1
(I2
tp1629
g36
I00
S'n\x00\x00\x00N\x00\x00\x00'
p1630
tp1631
bsba(i__main__
FrameData
p1632
(dp1633
g6
g1549
sg8
g9
(g13
S'\xd9l\xdf\xccv\xf8\x10@'
p1634
tp1635
Rp1636
sg19
I0
sg20
g21
(S'\x07\xdd\t\x1d\x13\t4\x06\xda\x01'
p1637
tp1638
Rp1639
sg25
I0
sg26
g27
(g28
(I0
tp1640
g30
tp1641
Rp1642
(I1
(I2
tp1643
g36
I00
S'm\x00\x00\x00N\x00\x00\x00'
p1644
tp1645
bsba(i__main__
FrameData
p1646
(dp1647
g6
g1549
sg8
g9
(g13
S'S[\xda:XL\t@'
p1648
tp1649
Rp1650
sg19
I0
sg20
g21
(S'\x07\xdd\t\x1d\x13\t4\x07\x16s'
p1651
tp1652
Rp1653
sg25
I0
sg26
g27
(g28
(I0
tp1654
g30
tp1655
Rp1656
(I1
(I2
tp1657
g36
I00
S'm\x00\x00\x00L\x00\x00\x00'
p1658
tp1659
bsba(i__main__
FrameData
p1660
(dp1661
g6
g1549
sg8
g9
(g13
S'\xa8\xf4\x97\x9bw\xe3\x01@'
p1662
tp1663
Rp1664
sg19
I0
sg20
g21
(S'\x07\xdd\t\x1d\x13\t4\x07W5'
p1665
tp1666
Rp1667
sg25
I0
sg26
g27
(g28
(I0
tp1668
g30
tp1669
Rp1670
(I1
(I2
tp1671
g36
I00
S'l\x00\x00\x00L\x00\x00\x00'
p1672
tp1673
bsbasS'_fileName'
p1674
S'training/trajectory2013-09-29_19:09:40.535429'
p1675
sS'word'
p1676
S'zit'
p1677
sb.