(i__main__
SwypeTrajectory
p0
(dp1
S'_frameDataList'
p2
(lp3
(i__main__
FrameData
p4
(dp5
S'closestLetter'
p6
S's'
p7
sS'letterDistance'
p8
cnumpy.core.multiarray
scalar
p9
(cnumpy
dtype
p10
(S'f8'
p11
I0
I1
tp12
Rp13
(I3
S'<'
p14
NNNI-1
I-1
I0
tp15
bS'\x00\x00\x00\x00\x00\x00\x14@'
p16
tp17
Rp18
sS'accel'
p19
I0
sS'time'
p20
cdatetime
datetime
p21
(S'\x07\xdd\t\x1d\x13\n0\r\xc8\x15'
p22
tp23
Rp24
sS'velocity'
p25
I0
sS'position'
p26
cnumpy.core.multiarray
_reconstruct
p27
(cnumpy
ndarray
p28
(I0
tp29
S'b'
p30
tp31
Rp32
(I1
(I2
tp33
g10
(S'i4'
p34
I0
I1
tp35
Rp36
(I3
S'<'
p37
NNNI-1
I-1
I0
tp38
bI00
S'5\x00\x00\x00t\x00\x00\x00'
p39
tp40
bsba(i__main__
FrameData
p41
(dp42
g6
g7
sg8
g9
(g13
S'\xa8\xf4\x97\x9bw\xe3\x11@'
p43
tp44
Rp45
sg19
I0
sg20
g21
(S'\x07\xdd\t\x1d\x13\n0\x0e\x13\x90'
p46
tp47
Rp48
sg25
I0
sg26
g27
(g28
(I0
tp49
g30
tp50
Rp51
(I1
(I2
tp52
g36
I00
S'5\x00\x00\x00s\x00\x00\x00'
p53
tp54
bsba(i__main__
FrameData
p55
(dp56
g6
g7
sg8
g9
(g13
S'\xa8\xf4\x97\x9bw\xe3\x11@'
p57
tp58
Rp59
sg19
I0
sg20
g21
(S'\x07\xdd\t\x1d\x13\n0\x0eT\xe6'
p60
tp61
Rp62
sg25
I0
sg26
g27
(g28
(I0
tp63
g30
tp64
Rp65
(I1
(I2
tp66
g36
I00
S'5\x00\x00\x00o\x00\x00\x00'
p67
tp68
bsba(i__main__
FrameData
p69
(dp70
g6
g7
sg8
g9
(g13
S'\x00\x00\x00\x00\x00\x00\x14@'
p71
tp72
Rp73
sg19
I0
sg20
g21
(S'\x07\xdd\t\x1d\x13\n0\x0e\x8dw'
p74
tp75
Rp76
sg25
I0
sg26
g27
(g28
(I0
tp77
g30
tp78
Rp79
(I1
(I2
tp80
g36
I00
S'4\x00\x00\x00m\x00\x00\x00'
p81
tp82
bsba(i__main__
FrameData
p83
(dp84
g6
g7
sg8
g9
(g13
S'\xfc\xeeci3\xd5\x1a@'
p85
tp86
Rp87
sg19
I0
sg20
g21
(S'\x07\xdd\t\x1d\x13\n0\x0e\xc2\xfb'
p88
tp89
Rp90
sg25
I0
sg26
g27
(g28
(I0
tp91
g30
tp92
Rp93
(I1
(I2
tp94
g36
I00
S'4\x00\x00\x00k\x00\x00\x00'
p95
tp96
bsba(i__main__
FrameData
p97
(dp98
g6
g7
sg8
g9
(g13
S'\xd0\xbaa?\xe0\x1f @'
p99
tp100
Rp101
sg19
I0
sg20
g21
(S'\x07\xdd\t\x1d\x13\n0\x0f\x04\xfc'
p102
tp103
Rp104
sg25
I0
sg26
g27
(g28
(I0
tp105
g30
tp106
Rp107
(I1
(I2
tp108
g36
I00
S'2\x00\x00\x00i\x00\x00\x00'
p109
tp110
bsba(i__main__
FrameData
p111
(dp112
g6
g7
sg8
g9
(g13
S'\x00\x00\x00\x00\x00\x00$@'
p113
tp114
Rp115
sg19
I0
sg20
g21
(S'\x07\xdd\t\x1d\x13\n1\x00\x1d6'
p116
tp117
Rp118
sg25
I0
sg26
g27
(g28
(I0
tp119
g30
tp120
Rp121
(I1
(I2
tp122
g36
I00
S'1\x00\x00\x00g\x00\x00\x00'
p123
tp124
bsba(i__main__
FrameData
p125
(dp126
g6
g7
sg8
g9
(g13
S'\x00\x00\x00\x00\x00\x00&@'
p127
tp128
Rp129
sg19
I0
sg20
g21
(S'\x07\xdd\t\x1d\x13\n1\x00C\x0b'
p130
tp131
Rp132
sg25
I0
sg26
g27
(g28
(I0
tp133
g30
tp134
Rp135
(I1
(I2
tp136
g36
I00
S'1\x00\x00\x00f\x00\x00\x00'
p137
tp138
bsba(i__main__
FrameData
p139
(dp140
g6
g7
sg8
g9
(g13
S'&5w\xe2K\x15(@'
p141
tp142
Rp143
sg19
I0
sg20
g21
(S'\x07\xdd\t\x1d\x13\n1\x00\x90\xc7'
p144
tp145
Rp146
sg25
I0
sg26
g27
(g28
(I0
tp147
g30
tp148
Rp149
(I1
(I2
tp150
g36
I00
S'0\x00\x00\x00e\x00\x00\x00'
p151
tp152
bsba(i__main__
FrameData
p153
(dp154
g6
g7
sg8
g9
(g13
S'Qf\x99\xcb\xa9\x13*@'
p155
tp156
Rp157
sg19
I0
sg20
g21
(S'\x07\xdd\t\x1d\x13\n1\x00\xc5\xfb'
p158
tp159
Rp160
sg25
I0
sg26
g27
(g28
(I0
tp161
g30
tp162
Rp163
(I1
(I2
tp164
g36
I00
S'0\x00\x00\x00d\x00\x00\x00'
p165
tp166
bsba(i__main__
FrameData
p167
(dp168
g6
g7
sg8
g9
(g13
S'[y\xf7F\xf7C.@'
p169
tp170
Rp171
sg19
I0
sg20
g21
(S'\x07\xdd\t\x1d\x13\n1\x01\x07\x9e'
p172
tp173
Rp174
sg25
I0
sg26
g27
(g28
(I0
tp175
g30
tp176
Rp177
(I1
(I2
tp178
g36
I00
S'/\x00\x00\x00b\x00\x00\x00'
p179
tp180
bsba(i__main__
FrameData
p181
(dp182
g6
g7
sg8
g9
(g13
S'\x10\xb3]\xc9`G0@'
p183
tp184
Rp185
sg19
I0
sg20
g21
(S'\x07\xdd\t\x1d\x13\n1\x01U\x9e'
p186
tp187
Rp188
sg25
I0
sg26
g27
(g28
(I0
tp189
g30
tp190
Rp191
(I1
(I2
tp192
g36
I00
S'.\x00\x00\x00a\x00\x00\x00'
p193
tp194
bsba(i__main__
FrameData
p195
(dp196
g6
g7
sg8
g9
(g13
S'\xa8y\x0c\t\xd9v1@'
p197
tp198
Rp199
sg19
I0
sg20
g21
(S'\x07\xdd\t\x1d\x13\n1\x01\xa3\xc5'
p200
tp201
Rp202
sg25
I0
sg26
g27
(g28
(I0
tp203
g30
tp204
Rp205
(I1
(I2
tp206
g36
I00
S'-\x00\x00\x00`\x00\x00\x00'
p207
tp208
bsba(i__main__
FrameData
p209
(dp210
g6
g7
sg8
g9
(g13
S'X(/\x84y\xae2@'
p211
tp212
Rp213
sg19
I0
sg20
g21
(S'\x07\xdd\t\x1d\x13\n1\x01\xc9\xea'
p214
tp215
Rp216
sg25
I0
sg26
g27
(g28
(I0
tp217
g30
tp218
Rp219
(I1
(I2
tp220
g36
I00
S',\x00\x00\x00_\x00\x00\x00'
p221
tp222
bsba(i__main__
FrameData
p223
(dp224
g6
g7
sg8
g9
(g13
S'~\xc4#,B\xf92@'
p225
tp226
Rp227
sg19
I0
sg20
g21
(S'\x07\xdd\t\x1d\x13\n1\x02\x8e\xcf'
p228
tp229
Rp230
sg25
I0
sg26
g27
(g28
(I0
tp231
g30
tp232
Rp233
(I1
(I2
tp234
g36
I00
S'+\x00\x00\x00_\x00\x00\x00'
p235
tp236
bsba(i__main__
FrameData
p237
(dp238
g6
g7
sg8
g9
(g13
S'Mm\x9d\x8c\xc3\xec3@'
p239
tp240
Rp241
sg19
I0
sg20
g21
(S'\x07\xdd\t\x1d\x13\n1\x03\xed\xa6'
p242
tp243
Rp244
sg25
I0
sg26
g27
(g28
(I0
tp245
g30
tp246
Rp247
(I1
(I2
tp248
g36
I00
S'+\x00\x00\x00^\x00\x00\x00'
p249
tp250
bsba(i__main__
FrameData
p251
(dp252
g6
g7
sg8
g9
(g13
S'\xcey?\xdc\x9a?4@'
p253
tp254
Rp255
sg19
I0
sg20
g21
(S'\x07\xdd\t\x1d\x13\n1\x04\x15S'
p256
tp257
Rp258
sg25
I0
sg26
g27
(g28
(I0
tp259
g30
tp260
Rp261
(I1
(I2
tp262
g36
I00
S'*\x00\x00\x00^\x00\x00\x00'
p263
tp264
bsba(i__main__
FrameData
p265
(dp266
g6
S'w'
p267
sg8
g9
(g13
S'\xf3\xd9\xa8\xa4h\x8a5@'
p268
tp269
Rp270
sg19
I0
sg20
g21
(S'\x07\xdd\t\x1d\x13\n1\x04c]'
p271
tp272
Rp273
sg25
I0
sg26
g27
(g28
(I0
tp274
g30
tp275
Rp276
(I1
(I2
tp277
g36
I00
S'*\x00\x00\x00\\\x00\x00\x00'
p278
tp279
bsba(i__main__
FrameData
p280
(dp281
g6
g267
sg8
g9
(g13
S'\xa5\xf4a\xf1\x8a05@'
p282
tp283
Rp284
sg19
I0
sg20
g21
(S'\x07\xdd\t\x1d\x13\n1\x04\xaf\xe5'
p285
tp286
Rp287
sg25
I0
sg26
g27
(g28
(I0
tp288
g30
tp289
Rp290
(I1
(I2
tp291
g36
I00
S')\x00\x00\x00\\\x00\x00\x00'
p292
tp293
bsba(i__main__
FrameData
p294
(dp295
g6
g267
sg8
g9
(g13
S'VT\xdbd.P3@'
p296
tp297
Rp298
sg19
I0
sg20
g21
(S'\x07\xdd\t\x1d\x13\n1\x04\xdb\xb5'
p299
tp300
Rp301
sg25
I0
sg26
g27
(g28
(I0
tp302
g30
tp303
Rp304
(I1
(I2
tp305
g36
I00
S')\x00\x00\x00Z\x00\x00\x00'
p306
tp307
bsba(i__main__
FrameData
p308
(dp309
g6
g267
sg8
g9
(g13
S'\x96`G\xb3\x80b2@'
p310
tp311
Rp312
sg19
I0
sg20
g21
(S'\x07\xdd\t\x1d\x13\n1\x05&g'
p313
tp314
Rp315
sg25
I0
sg26
g27
(g28
(I0
tp316
g30
tp317
Rp318
(I1
(I2
tp319
g36
I00
S')\x00\x00\x00Y\x00\x00\x00'
p320
tp321
bsba(i__main__
FrameData
p322
(dp323
g6
g267
sg8
g9
(g13
S'\xa8y\x0c\t\xd9v1@'
p324
tp325
Rp326
sg19
I0
sg20
g21
(S'\x07\xdd\t\x1d\x13\n1\x05\xe7Q'
p327
tp328
Rp329
sg25
I0
sg26
g27
(g28
(I0
tp330
g30
tp331
Rp332
(I1
(I2
tp333
g36
I00
S')\x00\x00\x00X\x00\x00\x00'
p334
tp335
bsba(i__main__
FrameData
p336
(dp337
g6
g267
sg8
g9
(g13
S'p\xc4\x9d9\x8dv.@'
p338
tp339
Rp340
sg19
I0
sg20
g21
(S'\x07\xdd\t\x1d\x13\n1\x06_\xee'
p341
tp342
Rp343
sg25
I0
sg26
g27
(g28
(I0
tp344
g30
tp345
Rp346
(I1
(I2
tp347
g36
I00
S'(\x00\x00\x00V\x00\x00\x00'
p348
tp349
bsba(i__main__
FrameData
p350
(dp351
g6
g267
sg8
g9
(g13
S'\xf7\x80Aq\xb9\xa2,@'
p352
tp353
Rp354
sg19
I0
sg20
g21
(S'\x07\xdd\t\x1d\x13\n1\x06\xac\xf0'
p355
tp356
Rp357
sg25
I0
sg26
g27
(g28
(I0
tp358
g30
tp359
Rp360
(I1
(I2
tp361
g36
I00
S'(\x00\x00\x00U\x00\x00\x00'
p362
tp363
bsba(i__main__
FrameData
p364
(dp365
g6
g267
sg8
g9
(g13
S'\x00\x00\x00\x00\x00\x00*@'
p366
tp367
Rp368
sg19
I0
sg20
g21
(S'\x07\xdd\t\x1d\x13\n1\x07#\xb6'
p369
tp370
Rp371
sg25
I0
sg26
g27
(g28
(I0
tp372
g30
tp373
Rp374
(I1
(I2
tp375
g36
I00
S"'\x00\x00\x00T\x00\x00\x00"
p376
tp377
bsba(i__main__
FrameData
p378
(dp379
g6
g267
sg8
g9
(g13
S'lNy\x00\x85*(@'
p380
tp381
Rp382
sg19
I0
sg20
g21
(S'\x07\xdd\t\x1d\x13\n1\x07l\xd2'
p383
tp384
Rp385
sg25
I0
sg26
g27
(g28
(I0
tp386
g30
tp387
Rp388
(I1
(I2
tp389
g36
I00
S"'\x00\x00\x00S\x00\x00\x00"
p390
tp391
bsba(i__main__
FrameData
p392
(dp393
g6
g267
sg8
g9
(g13
S"\xe0\x11<m\xceh'@"
p394
tp395
Rp396
sg19
I0
sg20
g21
(S'\x07\xdd\t\x1d\x13\n1\x07\xa9\xbe'
p397
tp398
Rp399
sg25
I0
sg26
g27
(g28
(I0
tp400
g30
tp401
Rp402
(I1
(I2
tp403
g36
I00
S'&\x00\x00\x00S\x00\x00\x00'
p404
tp405
bsba(i__main__
FrameData
p406
(dp407
g6
g267
sg8
g9
(g13
S'bVc}\x9d\xb2#@'
p408
tp409
Rp410
sg19
I0
sg20
g21
(S'\x07\xdd\t\x1d\x13\n1\x08\x00\xd9'
p411
tp412
Rp413
sg25
I0
sg26
g27
(g28
(I0
tp414
g30
tp415
Rp416
(I1
(I2
tp417
g36
I00
S'&\x00\x00\x00Q\x00\x00\x00'
p418
tp419
bsba(i__main__
FrameData
p420
(dp421
g6
g267
sg8
g9
(g13
S'\xa8\xf4\x97\x9bw\xe3!@'
p422
tp423
Rp424
sg19
I0
sg20
g21
(S'\x07\xdd\t\x1d\x13\n1\x08-f'
p425
tp426
Rp427
sg25
I0
sg26
g27
(g28
(I0
tp428
g30
tp429
Rp430
(I1
(I2
tp431
g36
I00
S'&\x00\x00\x00P\x00\x00\x00'
p432
tp433
bsba(i__main__
FrameData
p434
(dp435
g6
g267
sg8
g9
(g13
S'\xd0\xbaa?\xe0\x1f @'
p436
tp437
Rp438
sg19
I0
sg20
g21
(S'\x07\xdd\t\x1d\x13\n1\x08{\x9e'
p439
tp440
Rp441
sg25
I0
sg26
g27
(g28
(I0
tp442
g30
tp443
Rp444
(I1
(I2
tp445
g36
I00
S'&\x00\x00\x00O\x00\x00\x00'
p446
tp447
bsba(i__main__
FrameData
p448
(dp449
g6
g267
sg8
g9
(g13
S'\xf3YaD+\xd8\x1c@'
p450
tp451
Rp452
sg19
I0
sg20
g21
(S'\x07\xdd\t\x1d\x13\n1\x08\xf1\x0c'
p453
tp454
Rp455
sg25
I0
sg26
g27
(g28
(I0
tp456
g30
tp457
Rp458
(I1
(I2
tp459
g36
I00
S'&\x00\x00\x00N\x00\x00\x00'
p460
tp461
bsba(i__main__
FrameData
p462
(dp463
g6
g267
sg8
g9
(g13
S'\x00\xff\x9f\x99\xcc\x9c\x19@'
p464
tp465
Rp466
sg19
I0
sg20
g21
(S'\x07\xdd\t\x1d\x13\n1\t?\xa5'
p467
tp468
Rp469
sg25
I0
sg26
g27
(g28
(I0
tp470
g30
tp471
Rp472
(I1
(I2
tp473
g36
I00
S'&\x00\x00\x00M\x00\x00\x00'
p474
tp475
bsba(i__main__
FrameData
p476
(dp477
g6
g267
sg8
g9
(g13
S'\xa2\xa3\xb3\r\xe5R\x17@'
p478
tp479
Rp480
sg19
I0
sg20
g21
(S'\x07\xdd\t\x1d\x13\n1\t\x8d\n'
p481
tp482
Rp483
sg25
I0
sg26
g27
(g28
(I0
tp484
g30
tp485
Rp486
(I1
(I2
tp487
g36
I00
S'%\x00\x00\x00M\x00\x00\x00'
p488
tp489
bsba(i__main__
FrameData
p490
(dp491
g6
g267
sg8
g9
(g13
S'\x00\x00\x00\x00\x00\x00\x14@'
p492
tp493
Rp494
sg19
I0
sg20
g21
(S'\x07\xdd\t\x1d\x13\n1\t\xb4K'
p495
tp496
Rp497
sg25
I0
sg26
g27
(g28
(I0
tp498
g30
tp499
Rp500
(I1
(I2
tp501
g36
I00
S'%\x00\x00\x00L\x00\x00\x00'
p502
tp503
bsba(i__main__
FrameData
p504
(dp505
g6
g267
sg8
g9
(g13
S'\xd9l\xdf\xccv\xf8\x10@'
p506
tp507
Rp508
sg19
I0
sg20
g21
(S'\x07\xdd\t\x1d\x13\n1\n>g'
p509
tp510
Rp511
sg25
I0
sg26
g27
(g28
(I0
tp512
g30
tp513
Rp514
(I1
(I2
tp515
g36
I00
S'%\x00\x00\x00K\x00\x00\x00'
p516
tp517
bsba(i__main__
FrameData
p518
(dp519
g6
g267
sg8
g9
(g13
S'\xf3YaD+\xd8\x0c@'
p520
tp521
Rp522
sg19
I0
sg20
g21
(S'\x07\xdd\t\x1d\x13\n1\x0b\x14\x02'
p523
tp524
Rp525
sg25
I0
sg26
g27
(g28
(I0
tp526
g30
tp527
Rp528
(I1
(I2
tp529
g36
I00
S'%\x00\x00\x00J\x00\x00\x00'
p530
tp531
bsba(i__main__
FrameData
p532
(dp533
g6
g267
sg8
g9
(g13
S'\xa8\xf4\x97\x9bw\xe3\x11@'
p534
tp535
Rp536
sg19
I0
sg20
g21
(S'\x07\xdd\t\x1d\x13\n2\x01)\x08'
p537
tp538
Rp539
sg25
I0
sg26
g27
(g28
(I0
tp540
g30
tp541
Rp542
(I1
(I2
tp543
g36
I00
S'&\x00\x00\x00J\x00\x00\x00'
p544
tp545
bsba(i__main__
FrameData
p546
(dp547
g6
g267
sg8
g9
(g13
S'\x00\x00\x00\x00\x00\x00\x14@'
p548
tp549
Rp550
sg19
I0
sg20
g21
(S'\x07\xdd\t\x1d\x13\n2\x01\x9e.'
p551
tp552
Rp553
sg25
I0
sg26
g27
(g28
(I0
tp554
g30
tp555
Rp556
(I1
(I2
tp557
g36
I00
S'&\x00\x00\x00K\x00\x00\x00'
p558
tp559
bsba(i__main__
FrameData
p560
(dp561
g6
g267
sg8
g9
(g13
S'\x00\xff\x9f\x99\xcc\x9c\x19@'
p562
tp563
Rp564
sg19
I0
sg20
g21
(S'\x07\xdd\t\x1d\x13\n2\x01\xec\x15'
p565
tp566
Rp567
sg25
I0
sg26
g27
(g28
(I0
tp568
g30
tp569
Rp570
(I1
(I2
tp571
g36
I00
S"'\x00\x00\x00L\x00\x00\x00"
p572
tp573
bsba(i__main__
FrameData
p574
(dp575
g6
g267
sg8
g9
(g13
S'htN\x17\xb2=\x1f@'
p576
tp577
Rp578
sg19
I0
sg20
g21
(S'\x07\xdd\t\x1d\x13\n2\x02T\xfa'
p579
tp580
Rp581
sg25
I0
sg26
g27
(g28
(I0
tp582
g30
tp583
Rp584
(I1
(I2
tp585
g36
I00
S"'\x00\x00\x00N\x00\x00\x00"
p586
tp587
bsba(i__main__
FrameData
p588
(dp589
g6
g267
sg8
g9
(g13
S'\x9a.\x90!hp"@'
p590
tp591
Rp592
sg19
I0
sg20
g21
(S'\x07\xdd\t\x1d\x13\n2\x02\xa2\xf7'
p593
tp594
Rp595
sg25
I0
sg26
g27
(g28
(I0
tp596
g30
tp597
Rp598
(I1
(I2
tp599
g36
I00
S'(\x00\x00\x00O\x00\x00\x00'
p600
tp601
bsba(i__main__
FrameData
p602
(dp603
g6
g267
sg8
g9
(g13
S'ST\xaf\x99\x8a\xcc#@'
p604
tp605
Rp606
sg19
I0
sg20
g21
(S'\x07\xdd\t\x1d\x13\n2\x03\x18C'
p607
tp608
Rp609
sg25
I0
sg26
g27
(g28
(I0
tp610
g30
tp611
Rp612
(I1
(I2
tp613
g36
I00
S')\x00\x00\x00O\x00\x00\x00'
p614
tp615
bsba(i__main__
FrameData
p616
(dp617
g6
g267
sg8
g9
(g13
S'\xeb\x12\xb2\xbb\xb2\xcd&@'
p618
tp619
Rp620
sg19
I0
sg20
g21
(S'\x07\xdd\t\x1d\x13\n2\x03s\xc3'
p621
tp622
Rp623
sg25
I0
sg26
g27
(g28
(I0
tp624
g30
tp625
Rp626
(I1
(I2
tp627
g36
I00
S')\x00\x00\x00Q\x00\x00\x00'
p628
tp629
bsba(i__main__
FrameData
p630
(dp631
g6
g267
sg8
g9
(g13
S'F#O3\xb2t)@'
p632
tp633
Rp634
sg19
I0
sg20
g21
(S'\x07\xdd\t\x1d\x13\n2\x03\xdc|'
p635
tp636
Rp637
sg25
I0
sg26
g27
(g28
(I0
tp638
g30
tp639
Rp640
(I1
(I2
tp641
g36
I00
S'+\x00\x00\x00Q\x00\x00\x00'
p642
tp643
bsba(i__main__
FrameData
p644
(dp645
g6
g267
sg8
g9
(g13
S'\xb4\xb8=iA\xe8*@'
p646
tp647
Rp648
sg19
I0
sg20
g21
(S'\x07\xdd\t\x1d\x13\n2\x047N'
p649
tp650
Rp651
sg25
I0
sg26
g27
(g28
(I0
tp652
g30
tp653
Rp654
(I1
(I2
tp655
g36
I00
S',\x00\x00\x00Q\x00\x00\x00'
p656
tp657
bsba(i__main__
FrameData
p658
(dp659
g6
g267
sg8
g9
(g13
S'?*\x98"\xe3l,@'
p660
tp661
Rp662
sg19
I0
sg20
g21
(S'\x07\xdd\t\x1d\x13\n2\x04^|'
p663
tp664
Rp665
sg25
I0
sg26
g27
(g28
(I0
tp666
g30
tp667
Rp668
(I1
(I2
tp669
g36
I00
S'-\x00\x00\x00Q\x00\x00\x00'
p670
tp671
bsba(i__main__
FrameData
p672
(dp673
g6
S'e'
p674
sg8
g9
(g13
S'\xf7\x80Aq\xb9\xa2,@'
p675
tp676
Rp677
sg19
I0
sg20
g21
(S'\x07\xdd\t\x1d\x13\n2\x04\xac1'
p678
tp679
Rp680
sg25
I0
sg26
g27
(g28
(I0
tp681
g30
tp682
Rp683
(I1
(I2
tp684
g36
I00
S'.\x00\x00\x00R\x00\x00\x00'
p685
tp686
bsba(i__main__
FrameData
p687
(dp688
g6
g674
sg8
g9
(g13
S'\xfc\xeeci3\xd5*@'
p689
tp690
Rp691
sg19
I0
sg20
g21
(S'\x07\xdd\t\x1d\x13\n2\x05!\xef'
p692
tp693
Rp694
sg25
I0
sg26
g27
(g28
(I0
tp695
g30
tp696
Rp697
(I1
(I2
tp698
g36
I00
S'/\x00\x00\x00R\x00\x00\x00'
p699
tp700
bsba(i__main__
FrameData
p701
(dp702
g6
g674
sg8
g9
(g13
S'w\x03Is \xa2%@'
p703
tp704
Rp705
sg19
I0
sg20
g21
(S'\x07\xdd\t\x1d\x13\n2\x05i\x94'
p706
tp707
Rp708
sg25
I0
sg26
g27
(g28
(I0
tp709
g30
tp710
Rp711
(I1
(I2
tp712
g36
I00
S'2\x00\x00\x00R\x00\x00\x00'
p713
tp714
bsba(i__main__
FrameData
p715
(dp716
g6
g674
sg8
g9
(g13
S'ST\xaf\x99\x8a\xcc#@'
p717
tp718
Rp719
sg19
I0
sg20
g21
(S'\x07\xdd\t\x1d\x13\n2\x05\xbd\xe6'
p720
tp721
Rp722
sg25
I0
sg26
g27
(g28
(I0
tp723
g30
tp724
Rp725
(I1
(I2
tp726
g36
I00
S'4\x00\x00\x00S\x00\x00\x00'
p727
tp728
bsba(i__main__
FrameData
p729
(dp730
g6
g674
sg8
g9
(g13
S'p\xc4\x9d9\x8dv\x1e@'
p731
tp732
Rp733
sg19
I0
sg20
g21
(S'\x07\xdd\t\x1d\x13\n2\x06\x0c\x81'
p734
tp735
Rp736
sg25
I0
sg26
g27
(g28
(I0
tp737
g30
tp738
Rp739
(I1
(I2
tp740
g36
I00
S'8\x00\x00\x00S\x00\x00\x00'
p741
tp742
bsba(i__main__
FrameData
p743
(dp744
g6
g674
sg8
g9
(g13
S'\xd0\xbaa?\xe0\x1f @'
p745
tp746
Rp747
sg19
I0
sg20
g21
(S'\x07\xdd\t\x1d\x13\n2\x063\x0e'
p748
tp749
Rp750
sg25
I0
sg26
g27
(g28
(I0
tp751
g30
tp752
Rp753
(I1
(I2
tp754
g36
I00
S'<\x00\x00\x00T\x00\x00\x00'
p755
tp756
bsba(i__main__
FrameData
p757
(dp758
g6
g674
sg8
g9
(g13
S'\xa3\x14\xae\xa8\x87\x16!@'
p759
tp760
Rp761
sg19
I0
sg20
g21
(S'\x07\xdd\t\x1d\x13\n2\x06\x81H'
p762
tp763
Rp764
sg25
I0
sg26
g27
(g28
(I0
tp765
g30
tp766
Rp767
(I1
(I2
tp768
g36
I00
S'>\x00\x00\x00T\x00\x00\x00'
p769
tp770
bsba(i__main__
FrameData
p771
(dp772
g6
g674
sg8
g9
(g13
S'w\x03Is \xa2%@'
p773
tp774
Rp775
sg19
I0
sg20
g21
(S'\x07\xdd\t\x1d\x13\n2\x06\xa9\xb5'
p776
tp777
Rp778
sg25
I0
sg26
g27
(g28
(I0
tp779
g30
tp780
Rp781
(I1
(I2
tp782
g36
I00
S'A\x00\x00\x00U\x00\x00\x00'
p783
tp784
bsba(i__main__
FrameData
p785
(dp786
g6
g674
sg8
g9
(g13
S'\x00\xff\x9f\x99\xcc\x9c)@'
p787
tp788
Rp789
sg19
I0
sg20
g21
(S'\x07\xdd\t\x1d\x13\n2\x06\xf3\xa3'
p790
tp791
Rp792
sg25
I0
sg26
g27
(g28
(I0
tp793
g30
tp794
Rp795
(I1
(I2
tp796
g36
I00
S'C\x00\x00\x00V\x00\x00\x00'
p797
tp798
bsba(i__main__
FrameData
p799
(dp800
g6
g674
sg8
g9
(g13
S'\x10\xb3]\xc9`G0@'
p801
tp802
Rp803
sg19
I0
sg20
g21
(S'\x07\xdd\t\x1d\x13\n2\x07A\xb6'
p804
tp805
Rp806
sg25
I0
sg26
g27
(g28
(I0
tp807
g30
tp808
Rp809
(I1
(I2
tp810
g36
I00
S'G\x00\x00\x00W\x00\x00\x00'
p811
tp812
bsba(i__main__
FrameData
p813
(dp814
g6
S'r'
p815
sg8
g9
(g13
S'\xc5Bl?W\x87.@'
p816
tp817
Rp818
sg19
I0
sg20
g21
(S'\x07\xdd\t\x1d\x13\n2\x07v\xd3'
p819
tp820
Rp821
sg25
I0
sg26
g27
(g28
(I0
tp822
g30
tp823
Rp824
(I1
(I2
tp825
g36
I00
S'J\x00\x00\x00X\x00\x00\x00'
p826
tp827
bsba(i__main__
FrameData
p828
(dp829
g6
g815
sg8
g9
(g13
S'p\xc4\x9d9\x8dv.@'
p830
tp831
Rp832
sg19
I0
sg20
g21
(S'\x07\xdd\t\x1d\x13\n2\x07\xcc\x18'
p833
tp834
Rp835
sg25
I0
sg26
g27
(g28
(I0
tp836
g30
tp837
Rp838
(I1
(I2
tp839
g36
I00
S'L\x00\x00\x00Y\x00\x00\x00'
p840
tp841
bsba(i__main__
FrameData
p842
(dp843
g6
g815
sg8
g9
(g13
S'/\xa4\xe3\\m\xbb-@'
p844
tp845
Rp846
sg19
I0
sg20
g21
(S'\x07\xdd\t\x1d\x13\n2\x07\xf2"'
p847
tp848
Rp849
sg25
I0
sg26
g27
(g28
(I0
tp850
g30
tp851
Rp852
(I1
(I2
tp853
g36
I00
S'M\x00\x00\x00Y\x00\x00\x00'
p854
tp855
bsba(i__main__
FrameData
p856
(dp857
g6
g815
sg8
g9
(g13
S'\xb3\xa73\xa0`\x0c/@'
p858
tp859
Rp860
sg19
I0
sg20
g21
(S'\x07\xdd\t\x1d\x13\n2\x08B\xdd'
p861
tp862
Rp863
sg25
I0
sg26
g27
(g28
(I0
tp864
g30
tp865
Rp866
(I1
(I2
tp867
g36
I00
S'N\x00\x00\x00Z\x00\x00\x00'
p868
tp869
bsba(i__main__
FrameData
p870
(dp871
g6
g815
sg8
g9
(g13
S'[y\xf7F\xf7C.@'
p872
tp873
Rp874
sg19
I0
sg20
g21
(S'\x07\xdd\t\x1d\x13\n2\x08\x81\xc9'
p875
tp876
Rp877
sg25
I0
sg26
g27
(g28
(I0
tp878
g30
tp879
Rp880
(I1
(I2
tp881
g36
I00
S'P\x00\x00\x00Z\x00\x00\x00'
p882
tp883
bsba(i__main__
FrameData
p884
(dp885
g6
g815
sg8
g9
(g13
S'\x00\x00\x00\x00\x00\x00.@'
p886
tp887
Rp888
sg19
I0
sg20
g21
(S'\x07\xdd\t\x1d\x13\n2\x08\xb4\xbc'
p889
tp890
Rp891
sg25
I0
sg26
g27
(g28
(I0
tp892
g30
tp893
Rp894
(I1
(I2
tp895
g36
I00
S'R\x00\x00\x00Z\x00\x00\x00'
p896
tp897
bsba(i__main__
FrameData
p898
(dp899
g6
g815
sg8
g9
(g13
S'[y\xf7F\xf7C.@'
p900
tp901
Rp902
sg19
I0
sg20
g21
(S'\x07\xdd\t\x1d\x13\n2\t\x03\x87'
p903
tp904
Rp905
sg25
I0
sg26
g27
(g28
(I0
tp906
g30
tp907
Rp908
(I1
(I2
tp909
g36
I00
S'T\x00\x00\x00Z\x00\x00\x00'
p910
tp911
bsba(i__main__
FrameData
p912
(dp913
g6
g815
sg8
g9
(g13
S'\x07\xed\xaff\x0f~0@'
p914
tp915
Rp916
sg19
I0
sg20
g21
(S'\x07\xdd\t\x1d\x13\n2\tC3'
p917
tp918
Rp919
sg25
I0
sg26
g27
(g28
(I0
tp920
g30
tp921
Rp922
(I1
(I2
tp923
g36
I00
S'V\x00\x00\x00[\x00\x00\x00'
p924
tp925
bsba(i__main__
FrameData
p926
(dp927
g6
g815
sg8
g9
(g13
S'\xa8\xf4\x97\x9bw\xe31@'
p928
tp929
Rp930
sg19
I0
sg20
g21
(S'\x07\xdd\t\x1d\x13\n2\tw\xd5'
p931
tp932
Rp933
sg25
I0
sg26
g27
(g28
(I0
tp934
g30
tp935
Rp936
(I1
(I2
tp937
g36
I00
S'Z\x00\x00\x00[\x00\x00\x00'
p938
tp939
bsba(i__main__
FrameData
p940
(dp941
g6
g815
sg8
g9
(g13
S'A\x87b\xc62\xde2@'
p942
tp943
Rp944
sg19
I0
sg20
g21
(S'\x07\xdd\t\x1d\x13\n2\t\xc8\x18'
p945
tp946
Rp947
sg25
I0
sg26
g27
(g28
(I0
tp948
g30
tp949
Rp950
(I1
(I2
tp951
g36
I00
S'\\\x00\x00\x00[\x00\x00\x00'
p952
tp953
bsba(i__main__
FrameData
p954
(dp955
g6
g815
sg8
g9
(g13
S'/vo\xf2\x9ej3@'
p956
tp957
Rp958
sg19
I0
sg20
g21
(S'\x07\xdd\t\x1d\x13\n2\n\x16/'
p959
tp960
Rp961
sg25
I0
sg26
g27
(g28
(I0
tp962
g30
tp963
Rp964
(I1
(I2
tp965
g36
I00
S']\x00\x00\x00[\x00\x00\x00'
p966
tp967
bsba(i__main__
FrameData
p968
(dp969
g6
S't'
p970
sg8
g9
(g13
S'/vo\xf2\x9ej3@'
p971
tp972
Rp973
sg19
I0
sg20
g21
(S'\x07\xdd\t\x1d\x13\n2\n;['
p974
tp975
Rp976
sg25
I0
sg26
g27
(g28
(I0
tp977
g30
tp978
Rp979
(I1
(I2
tp980
g36
I00
S'_\x00\x00\x00[\x00\x00\x00'
p981
tp982
bsba(i__main__
FrameData
p983
(dp984
g6
g970
sg8
g9
(g13
S'\xbf\x8f+\t\x89[2@'
p985
tp986
Rp987
sg19
I0
sg20
g21
(S'\x07\xdd\t\x1d\x13\n2\n\x8a\xae'
p988
tp989
Rp990
sg25
I0
sg26
g27
(g28
(I0
tp991
g30
tp992
Rp993
(I1
(I2
tp994
g36
I00
S'a\x00\x00\x00[\x00\x00\x00'
p995
tp996
bsba(i__main__
FrameData
p997
(dp998
g6
g970
sg8
g9
(g13
S'\xa8y\x0c\t\xd9v1@'
p999
tp1000
Rp1001
sg19
I0
sg20
g21
(S'\x07\xdd\t\x1d\x13\n2\n\xd8\x9c'
p1002
tp1003
Rp1004
sg25
I0
sg26
g27
(g28
(I0
tp1005
g30
tp1006
Rp1007
(I1
(I2
tp1008
g36
I00
S'c\x00\x00\x00[\x00\x00\x00'
p1009
tp1010
bsba(i__main__
FrameData
p1011
(dp1012
g6
g970
sg8
g9
(g13
S'>9\x15\x8cW\xc30@'
p1013
tp1014
Rp1015
sg19
I0
sg20
g21
(S'\x07\xdd\t\x1d\x13\n2\n\xfe\xb0'
p1016
tp1017
Rp1018
sg25
I0
sg26
g27
(g28
(I0
tp1019
g30
tp1020
Rp1021
(I1
(I2
tp1022
g36
I00
S'e\x00\x00\x00[\x00\x00\x00'
p1023
tp1024
bsba(i__main__
FrameData
p1025
(dp1026
g6
g970
sg8
g9
(g13
S'\x10\xb3]\xc9`G0@'
p1027
tp1028
Rp1029
sg19
I0
sg20
g21
(S'\x07\xdd\t\x1d\x13\n2\x0bM\xb3'
p1030
tp1031
Rp1032
sg25
I0
sg26
g27
(g28
(I0
tp1033
g30
tp1034
Rp1035
(I1
(I2
tp1036
g36
I00
S'g\x00\x00\x00[\x00\x00\x00'
p1037
tp1038
bsba(i__main__
FrameData
p1039
(dp1040
g6
g970
sg8
g9
(g13
S'p`\xff\x00\xfe\x070@'
p1041
tp1042
Rp1043
sg19
I0
sg20
g21
(S'\x07\xdd\t\x1d\x13\n2\x0b\x88='
p1044
tp1045
Rp1046
sg25
I0
sg26
g27
(g28
(I0
tp1047
g30
tp1048
Rp1049
(I1
(I2
tp1050
g36
I00
S'k\x00\x00\x00[\x00\x00\x00'
p1051
tp1052
bsba(i__main__
FrameData
p1053
(dp1054
g6
g970
sg8
g9
(g13
S'\x07\xed\xaff\x0f~0@'
p1055
tp1056
Rp1057
sg19
I0
sg20
g21
(S'\x07\xdd\t\x1d\x13\n2\x0b\xc1\xf2'
p1058
tp1059
Rp1060
sg25
I0
sg26
g27
(g28
(I0
tp1061
g30
tp1062
Rp1063
(I1
(I2
tp1064
g36
I00
S'n\x00\x00\x00[\x00\x00\x00'
p1065
tp1066
bsba(i__main__
FrameData
p1067
(dp1068
g6
g970
sg8
g9
(g13
S"v\xa3~{\xce'0@"
p1069
tp1070
Rp1071
sg19
I0
sg20
g21
(S'\x07\xdd\t\x1d\x13\n2\x0c\x0f\xd6'
p1072
tp1073
Rp1074
sg25
I0
sg26
g27
(g28
(I0
tp1075
g30
tp1076
Rp1077
(I1
(I2
tp1078
g36
I00
S'p\x00\x00\x00Z\x00\x00\x00'
p1079
tp1080
bsba(i__main__
FrameData
p1081
(dp1082
g6
g970
sg8
g9
(g13
S'\xb9\xbaF\xca+~1@'
p1083
tp1084
Rp1085
sg19
I0
sg20
g21
(S'\x07\xdd\t\x1d\x13\n2\x0cF`'
p1086
tp1087
Rp1088
sg25
I0
sg26
g27
(g28
(I0
tp1089
g30
tp1090
Rp1091
(I1
(I2
tp1092
g36
I00
S's\x00\x00\x00Z\x00\x00\x00'
p1093
tp1094
bsba(i__main__
FrameData
p1095
(dp1096
g6
S'y'
p1097
sg8
g9
(g13
S'\xd9l\xdf\xccv\xf80@'
p1098
tp1099
Rp1100
sg19
I0
sg20
g21
(S'\x07\xdd\t\x1d\x13\n2\x0c\x89T'
p1101
tp1102
Rp1103
sg25
I0
sg26
g27
(g28
(I0
tp1104
g30
tp1105
Rp1106
(I1
(I2
tp1107
g36
I00
S'v\x00\x00\x00Y\x00\x00\x00'
p1108
tp1109
bsba(i__main__
FrameData
p1110
(dp1111
g6
g1097
sg8
g9
(g13
S'htN\x17\xb2=/@'
p1112
tp1113
Rp1114
sg19
I0
sg20
g21
(S'\x07\xdd\t\x1d\x13\n2\x0c\xd4\x91'
p1115
tp1116
Rp1117
sg25
I0
sg26
g27
(g28
(I0
tp1118
g30
tp1119
Rp1120
(I1
(I2
tp1121
g36
I00
S'x\x00\x00\x00Y\x00\x00\x00'
p1122
tp1123
bsba(i__main__
FrameData
p1124
(dp1125
g6
g1097
sg8
g9
(g13
S'\xb9e(k\xee\xc8+@'
p1126
tp1127
Rp1128
sg19
I0
sg20
g21
(S'\x07\xdd\t\x1d\x13\n2\r\th'
p1129
tp1130
Rp1131
sg25
I0
sg26
g27
(g28
(I0
tp1132
g30
tp1133
Rp1134
(I1
(I2
tp1135
g36
I00
S'{\x00\x00\x00Y\x00\x00\x00'
p1136
tp1137
bsba(i__main__
FrameData
p1138
(dp1139
g6
g1097
sg8
g9
(g13
S'\x8a\xe3\x07\x1a\x17\xbd(@'
p1140
tp1141
Rp1142
sg19
I0
sg20
g21
(S'\x07\xdd\t\x1d\x13\n2\rq8'
p1143
tp1144
Rp1145
sg25
I0
sg26
g27
(g28
(I0
tp1146
g30
tp1147
Rp1148
(I1
(I2
tp1149
g36
I00
S'\x7f\x00\x00\x00Y\x00\x00\x00'
p1150
tp1151
bsba(i__main__
FrameData
p1152
(dp1153
g6
g1097
sg8
g9
(g13
S'\xf0)#L\x89\x19$@'
p1154
tp1155
Rp1156
sg19
I0
sg20
g21
(S'\x07\xdd\t\x1d\x13\n2\r\x98u'
p1157
tp1158
Rp1159
sg25
I0
sg26
g27
(g28
(I0
tp1160
g30
tp1161
Rp1162
(I1
(I2
tp1163
g36
I00
S'\x81\x00\x00\x00W\x00\x00\x00'
p1164
tp1165
bsba(i__main__
FrameData
p1166
(dp1167
g6
g1097
sg8
g9
(g13
S'\x00\x00\x00\x00\x00\x00$@'
p1168
tp1169
Rp1170
sg19
I0
sg20
g21
(S'\x07\xdd\t\x1d\x13\n2\r\xd8\x11'
p1171
tp1172
Rp1173
sg25
I0
sg26
g27
(g28
(I0
tp1174
g30
tp1175
Rp1176
(I1
(I2
tp1177
g36
I00
S'\x82\x00\x00\x00W\x00\x00\x00'
p1178
tp1179
bsba(i__main__
FrameData
p1180
(dp1181
g6
g1097
sg8
g9
(g13
S'\xf0)#L\x89\x19$@'
p1182
tp1183
Rp1184
sg19
I0
sg20
g21
(S'\x07\xdd\t\x1d\x13\n2\x0e,\xb3'
p1185
tp1186
Rp1187
sg25
I0
sg26
g27
(g28
(I0
tp1188
g30
tp1189
Rp1190
(I1
(I2
tp1191
g36
I00
S'\x83\x00\x00\x00W\x00\x00\x00'
p1192
tp1193
bsba(i__main__
FrameData
p1194
(dp1195
g6
g1097
sg8
g9
(g13
S'~\xc4#,B\xf9"@'
p1196
tp1197
Rp1198
sg19
I0
sg20
g21
(S'\x07\xdd\t\x1d\x13\n2\x0eR\x8c'
p1199
tp1200
Rp1201
sg25
I0
sg26
g27
(g28
(I0
tp1202
g30
tp1203
Rp1204
(I1
(I2
tp1205
g36
I00
S'\x85\x00\x00\x00V\x00\x00\x00'
p1206
tp1207
bsba(i__main__
FrameData
p1208
(dp1209
g6
g1097
sg8
g9
(g13
S'A\x87b\xc62\xde"@'
p1210
tp1211
Rp1212
sg19
I0
sg20
g21
(S'\x07\xdd\t\x1d\x13\n2\x0e\xa2e'
p1213
tp1214
Rp1215
sg25
I0
sg26
g27
(g28
(I0
tp1216
g30
tp1217
Rp1218
(I1
(I2
tp1219
g36
I00
S'\x87\x00\x00\x00U\x00\x00\x00'
p1220
tp1221
bsba(i__main__
FrameData
p1222
(dp1223
g6
g1097
sg8
g9
(g13
S'6\xd0\xd2x\xa2B%@'
p1224
tp1225
Rp1226
sg19
I0
sg20
g21
(S'\x07\xdd\t\x1d\x13\n2\x0e\xde\xab'
p1227
tp1228
Rp1229
sg25
I0
sg26
g27
(g28
(I0
tp1230
g30
tp1231
Rp1232
(I1
(I2
tp1233
g36
I00
S'\x89\x00\x00\x00U\x00\x00\x00'
p1234
tp1235
bsba(i__main__
FrameData
p1236
(dp1237
g6
g1097
sg8
g9
(g13
S'\xeb\x12\xb2\xbb\xb2\xcd&@'
p1238
tp1239
Rp1240
sg19
I0
sg20
g21
(S'\x07\xdd\t\x1d\x13\n2\x0f\x17\xce'
p1241
tp1242
Rp1243
sg25
I0
sg26
g27
(g28
(I0
tp1244
g30
tp1245
Rp1246
(I1
(I2
tp1247
g36
I00
S'\x8b\x00\x00\x00T\x00\x00\x00'
p1248
tp1249
bsba(i__main__
FrameData
p1250
(dp1251
g6
g1097
sg8
g9
(g13
S'Qf\x99\xcb\xa9\x13*@'
p1252
tp1253
Rp1254
sg19
I0
sg20
g21
(S'\x07\xdd\t\x1d\x13\n3\x00\x19Q'
p1255
tp1256
Rp1257
sg25
I0
sg26
g27
(g28
(I0
tp1258
g30
tp1259
Rp1260
(I1
(I2
tp1261
g36
I00
S'\x8d\x00\x00\x00T\x00\x00\x00'
p1262
tp1263
bsba(i__main__
FrameData
p1264
(dp1265
g6
S'u'
p1266
sg8
g9
(g13
S'F#O3\xb2t)@'
p1267
tp1268
Rp1269
sg19
I0
sg20
g21
(S'\x07\xdd\t\x1d\x13\n3\x00W\xd0'
p1270
tp1271
Rp1272
sg25
I0
sg26
g27
(g28
(I0
tp1273
g30
tp1274
Rp1275
(I1
(I2
tp1276
g36
I00
S'\x8f\x00\x00\x00S\x00\x00\x00'
p1277
tp1278
bsba(i__main__
FrameData
p1279
(dp1280
g6
g1266
sg8
g9
(g13
S'\xeb\x12\xb2\xbb\xb2\xcd&@'
p1281
tp1282
Rp1283
sg19
I0
sg20
g21
(S'\x07\xdd\t\x1d\x13\n3\x00\x96W'
p1284
tp1285
Rp1286
sg25
I0
sg26
g27
(g28
(I0
tp1287
g30
tp1288
Rp1289
(I1
(I2
tp1290
g36
I00
S'\x91\x00\x00\x00S\x00\x00\x00'
p1291
tp1292
bsba(i__main__
FrameData
p1293
(dp1294
g6
g1266
sg8
g9
(g13
S'\xa8\xf4\x97\x9bw\xe3!@'
p1295
tp1296
Rp1297
sg19
I0
sg20
g21
(S'\x07\xdd\t\x1d\x13\n3\x00\xde-'
p1298
tp1299
Rp1300
sg25
I0
sg26
g27
(g28
(I0
tp1301
g30
tp1302
Rp1303
(I1
(I2
tp1304
g36
I00
S'\x94\x00\x00\x00R\x00\x00\x00'
p1305
tp1306
bsba(i__main__
FrameData
p1307
(dp1308
g6
g1266
sg8
g9
(g13
S'\xd0\xbaa?\xe0\x1f @'
p1309
tp1310
Rp1311
sg19
I0
sg20
g21
(S'\x07\xdd\t\x1d\x13\n3\x01\x1c\xda'
p1312
tp1313
Rp1314
sg25
I0
sg26
g27
(g28
(I0
tp1315
g30
tp1316
Rp1317
(I1
(I2
tp1318
g36
I00
S'\x97\x00\x00\x00R\x00\x00\x00'
p1319
tp1320
bsba(i__main__
FrameData
p1321
(dp1322
g6
g1266
sg8
g9
(g13
S'\xe9\xfbv \xd5\x1e\x1d@'
p1323
tp1324
Rp1325
sg19
I0
sg20
g21
(S'\x07\xdd\t\x1d\x13\n3\x01_\xe1'
p1326
tp1327
Rp1328
sg25
I0
sg26
g27
(g28
(I0
tp1329
g30
tp1330
Rp1331
(I1
(I2
tp1332
g36
I00
S'\x9a\x00\x00\x00Q\x00\x00\x00'
p1333
tp1334
bsba(i__main__
FrameData
p1335
(dp1336
g6
g1266
sg8
g9
(g13
S'\xf3YaD+\xd8\x1c@'
p1337
tp1338
Rp1339
sg19
I0
sg20
g21
(S'\x07\xdd\t\x1d\x13\n3\x01\xa0\xb5'
p1340
tp1341
Rp1342
sg25
I0
sg26
g27
(g28
(I0
tp1343
g30
tp1344
Rp1345
(I1
(I2
tp1346
g36
I00
S'\x9c\x00\x00\x00P\x00\x00\x00'
p1347
tp1348
bsba(i__main__
FrameData
p1349
(dp1350
g6
g1266
sg8
g9
(g13
S'\xd9l\xdf\xccv\xf8 @'
p1351
tp1352
Rp1353
sg19
I0
sg20
g21
(S'\x07\xdd\t\x1d\x13\n3\x01\xd9\xee'
p1354
tp1355
Rp1356
sg25
I0
sg26
g27
(g28
(I0
tp1357
g30
tp1358
Rp1359
(I1
(I2
tp1360
g36
I00
S'\x9e\x00\x00\x00P\x00\x00\x00'
p1361
tp1362
bsba(i__main__
FrameData
p1363
(dp1364
g6
g1266
sg8
g9
(g13
S'\x9a.\x90!hp"@'
p1365
tp1366
Rp1367
sg19
I0
sg20
g21
(S'\x07\xdd\t\x1d\x13\n3\x02\x1b\xc7'
p1368
tp1369
Rp1370
sg25
I0
sg26
g27
(g28
(I0
tp1371
g30
tp1372
Rp1373
(I1
(I2
tp1374
g36
I00
S'\x9f\x00\x00\x00P\x00\x00\x00'
p1375
tp1376
bsba(i__main__
FrameData
p1377
(dp1378
g6
g1266
sg8
g9
(g13
S'\x00\x00\x00\x00\x00\x00$@'
p1379
tp1380
Rp1381
sg19
I0
sg20
g21
(S'\x07\xdd\t\x1d\x13\n3\x02^\xf4'
p1382
tp1383
Rp1384
sg25
I0
sg26
g27
(g28
(I0
tp1385
g30
tp1386
Rp1387
(I1
(I2
tp1388
g36
I00
S'\xa0\x00\x00\x00P\x00\x00\x00'
p1389
tp1390
bsba(i__main__
FrameData
p1391
(dp1392
g6
g1266
sg8
g9
(g13
S'\xd2\xf1}\x82U\\&@'
p1393
tp1394
Rp1395
sg19
I0
sg20
g21
(S'\x07\xdd\t\x1d\x13\n3\x02\xa3n'
p1396
tp1397
Rp1398
sg25
I0
sg26
g27
(g28
(I0
tp1399
g30
tp1400
Rp1401
(I1
(I2
tp1402
g36
I00
S'\xa2\x00\x00\x00O\x00\x00\x00'
p1403
tp1404
bsba(i__main__
FrameData
p1405
(dp1406
g6
g1266
sg8
g9
(g13
S'lNy\x00\x85*(@'
p1407
tp1408
Rp1409
sg19
I0
sg20
g21
(S'\x07\xdd\t\x1d\x13\n3\x02\xe6N'
p1410
tp1411
Rp1412
sg25
I0
sg26
g27
(g28
(I0
tp1413
g30
tp1414
Rp1415
(I1
(I2
tp1416
g36
I00
S'\xa3\x00\x00\x00O\x00\x00\x00'
p1417
tp1418
bsba(i__main__
FrameData
p1419
(dp1420
g6
g1266
sg8
g9
(g13
S'S[\xda:XL)@'
p1421
tp1422
Rp1423
sg19
I0
sg20
g21
(S'\x07\xdd\t\x1d\x13\n3\x03&\xaf'
p1424
tp1425
Rp1426
sg25
I0
sg26
g27
(g28
(I0
tp1427
g30
tp1428
Rp1429
(I1
(I2
tp1430
g36
I00
S'\xa4\x00\x00\x00N\x00\x00\x00'
p1431
tp1432
bsba(i__main__
FrameData
p1433
(dp1434
g6
S'i'
p1435
sg8
g9
(g13
S'8H\x9b\x97\xee\xae*@'
p1436
tp1437
Rp1438
sg19
I0
sg20
g21
(S'\x07\xdd\t\x1d\x13\n3\x03ki'
p1439
tp1440
Rp1441
sg25
I0
sg26
g27
(g28
(I0
tp1442
g30
tp1443
Rp1444
(I1
(I2
tp1445
g36
I00
S'\xa5\x00\x00\x00N\x00\x00\x00'
p1446
tp1447
bsba(i__main__
FrameData
p1448
(dp1449
g6
g1435
sg8
g9
(g13
S'\x8a\xe3\x07\x1a\x17\xbd(@'
p1450
tp1451
Rp1452
sg19
I0
sg20
g21
(S'\x07\xdd\t\x1d\x13\n3\x03\xa3\x9d'
p1453
tp1454
Rp1455
sg25
I0
sg26
g27
(g28
(I0
tp1456
g30
tp1457
Rp1458
(I1
(I2
tp1459
g36
I00
S'\xa6\x00\x00\x00N\x00\x00\x00'
p1460
tp1461
bsba(i__main__
FrameData
p1462
(dp1463
g6
g1435
sg8
g9
(g13
S'\xd2\xf1}\x82U\\&@'
p1464
tp1465
Rp1466
sg19
I0
sg20
g21
(S"\x07\xdd\t\x1d\x13\n3\x04'_"
p1467
tp1468
Rp1469
sg25
I0
sg26
g27
(g28
(I0
tp1470
g30
tp1471
Rp1472
(I1
(I2
tp1473
g36
I00
S'\xa7\x00\x00\x00M\x00\x00\x00'
p1474
tp1475
bsba(i__main__
FrameData
p1476
(dp1477
g6
g1435
sg8
g9
(g13
S'\xf6/\x12_ee$@'
p1478
tp1479
Rp1480
sg19
I0
sg20
g21
(S'\x07\xdd\t\x1d\x13\n3\x04jw'
p1481
tp1482
Rp1483
sg25
I0
sg26
g27
(g28
(I0
tp1484
g30
tp1485
Rp1486
(I1
(I2
tp1487
g36
I00
S'\xa8\x00\x00\x00M\x00\x00\x00'
p1488
tp1489
bsba(i__main__
FrameData
p1490
(dp1491
g6
g1435
sg8
g9
(g13
S'$\xf8\xd9p[\x1c"@'
p1492
tp1493
Rp1494
sg19
I0
sg20
g21
(S'\x07\xdd\t\x1d\x13\n3\x04\xa8F'
p1495
tp1496
Rp1497
sg25
I0
sg26
g27
(g28
(I0
tp1498
g30
tp1499
Rp1500
(I1
(I2
tp1501
g36
I00
S'\xa9\x00\x00\x00L\x00\x00\x00'
p1502
tp1503
bsba(i__main__
FrameData
p1504
(dp1505
g6
g1435
sg8
g9
(g13
S'\xd0\xbaa?\xe0\x1f @'
p1506
tp1507
Rp1508
sg19
I0
sg20
g21
(S'\x07\xdd\t\x1d\x13\n3\x054\xc7'
p1509
tp1510
Rp1511
sg25
I0
sg26
g27
(g28
(I0
tp1512
g30
tp1513
Rp1514
(I1
(I2
tp1515
g36
I00
S'\xaa\x00\x00\x00L\x00\x00\x00'
p1516
tp1517
bsba(i__main__
FrameData
p1518
(dp1519
g6
g1435
sg8
g9
(g13
S'\x00\x00\x00\x00\x00\x00\x1c@'
p1520
tp1521
Rp1522
sg19
I0
sg20
g21
(S'\x07\xdd\t\x1d\x13\n3\x05qL'
p1523
tp1524
Rp1525
sg25
I0
sg26
g27
(g28
(I0
tp1526
g30
tp1527
Rp1528
(I1
(I2
tp1529
g36
I00
S'\xab\x00\x00\x00K\x00\x00\x00'
p1530
tp1531
bsba(i__main__
FrameData
p1532
(dp1533
g6
g1435
sg8
g9
(g13
S'\x00\x00\x00\x00\x00\x00\x18@'
p1534
tp1535
Rp1536
sg19
I0
sg20
g21
(S'\x07\xdd\t\x1d\x13\n3\x05\xad\xe2'
p1537
tp1538
Rp1539
sg25
I0
sg26
g27
(g28
(I0
tp1540
g30
tp1541
Rp1542
(I1
(I2
tp1543
g36
I00
S'\xac\x00\x00\x00K\x00\x00\x00'
p1544
tp1545
bsba(i__main__
FrameData
p1546
(dp1547
g6
g1435
sg8
g9
(g13
S'\x00\x00\x00\x00\x00\x00\x14@'
p1548
tp1549
Rp1550
sg19
I0
sg20
g21
(S'\x07\xdd\t\x1d\x13\n3\x05\xef\xbb'
p1551
tp1552
Rp1553
sg25
I0
sg26
g27
(g28
(I0
tp1554
g30
tp1555
Rp1556
(I1
(I2
tp1557
g36
I00
S'\xad\x00\x00\x00K\x00\x00\x00'
p1558
tp1559
bsba(i__main__
FrameData
p1560
(dp1561
g6
g1435
sg8
g9
(g13
S'\xf3\xd9\xa8\xa4h\x8a\x15@'
p1562
tp1563
Rp1564
sg19
I0
sg20
g21
(S'\x07\xdd\t\x1d\x13\n3\x060\xa2'
p1565
tp1566
Rp1567
sg25
I0
sg26
g27
(g28
(I0
tp1568
g30
tp1569
Rp1570
(I1
(I2
tp1571
g36
I00
S'\xad\x00\x00\x00I\x00\x00\x00'
p1572
tp1573
bsba(i__main__
FrameData
p1574
(dp1575
g6
g1435
sg8
g9
(g13
S'\xf3YaD+\xd8\x0c@'
p1576
tp1577
Rp1578
sg19
I0
sg20
g21
(S'\x07\xdd\t\x1d\x13\n3\x06\xba\x94'
p1579
tp1580
Rp1581
sg25
I0
sg26
g27
(g28
(I0
tp1582
g30
tp1583
Rp1584
(I1
(I2
tp1585
g36
I00
S'\xaf\x00\x00\x00I\x00\x00\x00'
p1586
tp1587
bsba(i__main__
FrameData
p1588
(dp1589
g6
g1435
sg8
g9
(g13
S'S[\xda:XL\t@'
p1590
tp1591
Rp1592
sg19
I0
sg20
g21
(S'\x07\xdd\t\x1d\x13\n3\r\x97\xb2'
p1593
tp1594
Rp1595
sg25
I0
sg26
g27
(g28
(I0
tp1596
g30
tp1597
Rp1598
(I1
(I2
tp1599
g36
I00
S'\xaf\x00\x00\x00L\x00\x00\x00'
p1600
tp1601
bsba(i__main__
FrameData
p1602
(dp1603
g6
g1435
sg8
g9
(g13
S'\xfc\xeeci3\xd5\x1a@'
p1604
tp1605
Rp1606
sg19
I0
sg20
g21
(S'\x07\xdd\t\x1d\x13\n3\r\xd9\xb8'
p1607
tp1608
Rp1609
sg25
I0
sg26
g27
(g28
(I0
tp1610
g30
tp1611
Rp1612
(I1
(I2
tp1613
g36
I00
S'\xaf\x00\x00\x00Q\x00\x00\x00'
p1614
tp1615
bsba(i__main__
FrameData
p1616
(dp1617
g6
g1435
sg8
g9
(g13
S'\xeb\x12\xb2\xbb\xb2\xcd&@'
p1618
tp1619
Rp1620
sg19
I0
sg20
g21
(S'\x07\xdd\t\x1d\x13\n3\x0e\x1d\xb1'
p1621
tp1622
Rp1623
sg25
I0
sg26
g27
(g28
(I0
tp1624
g30
tp1625
Rp1626
(I1
(I2
tp1627
g36
I00
S'\xaf\x00\x00\x00V\x00\x00\x00'
p1628
tp1629
bsba(i__main__
FrameData
p1630
(dp1631
g6
g1435
sg8
g9
(g13
S'8H\x9b\x97\xee\xae*@'
p1632
tp1633
Rp1634
sg19
I0
sg20
g21
(S'\x07\xdd\t\x1d\x13\n3\x0eb%'
p1635
tp1636
Rp1637
sg25
I0
sg26
g27
(g28
(I0
tp1638
g30
tp1639
Rp1640
(I1
(I2
tp1641
g36
I00
S'\xaf\x00\x00\x00X\x00\x00\x00'
p1642
tp1643
bsba(i__main__
FrameData
p1644
(dp1645
g6
g1435
sg8
g9
(g13
S'\xfb\xefg\xc4>C1@'
p1646
tp1647
Rp1648
sg19
I0
sg20
g21
(S'\x07\xdd\t\x1d\x13\n3\x0e\x9b\xf4'
p1649
tp1650
Rp1651
sg25
I0
sg26
g27
(g28
(I0
tp1652
g30
tp1653
Rp1654
(I1
(I2
tp1655
g36
I00
S'\xaf\x00\x00\x00\\\x00\x00\x00'
p1656
tp1657
bsba(i__main__
FrameData
p1658
(dp1659
g6
g1435
sg8
g9
(g13
S'\xbd\xec\x81\x93G94@'
p1660
tp1661
Rp1662
sg19
I0
sg20
g21
(S'\x07\xdd\t\x1d\x13\n3\x0e\xda\xff'
p1663
tp1664
Rp1665
sg25
I0
sg26
g27
(g28
(I0
tp1666
g30
tp1667
Rp1668
(I1
(I2
tp1669
g36
I00
S'\xaf\x00\x00\x00_\x00\x00\x00'
p1670
tp1671
bsba(i__main__
FrameData
p1672
(dp1673
g6
S'j'
p1674
sg8
g9
(g13
S'5 \x89\xa6\xcd\xc92@'
p1675
tp1676
Rp1677
sg19
I0
sg20
g21
(S'\x07\xdd\t\x1d\x13\n3\x0f\x1c\xf2'
p1678
tp1679
Rp1680
sg25
I0
sg26
g27
(g28
(I0
tp1681
g30
tp1682
Rp1683
(I1
(I2
tp1684
g36
I00
S'\xaf\x00\x00\x00a\x00\x00\x00'
p1685
tp1686
bsba(i__main__
FrameData
p1687
(dp1688
g6
g1674
sg8
g9
(g13
S'\x00\x00\x00\x00\x00\x001@'
p1689
tp1690
Rp1691
sg19
I0
sg20
g21
(S'\x07\xdd\t\x1d\x13\n4\x00\x1d\x9e'
p1692
tp1693
Rp1694
sg25
I0
sg26
g27
(g28
(I0
tp1695
g30
tp1696
Rp1697
(I1
(I2
tp1698
g36
I00
S'\xaf\x00\x00\x00c\x00\x00\x00'
p1699
tp1700
bsba(i__main__
FrameData
p1701
(dp1702
g6
g1674
sg8
g9
(g13
S'\xc5Bl?W\x87.@'
p1703
tp1704
Rp1705
sg19
I0
sg20
g21
(S'\x07\xdd\t\x1d\x13\n4\x00a\xef'
p1706
tp1707
Rp1708
sg25
I0
sg26
g27
(g28
(I0
tp1709
g30
tp1710
Rp1711
(I1
(I2
tp1712
g36
I00
S'\xaf\x00\x00\x00e\x00\x00\x00'
p1713
tp1714
bsba(i__main__
FrameData
p1715
(dp1716
g6
g1674
sg8
g9
(g13
S'\xef\rI\xf1\xf33+@'
p1717
tp1718
Rp1719
sg19
I0
sg20
g21
(S'\x07\xdd\t\x1d\x13\n4\x00\xa3\xfe'
p1720
tp1721
Rp1722
sg25
I0
sg26
g27
(g28
(I0
tp1723
g30
tp1724
Rp1725
(I1
(I2
tp1726
g36
I00
S'\xaf\x00\x00\x00g\x00\x00\x00'
p1727
tp1728
bsba(i__main__
FrameData
p1729
(dp1730
g6
g1674
sg8
g9
(g13
S'\x00\xff\x9f\x99\xcc\x9c)@'
p1731
tp1732
Rp1733
sg19
I0
sg20
g21
(S'\x07\xdd\t\x1d\x13\n4\x00\xe8\\'
p1734
tp1735
Rp1736
sg25
I0
sg26
g27
(g28
(I0
tp1737
g30
tp1738
Rp1739
(I1
(I2
tp1740
g36
I00
S'\xaf\x00\x00\x00h\x00\x00\x00'
p1741
tp1742
bsba(i__main__
FrameData
p1743
(dp1744
g6
g1674
sg8
g9
(g13
S'&5w\xe2K\x15(@'
p1745
tp1746
Rp1747
sg19
I0
sg20
g21
(S'\x07\xdd\t\x1d\x13\n4\x01*\x0c'
p1748
tp1749
Rp1750
sg25
I0
sg26
g27
(g28
(I0
tp1751
g30
tp1752
Rp1753
(I1
(I2
tp1754
g36
I00
S'\xaf\x00\x00\x00i\x00\x00\x00'
p1755
tp1756
bsba(i__main__
FrameData
p1757
(dp1758
g6
g1674
sg8
g9
(g13
S'6\xd0\xd2x\xa2B%@'
p1759
tp1760
Rp1761
sg19
I0
sg20
g21
(S'\x07\xdd\t\x1d\x13\n4\x01dS'
p1762
tp1763
Rp1764
sg25
I0
sg26
g27
(g28
(I0
tp1765
g30
tp1766
Rp1767
(I1
(I2
tp1768
g36
I00
S'\xaf\x00\x00\x00k\x00\x00\x00'
p1769
tp1770
bsba(i__main__
FrameData
p1771
(dp1772
g6
g1674
sg8
g9
(g13
S'A\x87b\xc62\xde"@'
p1773
tp1774
Rp1775
sg19
I0
sg20
g21
(S'\x07\xdd\t\x1d\x13\n4\x01\xa3\x13'
p1776
tp1777
Rp1778
sg25
I0
sg26
g27
(g28
(I0
tp1779
g30
tp1780
Rp1781
(I1
(I2
tp1782
g36
I00
S'\xaf\x00\x00\x00m\x00\x00\x00'
p1783
tp1784
bsba(i__main__
FrameData
p1785
(dp1786
g6
g1674
sg8
g9
(g13
S'\xa3\x14\xae\xa8\x87\x16!@'
p1787
tp1788
Rp1789
sg19
I0
sg20
g21
(S'\x07\xdd\t\x1d\x13\n4\x01\xe2\xef'
p1790
tp1791
Rp1792
sg25
I0
sg26
g27
(g28
(I0
tp1793
g30
tp1794
Rp1795
(I1
(I2
tp1796
g36
I00
S'\xaf\x00\x00\x00o\x00\x00\x00'
p1797
tp1798
bsba(i__main__
FrameData
p1799
(dp1800
g6
g1674
sg8
g9
(g13
S'\xd0\xbaa?\xe0\x1f @'
p1801
tp1802
Rp1803
sg19
I0
sg20
g21
(S'\x07\xdd\t\x1d\x13\n4\x02)D'
p1804
tp1805
Rp1806
sg25
I0
sg26
g27
(g28
(I0
tp1807
g30
tp1808
Rp1809
(I1
(I2
tp1810
g36
I00
S'\xaf\x00\x00\x00q\x00\x00\x00'
p1811
tp1812
bsba(i__main__
FrameData
p1813
(dp1814
g6
g1674
sg8
g9
(g13
S'\xd0\xbaa?\xe0\x1f @'
p1815
tp1816
Rp1817
sg19
I0
sg20
g21
(S'\x07\xdd\t\x1d\x13\n4\x02l\xb0'
p1818
tp1819
Rp1820
sg25
I0
sg26
g27
(g28
(I0
tp1821
g30
tp1822
Rp1823
(I1
(I2
tp1824
g36
I00
S'\xaf\x00\x00\x00s\x00\x00\x00'
p1825
tp1826
bsba(i__main__
FrameData
p1827
(dp1828
g6
g1674
sg8
g9
(g13
S'A\x87b\xc62\xde"@'
p1829
tp1830
Rp1831
sg19
I0
sg20
g21
(S'\x07\xdd\t\x1d\x13\n4\x02\xb0\x9a'
p1832
tp1833
Rp1834
sg25
I0
sg26
g27
(g28
(I0
tp1835
g30
tp1836
Rp1837
(I1
(I2
tp1838
g36
I00
S'\xaf\x00\x00\x00w\x00\x00\x00'
p1839
tp1840
bsba(i__main__
FrameData
p1841
(dp1842
g6
g1674
sg8
g9
(g13
S'6\xd0\xd2x\xa2B%@'
p1843
tp1844
Rp1845
sg19
I0
sg20
g21
(S'\x07\xdd\t\x1d\x13\n4\x02\xe85'
p1846
tp1847
Rp1848
sg25
I0
sg26
g27
(g28
(I0
tp1849
g30
tp1850
Rp1851
(I1
(I2
tp1852
g36
I00
S'\xaf\x00\x00\x00y\x00\x00\x00'
p1853
tp1854
bsba(i__main__
FrameData
p1855
(dp1856
g6
g1674
sg8
g9
(g13
S'\x00\xff\x9f\x99\xcc\x9c)@'
p1857
tp1858
Rp1859
sg19
I0
sg20
g21
(S'\x07\xdd\t\x1d\x13\n4\x035\x88'
p1860
tp1861
Rp1862
sg25
I0
sg26
g27
(g28
(I0
tp1863
g30
tp1864
Rp1865
(I1
(I2
tp1866
g36
I00
S'\xaf\x00\x00\x00|\x00\x00\x00'
p1867
tp1868
bsba(i__main__
FrameData
p1869
(dp1870
g6
g1674
sg8
g9
(g13
S'\xc5Bl?W\x87.@'
p1871
tp1872
Rp1873
sg19
I0
sg20
g21
(S'\x07\xdd\t\x1d\x13\n4\x03l~'
p1874
tp1875
Rp1876
sg25
I0
sg26
g27
(g28
(I0
tp1877
g30
tp1878
Rp1879
(I1
(I2
tp1880
g36
I00
S'\xaf\x00\x00\x00\x7f\x00\x00\x00'
p1881
tp1882
bsba(i__main__
FrameData
p1883
(dp1884
g6
g1674
sg8
g9
(g13
S'\xc9\xe0>!B<3@'
p1885
tp1886
Rp1887
sg19
I0
sg20
g21
(S'\x07\xdd\t\x1d\x13\n4\x03\xae\x8b'
p1888
tp1889
Rp1890
sg25
I0
sg26
g27
(g28
(I0
tp1891
g30
tp1892
Rp1893
(I1
(I2
tp1894
g36
I00
S'\xb0\x00\x00\x00\x83\x00\x00\x00'
p1895
tp1896
bsba(i__main__
FrameData
p1897
(dp1898
g6
S'm'
p1899
sg8
g9
(g13
S'u\xa6<oS\x185@'
p1900
tp1901
Rp1902
sg19
I0
sg20
g21
(S'\x07\xdd\t\x1d\x13\n4\x03\xf1\x7f'
p1903
tp1904
Rp1905
sg25
I0
sg26
g27
(g28
(I0
tp1906
g30
tp1907
Rp1908
(I1
(I2
tp1909
g36
I00
S'\xb0\x00\x00\x00\x87\x00\x00\x00'
p1910
tp1911
bsba(i__main__
FrameData
p1912
(dp1913
g6
g1899
sg8
g9
(g13
S'8\xd8\xbc\n\x1b\x072@'
p1914
tp1915
Rp1916
sg19
I0
sg20
g21
(S'\x07\xdd\t\x1d\x13\n4\x046\x8c'
p1917
tp1918
Rp1919
sg25
I0
sg26
g27
(g28
(I0
tp1920
g30
tp1921
Rp1922
(I1
(I2
tp1923
g36
I00
S'\xb1\x00\x00\x00\x8a\x00\x00\x00'
p1924
tp1925
bsba(i__main__
FrameData
p1926
(dp1927
g6
g1899
sg8
g9
(g13
S'/\xa4\xe3\\m\xbb-@'
p1928
tp1929
Rp1930
sg19
I0
sg20
g21
(S'\x07\xdd\t\x1d\x13\n4\x04s^'
p1931
tp1932
Rp1933
sg25
I0
sg26
g27
(g28
(I0
tp1934
g30
tp1935
Rp1936
(I1
(I2
tp1937
g36
I00
S'\xb1\x00\x00\x00\x8e\x00\x00\x00'
p1938
tp1939
bsba(i__main__
FrameData
p1940
(dp1941
g6
g1899
sg8
g9
(g13
S'\xeb\x12\xb2\xbb\xb2\xcd&@'
p1942
tp1943
Rp1944
sg19
I0
sg20
g21
(S'\x07\xdd\t\x1d\x13\n4\x04\xba\xf4'
p1945
tp1946
Rp1947
sg25
I0
sg26
g27
(g28
(I0
tp1948
g30
tp1949
Rp1950
(I1
(I2
tp1951
g36
I00
S'\xb2\x00\x00\x00\x92\x00\x00\x00'
p1952
tp1953
bsba(i__main__
FrameData
p1954
(dp1955
g6
g1899
sg8
g9
(g13
S'A\x87b\xc62\xde"@'
p1956
tp1957
Rp1958
sg19
I0
sg20
g21
(S'\x07\xdd\t\x1d\x13\n4\x04\xf2I'
p1959
tp1960
Rp1961
sg25
I0
sg26
g27
(g28
(I0
tp1962
g30
tp1963
Rp1964
(I1
(I2
tp1965
g36
I00
S'\xb3\x00\x00\x00\x94\x00\x00\x00'
p1966
tp1967
bsba(i__main__
FrameData
p1968
(dp1969
g6
g1899
sg8
g9
(g13
S'\xa3\x14\xae\xa8\x87\x16!@'
p1970
tp1971
Rp1972
sg19
I0
sg20
g21
(S'\x07\xdd\t\x1d\x13\n4\x053\xb2'
p1973
tp1974
Rp1975
sg25
I0
sg26
g27
(g28
(I0
tp1976
g30
tp1977
Rp1978
(I1
(I2
tp1979
g36
I00
S'\xb3\x00\x00\x00\x96\x00\x00\x00'
p1980
tp1981
bsba(i__main__
FrameData
p1982
(dp1983
g6
g1899
sg8
g9
(g13
S'\x07\xed\xaff\x0f~ @'
p1984
tp1985
Rp1986
sg19
I0
sg20
g21
(S'\x07\xdd\t\x1d\x13\n4\x05w\x97'
p1987
tp1988
Rp1989
sg25
I0
sg26
g27
(g28
(I0
tp1990
g30
tp1991
Rp1992
(I1
(I2
tp1993
g36
I00
S'\xb3\x00\x00\x00\x97\x00\x00\x00'
p1994
tp1995
bsba(i__main__
FrameData
p1996
(dp1997
g6
g1899
sg8
g9
(g13
S'\x00\x00\x00\x00\x00\x00 @'
p1998
tp1999
Rp2000
sg19
I0
sg20
g21
(S'\x07\xdd\t\x1d\x13\n4\x05\xbb\xb9'
p2001
tp2002
Rp2003
sg25
I0
sg26
g27
(g28
(I0
tp2004
g30
tp2005
Rp2006
(I1
(I2
tp2007
g36
I00
S'\xb3\x00\x00\x00\x99\x00\x00\x00'
p2008
tp2009
bsba(i__main__
FrameData
p2010
(dp2011
g6
g1899
sg8
g9
(g13
S'\xc0\n\x1f\x00\xc6H\x1c@'
p2012
tp2013
Rp2014
sg19
I0
sg20
g21
(S'\x07\xdd\t\x1d\x13\n4\x06@+'
p2015
tp2016
Rp2017
sg25
I0
sg26
g27
(g28
(I0
tp2018
g30
tp2019
Rp2020
(I1
(I2
tp2021
g36
I00
S'\xb4\x00\x00\x00\x9a\x00\x00\x00'
p2022
tp2023
bsba(i__main__
FrameData
p2024
(dp2025
g6
g1899
sg8
g9
(g13
S'\xe9\xfbv \xd5\x1e\x1d@'
p2026
tp2027
Rp2028
sg19
I0
sg20
g21
(S'\x07\xdd\t\x1d\x13\n4\x06\xbdB'
p2029
tp2030
Rp2031
sg25
I0
sg26
g27
(g28
(I0
tp2032
g30
tp2033
Rp2034
(I1
(I2
tp2035
g36
I00
S'\xb4\x00\x00\x00\x9b\x00\x00\x00'
p2036
tp2037
bsba(i__main__
FrameData
p2038
(dp2039
g6
g1899
sg8
g9
(g13
S'S[\xda:XL\x19@'
p2040
tp2041
Rp2042
sg19
I0
sg20
g21
(S'\x07\xdd\t\x1d\x13\n4\x07?.'
p2043
tp2044
Rp2045
sg25
I0
sg26
g27
(g28
(I0
tp2046
g30
tp2047
Rp2048
(I1
(I2
tp2049
g36
I00
S'\xb5\x00\x00\x00\x9b\x00\x00\x00'
p2050
tp2051
bsba(i__main__
FrameData
p2052
(dp2053
g6
g1899
sg8
g9
(g13
S'\xf3\xd9\xa8\xa4h\x8a\x15@'
p2054
tp2055
Rp2056
sg19
I0
sg20
g21
(S'\x07\xdd\t\x1d\x13\n4\t\x07Q'
p2057
tp2058
Rp2059
sg25
I0
sg26
g27
(g28
(I0
tp2060
g30
tp2061
Rp2062
(I1
(I2
tp2063
g36
I00
S'\xb6\x00\x00\x00\x9b\x00\x00\x00'
p2064
tp2065
bsba(i__main__
FrameData
p2066
(dp2067
g6
g1899
sg8
g9
(g13
S'\xa8\xf4\x97\x9bw\xe3\x11@'
p2068
tp2069
Rp2070
sg19
I0
sg20
g21
(S'\x07\xdd\t\x1d\x13\n4\t\x8e\x1d'
p2071
tp2072
Rp2073
sg25
I0
sg26
g27
(g28
(I0
tp2074
g30
tp2075
Rp2076
(I1
(I2
tp2077
g36
I00
S'\xb7\x00\x00\x00\x9b\x00\x00\x00'
p2078
tp2079
bsba(i__main__
FrameData
p2080
(dp2081
g6
g1899
sg8
g9
(g13
S'\xf3YaD+\xd8\x0c@'
p2082
tp2083
Rp2084
sg19
I0
sg20
g21
(S'\x07\xdd\t\x1d\x13\n4\t\xcaq'
p2085
tp2086
Rp2087
sg25
I0
sg26
g27
(g28
(I0
tp2088
g30
tp2089
Rp2090
(I1
(I2
tp2091
g36
I00
S'\xb8\x00\x00\x00\x9b\x00\x00\x00'
p2092
tp2093
bsba(i__main__
FrameData
p2094
(dp2095
g6
g1899
sg8
g9
(g13
S'\xcd;\x7ff\x9e\xa0\x06@'
p2096
tp2097
Rp2098
sg19
I0
sg20
g21
(S'\x07\xdd\t\x1d\x13\n4\n\x13\xfd'
p2099
tp2100
Rp2101
sg25
I0
sg26
g27
(g28
(I0
tp2102
g30
tp2103
Rp2104
(I1
(I2
tp2105
g36
I00
S'\xb9\x00\x00\x00\x9b\x00\x00\x00'
p2106
tp2107
bsba(i__main__
FrameData
p2108
(dp2109
g6
g1899
sg8
g9
(g13
S'\x00\x00\x00\x00\x00\x00\x00@'
p2110
tp2111
Rp2112
sg19
I0
sg20
g21
(S'\x07\xdd\t\x1d\x13\n4\nW"'
p2113
tp2114
Rp2115
sg25
I0
sg26
g27
(g28
(I0
tp2116
g30
tp2117
Rp2118
(I1
(I2
tp2119
g36
I00
S'\xbb\x00\x00\x00\x9b\x00\x00\x00'
p2120
tp2121
bsba(i__main__
FrameData
p2122
(dp2123
g6
g1899
sg8
g9
(g13
S'\xa8\xf4\x97\x9bw\xe3\x01@'
p2124
tp2125
Rp2126
sg19
I0
sg20
g21
(S'\x07\xdd\t\x1d\x13\n4\n\x8e\x1b'
p2127
tp2128
Rp2129
sg25
I0
sg26
g27
(g28
(I0
tp2130
g30
tp2131
Rp2132
(I1
(I2
tp2133
g36
I00
S'\xbc\x00\x00\x00\x9b\x00\x00\x00'
p2134
tp2135
bsba(i__main__
FrameData
p2136
(dp2137
g6
g1899
sg8
g9
(g13
S'\xcd;\x7ff\x9e\xa0\x06@'
p2138
tp2139
Rp2140
sg19
I0
sg20
g21
(S'\x07\xdd\t\x1d\x13\n4\n\xd1\x14'
p2141
tp2142
Rp2143
sg25
I0
sg26
g27
(g28
(I0
tp2144
g30
tp2145
Rp2146
(I1
(I2
tp2147
g36
I00
S'\xbd\x00\x00\x00\x9b\x00\x00\x00'
p2148
tp2149
bsba(i__main__
FrameData
p2150
(dp2151
g6
g1899
sg8
g9
(g13
S'\xa8\xf4\x97\x9bw\xe3\x01@'
p2152
tp2153
Rp2154
sg19
I0
sg20
g21
(S'\x07\xdd\t\x1d\x13\n4\x0b\x13\x18'
p2155
tp2156
Rp2157
sg25
I0
sg26
g27
(g28
(I0
tp2158
g30
tp2159
Rp2160
(I1
(I2
tp2161
g36
I00
S'\xbd\x00\x00\x00\x9a\x00\x00\x00'
p2162
tp2163
bsba(i__main__
FrameData
p2164
(dp2165
g6
g1899
sg8
g9
(g13
S'\x07\xed\xaff\x0f~\x10@'
p2166
tp2167
Rp2168
sg19
I0
sg20
g21
(S'\x07\xdd\t\x1d\x13\n4\x0bQ,'
p2169
tp2170
Rp2171
sg25
I0
sg26
g27
(g28
(I0
tp2172
g30
tp2173
Rp2174
(I1
(I2
tp2175
g36
I00
S'\xbf\x00\x00\x00\x9a\x00\x00\x00'
p2176
tp2177
bsba(i__main__
FrameData
p2178
(dp2179
g6
g1899
sg8
g9
(g13
S'\x00\x00\x00\x00\x00\x00\x10@'
p2180
tp2181
Rp2182
sg19
I0
sg20
g21
(S'\x07\xdd\t\x1d\x13\n4\x0b\x9a\xe4'
p2183
tp2184
Rp2185
sg25
I0
sg26
g27
(g28
(I0
tp2186
g30
tp2187
Rp2188
(I1
(I2
tp2189
g36
I00
S'\xbf\x00\x00\x00\x99\x00\x00\x00'
p2190
tp2191
bsba(i__main__
FrameData
p2192
(dp2193
g6
g1899
sg8
g9
(g13
S'\x07\xed\xaff\x0f~\x10@'
p2194
tp2195
Rp2196
sg19
I0
sg20
g21
(S'\x07\xdd\t\x1d\x13\n4\x0b\xdd\x85'
p2197
tp2198
Rp2199
sg25
I0
sg26
g27
(g28
(I0
tp2200
g30
tp2201
Rp2202
(I1
(I2
tp2203
g36
I00
S'\xbf\x00\x00\x00\x98\x00\x00\x00'
p2204
tp2205
bsba(i__main__
FrameData
p2206
(dp2207
g6
g1899
sg8
g9
(g13
S'\xa8\xf4\x97\x9bw\xe3\x11@'
p2208
tp2209
Rp2210
sg19
I0
sg20
g21
(S'\x07\xdd\t\x1d\x13\n4\x0cU\xb0'
p2211
tp2212
Rp2213
sg25
I0
sg26
g27
(g28
(I0
tp2214
g30
tp2215
Rp2216
(I1
(I2
tp2217
g36
I00
S'\xbf\x00\x00\x00\x97\x00\x00\x00'
p2218
tp2219
bsba(i__main__
FrameData
p2220
(dp2221
g6
g1899
sg8
g9
(g13
S'\x00\x00\x00\x00\x00\x00\x14@'
p2222
tp2223
Rp2224
sg19
I0
sg20
g21
(S'\x07\xdd\t\x1d\x13\n4\x0c\x96\x93'
p2225
tp2226
Rp2227
sg25
I0
sg26
g27
(g28
(I0
tp2228
g30
tp2229
Rp2230
(I1
(I2
tp2231
g36
I00
S'\xbf\x00\x00\x00\x96\x00\x00\x00'
p2232
tp2233
bsba(i__main__
FrameData
p2234
(dp2235
g6
g1899
sg8
g9
(g13
S'\xcd;\x7ff\x9e\xa0\x16@'
p2236
tp2237
Rp2238
sg19
I0
sg20
g21
(S'\x07\xdd\t\x1d\x13\n4\x0c\xdc\xcb'
p2239
tp2240
Rp2241
sg25
I0
sg26
g27
(g28
(I0
tp2242
g30
tp2243
Rp2244
(I1
(I2
tp2245
g36
I00
S'\xbf\x00\x00\x00\x95\x00\x00\x00'
p2246
tp2247
bsba(i__main__
FrameData
p2248
(dp2249
g6
g1899
sg8
g9
(g13
S'\x00\xff\x9f\x99\xcc\x9c\x19@'
p2250
tp2251
Rp2252
sg19
I0
sg20
g21
(S'\x07\xdd\t\x1d\x13\n4\r\x19\x0b'
p2253
tp2254
Rp2255
sg25
I0
sg26
g27
(g28
(I0
tp2256
g30
tp2257
Rp2258
(I1
(I2
tp2259
g36
I00
S'\xbf\x00\x00\x00\x94\x00\x00\x00'
p2260
tp2261
bsba(i__main__
FrameData
p2262
(dp2263
g6
g1899
sg8
g9
(g13
S'\xd0\xbaa?\xe0\x1f @'
p2264
tp2265
Rp2266
sg19
I0
sg20
g21
(S'\x07\xdd\t\x1d\x13\n4\r\x9b\xef'
p2267
tp2268
Rp2269
sg25
I0
sg26
g27
(g28
(I0
tp2270
g30
tp2271
Rp2272
(I1
(I2
tp2273
g36
I00
S'\xbf\x00\x00\x00\x92\x00\x00\x00'
p2274
tp2275
bsba(i__main__
FrameData
p2276
(dp2277
g6
g1899
sg8
g9
(g13
S'\xa8\xf4\x97\x9bw\xe3!@'
p2278
tp2279
Rp2280
sg19
I0
sg20
g21
(S'\x07\xdd\t\x1d\x13\n4\r\xe5`'
p2281
tp2282
Rp2283
sg25
I0
sg26
g27
(g28
(I0
tp2284
g30
tp2285
Rp2286
(I1
(I2
tp2287
g36
I00
S'\xbf\x00\x00\x00\x91\x00\x00\x00'
p2288
tp2289
bsba(i__main__
FrameData
p2290
(dp2291
g6
g1899
sg8
g9
(g13
S'\xa3\x14\xae\xa8\x87\x16!@'
p2292
tp2293
Rp2294
sg19
I0
sg20
g21
(S'\x07\xdd\t\x1d\x13\n4\x0e\xe7\xe7'
p2295
tp2296
Rp2297
sg25
I0
sg26
g27
(g28
(I0
tp2298
g30
tp2299
Rp2300
(I1
(I2
tp2301
g36
I00
S'\xbe\x00\x00\x00\x91\x00\x00\x00'
p2302
tp2303
bsba(i__main__
FrameData
p2304
(dp2305
g6
g1899
sg8
g9
(g13
S'\x07\xed\xaff\x0f~ @'
p2306
tp2307
Rp2308
sg19
I0
sg20
g21
(S'\x07\xdd\t\x1d\x13\n5\x00!\xe7'
p2309
tp2310
Rp2311
sg25
I0
sg26
g27
(g28
(I0
tp2312
g30
tp2313
Rp2314
(I1
(I2
tp2315
g36
I00
S'\xbd\x00\x00\x00\x91\x00\x00\x00'
p2316
tp2317
bsba(i__main__
FrameData
p2318
(dp2319
g6
g1899
sg8
g9
(g13
S'\xd0\xbaa?\xe0\x1f @'
p2320
tp2321
Rp2322
sg19
I0
sg20
g21
(S'\x07\xdd\t\x1d\x13\n5\x00\xb1\x01'
p2323
tp2324
Rp2325
sg25
I0
sg26
g27
(g28
(I0
tp2326
g30
tp2327
Rp2328
(I1
(I2
tp2329
g36
I00
S'\xbc\x00\x00\x00\x91\x00\x00\x00'
p2330
tp2331
bsba(i__main__
FrameData
p2332
(dp2333
g6
g1899
sg8
g9
(g13
S'\xc0\n\x1f\x00\xc6H\x1c@'
p2334
tp2335
Rp2336
sg19
I0
sg20
g21
(S'\x07\xdd\t\x1d\x13\n5\x02,P'
p2337
tp2338
Rp2339
sg25
I0
sg26
g27
(g28
(I0
tp2340
g30
tp2341
Rp2342
(I1
(I2
tp2343
g36
I00
S'\xbc\x00\x00\x00\x92\x00\x00\x00'
p2344
tp2345
bsba(i__main__
FrameData
p2346
(dp2347
g6
g1899
sg8
g9
(g13
S'9\xdcc\xb3\xbfT\x18@'
p2348
tp2349
Rp2350
sg19
I0
sg20
g21
(S'\x07\xdd\t\x1d\x13\n5\x02m\xb6'
p2351
tp2352
Rp2353
sg25
I0
sg26
g27
(g28
(I0
tp2354
g30
tp2355
Rp2356
(I1
(I2
tp2357
g36
I00
S'\xbc\x00\x00\x00\x93\x00\x00\x00'
p2358
tp2359
bsba(i__main__
FrameData
p2360
(dp2361
g6
g1899
sg8
g9
(g13
S'\x07\xed\xaff\x0f~\x10@'
p2362
tp2363
Rp2364
sg19
I0
sg20
g21
(S'\x07\xdd\t\x1d\x13\n5\x02\xb0.'
p2365
tp2366
Rp2367
sg25
I0
sg26
g27
(g28
(I0
tp2368
g30
tp2369
Rp2370
(I1
(I2
tp2371
g36
I00
S'\xbc\x00\x00\x00\x95\x00\x00\x00'
p2372
tp2373
bsba(i__main__
FrameData
p2374
(dp2375
g6
g1899
sg8
g9
(g13
S'S[\xda:XL\t@'
p2376
tp2377
Rp2378
sg19
I0
sg20
g21
(S'\x07\xdd\t\x1d\x13\n5\x02\xf1\xec'
p2379
tp2380
Rp2381
sg25
I0
sg26
g27
(g28
(I0
tp2382
g30
tp2383
Rp2384
(I1
(I2
tp2385
g36
I00
S'\xbc\x00\x00\x00\x96\x00\x00\x00'
p2386
tp2387
bsba(i__main__
FrameData
p2388
(dp2389
g6
g1899
sg8
g9
(g13
S'\xa8\xf4\x97\x9bw\xe3\x01@'
p2390
tp2391
Rp2392
sg19
I0
sg20
g21
(S'\x07\xdd\t\x1d\x13\n5\x03vA'
p2393
tp2394
Rp2395
sg25
I0
sg26
g27
(g28
(I0
tp2396
g30
tp2397
Rp2398
(I1
(I2
tp2399
g36
I00
S'\xbc\x00\x00\x00\x97\x00\x00\x00'
p2400
tp2401
bsba(i__main__
FrameData
p2402
(dp2403
g6
g1899
sg8
g9
(g13
S'\xcd;\x7ff\x9e\xa0\xf6?'
p2404
tp2405
Rp2406
sg19
I0
sg20
g21
(S'\x07\xdd\t\x1d\x13\n5\x03\xb8\xa7'
p2407
tp2408
Rp2409
sg25
I0
sg26
g27
(g28
(I0
tp2410
g30
tp2411
Rp2412
(I1
(I2
tp2413
g36
I00
S'\xbc\x00\x00\x00\x98\x00\x00\x00'
p2414
tp2415
bsba(i__main__
FrameData
p2416
(dp2417
g6
g1899
sg8
g9
(g13
S'\x00\x00\x00\x00\x00\x00\xf0?'
p2418
tp2419
Rp2420
sg19
I0
sg20
g21
(S'\x07\xdd\t\x1d\x13\n5\x046\x84'
p2421
tp2422
Rp2423
sg25
I0
sg26
g27
(g28
(I0
tp2424
g30
tp2425
Rp2426
(I1
(I2
tp2427
g36
I00
S'\xbc\x00\x00\x00\x99\x00\x00\x00'
p2428
tp2429
bsba(i__main__
FrameData
p2430
(dp2431
g6
g1899
sg8
g9
(g13
S'\xcd;\x7ff\x9e\xa0\xf6?'
p2432
tp2433
Rp2434
sg19
I0
sg20
g21
(S'\x07\xdd\t\x1d\x13\n5\x04xw'
p2435
tp2436
Rp2437
sg25
I0
sg26
g27
(g28
(I0
tp2438
g30
tp2439
Rp2440
(I1
(I2
tp2441
g36
I00
S'\xbc\x00\x00\x00\x9a\x00\x00\x00'
p2442
tp2443
bsba(i__main__
FrameData
p2444
(dp2445
g6
g1899
sg8
g9
(g13
S'\xa8\xf4\x97\x9bw\xe3\x01@'
p2446
tp2447
Rp2448
sg19
I0
sg20
g21
(S'\x07\xdd\t\x1d\x13\n5\x05?\x16'
p2449
tp2450
Rp2451
sg25
I0
sg26
g27
(g28
(I0
tp2452
g30
tp2453
Rp2454
(I1
(I2
tp2455
g36
I00
S'\xbd\x00\x00\x00\x9a\x00\x00\x00'
p2456
tp2457
bsba(i__main__
FrameData
p2458
(dp2459
g6
g1899
sg8
g9
(g13
S'\xf3YaD+\xd8\x0c@'
p2460
tp2461
Rp2462
sg19
I0
sg20
g21
(S'\x07\xdd\t\x1d\x13\n5\x05\xc3\xa1'
p2463
tp2464
Rp2465
sg25
I0
sg26
g27
(g28
(I0
tp2466
g30
tp2467
Rp2468
(I1
(I2
tp2469
g36
I00
S'\xbe\x00\x00\x00\x9b\x00\x00\x00'
p2470
tp2471
bsba(i__main__
FrameData
p2472
(dp2473
g6
g1899
sg8
g9
(g13
S'\xcd;\x7ff\x9e\xa0\x06@'
p2474
tp2475
Rp2476
sg19
I0
sg20
g21
(S'\x07\xdd\t\x1d\x13\n5\nW\x9b'
p2477
tp2478
Rp2479
sg25
I0
sg26
g27
(g28
(I0
tp2480
g30
tp2481
Rp2482
(I1
(I2
tp2483
g36
I00
S'\xbd\x00\x00\x00\x9b\x00\x00\x00'
p2484
tp2485
bsba(i__main__
FrameData
p2486
(dp2487
g6
g1899
sg8
g9
(g13
S'\xa8\xf4\x97\x9bw\xe3\x01@'
p2488
tp2489
Rp2490
sg19
I0
sg20
g21
(S'\x07\xdd\t\x1d\x13\n5\n\xd7O'
p2491
tp2492
Rp2493
sg25
I0
sg26
g27
(g28
(I0
tp2494
g30
tp2495
Rp2496
(I1
(I2
tp2497
g36
I00
S'\xbc\x00\x00\x00\x9b\x00\x00\x00'
p2498
tp2499
bsba(i__main__
FrameData
p2500
(dp2501
g6
g1899
sg8
g9
(g13
S'\x00\x00\x00\x00\x00\x00\x00@'
p2502
tp2503
Rp2504
sg19
I0
sg20
g21
(S'\x07\xdd\t\x1d\x13\n5\x0b\x17\x85'
p2505
tp2506
Rp2507
sg25
I0
sg26
g27
(g28
(I0
tp2508
g30
tp2509
Rp2510
(I1
(I2
tp2511
g36
I00
S'\xbb\x00\x00\x00\x9b\x00\x00\x00'
p2512
tp2513
bsba(i__main__
FrameData
p2514
(dp2515
g6
g1899
sg8
g9
(g13
S'\xcd;\x7ff\x9e\xa0\xf6?'
p2516
tp2517
Rp2518
sg19
I0
sg20
g21
(S'\x07\xdd\t\x1d\x13\n5\x0b\x9a|'
p2519
tp2520
Rp2521
sg25
I0
sg26
g27
(g28
(I0
tp2522
g30
tp2523
Rp2524
(I1
(I2
tp2525
g36
I00
S'\xba\x00\x00\x00\x9a\x00\x00\x00'
p2526
tp2527
bsba(i__main__
FrameData
p2528
(dp2529
g6
g1899
sg8
g9
(g13
S'\x00\x00\x00\x00\x00\x00\xf0?'
p2530
tp2531
Rp2532
sg19
I0
sg20
g21
(S'\x07\xdd\t\x1d\x13\n5\x0b\xde9'
p2533
tp2534
Rp2535
sg25
I0
sg26
g27
(g28
(I0
tp2536
g30
tp2537
Rp2538
(I1
(I2
tp2539
g36
I00
S'\xba\x00\x00\x00\x99\x00\x00\x00'
p2540
tp2541
bsba(i__main__
FrameData
p2542
(dp2543
g6
g1899
sg8
g9
(g13
S'\x00\x00\x00\x00\x00\x00\x08@'
p2544
tp2545
Rp2546
sg19
I0
sg20
g21
(S'\x07\xdd\t\x1d\x13\n5\x0c 5'
p2547
tp2548
Rp2549
sg25
I0
sg26
g27
(g28
(I0
tp2550
g30
tp2551
Rp2552
(I1
(I2
tp2553
g36
I00
S'\xb8\x00\x00\x00\x99\x00\x00\x00'
p2554
tp2555
bsba(i__main__
FrameData
p2556
(dp2557
g6
g1899
sg8
g9
(g13
S'\xa8\xf4\x97\x9bw\xe3\x11@'
p2558
tp2559
Rp2560
sg19
I0
sg20
g21
(S'\x07\xdd\t\x1d\x13\n5\x0c\xa2\x07'
p2561
tp2562
Rp2563
sg25
I0
sg26
g27
(g28
(I0
tp2564
g30
tp2565
Rp2566
(I1
(I2
tp2567
g36
I00
S'\xb7\x00\x00\x00\x97\x00\x00\x00'
p2568
tp2569
bsba(i__main__
FrameData
p2570
(dp2571
g6
g1899
sg8
g9
(g13
S'\x00\x00\x00\x00\x00\x00\x14@'
p2572
tp2573
Rp2574
sg19
I0
sg20
g21
(S'\x07\xdd\t\x1d\x13\n5\x0c\xe0\xa1'
p2575
tp2576
Rp2577
sg25
I0
sg26
g27
(g28
(I0
tp2578
g30
tp2579
Rp2580
(I1
(I2
tp2581
g36
I00
S'\xb7\x00\x00\x00\x96\x00\x00\x00'
p2582
tp2583
bsba(i__main__
FrameData
p2584
(dp2585
g6
g1899
sg8
g9
(g13
S'\xcd;\x7ff\x9e\xa0\x16@'
p2586
tp2587
Rp2588
sg19
I0
sg20
g21
(S'\x07\xdd\t\x1d\x13\n5\r"\x83'
p2589
tp2590
Rp2591
sg25
I0
sg26
g27
(g28
(I0
tp2592
g30
tp2593
Rp2594
(I1
(I2
tp2595
g36
I00
S'\xb7\x00\x00\x00\x95\x00\x00\x00'
p2596
tp2597
bsba(i__main__
FrameData
p2598
(dp2599
g6
g1899
sg8
g9
(g13
S'\xc0\n\x1f\x00\xc6H\x1c@'
p2600
tp2601
Rp2602
sg19
I0
sg20
g21
(S'\x07\xdd\t\x1d\x13\n5\rd\xdb'
p2603
tp2604
Rp2605
sg25
I0
sg26
g27
(g28
(I0
tp2606
g30
tp2607
Rp2608
(I1
(I2
tp2609
g36
I00
S'\xb6\x00\x00\x00\x94\x00\x00\x00'
p2610
tp2611
bsba(i__main__
FrameData
p2612
(dp2613
g6
g1899
sg8
g9
(g13
S'N\x017\xfac4!@'
p2614
tp2615
Rp2616
sg19
I0
sg20
g21
(S'\x07\xdd\t\x1d\x13\n5\r\xa6\xe1'
p2617
tp2618
Rp2619
sg25
I0
sg26
g27
(g28
(I0
tp2620
g30
tp2621
Rp2622
(I1
(I2
tp2623
g36
I00
S'\xb6\x00\x00\x00\x92\x00\x00\x00'
p2624
tp2625
bsba(i__main__
FrameData
p2626
(dp2627
g6
g1899
sg8
g9
(g13
S'\x00\x00\x00\x00\x00\x00$@'
p2628
tp2629
Rp2630
sg19
I0
sg20
g21
(S'\x07\xdd\t\x1d\x13\n5\r\xe9%'
p2631
tp2632
Rp2633
sg25
I0
sg26
g27
(g28
(I0
tp2634
g30
tp2635
Rp2636
(I1
(I2
tp2637
g36
I00
S'\xb5\x00\x00\x00\x91\x00\x00\x00'
p2638
tp2639
bsba(i__main__
FrameData
p2640
(dp2641
g6
g1899
sg8
g9
(g13
S"\xa2\xa3\xb3\r\xe5R'@"
p2642
tp2643
Rp2644
sg19
I0
sg20
g21
(S'\x07\xdd\t\x1d\x13\n5\x0e,|'
p2645
tp2646
Rp2647
sg25
I0
sg26
g27
(g28
(I0
tp2648
g30
tp2649
Rp2650
(I1
(I2
tp2651
g36
I00
S'\xb5\x00\x00\x00\x8f\x00\x00\x00'
p2652
tp2653
bsba(i__main__
FrameData
p2654
(dp2655
g6
g1899
sg8
g9
(g13
S'\xb9e(k\xee\xc8+@'
p2656
tp2657
Rp2658
sg19
I0
sg20
g21
(S'\x07\xdd\t\x1d\x13\n5\x0ehs'
p2659
tp2660
Rp2661
sg25
I0
sg26
g27
(g28
(I0
tp2662
g30
tp2663
Rp2664
(I1
(I2
tp2665
g36
I00
S'\xb4\x00\x00\x00\x8d\x00\x00\x00'
p2666
tp2667
bsba(i__main__
FrameData
p2668
(dp2669
g6
g1899
sg8
g9
(g13
S'VT\xdbd.P3@'
p2670
tp2671
Rp2672
sg19
I0
sg20
g21
(S'\x07\xdd\t\x1d\x13\n5\x0e\xab\xd2'
p2673
tp2674
Rp2675
sg25
I0
sg26
g27
(g28
(I0
tp2676
g30
tp2677
Rp2678
(I1
(I2
tp2679
g36
I00
S'\xb4\x00\x00\x00\x87\x00\x00\x00'
p2680
tp2681
bsba(i__main__
FrameData
p2682
(dp2683
g6
S'k'
p2684
sg8
g9
(g13
S'\xcey?\xdc\x9a?4@'
p2685
tp2686
Rp2687
sg19
I0
sg20
g21
(S'\x07\xdd\t\x1d\x13\n5\x0e\xebs'
p2688
tp2689
Rp2690
sg25
I0
sg26
g27
(g28
(I0
tp2691
g30
tp2692
Rp2693
(I1
(I2
tp2694
g36
I00
S'\xb3\x00\x00\x00\x83\x00\x00\x00'
p2695
tp2696
bsba(i__main__
FrameData
p2697
(dp2698
g6
g1674
sg8
g9
(g13
S')\x9ah\xdd\x85\x071@'
p2699
tp2700
Rp2701
sg19
I0
sg20
g21
(S'\x07\xdd\t\x1d\x13\n5\x0f-\xe1'
p2702
tp2703
Rp2704
sg25
I0
sg26
g27
(g28
(I0
tp2705
g30
tp2706
Rp2707
(I1
(I2
tp2708
g36
I00
S'\xb2\x00\x00\x00\x7f\x00\x00\x00'
p2709
tp2710
bsba(i__main__
FrameData
p2711
(dp2712
g6
g1674
sg8
g9
(g13
S'\x00\xff\x9f\x99\xcc\x9c)@'
p2713
tp2714
Rp2715
sg19
I0
sg20
g21
(S'\x07\xdd\t\x1d\x13\n6\x00-\x87'
p2716
tp2717
Rp2718
sg25
I0
sg26
g27
(g28
(I0
tp2719
g30
tp2720
Rp2721
(I1
(I2
tp2722
g36
I00
S'\xb1\x00\x00\x00z\x00\x00\x00'
p2723
tp2724
bsba(i__main__
FrameData
p2725
(dp2726
g6
g1674
sg8
g9
(g13
S'bVc}\x9d\xb2#@'
p2727
tp2728
Rp2729
sg19
I0
sg20
g21
(S'\x07\xdd\t\x1d\x13\n6\x00o\xc0'
p2730
tp2731
Rp2732
sg25
I0
sg26
g27
(g28
(I0
tp2733
g30
tp2734
Rp2735
(I1
(I2
tp2736
g36
I00
S'\xb0\x00\x00\x00v\x00\x00\x00'
p2737
tp2738
bsba(i__main__
FrameData
p2739
(dp2740
g6
g1674
sg8
g9
(g13
S'$\xf8\xd9p[\x1c"@'
p2741
tp2742
Rp2743
sg19
I0
sg20
g21
(S'\x07\xdd\t\x1d\x13\n6\x00\xaf\xdb'
p2744
tp2745
Rp2746
sg25
I0
sg26
g27
(g28
(I0
tp2747
g30
tp2748
Rp2749
(I1
(I2
tp2750
g36
I00
S'\xb0\x00\x00\x00q\x00\x00\x00'
p2751
tp2752
bsba(i__main__
FrameData
p2753
(dp2754
g6
g1674
sg8
g9
(g13
S'6\xd0\xd2x\xa2B%@'
p2755
tp2756
Rp2757
sg19
I0
sg20
g21
(S'\x07\xdd\t\x1d\x13\n6\x00\xf4\x03'
p2758
tp2759
Rp2760
sg25
I0
sg26
g27
(g28
(I0
tp2761
g30
tp2762
Rp2763
(I1
(I2
tp2764
g36
I00
S'\xae\x00\x00\x00j\x00\x00\x00'
p2765
tp2766
bsba(i__main__
FrameData
p2767
(dp2768
g6
g1674
sg8
g9
(g13
S'Qf\x99\xcb\xa9\x13*@'
p2769
tp2770
Rp2771
sg19
I0
sg20
g21
(S'\x07\xdd\t\x1d\x13\n6\x010\xf5'
p2772
tp2773
Rp2774
sg25
I0
sg26
g27
(g28
(I0
tp2775
g30
tp2776
Rp2777
(I1
(I2
tp2778
g36
I00
S'\xae\x00\x00\x00g\x00\x00\x00'
p2779
tp2780
bsba(i__main__
FrameData
p2781
(dp2782
g6
g1674
sg8
g9
(g13
S'\xf7\x80Aq\xb9\xa2,@'
p2783
tp2784
Rp2785
sg19
I0
sg20
g21
(S'\x07\xdd\t\x1d\x13\n6\x01q\xc5'
p2786
tp2787
Rp2788
sg25
I0
sg26
g27
(g28
(I0
tp2789
g30
tp2790
Rp2791
(I1
(I2
tp2792
g36
I00
S'\xad\x00\x00\x00e\x00\x00\x00'
p2793
tp2794
bsba(i__main__
FrameData
p2795
(dp2796
g6
g1674
sg8
g9
(g13
S"v\xa3~{\xce'0@"
p2797
tp2798
Rp2799
sg19
I0
sg20
g21
(S'\x07\xdd\t\x1d\x13\n6\x01\xb2r'
p2800
tp2801
Rp2802
sg25
I0
sg26
g27
(g28
(I0
tp2803
g30
tp2804
Rp2805
(I1
(I2
tp2806
g36
I00
S'\xad\x00\x00\x00c\x00\x00\x00'
p2807
tp2808
bsba(i__main__
FrameData
p2809
(dp2810
g6
g1674
sg8
g9
(g13
S'8\xd8\xbc\n\x1b\x072@'
p2811
tp2812
Rp2813
sg19
I0
sg20
g21
(S'\x07\xdd\t\x1d\x13\n6\x01\xf3I'
p2814
tp2815
Rp2816
sg25
I0
sg26
g27
(g28
(I0
tp2817
g30
tp2818
Rp2819
(I1
(I2
tp2820
g36
I00
S'\xad\x00\x00\x00a\x00\x00\x00'
p2821
tp2822
bsba(i__main__
FrameData
p2823
(dp2824
g6
g1674
sg8
g9
(g13
S'Mm\x9d\x8c\xc3\xec3@'
p2825
tp2826
Rp2827
sg19
I0
sg20
g21
(S'\x07\xdd\t\x1d\x13\n6\x024f'
p2828
tp2829
Rp2830
sg25
I0
sg26
g27
(g28
(I0
tp2831
g30
tp2832
Rp2833
(I1
(I2
tp2834
g36
I00
S'\xad\x00\x00\x00_\x00\x00\x00'
p2835
tp2836
bsba(i__main__
FrameData
p2837
(dp2838
g6
g1435
sg8
g9
(g13
S'X(/\x84y\xae2@'
p2839
tp2840
Rp2841
sg19
I0
sg20
g21
(S'\x07\xdd\t\x1d\x13\n6\x02{\xd3'
p2842
tp2843
Rp2844
sg25
I0
sg26
g27
(g28
(I0
tp2845
g30
tp2846
Rp2847
(I1
(I2
tp2848
g36
I00
S'\xad\x00\x00\x00]\x00\x00\x00'
p2849
tp2850
bsba(i__main__
FrameData
p2851
(dp2852
g6
g1435
sg8
g9
(g13
S'/\xa4\xe3\\m\xbb-@'
p2853
tp2854
Rp2855
sg19
I0
sg20
g21
(S'\x07\xdd\t\x1d\x13\n6\x02\xb7\x0e'
p2856
tp2857
Rp2858
sg25
I0
sg26
g27
(g28
(I0
tp2859
g30
tp2860
Rp2861
(I1
(I2
tp2862
g36
I00
S'\xad\x00\x00\x00Y\x00\x00\x00'
p2863
tp2864
bsba(i__main__
FrameData
p2865
(dp2866
g6
g1435
sg8
g9
(g13
S'\x00\x00\x00\x00\x00\x00*@'
p2867
tp2868
Rp2869
sg19
I0
sg20
g21
(S'\x07\xdd\t\x1d\x13\n6\x02\xf8n'
p2870
tp2871
Rp2872
sg25
I0
sg26
g27
(g28
(I0
tp2873
g30
tp2874
Rp2875
(I1
(I2
tp2876
g36
I00
S'\xad\x00\x00\x00W\x00\x00\x00'
p2877
tp2878
bsba(i__main__
FrameData
p2879
(dp2880
g6
g1435
sg8
g9
(g13
S'\xd2\xf1}\x82U\\&@'
p2881
tp2882
Rp2883
sg19
I0
sg20
g21
(S'\x07\xdd\t\x1d\x13\n6\x03:\xc2'
p2884
tp2885
Rp2886
sg25
I0
sg26
g27
(g28
(I0
tp2887
g30
tp2888
Rp2889
(I1
(I2
tp2890
g36
I00
S'\xad\x00\x00\x00U\x00\x00\x00'
p2891
tp2892
bsba(i__main__
FrameData
p2893
(dp2894
g6
g1435
sg8
g9
(g13
S'\x88\x80v\xd5\\\x97$@'
p2895
tp2896
Rp2897
sg19
I0
sg20
g21
(S'\x07\xdd\t\x1d\x13\n6\x03~X'
p2898
tp2899
Rp2900
sg25
I0
sg26
g27
(g28
(I0
tp2901
g30
tp2902
Rp2903
(I1
(I2
tp2904
g36
I00
S'\xad\x00\x00\x00T\x00\x00\x00'
p2905
tp2906
bsba(i__main__
FrameData
p2907
(dp2908
g6
g1435
sg8
g9
(g13
S'A\x87b\xc62\xde"@'
p2909
tp2910
Rp2911
sg19
I0
sg20
g21
(S'\x07\xdd\t\x1d\x13\n6\x03\xbf2'
p2912
tp2913
Rp2914
sg25
I0
sg26
g27
(g28
(I0
tp2915
g30
tp2916
Rp2917
(I1
(I2
tp2918
g36
I00
S'\xad\x00\x00\x00S\x00\x00\x00'
p2919
tp2920
bsba(i__main__
FrameData
p2921
(dp2922
g6
g1435
sg8
g9
(g13
S'N\x017\xfac4!@'
p2923
tp2924
Rp2925
sg19
I0
sg20
g21
(S'\x07\xdd\t\x1d\x13\n6\x04\x01T'
p2926
tp2927
Rp2928
sg25
I0
sg26
g27
(g28
(I0
tp2929
g30
tp2930
Rp2931
(I1
(I2
tp2932
g36
I00
S'\xad\x00\x00\x00R\x00\x00\x00'
p2933
tp2934
bsba(i__main__
FrameData
p2935
(dp2936
g6
g1435
sg8
g9
(g13
S'htN\x17\xb2=\x1f@'
p2937
tp2938
Rp2939
sg19
I0
sg20
g21
(S'\x07\xdd\t\x1d\x13\n6\x04D\xb3'
p2940
tp2941
Rp2942
sg25
I0
sg26
g27
(g28
(I0
tp2943
g30
tp2944
Rp2945
(I1
(I2
tp2946
g36
I00
S'\xad\x00\x00\x00Q\x00\x00\x00'
p2947
tp2948
bsba(i__main__
FrameData
p2949
(dp2950
g6
g1435
sg8
g9
(g13
S'\xc0\n\x1f\x00\xc6H\x1c@'
p2951
tp2952
Rp2953
sg19
I0
sg20
g21
(S'\x07\xdd\t\x1d\x13\n6\x04\x80\\'
p2954
tp2955
Rp2956
sg25
I0
sg26
g27
(g28
(I0
tp2957
g30
tp2958
Rp2959
(I1
(I2
tp2960
g36
I00
S'\xad\x00\x00\x00P\x00\x00\x00'
p2961
tp2962
bsba(i__main__
FrameData
p2963
(dp2964
g6
g1435
sg8
g9
(g13
S'\x00\xff\x9f\x99\xcc\x9c\x19@'
p2965
tp2966
Rp2967
sg19
I0
sg20
g21
(S'\x07\xdd\t\x1d\x13\n6\x05\x02\xcf'
p2968
tp2969
Rp2970
sg25
I0
sg26
g27
(g28
(I0
tp2971
g30
tp2972
Rp2973
(I1
(I2
tp2974
g36
I00
S'\xad\x00\x00\x00O\x00\x00\x00'
p2975
tp2976
bsba(i__main__
FrameData
p2977
(dp2978
g6
g1435
sg8
g9
(g13
S'\xa2\xa3\xb3\r\xe5R\x17@'
p2979
tp2980
Rp2981
sg19
I0
sg20
g21
(S'\x07\xdd\t\x1d\x13\n6\x05E\xce'
p2982
tp2983
Rp2984
sg25
I0
sg26
g27
(g28
(I0
tp2985
g30
tp2986
Rp2987
(I1
(I2
tp2988
g36
I00
S'\xad\x00\x00\x00N\x00\x00\x00'
p2989
tp2990
bsba(i__main__
FrameData
p2991
(dp2992
g6
g1435
sg8
g9
(g13
S'\xf6/\x12_ee\x14@'
p2993
tp2994
Rp2995
sg19
I0
sg20
g21
(S'\x07\xdd\t\x1d\x13\n6\x05\x87\xeb'
p2996
tp2997
Rp2998
sg25
I0
sg26
g27
(g28
(I0
tp2999
g30
tp3000
Rp3001
(I1
(I2
tp3002
g36
I00
S'\xad\x00\x00\x00L\x00\x00\x00'
p3003
tp3004
bsba(i__main__
FrameData
p3005
(dp3006
g6
g1435
sg8
g9
(g13
S'\xf6/\x12_ee\x14@'
p3007
tp3008
Rp3009
sg19
I0
sg20
g21
(S'\x07\xdd\t\x1d\x13\n6\x05\xc5\xe0'
p3010
tp3011
Rp3012
sg25
I0
sg26
g27
(g28
(I0
tp3013
g30
tp3014
Rp3015
(I1
(I2
tp3016
g36
I00
S'\xad\x00\x00\x00J\x00\x00\x00'
p3017
tp3018
bsba(i__main__
FrameData
p3019
(dp3020
g6
g1435
sg8
g9
(g13
S'\xa2\xa3\xb3\r\xe5R\x17@'
p3021
tp3022
Rp3023
sg19
I0
sg20
g21
(S'\x07\xdd\t\x1d\x13\n6\x06\x07\x19'
p3024
tp3025
Rp3026
sg25
I0
sg26
g27
(g28
(I0
tp3027
g30
tp3028
Rp3029
(I1
(I2
tp3030
g36
I00
S'\xad\x00\x00\x00H\x00\x00\x00'
p3031
tp3032
bsba(i__main__
FrameData
p3033
(dp3034
g6
g1435
sg8
g9
(g13
S'\xc0\n\x1f\x00\xc6H\x1c@'
p3035
tp3036
Rp3037
sg19
I0
sg20
g21
(S'\x07\xdd\t\x1d\x13\n6\x06G\xf7'
p3038
tp3039
Rp3040
sg25
I0
sg26
g27
(g28
(I0
tp3041
g30
tp3042
Rp3043
(I1
(I2
tp3044
g36
I00
S'\xad\x00\x00\x00F\x00\x00\x00'
p3045
tp3046
bsba(i__main__
FrameData
p3047
(dp3048
g6
g1435
sg8
g9
(g13
S'htN\x17\xb2=\x1f@'
p3049
tp3050
Rp3051
sg19
I0
sg20
g21
(S'\x07\xdd\t\x1d\x13\n6\x06\x8c\x18'
p3052
tp3053
Rp3054
sg25
I0
sg26
g27
(g28
(I0
tp3055
g30
tp3056
Rp3057
(I1
(I2
tp3058
g36
I00
S'\xad\x00\x00\x00E\x00\x00\x00'
p3059
tp3060
bsba(i__main__
FrameData
p3061
(dp3062
g6
g1435
sg8
g9
(g13
S'\xf3YaD+\xd8\x1c@'
p3063
tp3064
Rp3065
sg19
I0
sg20
g21
(S'\x07\xdd\t\x1d\x13\n6\x06\xccc'
p3066
tp3067
Rp3068
sg25
I0
sg26
g27
(g28
(I0
tp3069
g30
tp3070
Rp3071
(I1
(I2
tp3072
g36
I00
S'\xae\x00\x00\x00E\x00\x00\x00'
p3073
tp3074
bsba(i__main__
FrameData
p3075
(dp3076
g6
g1435
sg8
g9
(g13
S'\xd0\xbaa?\xe0\x1f @'
p3077
tp3078
Rp3079
sg19
I0
sg20
g21
(S'\x07\xdd\t\x1d\x13\n6\x07O$'
p3080
tp3081
Rp3082
sg25
I0
sg26
g27
(g28
(I0
tp3083
g30
tp3084
Rp3085
(I1
(I2
tp3086
g36
I00
S'\xae\x00\x00\x00D\x00\x00\x00'
p3087
tp3088
bsba(i__main__
FrameData
p3089
(dp3090
g6
g1435
sg8
g9
(g13
S'\xa8\xf4\x97\x9bw\xe3!@'
p3091
tp3092
Rp3093
sg19
I0
sg20
g21
(S'\x07\xdd\t\x1d\x13\n6\t\x19\x8d'
p3094
tp3095
Rp3096
sg25
I0
sg26
g27
(g28
(I0
tp3097
g30
tp3098
Rp3099
(I1
(I2
tp3100
g36
I00
S'\xae\x00\x00\x00C\x00\x00\x00'
p3101
tp3102
bsba(i__main__
FrameData
p3103
(dp3104
g6
g1435
sg8
g9
(g13
S'bVc}\x9d\xb2#@'
p3105
tp3106
Rp3107
sg19
I0
sg20
g21
(S'\x07\xdd\t\x1d\x13\n6\t\x9a\xa1'
p3108
tp3109
Rp3110
sg25
I0
sg26
g27
(g28
(I0
tp3111
g30
tp3112
Rp3113
(I1
(I2
tp3114
g36
I00
S'\xae\x00\x00\x00B\x00\x00\x00'
p3115
tp3116
bsba(i__main__
FrameData
p3117
(dp3118
g6
g1435
sg8
g9
(g13
S'~\xc4#,B\xf9"@'
p3119
tp3120
Rp3121
sg19
I0
sg20
g21
(S'\x07\xdd\t\x1d\x13\n6\t\xdaJ'
p3122
tp3123
Rp3124
sg25
I0
sg26
g27
(g28
(I0
tp3125
g30
tp3126
Rp3127
(I1
(I2
tp3128
g36
I00
S'\xaf\x00\x00\x00B\x00\x00\x00'
p3129
tp3130
bsba(i__main__
FrameData
p3131
(dp3132
g6
g1435
sg8
g9
(g13
S'7\xf9\xcf\xdao\xe1$@'
p3133
tp3134
Rp3135
sg19
I0
sg20
g21
(S'\x07\xdd\t\x1d\x13\n6\n^\x00'
p3136
tp3137
Rp3138
sg25
I0
sg26
g27
(g28
(I0
tp3139
g30
tp3140
Rp3141
(I1
(I2
tp3142
g36
I00
S'\xaf\x00\x00\x00A\x00\x00\x00'
p3143
tp3144
bsba(i__main__
FrameData
p3145
(dp3146
g6
g1435
sg8
g9
(g13
S'~\xc4#,B\xf9"@'
p3147
tp3148
Rp3149
sg19
I0
sg20
g21
(S'\x07\xdd\t\x1d\x13\n6\x0c&\xcf'
p3150
tp3151
Rp3152
sg25
I0
sg26
g27
(g28
(I0
tp3153
g30
tp3154
Rp3155
(I1
(I2
tp3156
g36
I00
S'\xaf\x00\x00\x00B\x00\x00\x00'
p3157
tp3158
bsba(i__main__
FrameData
p3159
(dp3160
g6
g1435
sg8
g9
(g13
S'p\xc4\x9d9\x8dv\x1e@'
p3161
tp3162
Rp3163
sg19
I0
sg20
g21
(S'\x07\xdd\t\x1d\x13\n6\x0ch\xfd'
p3164
tp3165
Rp3166
sg25
I0
sg26
g27
(g28
(I0
tp3167
g30
tp3168
Rp3169
(I1
(I2
tp3170
g36
I00
S'\xaf\x00\x00\x00D\x00\x00\x00'
p3171
tp3172
bsba(i__main__
FrameData
p3173
(dp3174
g6
g1435
sg8
g9
(g13
S'\xfc\xeeci3\xd5\x1a@'
p3175
tp3176
Rp3177
sg19
I0
sg20
g21
(S'\x07\xdd\t\x1d\x13\n6\x0c\xabd'
p3178
tp3179
Rp3180
sg25
I0
sg26
g27
(g28
(I0
tp3181
g30
tp3182
Rp3183
(I1
(I2
tp3184
g36
I00
S'\xaf\x00\x00\x00E\x00\x00\x00'
p3185
tp3186
bsba(i__main__
FrameData
p3187
(dp3188
g6
g1435
sg8
g9
(g13
S'\x00\x00\x00\x00\x00\x00\x14@'
p3189
tp3190
Rp3191
sg19
I0
sg20
g21
(S'\x07\xdd\t\x1d\x13\n6\x0c\xedT'
p3192
tp3193
Rp3194
sg25
I0
sg26
g27
(g28
(I0
tp3195
g30
tp3196
Rp3197
(I1
(I2
tp3198
g36
I00
S'\xaf\x00\x00\x00G\x00\x00\x00'
p3199
tp3200
bsba(i__main__
FrameData
p3201
(dp3202
g6
g1435
sg8
g9
(g13
S'\xf3YaD+\xd8\x0c@'
p3203
tp3204
Rp3205
sg19
I0
sg20
g21
(S'\x07\xdd\t\x1d\x13\n6\r/\xb8'
p3206
tp3207
Rp3208
sg25
I0
sg26
g27
(g28
(I0
tp3209
g30
tp3210
Rp3211
(I1
(I2
tp3212
g36
I00
S'\xaf\x00\x00\x00I\x00\x00\x00'
p3213
tp3214
bsba(i__main__
FrameData
p3215
(dp3216
g6
g1435
sg8
g9
(g13
S'\x00\x00\x00\x00\x00\x00\x08@'
p3217
tp3218
Rp3219
sg19
I0
sg20
g21
(S'\x07\xdd\t\x1d\x13\n6\rl\xa8'
p3220
tp3221
Rp3222
sg25
I0
sg26
g27
(g28
(I0
tp3223
g30
tp3224
Rp3225
(I1
(I2
tp3226
g36
I00
S'\xaf\x00\x00\x00K\x00\x00\x00'
p3227
tp3228
bsba(i__main__
FrameData
p3229
(dp3230
g6
g1435
sg8
g9
(g13
S'S[\xda:XL\t@'
p3231
tp3232
Rp3233
sg19
I0
sg20
g21
(S'\x07\xdd\t\x1d\x13\n6\r\xadx'
p3234
tp3235
Rp3236
sg25
I0
sg26
g27
(g28
(I0
tp3237
g30
tp3238
Rp3239
(I1
(I2
tp3240
g36
I00
S'\xaf\x00\x00\x00L\x00\x00\x00'
p3241
tp3242
bsba(i__main__
FrameData
p3243
(dp3244
g6
g1435
sg8
g9
(g13
S'\xd9l\xdf\xccv\xf8\x10@'
p3245
tp3246
Rp3247
sg19
I0
sg20
g21
(S'\x07\xdd\t\x1d\x13\n6\r\xef\xad'
p3248
tp3249
Rp3250
sg25
I0
sg26
g27
(g28
(I0
tp3251
g30
tp3252
Rp3253
(I1
(I2
tp3254
g36
I00
S'\xaf\x00\x00\x00N\x00\x00\x00'
p3255
tp3256
bsba(i__main__
FrameData
p3257
(dp3258
g6
g1435
sg8
g9
(g13
S'\x00\x00\x00\x00\x00\x00\x14@'
p3259
tp3260
Rp3261
sg19
I0
sg20
g21
(S'\x07\xdd\t\x1d\x13\n6\x0e2\xed'
p3262
tp3263
Rp3264
sg25
I0
sg26
g27
(g28
(I0
tp3265
g30
tp3266
Rp3267
(I1
(I2
tp3268
g36
I00
S'\xaf\x00\x00\x00O\x00\x00\x00'
p3269
tp3270
bsba(i__main__
FrameData
p3271
(dp3272
g6
g1435
sg8
g9
(g13
S'\xa2\xa3\xb3\r\xe5R\x17@'
p3273
tp3274
Rp3275
sg19
I0
sg20
g21
(S'\x07\xdd\t\x1d\x13\n6\x0et\x0e'
p3276
tp3277
Rp3278
sg25
I0
sg26
g27
(g28
(I0
tp3279
g30
tp3280
Rp3281
(I1
(I2
tp3282
g36
I00
S'\xaf\x00\x00\x00P\x00\x00\x00'
p3283
tp3284
bsba(i__main__
FrameData
p3285
(dp3286
g6
g1435
sg8
g9
(g13
S'p\xc4\x9d9\x8dv\x1e@'
p3287
tp3288
Rp3289
sg19
I0
sg20
g21
(S'\x07\xdd\t\x1d\x13\n6\x0e\xb6A'
p3290
tp3291
Rp3292
sg25
I0
sg26
g27
(g28
(I0
tp3293
g30
tp3294
Rp3295
(I1
(I2
tp3296
g36
I00
S'\xaf\x00\x00\x00R\x00\x00\x00'
p3297
tp3298
bsba(i__main__
FrameData
p3299
(dp3300
g6
g1435
sg8
g9
(g13
S'\xa3\x14\xae\xa8\x87\x16!@'
p3301
tp3302
Rp3303
sg19
I0
sg20
g21
(S'\x07\xdd\t\x1d\x13\n6\x0e\xf8p'
p3304
tp3305
Rp3306
sg25
I0
sg26
g27
(g28
(I0
tp3307
g30
tp3308
Rp3309
(I1
(I2
tp3310
g36
I00
S'\xaf\x00\x00\x00S\x00\x00\x00'
p3311
tp3312
bsba(i__main__
FrameData
p3313
(dp3314
g6
g1435
sg8
g9
(g13
S'7\xf9\xcf\xdao\xe1$@'
p3315
tp3316
Rp3317
sg19
I0
sg20
g21
(S'\x07\xdd\t\x1d\x13\n6\x0f4>'
p3318
tp3319
Rp3320
sg25
I0
sg26
g27
(g28
(I0
tp3321
g30
tp3322
Rp3323
(I1
(I2
tp3324
g36
I00
S'\xaf\x00\x00\x00U\x00\x00\x00'
p3325
tp3326
bsba(i__main__
FrameData
p3327
(dp3328
g6
g1435
sg8
g9
(g13
S'\xb3\xa73\xa0`\x0c/@'
p3329
tp3330
Rp3331
sg19
I0
sg20
g21
(S'\x07\xdd\t\x1d\x13\n7\x003\xfd'
p3332
tp3333
Rp3334
sg25
I0
sg26
g27
(g28
(I0
tp3335
g30
tp3336
Rp3337
(I1
(I2
tp3338
g36
I00
S'\xae\x00\x00\x00Z\x00\x00\x00'
p3339
tp3340
bsba(i__main__
FrameData
p3341
(dp3342
g6
g1435
sg8
g9
(g13
S'/vo\xf2\x9ej3@'
p3343
tp3344
Rp3345
sg19
I0
sg20
g21
(S'\x07\xdd\t\x1d\x13\n7\x00vE'
p3346
tp3347
Rp3348
sg25
I0
sg26
g27
(g28
(I0
tp3349
g30
tp3350
Rp3351
(I1
(I2
tp3352
g36
I00
S'\xae\x00\x00\x00^\x00\x00\x00'
p3353
tp3354
bsba(i__main__
FrameData
p3355
(dp3356
g6
g1674
sg8
g9
(g13
S'\xa3\x14\xae\xa8\x87\x161@'
p3357
tp3358
Rp3359
sg19
I0
sg20
g21
(S'\x07\xdd\t\x1d\x13\n7\x00\xb9\x87'
p3360
tp3361
Rp3362
sg25
I0
sg26
g27
(g28
(I0
tp3363
g30
tp3364
Rp3365
(I1
(I2
tp3366
g36
I00
S'\xad\x00\x00\x00b\x00\x00\x00'
p3367
tp3368
bsba(i__main__
FrameData
p3369
(dp3370
g6
g1674
sg8
g9
(g13
S'\xbc\xfdP\xb5U\xdb+@'
p3371
tp3372
Rp3373
sg19
I0
sg20
g21
(S'\x07\xdd\t\x1d\x13\n7\x00\xfa\xa0'
p3374
tp3375
Rp3376
sg25
I0
sg26
g27
(g28
(I0
tp3377
g30
tp3378
Rp3379
(I1
(I2
tp3380
g36
I00
S'\xac\x00\x00\x00e\x00\x00\x00'
p3381
tp3382
bsba(i__main__
FrameData
p3383
(dp3384
g6
g1674
sg8
g9
(g13
S'\x88\x80v\xd5\\\x97$@'
p3385
tp3386
Rp3387
sg19
I0
sg20
g21
(S'\x07\xdd\t\x1d\x13\n7\x01;\xdb'
p3388
tp3389
Rp3390
sg25
I0
sg26
g27
(g28
(I0
tp3391
g30
tp3392
Rp3393
(I1
(I2
tp3394
g36
I00
S'\xac\x00\x00\x00i\x00\x00\x00'
p3395
tp3396
bsba(i__main__
FrameData
p3397
(dp3398
g6
g1674
sg8
g9
(g13
S'\xd0\xbaa?\xe0\x1f @'
p3399
tp3400
Rp3401
sg19
I0
sg20
g21
(S'\x07\xdd\t\x1d\x13\n7\x01\x7f"'
p3402
tp3403
Rp3404
sg25
I0
sg26
g27
(g28
(I0
tp3405
g30
tp3406
Rp3407
(I1
(I2
tp3408
g36
I00
S'\xab\x00\x00\x00k\x00\x00\x00'
p3409
tp3410
bsba(i__main__
FrameData
p3411
(dp3412
g6
g1674
sg8
g9
(g13
S'\xcd;\x7ff\x9e\xa0\x16@'
p3413
tp3414
Rp3415
sg19
I0
sg20
g21
(S'\x07\xdd\t\x1d\x13\n7\x01\xba\x99'
p3416
tp3417
Rp3418
sg25
I0
sg26
g27
(g28
(I0
tp3419
g30
tp3420
Rp3421
(I1
(I2
tp3422
g36
I00
S'\xab\x00\x00\x00n\x00\x00\x00'
p3423
tp3424
bsba(i__main__
FrameData
p3425
(dp3426
g6
g1674
sg8
g9
(g13
S'\xf3YaD+\xd8\x0c@'
p3427
tp3428
Rp3429
sg19
I0
sg20
g21
(S'\x07\xdd\t\x1d\x13\n7\x01\xfc\xf0'
p3430
tp3431
Rp3432
sg25
I0
sg26
g27
(g28
(I0
tp3433
g30
tp3434
Rp3435
(I1
(I2
tp3436
g36
I00
S'\xaa\x00\x00\x00p\x00\x00\x00'
p3437
tp3438
bsba(i__main__
FrameData
p3439
(dp3440
g6
g1674
sg8
g9
(g13
S'\xf3YaD+\xd8\x0c@'
p3441
tp3442
Rp3443
sg19
I0
sg20
g21
(S'\x07\xdd\t\x1d\x13\n7\x02=@'
p3444
tp3445
Rp3446
sg25
I0
sg26
g27
(g28
(I0
tp3447
g30
tp3448
Rp3449
(I1
(I2
tp3450
g36
I00
S'\xaa\x00\x00\x00t\x00\x00\x00'
p3451
tp3452
bsba(i__main__
FrameData
p3453
(dp3454
g6
g1674
sg8
g9
(g13
S'S[\xda:XL\x19@'
p3455
tp3456
Rp3457
sg19
I0
sg20
g21
(S'\x07\xdd\t\x1d\x13\n7\x02\x817'
p3458
tp3459
Rp3460
sg25
I0
sg26
g27
(g28
(I0
tp3461
g30
tp3462
Rp3463
(I1
(I2
tp3464
g36
I00
S'\xa9\x00\x00\x00x\x00\x00\x00'
p3465
tp3466
bsba(i__main__
FrameData
p3467
(dp3468
g6
g1674
sg8
g9
(g13
S'Qf\x99\xcb\xa9\x13*@'
p3469
tp3470
Rp3471
sg19
I0
sg20
g21
(S'\x07\xdd\t\x1d\x13\n7\x02\xc3?'
p3472
tp3473
Rp3474
sg25
I0
sg26
g27
(g28
(I0
tp3475
g30
tp3476
Rp3477
(I1
(I2
tp3478
g36
I00
S'\xa8\x00\x00\x00\x7f\x00\x00\x00'
p3479
tp3480
bsba(i__main__
FrameData
p3481
(dp3482
g6
g1674
sg8
g9
(g13
S'\xc3\xe7Zp\xbb\x063@'
p3483
tp3484
Rp3485
sg19
I0
sg20
g21
(S'\x07\xdd\t\x1d\x13\n7\x03\x05\x97'
p3486
tp3487
Rp3488
sg25
I0
sg26
g27
(g28
(I0
tp3489
g30
tp3490
Rp3491
(I1
(I2
tp3492
g36
I00
S'\xa6\x00\x00\x00\x85\x00\x00\x00'
p3493
tp3494
bsba(i__main__
FrameData
p3495
(dp3496
g6
S'n'
p3497
sg8
g9
(g13
S'/\xa4\xe3\\m\xbb-@'
p3498
tp3499
Rp3500
sg19
I0
sg20
g21
(S'\x07\xdd\t\x1d\x13\n7\x03A?'
p3501
tp3502
Rp3503
sg25
I0
sg26
g27
(g28
(I0
tp3504
g30
tp3505
Rp3506
(I1
(I2
tp3507
g36
I00
S'\xa5\x00\x00\x00\x8b\x00\x00\x00'
p3508
tp3509
bsba(i__main__
FrameData
p3510
(dp3511
g6
g3497
sg8
g9
(g13
S'\xf3\xd9\xa8\xa4h\x8a%@'
p3512
tp3513
Rp3514
sg19
I0
sg20
g21
(S'\x07\xdd\t\x1d\x13\n7\x03\x83^'
p3515
tp3516
Rp3517
sg25
I0
sg26
g27
(g28
(I0
tp3518
g30
tp3519
Rp3520
(I1
(I2
tp3521
g36
I00
S'\xa4\x00\x00\x00\x8f\x00\x00\x00'
p3522
tp3523
bsba(i__main__
FrameData
p3524
(dp3525
g6
g3497
sg8
g9
(g13
S'\xfc\xeeci3\xd5\x1a@'
p3526
tp3527
Rp3528
sg19
I0
sg20
g21
(S'\x07\xdd\t\x1d\x13\n7\x03\xc5\xa1'
p3529
tp3530
Rp3531
sg25
I0
sg26
g27
(g28
(I0
tp3532
g30
tp3533
Rp3534
(I1
(I2
tp3535
g36
I00
S'\xa3\x00\x00\x00\x93\x00\x00\x00'
p3536
tp3537
bsba(i__main__
FrameData
p3538
(dp3539
g6
g3497
sg8
g9
(g13
S'\xf3YaD+\xd8\x0c@'
p3540
tp3541
Rp3542
sg19
I0
sg20
g21
(S'\x07\xdd\t\x1d\x13\n7\x04\x07\xc8'
p3543
tp3544
Rp3545
sg25
I0
sg26
g27
(g28
(I0
tp3546
g30
tp3547
Rp3548
(I1
(I2
tp3549
g36
I00
S'\xa2\x00\x00\x00\x96\x00\x00\x00'
p3550
tp3551
bsba(i__main__
FrameData
p3552
(dp3553
g6
g3497
sg8
g9
(g13
S'\xa8\xf4\x97\x9bw\xe3\x01@'
p3554
tp3555
Rp3556
sg19
I0
sg20
g21
(S'\x07\xdd\t\x1d\x13\n7\x04H\xee'
p3557
tp3558
Rp3559
sg25
I0
sg26
g27
(g28
(I0
tp3560
g30
tp3561
Rp3562
(I1
(I2
tp3563
g36
I00
S'\xa2\x00\x00\x00\x98\x00\x00\x00'
p3564
tp3565
bsba(i__main__
FrameData
p3566
(dp3567
g6
g3497
sg8
g9
(g13
S'\xa8\xf4\x97\x9bw\xe3\x01@'
p3568
tp3569
Rp3570
sg19
I0
sg20
g21
(S'\x07\xdd\t\x1d\x13\n7\x04\x8cC'
p3571
tp3572
Rp3573
sg25
I0
sg26
g27
(g28
(I0
tp3574
g30
tp3575
Rp3576
(I1
(I2
tp3577
g36
I00
S'\xa2\x00\x00\x00\x9a\x00\x00\x00'
p3578
tp3579
bsba(i__main__
FrameData
p3580
(dp3581
g6
g3497
sg8
g9
(g13
S'\xcd;\x7ff\x9e\xa0\xf6?'
p3582
tp3583
Rp3584
sg19
I0
sg20
g21
(S'\x07\xdd\t\x1d\x13\n7\x04\xcek'
p3585
tp3586
Rp3587
sg25
I0
sg26
g27
(g28
(I0
tp3588
g30
tp3589
Rp3590
(I1
(I2
tp3591
g36
I00
S'\xa1\x00\x00\x00\x9a\x00\x00\x00'
p3592
tp3593
bsba(i__main__
FrameData
p3594
(dp3595
g6
g3497
sg8
g9
(g13
S'\xa8\xf4\x97\x9bw\xe3\x01@'
p3596
tp3597
Rp3598
sg19
I0
sg20
g21
(S'\x07\xdd\t\x1d\x13\n7\x05\n\x95'
p3599
tp3600
Rp3601
sg25
I0
sg26
g27
(g28
(I0
tp3602
g30
tp3603
Rp3604
(I1
(I2
tp3605
g36
I00
S'\xa1\x00\x00\x00\x9b\x00\x00\x00'
p3606
tp3607
bsba(i__main__
FrameData
p3608
(dp3609
g6
g3497
sg8
g9
(g13
S'\x07\xed\xaff\x0f~\x10@'
p3610
tp3611
Rp3612
sg19
I0
sg20
g21
(S'\x07\xdd\t\x1d\x13\n7\x05L>'
p3613
tp3614
Rp3615
sg25
I0
sg26
g27
(g28
(I0
tp3616
g30
tp3617
Rp3618
(I1
(I2
tp3619
g36
I00
S'\xa1\x00\x00\x00\x9d\x00\x00\x00'
p3620
tp3621
bsba(i__main__
FrameData
p3622
(dp3623
g6
g3497
sg8
g9
(g13
S'\x00\x00\x00\x00\x00\x00\x14@'
p3624
tp3625
Rp3626
sg19
I0
sg20
g21
(S'\x07\xdd\t\x1d\x13\n7\x05\x8e}'
p3627
tp3628
Rp3629
sg25
I0
sg26
g27
(g28
(I0
tp3630
g30
tp3631
Rp3632
(I1
(I2
tp3633
g36
I00
S'\xa0\x00\x00\x00\x9e\x00\x00\x00'
p3634
tp3635
bsba(i__main__
FrameData
p3636
(dp3637
g6
g3497
sg8
g9
(g13
S'\x00\x00\x00\x00\x00\x00\x18@'
p3638
tp3639
Rp3640
sg19
I0
sg20
g21
(S'\x07\xdd\t\x1d\x13\n7\x05\xd1\xbc'
p3641
tp3642
Rp3643
sg25
I0
sg26
g27
(g28
(I0
tp3644
g30
tp3645
Rp3646
(I1
(I2
tp3647
g36
I00
S'\xa0\x00\x00\x00\x9f\x00\x00\x00'
p3648
tp3649
bsba(i__main__
FrameData
p3650
(dp3651
g6
g3497
sg8
g9
(g13
S'\xc0\n\x1f\x00\xc6H\x1c@'
p3652
tp3653
Rp3654
sg19
I0
sg20
g21
(S'\x07\xdd\t\x1d\x13\n7\x06\x10\xaa'
p3655
tp3656
Rp3657
sg25
I0
sg26
g27
(g28
(I0
tp3658
g30
tp3659
Rp3660
(I1
(I2
tp3661
g36
I00
S'\x9f\x00\x00\x00\xa0\x00\x00\x00'
p3662
tp3663
bsba(i__main__
FrameData
p3664
(dp3665
g6
g3497
sg8
g9
(g13
S'\xd0\xbaa?\xe0\x1f @'
p3666
tp3667
Rp3668
sg19
I0
sg20
g21
(S'\x07\xdd\t\x1d\x13\n7\x06U\x1c'
p3669
tp3670
Rp3671
sg25
I0
sg26
g27
(g28
(I0
tp3672
g30
tp3673
Rp3674
(I1
(I2
tp3675
g36
I00
S'\x9f\x00\x00\x00\xa1\x00\x00\x00'
p3676
tp3677
bsba(i__main__
FrameData
p3678
(dp3679
g6
g3497
sg8
g9
(g13
S'$\xf8\xd9p[\x1c"@'
p3680
tp3681
Rp3682
sg19
I0
sg20
g21
(S'\x07\xdd\t\x1d\x13\n7\x06\x97_'
p3683
tp3684
Rp3685
sg25
I0
sg26
g27
(g28
(I0
tp3686
g30
tp3687
Rp3688
(I1
(I2
tp3689
g36
I00
S'\x9f\x00\x00\x00\xa2\x00\x00\x00'
p3690
tp3691
bsba(i__main__
FrameData
p3692
(dp3693
g6
g3497
sg8
g9
(g13
S'\xd0\xbaa?\xe0\x1f @'
p3694
tp3695
Rp3696
sg19
I0
sg20
g21
(S'\x07\xdd\t\x1d\x13\n7\t\xe6\xe1'
p3697
tp3698
Rp3699
sg25
I0
sg26
g27
(g28
(I0
tp3700
g30
tp3701
Rp3702
(I1
(I2
tp3703
g36
I00
S'\x9f\x00\x00\x00\xa1\x00\x00\x00'
p3704
tp3705
bsba(i__main__
FrameData
p3706
(dp3707
g6
g3497
sg8
g9
(g13
S'\xc0\n\x1f\x00\xc6H\x1c@'
p3708
tp3709
Rp3710
sg19
I0
sg20
g21
(S'\x07\xdd\t\x1d\x13\n7\ng\xd6'
p3711
tp3712
Rp3713
sg25
I0
sg26
g27
(g28
(I0
tp3714
g30
tp3715
Rp3716
(I1
(I2
tp3717
g36
I00
S'\x9f\x00\x00\x00\xa0\x00\x00\x00'
p3718
tp3719
bsba(i__main__
FrameData
p3720
(dp3721
g6
g3497
sg8
g9
(g13
S'9\xdcc\xb3\xbfT\x18@'
p3722
tp3723
Rp3724
sg19
I0
sg20
g21
(S'\x07\xdd\t\x1d\x13\n7\n\xe8\xe4'
p3725
tp3726
Rp3727
sg25
I0
sg26
g27
(g28
(I0
tp3728
g30
tp3729
Rp3730
(I1
(I2
tp3731
g36
I00
S'\x9f\x00\x00\x00\x9f\x00\x00\x00'
p3732
tp3733
bsba(i__main__
FrameData
p3734
(dp3735
g6
g3497
sg8
g9
(g13
S'\xf6/\x12_ee\x14@'
p3736
tp3737
Rp3738
sg19
I0
sg20
g21
(S'\x07\xdd\t\x1d\x13\n7\x0bkF'
p3739
tp3740
Rp3741
sg25
I0
sg26
g27
(g28
(I0
tp3742
g30
tp3743
Rp3744
(I1
(I2
tp3745
g36
I00
S'\x9f\x00\x00\x00\x9e\x00\x00\x00'
p3746
tp3747
bsba(i__main__
FrameData
p3748
(dp3749
g6
g3497
sg8
g9
(g13
S'\x07\xed\xaff\x0f~\x10@'
p3750
tp3751
Rp3752
sg19
I0
sg20
g21
(S'\x07\xdd\t\x1d\x13\n7\x0b\xafc'
p3753
tp3754
Rp3755
sg25
I0
sg26
g27
(g28
(I0
tp3756
g30
tp3757
Rp3758
(I1
(I2
tp3759
g36
I00
S'\x9f\x00\x00\x00\x9d\x00\x00\x00'
p3760
tp3761
bsba(i__main__
FrameData
p3762
(dp3763
g6
g3497
sg8
g9
(g13
S'S[\xda:XL\t@'
p3764
tp3765
Rp3766
sg19
I0
sg20
g21
(S'\x07\xdd\t\x1d\x13\n7\x0c-#'
p3767
tp3768
Rp3769
sg25
I0
sg26
g27
(g28
(I0
tp3770
g30
tp3771
Rp3772
(I1
(I2
tp3773
g36
I00
S'\x9f\x00\x00\x00\x9c\x00\x00\x00'
p3774
tp3775
bsba(i__main__
FrameData
p3776
(dp3777
g6
g3497
sg8
g9
(g13
S'\xa8\xf4\x97\x9bw\xe3\x01@'
p3778
tp3779
Rp3780
sg19
I0
sg20
g21
(S'\x07\xdd\t\x1d\x13\n7\x0c\xb1\x80'
p3781
tp3782
Rp3783
sg25
I0
sg26
g27
(g28
(I0
tp3784
g30
tp3785
Rp3786
(I1
(I2
tp3787
g36
I00
S'\x9f\x00\x00\x00\x9b\x00\x00\x00'
p3788
tp3789
bsba(i__main__
FrameData
p3790
(dp3791
g6
g3497
sg8
g9
(g13
S'\xcd;\x7ff\x9e\xa0\xf6?'
p3792
tp3793
Rp3794
sg19
I0
sg20
g21
(S'\x07\xdd\t\x1d\x13\n7\r5\xed'
p3795
tp3796
Rp3797
sg25
I0
sg26
g27
(g28
(I0
tp3798
g30
tp3799
Rp3800
(I1
(I2
tp3801
g36
I00
S'\x9f\x00\x00\x00\x9a\x00\x00\x00'
p3802
tp3803
bsba(i__main__
FrameData
p3804
(dp3805
g6
g3497
sg8
g9
(g13
S'\x00\x00\x00\x00\x00\x00\xf0?'
p3806
tp3807
Rp3808
sg19
I0
sg20
g21
(S'\x07\xdd\t\x1d\x13\n7\ry\x19'
p3809
tp3810
Rp3811
sg25
I0
sg26
g27
(g28
(I0
tp3812
g30
tp3813
Rp3814
(I1
(I2
tp3815
g36
I00
S'\x9f\x00\x00\x00\x99\x00\x00\x00'
p3816
tp3817
bsba(i__main__
FrameData
p3818
(dp3819
g6
g3497
sg8
g9
(g13
S'\xa8\xf4\x97\x9bw\xe3\x01@'
p3820
tp3821
Rp3822
sg19
I0
sg20
g21
(S'\x07\xdd\t\x1d\x13\n7\r\xb5\x05'
p3823
tp3824
Rp3825
sg25
I0
sg26
g27
(g28
(I0
tp3826
g30
tp3827
Rp3828
(I1
(I2
tp3829
g36
I00
S'\x9f\x00\x00\x00\x97\x00\x00\x00'
p3830
tp3831
bsba(i__main__
FrameData
p3832
(dp3833
g6
g3497
sg8
g9
(g13
S'S[\xda:XL\t@'
p3834
tp3835
Rp3836
sg19
I0
sg20
g21
(S'\x07\xdd\t\x1d\x13\n7\r\xf5\xea'
p3837
tp3838
Rp3839
sg25
I0
sg26
g27
(g28
(I0
tp3840
g30
tp3841
Rp3842
(I1
(I2
tp3843
g36
I00
S'\x9f\x00\x00\x00\x96\x00\x00\x00'
p3844
tp3845
bsba(i__main__
FrameData
p3846
(dp3847
g6
g3497
sg8
g9
(g13
S'\xf3YaD+\xd8\x0c@'
p3848
tp3849
Rp3850
sg19
I0
sg20
g21
(S"\x07\xdd\t\x1d\x13\n7\x0e8'"
p3851
tp3852
Rp3853
sg25
I0
sg26
g27
(g28
(I0
tp3854
g30
tp3855
Rp3856
(I1
(I2
tp3857
g36
I00
S'\x9e\x00\x00\x00\x96\x00\x00\x00'
p3858
tp3859
bsba(i__main__
FrameData
p3860
(dp3861
g6
g3497
sg8
g9
(g13
S'\xa8\xf4\x97\x9bw\xe3\x11@'
p3862
tp3863
Rp3864
sg19
I0
sg20
g21
(S'\x07\xdd\t\x1d\x13\n7\x0ey\x96'
p3865
tp3866
Rp3867
sg25
I0
sg26
g27
(g28
(I0
tp3868
g30
tp3869
Rp3870
(I1
(I2
tp3871
g36
I00
S'\x9e\x00\x00\x00\x95\x00\x00\x00'
p3872
tp3873
bsba(i__main__
FrameData
p3874
(dp3875
g6
g3497
sg8
g9
(g13
S'S[\xda:XL\x19@'
p3876
tp3877
Rp3878
sg19
I0
sg20
g21
(S'\x07\xdd\t\x1d\x13\n7\x0e\xbc\x8b'
p3879
tp3880
Rp3881
sg25
I0
sg26
g27
(g28
(I0
tp3882
g30
tp3883
Rp3884
(I1
(I2
tp3885
g36
I00
S'\x9e\x00\x00\x00\x93\x00\x00\x00'
p3886
tp3887
bsba(i__main__
FrameData
p3888
(dp3889
g6
g3497
sg8
g9
(g13
S'\xe9\xfbv \xd5\x1e\x1d@'
p3890
tp3891
Rp3892
sg19
I0
sg20
g21
(S'\x07\xdd\t\x1d\x13\n7\x0e\xfe\xf8'
p3893
tp3894
Rp3895
sg25
I0
sg26
g27
(g28
(I0
tp3896
g30
tp3897
Rp3898
(I1
(I2
tp3899
g36
I00
S'\x9e\x00\x00\x00\x92\x00\x00\x00'
p3900
tp3901
bsba(i__main__
FrameData
p3902
(dp3903
g6
g3497
sg8
g9
(g13
S'\x9a.\x90!hp"@'
p3904
tp3905
Rp3906
sg19
I0
sg20
g21
(S'\x07\xdd\t\x1d\x13\n7\x0f<8'
p3907
tp3908
Rp3909
sg25
I0
sg26
g27
(g28
(I0
tp3910
g30
tp3911
Rp3912
(I1
(I2
tp3913
g36
I00
S'\x9e\x00\x00\x00\x90\x00\x00\x00'
p3914
tp3915
bsba(i__main__
FrameData
p3916
(dp3917
g6
g3497
sg8
g9
(g13
S'\x8a\xe3\x07\x1a\x17\xbd(@'
p3918
tp3919
Rp3920
sg19
I0
sg20
g21
(S'\x07\xdd\t\x1d\x13\n8\x00A\x06'
p3921
tp3922
Rp3923
sg25
I0
sg26
g27
(g28
(I0
tp3924
g30
tp3925
Rp3926
(I1
(I2
tp3927
g36
I00
S'\x9d\x00\x00\x00\x8d\x00\x00\x00'
p3928
tp3929
bsba(i__main__
FrameData
p3930
(dp3931
g6
g3497
sg8
g9
(g13
S'8H\x9b\x97\xee\xae*@'
p3932
tp3933
Rp3934
sg19
I0
sg20
g21
(S'\x07\xdd\t\x1d\x13\n8\x00|\x9f'
p3935
tp3936
Rp3937
sg25
I0
sg26
g27
(g28
(I0
tp3938
g30
tp3939
Rp3940
(I1
(I2
tp3941
g36
I00
S'\x9d\x00\x00\x00\x8c\x00\x00\x00'
p3942
tp3943
bsba(i__main__
FrameData
p3944
(dp3945
g6
g3497
sg8
g9
(g13
S'\xb3\xa73\xa0`\x0c/@'
p3946
tp3947
Rp3948
sg19
I0
sg20
g21
(S'\x07\xdd\t\x1d\x13\n8\x00\xc5v'
p3949
tp3950
Rp3951
sg25
I0
sg26
g27
(g28
(I0
tp3952
g30
tp3953
Rp3954
(I1
(I2
tp3955
g36
I00
S'\x9c\x00\x00\x00\x8a\x00\x00\x00'
p3956
tp3957
bsba(i__main__
FrameData
p3958
(dp3959
g6
g3497
sg8
g9
(g13
S'\xa0\x96\xf4\xe0T\xb81@'
p3960
tp3961
Rp3962
sg19
I0
sg20
g21
(S'\x07\xdd\t\x1d\x13\n8\x01\x01\x05'
p3963
tp3964
Rp3965
sg25
I0
sg26
g27
(g28
(I0
tp3966
g30
tp3967
Rp3968
(I1
(I2
tp3969
g36
I00
S'\x9b\x00\x00\x00\x88\x00\x00\x00'
p3970
tp3971
bsba(i__main__
FrameData
p3972
(dp3973
g6
g3497
sg8
g9
(g13
S'7\xf9\xcf\xdao\xe14@'
p3974
tp3975
Rp3976
sg19
I0
sg20
g21
(S'\x07\xdd\t\x1d\x13\n8\x01CN'
p3977
tp3978
Rp3979
sg25
I0
sg26
g27
(g28
(I0
tp3980
g30
tp3981
Rp3982
(I1
(I2
tp3983
g36
I00
S'\x9a\x00\x00\x00\x85\x00\x00\x00'
p3984
tp3985
bsba(i__main__
FrameData
p3986
(dp3987
g6
S'h'
p3988
sg8
g9
(g13
S'\xbf\x8f+\t\x89[2@'
p3989
tp3990
Rp3991
sg19
I0
sg20
g21
(S'\x07\xdd\t\x1d\x13\n8\x01\x82\x15'
p3992
tp3993
Rp3994
sg25
I0
sg26
g27
(g28
(I0
tp3995
g30
tp3996
Rp3997
(I1
(I2
tp3998
g36
I00
S'\x99\x00\x00\x00\x82\x00\x00\x00'
p3999
tp4000
bsba(i__main__
FrameData
p4001
(dp4002
g6
g3988
sg8
g9
(g13
S'\xd0\xbaa?\xe0\x1f0@'
p4003
tp4004
Rp4005
sg19
I0
sg20
g21
(S'\x07\xdd\t\x1d\x13\n8\x01\xc2r'
p4006
tp4007
Rp4008
sg25
I0
sg26
g27
(g28
(I0
tp4009
g30
tp4010
Rp4011
(I1
(I2
tp4012
g36
I00
S'\x98\x00\x00\x00\x80\x00\x00\x00'
p4013
tp4014
bsba(i__main__
FrameData
p4015
(dp4016
g6
g3988
sg8
g9
(g13
S'\xc5Bl?W\x87.@'
p4017
tp4018
Rp4019
sg19
I0
sg20
g21
(S'\x07\xdd\t\x1d\x13\n8\x02\n\x87'
p4020
tp4021
Rp4022
sg25
I0
sg26
g27
(g28
(I0
tp4023
g30
tp4024
Rp4025
(I1
(I2
tp4026
g36
I00
S'\x98\x00\x00\x00\x7f\x00\x00\x00'
p4027
tp4028
bsba(i__main__
FrameData
p4029
(dp4030
g6
g3988
sg8
g9
(g13
S'\x00\x00\x00\x00\x00\x00$@'
p4031
tp4032
Rp4033
sg19
I0
sg20
g21
(S'\x07\xdd\t\x1d\x13\n8\x02F\x8b'
p4034
tp4035
Rp4036
sg25
I0
sg26
g27
(g28
(I0
tp4037
g30
tp4038
Rp4039
(I1
(I2
tp4040
g36
I00
S'\x96\x00\x00\x00z\x00\x00\x00'
p4041
tp4042
bsba(i__main__
FrameData
p4043
(dp4044
g6
g3988
sg8
g9
(g13
S'htN\x17\xb2=\x1f@'
p4045
tp4046
Rp4047
sg19
I0
sg20
g21
(S'\x07\xdd\t\x1d\x13\n8\x02\x87\xc3'
p4048
tp4049
Rp4050
sg25
I0
sg26
g27
(g28
(I0
tp4051
g30
tp4052
Rp4053
(I1
(I2
tp4054
g36
I00
S'\x95\x00\x00\x00x\x00\x00\x00'
p4055
tp4056
bsba(i__main__
FrameData
p4057
(dp4058
g6
g3988
sg8
g9
(g13
S'\x00\xff\x9f\x99\xcc\x9c\x19@'
p4059
tp4060
Rp4061
sg19
I0
sg20
g21
(S'\x07\xdd\t\x1d\x13\n8\x02\xc9\xce'
p4062
tp4063
Rp4064
sg25
I0
sg26
g27
(g28
(I0
tp4065
g30
tp4066
Rp4067
(I1
(I2
tp4068
g36
I00
S'\x95\x00\x00\x00v\x00\x00\x00'
p4069
tp4070
bsba(i__main__
FrameData
p4071
(dp4072
g6
g3988
sg8
g9
(g13
S'\xf3YaD+\xd8\x0c@'
p4073
tp4074
Rp4075
sg19
I0
sg20
g21
(S'\x07\xdd\t\x1d\x13\n8\x03\x0cZ'
p4076
tp4077
Rp4078
sg25
I0
sg26
g27
(g28
(I0
tp4079
g30
tp4080
Rp4081
(I1
(I2
tp4082
g36
I00
S'\x93\x00\x00\x00t\x00\x00\x00'
p4083
tp4084
bsba(i__main__
FrameData
p4085
(dp4086
g6
g3988
sg8
g9
(g13
S'\x00\x00\x00\x00\x00\x00\x08@'
p4087
tp4088
Rp4089
sg19
I0
sg20
g21
(S'\x07\xdd\t\x1d\x13\n8\x03NY'
p4090
tp4091
Rp4092
sg25
I0
sg26
g27
(g28
(I0
tp4093
g30
tp4094
Rp4095
(I1
(I2
tp4096
g36
I00
S'\x93\x00\x00\x00r\x00\x00\x00'
p4097
tp4098
bsba(i__main__
FrameData
p4099
(dp4100
g6
g3988
sg8
g9
(g13
S'\xa8\xf4\x97\x9bw\xe3\x01@'
p4101
tp4102
Rp4103
sg19
I0
sg20
g21
(S'\x07\xdd\t\x1d\x13\n8\x03\x91\x18'
p4104
tp4105
Rp4106
sg25
I0
sg26
g27
(g28
(I0
tp4107
g30
tp4108
Rp4109
(I1
(I2
tp4110
g36
I00
S'\x92\x00\x00\x00q\x00\x00\x00'
p4111
tp4112
bsba(i__main__
FrameData
p4113
(dp4114
g6
g3988
sg8
g9
(g13
S'\xf3YaD+\xd8\x0c@'
p4115
tp4116
Rp4117
sg19
I0
sg20
g21
(S'\x07\xdd\t\x1d\x13\n8\x03\xd2\xba'
p4118
tp4119
Rp4120
sg25
I0
sg26
g27
(g28
(I0
tp4121
g30
tp4122
Rp4123
(I1
(I2
tp4124
g36
I00
S'\x92\x00\x00\x00o\x00\x00\x00'
p4125
tp4126
bsba(i__main__
FrameData
p4127
(dp4128
g6
g3988
sg8
g9
(g13
S'\x07\xed\xaff\x0f~\x10@'
p4129
tp4130
Rp4131
sg19
I0
sg20
g21
(S'\x07\xdd\t\x1d\x13\n8\x04\x0eB'
p4132
tp4133
Rp4134
sg25
I0
sg26
g27
(g28
(I0
tp4135
g30
tp4136
Rp4137
(I1
(I2
tp4138
g36
I00
S'\x91\x00\x00\x00n\x00\x00\x00'
p4139
tp4140
bsba(i__main__
FrameData
p4141
(dp4142
g6
g3988
sg8
g9
(g13
S'\xf6/\x12_ee\x14@'
p4143
tp4144
Rp4145
sg19
I0
sg20
g21
(S'\x07\xdd\t\x1d\x13\n8\x04\x94\x14'
p4146
tp4147
Rp4148
sg25
I0
sg26
g27
(g28
(I0
tp4149
g30
tp4150
Rp4151
(I1
(I2
tp4152
g36
I00
S'\x91\x00\x00\x00m\x00\x00\x00'
p4153
tp4154
bsba(i__main__
FrameData
p4155
(dp4156
g6
g3988
sg8
g9
(g13
S'\x00\x00\x00\x00\x00\x00\x18@'
p4157
tp4158
Rp4159
sg19
I0
sg20
g21
(S'\x07\xdd\t\x1d\x13\n8\x04\xd4\xf6'
p4160
tp4161
Rp4162
sg25
I0
sg26
g27
(g28
(I0
tp4163
g30
tp4164
Rp4165
(I1
(I2
tp4166
g36
I00
S'\x90\x00\x00\x00l\x00\x00\x00'
p4167
tp4168
bsba(i__main__
FrameData
p4169
(dp4170
g6
g3988
sg8
g9
(g13
S'\xc0\n\x1f\x00\xc6H\x1c@'
p4171
tp4172
Rp4173
sg19
I0
sg20
g21
(S'\x07\xdd\t\x1d\x13\n8\x05Y@'
p4174
tp4175
Rp4176
sg25
I0
sg26
g27
(g28
(I0
tp4177
g30
tp4178
Rp4179
(I1
(I2
tp4180
g36
I00
S'\x8f\x00\x00\x00k\x00\x00\x00'
p4181
tp4182
bsba(i__main__
FrameData
p4183
(dp4184
g6
g3988
sg8
g9
(g13
S'\xe9\xfbv \xd5\x1e\x1d@'
p4185
tp4186
Rp4187
sg19
I0
sg20
g21
(S'\x07\xdd\t\x1d\x13\n8\x05\x94\xf4'
p4188
tp4189
Rp4190
sg25
I0
sg26
g27
(g28
(I0
tp4191
g30
tp4192
Rp4193
(I1
(I2
tp4194
g36
I00
S'\x8e\x00\x00\x00k\x00\x00\x00'
p4195
tp4196
bsba(i__main__
FrameData
p4197
(dp4198
g6
g3988
sg8
g9
(g13
S'\x07\xed\xaff\x0f~ @'
p4199
tp4200
Rp4201
sg19
I0
sg20
g21
(S'\x07\xdd\t\x1d\x13\n8\x06[z'
p4202
tp4203
Rp4204
sg25
I0
sg26
g27
(g28
(I0
tp4205
g30
tp4206
Rp4207
(I1
(I2
tp4208
g36
I00
S'\x8e\x00\x00\x00j\x00\x00\x00'
p4209
tp4210
bsba(i__main__
FrameData
p4211
(dp4212
g6
g3988
sg8
g9
(g13
S'\xa8\xf4\x97\x9bw\xe3!@'
p4213
tp4214
Rp4215
sg19
I0
sg20
g21
(S'\x07\xdd\t\x1d\x13\n8\x08\xa4.'
p4216
tp4217
Rp4218
sg25
I0
sg26
g27
(g28
(I0
tp4219
g30
tp4220
Rp4221
(I1
(I2
tp4222
g36
I00
S'\x8c\x00\x00\x00j\x00\x00\x00'
p4223
tp4224
bsba(i__main__
FrameData
p4225
(dp4226
g6
g3988
sg8
g9
(g13
S'A\x87b\xc62\xde"@'
p4227
tp4228
Rp4229
sg19
I0
sg20
g21
(S'\x07\xdd\t\x1d\x13\n8\n/R'
p4230
tp4231
Rp4232
sg25
I0
sg26
g27
(g28
(I0
tp4233
g30
tp4234
Rp4235
(I1
(I2
tp4236
g36
I00
S'\x8b\x00\x00\x00j\x00\x00\x00'
p4237
tp4238
bsba(i__main__
FrameData
p4239
(dp4240
g6
g3988
sg8
g9
(g13
S'\x00\x00\x00\x00\x00\x00$@'
p4241
tp4242
Rp4243
sg19
I0
sg20
g21
(S'\x07\xdd\t\x1d\x13\n8\n\xaf\xb0'
p4244
tp4245
Rp4246
sg25
I0
sg26
g27
(g28
(I0
tp4247
g30
tp4248
Rp4249
(I1
(I2
tp4250
g36
I00
S'\x8a\x00\x00\x00j\x00\x00\x00'
p4251
tp4252
bsba(i__main__
FrameData
p4253
(dp4254
g6
g3988
sg8
g9
(g13
S'6\xd0\xd2x\xa2B%@'
p4255
tp4256
Rp4257
sg19
I0
sg20
g21
(S'\x07\xdd\t\x1d\x13\n8\n\xf6\x03'
p4258
tp4259
Rp4260
sg25
I0
sg26
g27
(g28
(I0
tp4261
g30
tp4262
Rp4263
(I1
(I2
tp4264
g36
I00
S'\x89\x00\x00\x00j\x00\x00\x00'
p4265
tp4266
bsba(i__main__
FrameData
p4267
(dp4268
g6
g3988
sg8
g9
(g13
S'\xcd;\x7ff\x9e\xa0&@'
p4269
tp4270
Rp4271
sg19
I0
sg20
g21
(S'\x07\xdd\t\x1d\x13\n8\x0bu\xe9'
p4272
tp4273
Rp4274
sg25
I0
sg26
g27
(g28
(I0
tp4275
g30
tp4276
Rp4277
(I1
(I2
tp4278
g36
I00
S'\x88\x00\x00\x00j\x00\x00\x00'
p4279
tp4280
bsba(i__main__
FrameData
p4281
(dp4282
g6
g3988
sg8
g9
(g13
S'&5w\xe2K\x15(@'
p4283
tp4284
Rp4285
sg19
I0
sg20
g21
(S'\x07\xdd\t\x1d\x13\n8\x0b\xb5\xf3'
p4286
tp4287
Rp4288
sg25
I0
sg26
g27
(g28
(I0
tp4289
g30
tp4290
Rp4291
(I1
(I2
tp4292
g36
I00
S'\x87\x00\x00\x00j\x00\x00\x00'
p4293
tp4294
bsba(i__main__
FrameData
p4295
(dp4296
g6
g3988
sg8
g9
(g13
S'\xef\rI\xf1\xf33+@'
p4297
tp4298
Rp4299
sg19
I0
sg20
g21
(S'\x07\xdd\t\x1d\x13\n8\x0b\xf4b'
p4300
tp4301
Rp4302
sg25
I0
sg26
g27
(g28
(I0
tp4303
g30
tp4304
Rp4305
(I1
(I2
tp4306
g36
I00
S'\x85\x00\x00\x00j\x00\x00\x00'
p4307
tp4308
bsba(i__main__
FrameData
p4309
(dp4310
g6
S'g'
p4311
sg8
g9
(g13
S'\xf3YaD+\xd8,@'
p4312
tp4313
Rp4314
sg19
I0
sg20
g21
(S'\x07\xdd\t\x1d\x13\n8\x0c;\x9f'
p4315
tp4316
Rp4317
sg25
I0
sg26
g27
(g28
(I0
tp4318
g30
tp4319
Rp4320
(I1
(I2
tp4321
g36
I00
S'\x84\x00\x00\x00j\x00\x00\x00'
p4322
tp4323
bsba(i__main__
FrameData
p4324
(dp4325
g6
g4311
sg8
g9
(g13
S'\x00\xff\x9f\x99\xcc\x9c)@'
p4326
tp4327
Rp4328
sg19
I0
sg20
g21
(S'\x07\xdd\t\x1d\x13\n8\x0cv\xbf'
p4329
tp4330
Rp4331
sg25
I0
sg26
g27
(g28
(I0
tp4332
g30
tp4333
Rp4334
(I1
(I2
tp4335
g36
I00
S'\x82\x00\x00\x00j\x00\x00\x00'
p4336
tp4337
bsba(i__main__
FrameData
p4338
(dp4339
g6
g4311
sg8
g9
(g13
S'\xeb\x12\xb2\xbb\xb2\xcd&@'
p4340
tp4341
Rp4342
sg19
I0
sg20
g21
(S'\x07\xdd\t\x1d\x13\n8\x0c\xb7\xfd'
p4343
tp4344
Rp4345
sg25
I0
sg26
g27
(g28
(I0
tp4346
g30
tp4347
Rp4348
(I1
(I2
tp4349
g36
I00
S'\x81\x00\x00\x00k\x00\x00\x00'
p4350
tp4351
bsba(i__main__
FrameData
p4352
(dp4353
g6
g4311
sg8
g9
(g13
S'6\xd0\xd2x\xa2B%@'
p4354
tp4355
Rp4356
sg19
I0
sg20
g21
(S'\x07\xdd\t\x1d\x13\n8\x0c\xfb\x96'
p4357
tp4358
Rp4359
sg25
I0
sg26
g27
(g28
(I0
tp4360
g30
tp4361
Rp4362
(I1
(I2
tp4363
g36
I00
S'\x80\x00\x00\x00k\x00\x00\x00'
p4364
tp4365
bsba(i__main__
FrameData
p4366
(dp4367
g6
g4311
sg8
g9
(g13
S'ST\xaf\x99\x8a\xcc#@'
p4368
tp4369
Rp4370
sg19
I0
sg20
g21
(S'\x07\xdd\t\x1d\x13\n8\r<\x93'
p4371
tp4372
Rp4373
sg25
I0
sg26
g27
(g28
(I0
tp4374
g30
tp4375
Rp4376
(I1
(I2
tp4377
g36
I00
S'\x7f\x00\x00\x00k\x00\x00\x00'
p4378
tp4379
bsba(i__main__
FrameData
p4380
(dp4381
g6
g4311
sg8
g9
(g13
S'\xd9l\xdf\xccv\xf8 @'
p4382
tp4383
Rp4384
sg19
I0
sg20
g21
(S'\x07\xdd\t\x1d\x13\n8\r~\xc8'
p4385
tp4386
Rp4387
sg25
I0
sg26
g27
(g28
(I0
tp4388
g30
tp4389
Rp4390
(I1
(I2
tp4391
g36
I00
S'~\x00\x00\x00l\x00\x00\x00'
p4392
tp4393
bsba(i__main__
FrameData
p4394
(dp4395
g6
g4311
sg8
g9
(g13
S'\xf3YaD+\xd8\x1c@'
p4396
tp4397
Rp4398
sg19
I0
sg20
g21
(S'\x07\xdd\t\x1d\x13\n8\r\xbeF'
p4399
tp4400
Rp4401
sg25
I0
sg26
g27
(g28
(I0
tp4402
g30
tp4403
Rp4404
(I1
(I2
tp4405
g36
I00
S'|\x00\x00\x00l\x00\x00\x00'
p4406
tp4407
bsba(i__main__
FrameData
p4408
(dp4409
g6
g4311
sg8
g9
(g13
S'\xa2\xa3\xb3\r\xe5R\x17@'
p4410
tp4411
Rp4412
sg19
I0
sg20
g21
(S'\x07\xdd\t\x1d\x13\n8\x0e\x03J'
p4413
tp4414
Rp4415
sg25
I0
sg26
g27
(g28
(I0
tp4416
g30
tp4417
Rp4418
(I1
(I2
tp4419
g36
I00
S'{\x00\x00\x00m\x00\x00\x00'
p4420
tp4421
bsba(i__main__
FrameData
p4422
(dp4423
g6
g4311
sg8
g9
(g13
S'\xf3\xd9\xa8\xa4h\x8a\x15@'
p4424
tp4425
Rp4426
sg19
I0
sg20
g21
(S'\x07\xdd\t\x1d\x13\n8\x0eEx'
p4427
tp4428
Rp4429
sg25
I0
sg26
g27
(g28
(I0
tp4430
g30
tp4431
Rp4432
(I1
(I2
tp4433
g36
I00
S'z\x00\x00\x00m\x00\x00\x00'
p4434
tp4435
bsba(i__main__
FrameData
p4436
(dp4437
g6
g4311
sg8
g9
(g13
S'\xf6/\x12_ee\x14@'
p4438
tp4439
Rp4440
sg19
I0
sg20
g21
(S'\x07\xdd\t\x1d\x13\n8\x0e\x825'
p4441
tp4442
Rp4443
sg25
I0
sg26
g27
(g28
(I0
tp4444
g30
tp4445
Rp4446
(I1
(I2
tp4447
g36
I00
S'y\x00\x00\x00m\x00\x00\x00'
p4448
tp4449
bsba(i__main__
FrameData
p4450
(dp4451
g6
g4311
sg8
g9
(g13
S'\x00\x00\x00\x00\x00\x00\x14@'
p4452
tp4453
Rp4454
sg19
I0
sg20
g21
(S'\x07\xdd\t\x1d\x13\n8\x0f\x05v'
p4455
tp4456
Rp4457
sg25
I0
sg26
g27
(g28
(I0
tp4458
g30
tp4459
Rp4460
(I1
(I2
tp4461
g36
I00
S'x\x00\x00\x00m\x00\x00\x00'
p4462
tp4463
bsbasS'_fileName'
p4464
S'training/trajectory2013-09-29_19:10:43.054286'
p4465
sS'word'
p4466
S'swimming'
p4467
sb.