(i__main__
SwypeTrajectory
p0
(dp1
S'_frameDataList'
p2
(lp3
(i__main__
FrameData
p4
(dp5
S'closestLetter'
p6
S'h'
p7
sS'letterDistance'
p8
cnumpy.core.multiarray
scalar
p9
(cnumpy
dtype
p10
(S'f8'
p11
I0
I1
tp12
Rp13
(I3
S'<'
p14
NNNI-1
I-1
I0
tp15
bS'\xa8\xf4\x97\x9bw\xe3\x11@'
p16
tp17
Rp18
sS'accel'
p19
I0
sS'time'
p20
cdatetime
datetime
p21
(S'\x07\xdd\t\x1d\x13\x14\r\x07\x17z'
p22
tp23
Rp24
sS'velocity'
p25
I0
sS'position'
p26
cnumpy.core.multiarray
_reconstruct
p27
(cnumpy
ndarray
p28
(I0
tp29
S'b'
p30
tp31
Rp32
(I1
(I2
tp33
g10
(S'i4'
p34
I0
I1
tp35
Rp36
(I3
S'<'
p37
NNNI-1
I-1
I0
tp38
bI00
S'\x92\x00\x00\x00v\x00\x00\x00'
p39
tp40
bsba(i__main__
FrameData
p41
(dp42
g6
g7
sg8
g9
(g13
S'S[\xda:XL\t@'
p43
tp44
Rp45
sg19
I0
sg20
g21
(S'\x07\xdd\t\x1d\x13\x14\r\x07X1'
p46
tp47
Rp48
sg25
I0
sg26
g27
(g28
(I0
tp49
g30
tp50
Rp51
(I1
(I2
tp52
g36
I00
S'\x8f\x00\x00\x00u\x00\x00\x00'
p53
tp54
bsba(i__main__
FrameData
p55
(dp56
g6
g7
sg8
g9
(g13
S'\x00\x00\x00\x00\x00\x00\x18@'
p57
tp58
Rp59
sg19
I0
sg20
g21
(S'\x07\xdd\t\x1d\x13\x14\r\x07\x9a\x98'
p60
tp61
Rp62
sg25
I0
sg26
g27
(g28
(I0
tp63
g30
tp64
Rp65
(I1
(I2
tp66
g36
I00
S'\x8a\x00\x00\x00r\x00\x00\x00'
p67
tp68
bsba(i__main__
FrameData
p69
(dp70
g6
g7
sg8
g9
(g13
S'\xeb\x12\xb2\xbb\xb2\xcd&@'
p71
tp72
Rp73
sg19
I0
sg20
g21
(S'\x07\xdd\t\x1d\x13\x14\r\x07\xd8$'
p74
tp75
Rp76
sg25
I0
sg26
g27
(g28
(I0
tp77
g30
tp78
Rp79
(I1
(I2
tp80
g36
I00
S'\x85\x00\x00\x00o\x00\x00\x00'
p81
tp82
bsba(i__main__
FrameData
p83
(dp84
g6
S'g'
p85
sg8
g9
(g13
S'\xa8\xf4\x97\x9bw\xe3!@'
p86
tp87
Rp88
sg19
I0
sg20
g21
(S'\x07\xdd\t\x1d\x13\x14\r\x08\x19\x87'
p89
tp90
Rp91
sg25
I0
sg26
g27
(g28
(I0
tp92
g30
tp93
Rp94
(I1
(I2
tp95
g36
I00
S'\x80\x00\x00\x00n\x00\x00\x00'
p96
tp97
bsba(i__main__
FrameData
p98
(dp99
g6
g85
sg8
g9
(g13
S'\x00\xff\x9f\x99\xcc\x9c\x19@'
p100
tp101
Rp102
sg19
I0
sg20
g21
(S'\x07\xdd\t\x1d\x13\x14\r\x08^\x9b'
p103
tp104
Rp105
sg25
I0
sg26
g27
(g28
(I0
tp106
g30
tp107
Rp108
(I1
(I2
tp109
g36
I00
S'|\x00\x00\x00m\x00\x00\x00'
p110
tp111
bsba(i__main__
FrameData
p112
(dp113
g6
g85
sg8
g9
(g13
S'9\xdcc\xb3\xbfT\x18@'
p114
tp115
Rp116
sg19
I0
sg20
g21
(S'\x07\xdd\t\x1d\x13\x14\r\x08\x9d\xb1'
p117
tp118
Rp119
sg25
I0
sg26
g27
(g28
(I0
tp120
g30
tp121
Rp122
(I1
(I2
tp123
g36
I00
S'y\x00\x00\x00l\x00\x00\x00'
p124
tp125
bsba(i__main__
FrameData
p126
(dp127
g6
g85
sg8
g9
(g13
S'\xfc\xeeci3\xd5\x1a@'
p128
tp129
Rp130
sg19
I0
sg20
g21
(S'\x07\xdd\t\x1d\x13\x14\r\x08\xdf\xec'
p131
tp132
Rp133
sg25
I0
sg26
g27
(g28
(I0
tp134
g30
tp135
Rp136
(I1
(I2
tp137
g36
I00
S'u\x00\x00\x00l\x00\x00\x00'
p138
tp139
bsba(i__main__
FrameData
p140
(dp141
g6
g85
sg8
g9
(g13
S'6\xd0\xd2x\xa2B%@'
p142
tp143
Rp144
sg19
I0
sg20
g21
(S'\x07\xdd\t\x1d\x13\x14\r\t"E'
p145
tp146
Rp147
sg25
I0
sg26
g27
(g28
(I0
tp148
g30
tp149
Rp150
(I1
(I2
tp151
g36
I00
S'p\x00\x00\x00k\x00\x00\x00'
p152
tp153
bsba(i__main__
FrameData
p154
(dp155
g6
S'f'
p156
sg8
g9
(g13
S'F\xc3\\\xa8\xc1i(@'
p157
tp158
Rp159
sg19
I0
sg20
g21
(S'\x07\xdd\t\x1d\x13\x14\r\td\x87'
p160
tp161
Rp162
sg25
I0
sg26
g27
(g28
(I0
tp163
g30
tp164
Rp165
(I1
(I2
tp166
g36
I00
S'j\x00\x00\x00k\x00\x00\x00'
p167
tp168
bsba(i__main__
FrameData
p169
(dp170
g6
g156
sg8
g9
(g13
S'N\x017\xfac4!@'
p171
tp172
Rp173
sg19
I0
sg20
g21
(S'\x07\xdd\t\x1d\x13\x14\r\t\xa3\xfd'
p174
tp175
Rp176
sg25
I0
sg26
g27
(g28
(I0
tp177
g30
tp178
Rp179
(I1
(I2
tp180
g36
I00
S'e\x00\x00\x00k\x00\x00\x00'
p181
tp182
bsba(i__main__
FrameData
p183
(dp184
g6
g156
sg8
g9
(g13
S'\x9a.\x90!hp"@'
p185
tp186
Rp187
sg19
I0
sg20
g21
(S'\x07\xdd\t\x1d\x13\x14\r\t\xe4\xb4'
p188
tp189
Rp190
sg25
I0
sg26
g27
(g28
(I0
tp191
g30
tp192
Rp193
(I1
(I2
tp194
g36
I00
S'^\x00\x00\x00i\x00\x00\x00'
p195
tp196
bsba(i__main__
FrameData
p197
(dp198
g6
g156
sg8
g9
(g13
S'F#O3\xb2t)@'
p199
tp200
Rp201
sg19
I0
sg20
g21
(S'\x07\xdd\t\x1d\x13\x14\r\n$('
p202
tp203
Rp204
sg25
I0
sg26
g27
(g28
(I0
tp205
g30
tp206
Rp207
(I1
(I2
tp208
g36
I00
S'W\x00\x00\x00i\x00\x00\x00'
p209
tp210
bsba(i__main__
FrameData
p211
(dp212
g6
S'd'
p213
sg8
g9
(g13
S'6\xd0\xd2x\xa2B%@'
p214
tp215
Rp216
sg19
I0
sg20
g21
(S'\x07\xdd\t\x1d\x13\x14\r\nd\xaf'
p217
tp218
Rp219
sg25
I0
sg26
g27
(g28
(I0
tp220
g30
tp221
Rp222
(I1
(I2
tp223
g36
I00
S'P\x00\x00\x00i\x00\x00\x00'
p224
tp225
bsba(i__main__
FrameData
p226
(dp227
g6
g213
sg8
g9
(g13
S'\x07\xed\xaff\x0f~ @'
p228
tp229
Rp230
sg19
I0
sg20
g21
(S'\x07\xdd\t\x1d\x13\x14\r\n\xa77'
p231
tp232
Rp233
sg25
I0
sg26
g27
(g28
(I0
tp234
g30
tp235
Rp236
(I1
(I2
tp237
g36
I00
S'K\x00\x00\x00i\x00\x00\x00'
p238
tp239
bsba(i__main__
FrameData
p240
(dp241
g6
g213
sg8
g9
(g13
S'\xd0\xbaa?\xe0\x1f @'
p242
tp243
Rp244
sg19
I0
sg20
g21
(S'\x07\xdd\t\x1d\x13\x14\r\n\xe9d'
p245
tp246
Rp247
sg25
I0
sg26
g27
(g28
(I0
tp248
g30
tp249
Rp250
(I1
(I2
tp251
g36
I00
S'H\x00\x00\x00i\x00\x00\x00'
p252
tp253
bsba(i__main__
FrameData
p254
(dp255
g6
g213
sg8
g9
(g13
S'\xa8\xf4\x97\x9bw\xe3!@'
p256
tp257
Rp258
sg19
I0
sg20
g21
(S'\x07\xdd\t\x1d\x13\x14\r\x0b(\x9d'
p259
tp260
Rp261
sg25
I0
sg26
g27
(g28
(I0
tp262
g30
tp263
Rp264
(I1
(I2
tp265
g36
I00
S'E\x00\x00\x00i\x00\x00\x00'
p266
tp267
bsba(i__main__
FrameData
p268
(dp269
g6
g213
sg8
g9
(g13
S'\x00\x00\x00\x00\x00\x00$@'
p270
tp271
Rp272
sg19
I0
sg20
g21
(S'\x07\xdd\t\x1d\x13\x14\r\x0bl@'
p273
tp274
Rp275
sg25
I0
sg26
g27
(g28
(I0
tp276
g30
tp277
Rp278
(I1
(I2
tp279
g36
I00
S'C\x00\x00\x00i\x00\x00\x00'
p280
tp281
bsba(i__main__
FrameData
p282
(dp283
g6
g213
sg8
g9
(g13
S'\xcd;\x7ff\x9e\xa0&@'
p284
tp285
Rp286
sg19
I0
sg20
g21
(S'\x07\xdd\t\x1d\x13\x14\r\x0b\xaap'
p287
tp288
Rp289
sg25
I0
sg26
g27
(g28
(I0
tp290
g30
tp291
Rp292
(I1
(I2
tp293
g36
I00
S'A\x00\x00\x00i\x00\x00\x00'
p294
tp295
bsba(i__main__
FrameData
p296
(dp297
g6
g213
sg8
g9
(g13
S'Qf\x99\xcb\xa9\x13*@'
p298
tp299
Rp300
sg19
I0
sg20
g21
(S'\x07\xdd\t\x1d\x13\x14\r\x0b\xec\xa6'
p301
tp302
Rp303
sg25
I0
sg26
g27
(g28
(I0
tp304
g30
tp305
Rp306
(I1
(I2
tp307
g36
I00
S'>\x00\x00\x00j\x00\x00\x00'
p308
tp309
bsba(i__main__
FrameData
p310
(dp311
g6
S's'
p312
sg8
g9
(g13
S"\xa2\xa3\xb3\r\xe5R'@"
p313
tp314
Rp315
sg19
I0
sg20
g21
(S'\x07\xdd\t\x1d\x13\x14\r\x0c-}'
p316
tp317
Rp318
sg25
I0
sg26
g27
(g28
(I0
tp319
g30
tp320
Rp321
(I1
(I2
tp322
g36
I00
S';\x00\x00\x00k\x00\x00\x00'
p323
tp324
bsba(i__main__
FrameData
p325
(dp326
g6
g312
sg8
g9
(g13
S'N\x017\xfac4!@'
p327
tp328
Rp329
sg19
I0
sg20
g21
(S'\x07\xdd\t\x1d\x13\x14\r\x0crt'
p330
tp331
Rp332
sg25
I0
sg26
g27
(g28
(I0
tp333
g30
tp334
Rp335
(I1
(I2
tp336
g36
I00
S'8\x00\x00\x00l\x00\x00\x00'
p337
tp338
bsba(i__main__
FrameData
p339
(dp340
g6
g312
sg8
g9
(g13
S'\xcd;\x7ff\x9e\xa0\x16@'
p341
tp342
Rp343
sg19
I0
sg20
g21
(S'\x07\xdd\t\x1d\x13\x14\r\x0c\xb0\xa0'
p344
tp345
Rp346
sg25
I0
sg26
g27
(g28
(I0
tp347
g30
tp348
Rp349
(I1
(I2
tp350
g36
I00
S'5\x00\x00\x00m\x00\x00\x00'
p351
tp352
bsba(i__main__
FrameData
p353
(dp354
g6
g312
sg8
g9
(g13
S'\xa8\xf4\x97\x9bw\xe3\x11@'
p355
tp356
Rp357
sg19
I0
sg20
g21
(S"\x07\xdd\t\x1d\x13\x14\r\x0c\xf2'"
p358
tp359
Rp360
sg25
I0
sg26
g27
(g28
(I0
tp361
g30
tp362
Rp363
(I1
(I2
tp364
g36
I00
S'3\x00\x00\x00m\x00\x00\x00'
p365
tp366
bsba(i__main__
FrameData
p367
(dp368
g6
g312
sg8
g9
(g13
S'\x00\x00\x00\x00\x00\x00\x10@'
p369
tp370
Rp371
sg19
I0
sg20
g21
(S'\x07\xdd\t\x1d\x13\x14\r\r6r'
p372
tp373
Rp374
sg25
I0
sg26
g27
(g28
(I0
tp375
g30
tp376
Rp377
(I1
(I2
tp378
g36
I00
S'1\x00\x00\x00m\x00\x00\x00'
p379
tp380
bsba(i__main__
FrameData
p381
(dp382
g6
g312
sg8
g9
(g13
S'\xf3YaD+\xd8\x0c@'
p383
tp384
Rp385
sg19
I0
sg20
g21
(S'\x07\xdd\t\x1d\x13\x14\r\rww'
p386
tp387
Rp388
sg25
I0
sg26
g27
(g28
(I0
tp389
g30
tp390
Rp391
(I1
(I2
tp392
g36
I00
S'/\x00\x00\x00n\x00\x00\x00'
p393
tp394
bsba(i__main__
FrameData
p395
(dp396
g6
g312
sg8
g9
(g13
S'\xd9l\xdf\xccv\xf8\x10@'
p397
tp398
Rp399
sg19
I0
sg20
g21
(S'\x07\xdd\t\x1d\x13\x14\r\r\xbb\x00'
p400
tp401
Rp402
sg25
I0
sg26
g27
(g28
(I0
tp403
g30
tp404
Rp405
(I1
(I2
tp406
g36
I00
S'.\x00\x00\x00n\x00\x00\x00'
p407
tp408
bsba(i__main__
FrameData
p409
(dp410
g6
g312
sg8
g9
(g13
S'\x00\x00\x00\x00\x00\x00\x14@'
p411
tp412
Rp413
sg19
I0
sg20
g21
(S'\x07\xdd\t\x1d\x13\x14\r\r\xf9-'
p414
tp415
Rp416
sg25
I0
sg26
g27
(g28
(I0
tp417
g30
tp418
Rp419
(I1
(I2
tp420
g36
I00
S'-\x00\x00\x00n\x00\x00\x00'
p421
tp422
bsba(i__main__
FrameData
p423
(dp424
g6
g312
sg8
g9
(g13
S'\xa2\xa3\xb3\r\xe5R\x17@'
p425
tp426
Rp427
sg19
I0
sg20
g21
(S'\x07\xdd\t\x1d\x13\x14\r\x0e8c'
p428
tp429
Rp430
sg25
I0
sg26
g27
(g28
(I0
tp431
g30
tp432
Rp433
(I1
(I2
tp434
g36
I00
S',\x00\x00\x00n\x00\x00\x00'
p435
tp436
bsba(i__main__
FrameData
p437
(dp438
g6
g312
sg8
g9
(g13
S'S[\xda:XL\x19@'
p439
tp440
Rp441
sg19
I0
sg20
g21
(S'\x07\xdd\t\x1d\x13\x14\r\x0e~\xec'
p442
tp443
Rp444
sg25
I0
sg26
g27
(g28
(I0
tp445
g30
tp446
Rp447
(I1
(I2
tp448
g36
I00
S'+\x00\x00\x00o\x00\x00\x00'
p449
tp450
bsba(i__main__
FrameData
p451
(dp452
g6
g312
sg8
g9
(g13
S'\xe9\xfbv \xd5\x1e\x1d@'
p453
tp454
Rp455
sg19
I0
sg20
g21
(S'\x07\xdd\t\x1d\x13\x14\r\x0e\xbc\xf1'
p456
tp457
Rp458
sg25
I0
sg26
g27
(g28
(I0
tp459
g30
tp460
Rp461
(I1
(I2
tp462
g36
I00
S'*\x00\x00\x00o\x00\x00\x00'
p463
tp464
bsba(i__main__
FrameData
p465
(dp466
g6
g312
sg8
g9
(g13
S'\x07\xed\xaff\x0f~ @'
p467
tp468
Rp469
sg19
I0
sg20
g21
(S'\x07\xdd\t\x1d\x13\x14\r\x0e\xffN'
p470
tp471
Rp472
sg25
I0
sg26
g27
(g28
(I0
tp473
g30
tp474
Rp475
(I1
(I2
tp476
g36
I00
S')\x00\x00\x00o\x00\x00\x00'
p477
tp478
bsba(i__main__
FrameData
p479
(dp480
g6
g312
sg8
g9
(g13
S'$\xf8\xd9p[\x1c"@'
p481
tp482
Rp483
sg19
I0
sg20
g21
(S'\x07\xdd\t\x1d\x13\x14\r\x0fA\xbd'
p484
tp485
Rp486
sg25
I0
sg26
g27
(g28
(I0
tp487
g30
tp488
Rp489
(I1
(I2
tp490
g36
I00
S'(\x00\x00\x00p\x00\x00\x00'
p491
tp492
bsba(i__main__
FrameData
p493
(dp494
g6
g312
sg8
g9
(g13
S'H\xaa*\x8f9\x17&@'
p495
tp496
Rp497
sg19
I0
sg20
g21
(S'\x07\xdd\t\x1d\x13\x14\x0e\x00<\xe6'
p498
tp499
Rp500
sg25
I0
sg26
g27
(g28
(I0
tp501
g30
tp502
Rp503
(I1
(I2
tp504
g36
I00
S'&\x00\x00\x00p\x00\x00\x00'
p505
tp506
bsba(i__main__
FrameData
p507
(dp508
g6
S'a'
p509
sg8
g9
(g13
S'\x00\x00\x00\x00\x00\x00*@'
p510
tp511
Rp512
sg19
I0
sg20
g21
(S'\x07\xdd\t\x1d\x13\x14\x0e\x00~\x19'
p513
tp514
Rp515
sg25
I0
sg26
g27
(g28
(I0
tp516
g30
tp517
Rp518
(I1
(I2
tp519
g36
I00
S'$\x00\x00\x00q\x00\x00\x00'
p520
tp521
bsba(i__main__
FrameData
p522
(dp523
g6
g509
sg8
g9
(g13
S'\x00\x00\x00\x00\x00\x00&@'
p524
tp525
Rp526
sg19
I0
sg20
g21
(S'\x07\xdd\t\x1d\x13\x14\x0e\x00\xc4v'
p527
tp528
Rp529
sg25
I0
sg26
g27
(g28
(I0
tp530
g30
tp531
Rp532
(I1
(I2
tp533
g36
I00
S'"\x00\x00\x00q\x00\x00\x00'
p534
tp535
bsba(i__main__
FrameData
p536
(dp537
g6
g509
sg8
g9
(g13
S'\x00\x00\x00\x00\x00\x00"@'
p538
tp539
Rp540
sg19
I0
sg20
g21
(S'\x07\xdd\t\x1d\x13\x14\x0e\x01\x02\xb6'
p541
tp542
Rp543
sg25
I0
sg26
g27
(g28
(I0
tp544
g30
tp545
Rp546
(I1
(I2
tp547
g36
I00
S' \x00\x00\x00q\x00\x00\x00'
p548
tp549
bsba(i__main__
FrameData
p550
(dp551
g6
g509
sg8
g9
(g13
S'\x00\x00\x00\x00\x00\x00 @'
p552
tp553
Rp554
sg19
I0
sg20
g21
(S'\x07\xdd\t\x1d\x13\x14\x0e\x01D\xcd'
p555
tp556
Rp557
sg25
I0
sg26
g27
(g28
(I0
tp558
g30
tp559
Rp560
(I1
(I2
tp561
g36
I00
S'\x1f\x00\x00\x00q\x00\x00\x00'
p562
tp563
bsba(i__main__
FrameData
p564
(dp565
g6
g509
sg8
g9
(g13
S'\x00\x00\x00\x00\x00\x00\x18@'
p566
tp567
Rp568
sg19
I0
sg20
g21
(S'\x07\xdd\t\x1d\x13\x14\x0e\x01\xc4\xc4'
p569
tp570
Rp571
sg25
I0
sg26
g27
(g28
(I0
tp572
g30
tp573
Rp574
(I1
(I2
tp575
g36
I00
S'\x1d\x00\x00\x00q\x00\x00\x00'
p576
tp577
bsba(i__main__
FrameData
p578
(dp579
g6
g509
sg8
g9
(g13
S'9\xdcc\xb3\xbfT\x18@'
p580
tp581
Rp582
sg19
I0
sg20
g21
(S'\x07\xdd\t\x1d\x13\x14\x0e\x02E='
p583
tp584
Rp585
sg25
I0
sg26
g27
(g28
(I0
tp586
g30
tp587
Rp588
(I1
(I2
tp589
g36
I00
S'\x1d\x00\x00\x00r\x00\x00\x00'
p590
tp591
bsba(i__main__
FrameData
p592
(dp593
g6
g509
sg8
g9
(g13
S'\x07\xed\xaff\x0f~\x10@'
p594
tp595
Rp596
sg19
I0
sg20
g21
(S'\x07\xdd\t\x1d\x13\x14\x0e\x02\x89\x8d'
p597
tp598
Rp599
sg25
I0
sg26
g27
(g28
(I0
tp600
g30
tp601
Rp602
(I1
(I2
tp603
g36
I00
S'\x1b\x00\x00\x00r\x00\x00\x00'
p604
tp605
bsba(i__main__
FrameData
p606
(dp607
g6
g509
sg8
g9
(g13
S'S[\xda:XL\t@'
p608
tp609
Rp610
sg19
I0
sg20
g21
(S'\x07\xdd\t\x1d\x13\x14\x0e\x03\x08\xcf'
p611
tp612
Rp613
sg25
I0
sg26
g27
(g28
(I0
tp614
g30
tp615
Rp616
(I1
(I2
tp617
g36
I00
S'\x1a\x00\x00\x00r\x00\x00\x00'
p618
tp619
bsba(i__main__
FrameData
p620
(dp621
g6
g509
sg8
g9
(g13
S'\xf3YaD+\xd8\x0c@'
p622
tp623
Rp624
sg19
I0
sg20
g21
(S'\x07\xdd\t\x1d\x13\x14\x0e\x03\x8bm'
p625
tp626
Rp627
sg25
I0
sg26
g27
(g28
(I0
tp628
g30
tp629
Rp630
(I1
(I2
tp631
g36
I00
S'\x1a\x00\x00\x00s\x00\x00\x00'
p632
tp633
bsba(i__main__
FrameData
p634
(dp635
g6
g509
sg8
g9
(g13
S'\xa8\xf4\x97\x9bw\xe3\x01@'
p636
tp637
Rp638
sg19
I0
sg20
g21
(S'\x07\xdd\t\x1d\x13\x14\x0e\x03\xcf\xd5'
p639
tp640
Rp641
sg25
I0
sg26
g27
(g28
(I0
tp642
g30
tp643
Rp644
(I1
(I2
tp645
g36
I00
S'\x18\x00\x00\x00s\x00\x00\x00'
p646
tp647
bsba(i__main__
FrameData
p648
(dp649
g6
g509
sg8
g9
(g13
S'\x00\x00\x00\x00\x00\x00\x00@'
p650
tp651
Rp652
sg19
I0
sg20
g21
(S'\x07\xdd\t\x1d\x13\x14\x0e\x04N\x9e'
p653
tp654
Rp655
sg25
I0
sg26
g27
(g28
(I0
tp656
g30
tp657
Rp658
(I1
(I2
tp659
g36
I00
S'\x17\x00\x00\x00s\x00\x00\x00'
p660
tp661
bsba(i__main__
FrameData
p662
(dp663
g6
g509
sg8
g9
(g13
S'\xa8\xf4\x97\x9bw\xe3\x01@'
p664
tp665
Rp666
sg19
I0
sg20
g21
(S'\x07\xdd\t\x1d\x13\x14\x0e\x04\x90C'
p667
tp668
Rp669
sg25
I0
sg26
g27
(g28
(I0
tp670
g30
tp671
Rp672
(I1
(I2
tp673
g36
I00
S'\x16\x00\x00\x00s\x00\x00\x00'
p674
tp675
bsba(i__main__
FrameData
p676
(dp677
g6
g509
sg8
g9
(g13
S'\xf3YaD+\xd8\x0c@'
p678
tp679
Rp680
sg19
I0
sg20
g21
(S'\x07\xdd\t\x1d\x13\x14\x0e\x05\x15R'
p681
tp682
Rp683
sg25
I0
sg26
g27
(g28
(I0
tp684
g30
tp685
Rp686
(I1
(I2
tp687
g36
I00
S'\x14\x00\x00\x00s\x00\x00\x00'
p688
tp689
bsba(i__main__
FrameData
p690
(dp691
g6
g509
sg8
g9
(g13
S'\xd9l\xdf\xccv\xf8\x10@'
p692
tp693
Rp694
sg19
I0
sg20
g21
(S'\x07\xdd\t\x1d\x13\x14\x0e\x05W\x83'
p695
tp696
Rp697
sg25
I0
sg26
g27
(g28
(I0
tp698
g30
tp699
Rp700
(I1
(I2
tp701
g36
I00
S'\x14\x00\x00\x00t\x00\x00\x00'
p702
tp703
bsba(i__main__
FrameData
p704
(dp705
g6
g509
sg8
g9
(g13
S'\xa2\xa3\xb3\r\xe5R\x17@'
p706
tp707
Rp708
sg19
I0
sg20
g21
(S'\x07\xdd\t\x1d\x13\x14\x0e\x05\xd6\xbc'
p709
tp710
Rp711
sg25
I0
sg26
g27
(g28
(I0
tp712
g30
tp713
Rp714
(I1
(I2
tp715
g36
I00
S'\x12\x00\x00\x00t\x00\x00\x00'
p716
tp717
bsba(i__main__
FrameData
p718
(dp719
g6
g509
sg8
g9
(g13
S'\x00\x00\x00\x00\x00\x00\x14@'
p720
tp721
Rp722
sg19
I0
sg20
g21
(S'\x07\xdd\t\x1d\x13\x14\x0e\x08\xa7\xe1'
p723
tp724
Rp725
sg25
I0
sg26
g27
(g28
(I0
tp726
g30
tp727
Rp728
(I1
(I2
tp729
g36
I00
S'\x13\x00\x00\x00t\x00\x00\x00'
p730
tp731
bsba(i__main__
FrameData
p732
(dp733
g6
g509
sg8
g9
(g13
S'\xd9l\xdf\xccv\xf8\x10@'
p734
tp735
Rp736
sg19
I0
sg20
g21
(S'\x07\xdd\t\x1d\x13\x14\x0e\x08\xe5\xf7'
p737
tp738
Rp739
sg25
I0
sg26
g27
(g28
(I0
tp740
g30
tp741
Rp742
(I1
(I2
tp743
g36
I00
S'\x14\x00\x00\x00t\x00\x00\x00'
p744
tp745
bsba(i__main__
FrameData
p746
(dp747
g6
g509
sg8
g9
(g13
S'S[\xda:XL\t@'
p748
tp749
Rp750
sg19
I0
sg20
g21
(S'\x07\xdd\t\x1d\x13\x14\x0e\t(D'
p751
tp752
Rp753
sg25
I0
sg26
g27
(g28
(I0
tp754
g30
tp755
Rp756
(I1
(I2
tp757
g36
I00
S'\x16\x00\x00\x00t\x00\x00\x00'
p758
tp759
bsba(i__main__
FrameData
p760
(dp761
g6
g509
sg8
g9
(g13
S'S[\xda:XL\t@'
p762
tp763
Rp764
sg19
I0
sg20
g21
(S'\x07\xdd\t\x1d\x13\x14\x0e\th\xf9'
p765
tp766
Rp767
sg25
I0
sg26
g27
(g28
(I0
tp768
g30
tp769
Rp770
(I1
(I2
tp771
g36
I00
S'\x18\x00\x00\x00t\x00\x00\x00'
p772
tp773
bsba(i__main__
FrameData
p774
(dp775
g6
g509
sg8
g9
(g13
S'\xfc\xeeci3\xd5\x1a@'
p776
tp777
Rp778
sg19
I0
sg20
g21
(S'\x07\xdd\t\x1d\x13\x14\x0e\t\xa9R'
p779
tp780
Rp781
sg25
I0
sg26
g27
(g28
(I0
tp782
g30
tp783
Rp784
(I1
(I2
tp785
g36
I00
S'\x1d\x00\x00\x00t\x00\x00\x00'
p786
tp787
bsba(i__main__
FrameData
p788
(dp789
g6
g509
sg8
g9
(g13
S'\xeb\x12\xb2\xbb\xb2\xcd&@'
p790
tp791
Rp792
sg19
I0
sg20
g21
(S'\x07\xdd\t\x1d\x13\x14\x0e\t\xec\x04'
p793
tp794
Rp795
sg25
I0
sg26
g27
(g28
(I0
tp796
g30
tp797
Rp798
(I1
(I2
tp799
g36
I00
S'"\x00\x00\x00t\x00\x00\x00'
p800
tp801
bsba(i__main__
FrameData
p802
(dp803
g6
g312
sg8
g9
(g13
S'7\xf9\xcf\xdao\xe1$@'
p804
tp805
Rp806
sg19
I0
sg20
g21
(S'\x07\xdd\t\x1d\x13\x14\x0e\n-Q'
p807
tp808
Rp809
sg25
I0
sg26
g27
(g28
(I0
tp810
g30
tp811
Rp812
(I1
(I2
tp813
g36
I00
S"'\x00\x00\x00t\x00\x00\x00"
p814
tp815
bsba(i__main__
FrameData
p816
(dp817
g6
g312
sg8
g9
(g13
S'\xa2\xa3\xb3\r\xe5R\x17@'
p818
tp819
Rp820
sg19
I0
sg20
g21
(S'\x07\xdd\t\x1d\x13\x14\x0e\nm\xb7'
p821
tp822
Rp823
sg25
I0
sg26
g27
(g28
(I0
tp824
g30
tp825
Rp826
(I1
(I2
tp827
g36
I00
S',\x00\x00\x00t\x00\x00\x00'
p828
tp829
bsba(i__main__
FrameData
p830
(dp831
g6
g312
sg8
g9
(g13
S'\xf6/\x12_ee\x14@'
p832
tp833
Rp834
sg19
I0
sg20
g21
(S'\x07\xdd\t\x1d\x13\x14\x0e\n\xaf\xff'
p835
tp836
Rp837
sg25
I0
sg26
g27
(g28
(I0
tp838
g30
tp839
Rp840
(I1
(I2
tp841
g36
I00
S'0\x00\x00\x00v\x00\x00\x00'
p842
tp843
bsba(i__main__
FrameData
p844
(dp845
g6
g312
sg8
g9
(g13
S'\xe9\xfbv \xd5\x1e\x1d@'
p846
tp847
Rp848
sg19
I0
sg20
g21
(S'\x07\xdd\t\x1d\x13\x14\x0e\n\xf0`'
p849
tp850
Rp851
sg25
I0
sg26
g27
(g28
(I0
tp852
g30
tp853
Rp854
(I1
(I2
tp855
g36
I00
S'3\x00\x00\x00x\x00\x00\x00'
p856
tp857
bsba(i__main__
FrameData
p858
(dp859
g6
g312
sg8
g9
(g13
S'\x88\x80v\xd5\\\x97$@'
p860
tp861
Rp862
sg19
I0
sg20
g21
(S'\x07\xdd\t\x1d\x13\x14\x0e\x0b4\xb3'
p863
tp864
Rp865
sg25
I0
sg26
g27
(g28
(I0
tp866
g30
tp867
Rp868
(I1
(I2
tp869
g36
I00
S'6\x00\x00\x00z\x00\x00\x00'
p870
tp871
bsba(i__main__
FrameData
p872
(dp873
g6
g312
sg8
g9
(g13
S'\xef\rI\xf1\xf33+@'
p874
tp875
Rp876
sg19
I0
sg20
g21
(S'\x07\xdd\t\x1d\x13\x14\x0e\x0bq\xf5'
p877
tp878
Rp879
sg25
I0
sg26
g27
(g28
(I0
tp880
g30
tp881
Rp882
(I1
(I2
tp883
g36
I00
S'9\x00\x00\x00|\x00\x00\x00'
p884
tp885
bsba(i__main__
FrameData
p886
(dp887
g6
g312
sg8
g9
(g13
S'htN\x17\xb2=/@'
p888
tp889
Rp890
sg19
I0
sg20
g21
(S'\x07\xdd\t\x1d\x13\x14\x0e\x0b\xb4\xc7'
p891
tp892
Rp893
sg25
I0
sg26
g27
(g28
(I0
tp894
g30
tp895
Rp896
(I1
(I2
tp897
g36
I00
S';\x00\x00\x00}\x00\x00\x00'
p898
tp899
bsba(i__main__
FrameData
p900
(dp901
g6
g312
sg8
g9
(g13
S')\x9ah\xdd\x85\x071@'
p902
tp903
Rp904
sg19
I0
sg20
g21
(S'\x07\xdd\t\x1d\x13\x14\x0e\x0b\xf5\xc8'
p905
tp906
Rp907
sg25
I0
sg26
g27
(g28
(I0
tp908
g30
tp909
Rp910
(I1
(I2
tp911
g36
I00
S'<\x00\x00\x00~\x00\x00\x00'
p912
tp913
bsba(i__main__
FrameData
p914
(dp915
g6
g312
sg8
g9
(g13
S'\x9a.\x90!hp2@'
p916
tp917
Rp918
sg19
I0
sg20
g21
(S'\x07\xdd\t\x1d\x13\x14\x0e\x0c6\x1e'
p919
tp920
Rp921
sg25
I0
sg26
g27
(g28
(I0
tp922
g30
tp923
Rp924
(I1
(I2
tp925
g36
I00
S'=\x00\x00\x00\x7f\x00\x00\x00'
p926
tp927
bsba(i__main__
FrameData
p928
(dp929
g6
g213
sg8
g9
(g13
S'u\x85\x18\x11\xe0\x992@'
p930
tp931
Rp932
sg19
I0
sg20
g21
(S'\x07\xdd\t\x1d\x13\x14\x0e\x0cwl'
p933
tp934
Rp935
sg25
I0
sg26
g27
(g28
(I0
tp936
g30
tp937
Rp938
(I1
(I2
tp939
g36
I00
S'>\x00\x00\x00\x80\x00\x00\x00'
p940
tp941
bsba(i__main__
FrameData
p942
(dp943
g6
g213
sg8
g9
(g13
S'\xbf\x8f+\t\x89[2@'
p944
tp945
Rp946
sg19
I0
sg20
g21
(S'\x07\xdd\t\x1d\x13\x14\x0e\x0c\xb9r'
p947
tp948
Rp949
sg25
I0
sg26
g27
(g28
(I0
tp950
g30
tp951
Rp952
(I1
(I2
tp953
g36
I00
S'@\x00\x00\x00\x81\x00\x00\x00'
p954
tp955
bsba(i__main__
FrameData
p956
(dp957
g6
g213
sg8
g9
(g13
S'5 \x89\xa6\xcd\xc92@'
p958
tp959
Rp960
sg19
I0
sg20
g21
(S'\x07\xdd\t\x1d\x13\x14\x0e\x0c\xf8\xca'
p961
tp962
Rp963
sg25
I0
sg26
g27
(g28
(I0
tp964
g30
tp965
Rp966
(I1
(I2
tp967
g36
I00
S'A\x00\x00\x00\x82\x00\x00\x00'
p968
tp969
bsba(i__main__
FrameData
p970
(dp971
g6
g213
sg8
g9
(g13
S'VT\xdbd.P3@'
p972
tp973
Rp974
sg19
I0
sg20
g21
(S'\x07\xdd\t\x1d\x13\x14\x0e\r<\xd1'
p975
tp976
Rp977
sg25
I0
sg26
g27
(g28
(I0
tp978
g30
tp979
Rp980
(I1
(I2
tp981
g36
I00
S'B\x00\x00\x00\x83\x00\x00\x00'
p982
tp983
bsba(i__main__
FrameData
p984
(dp985
g6
g213
sg8
g9
(g13
S'Mm\x9d\x8c\xc3\xec3@'
p986
tp987
Rp988
sg19
I0
sg20
g21
(S'\x07\xdd\t\x1d\x13\x14\x0e\r}\x9d'
p989
tp990
Rp991
sg25
I0
sg26
g27
(g28
(I0
tp992
g30
tp993
Rp994
(I1
(I2
tp995
g36
I00
S'C\x00\x00\x00\x84\x00\x00\x00'
p996
tp997
bsba(i__main__
FrameData
p998
(dp999
g6
g213
sg8
g9
(g13
S'W\xb2\xdb\x1a\x9a\xa53@'
p1000
tp1001
Rp1002
sg19
I0
sg20
g21
(S'\x07\xdd\t\x1d\x13\x14\x0e\r\xbe&'
p1003
tp1004
Rp1005
sg25
I0
sg26
g27
(g28
(I0
tp1006
g30
tp1007
Rp1008
(I1
(I2
tp1009
g36
I00
S'D\x00\x00\x00\x84\x00\x00\x00'
p1010
tp1011
bsba(i__main__
FrameData
p1012
(dp1013
g6
g213
sg8
g9
(g13
S'\xc9\xe0>!B<3@'
p1014
tp1015
Rp1016
sg19
I0
sg20
g21
(S'\x07\xdd\t\x1d\x13\x14\x0e\r\xffJ'
p1017
tp1018
Rp1019
sg25
I0
sg26
g27
(g28
(I0
tp1020
g30
tp1021
Rp1022
(I1
(I2
tp1023
g36
I00
S'F\x00\x00\x00\x84\x00\x00\x00'
p1024
tp1025
bsba(i__main__
FrameData
p1026
(dp1027
g6
g213
sg8
g9
(g13
S'\xf0)#L\x89\x194@'
p1028
tp1029
Rp1030
sg19
I0
sg20
g21
(S'\x07\xdd\t\x1d\x13\x14\x0e\x0eAW'
p1031
tp1032
Rp1033
sg25
I0
sg26
g27
(g28
(I0
tp1034
g30
tp1035
Rp1036
(I1
(I2
tp1037
g36
I00
S'G\x00\x00\x00\x85\x00\x00\x00'
p1038
tp1039
bsba(i__main__
FrameData
p1040
(dp1041
g6
g213
sg8
g9
(g13
S'\x00\x00\x00\x00\x00\x005@'
p1042
tp1043
Rp1044
sg19
I0
sg20
g21
(S'\x07\xdd\t\x1d\x13\x14\x0e\x0e\x83\x84'
p1045
tp1046
Rp1047
sg25
I0
sg26
g27
(g28
(I0
tp1048
g30
tp1049
Rp1050
(I1
(I2
tp1051
g36
I00
S'I\x00\x00\x00\x86\x00\x00\x00'
p1052
tp1053
bsba(i__main__
FrameData
p1054
(dp1055
g6
S'x'
p1056
sg8
g9
(g13
S'\xeb\xfb\x12\x98\x8dx5@'
p1057
tp1058
Rp1059
sg19
I0
sg20
g21
(S'\x07\xdd\t\x1d\x13\x14\x0e\x0e\xc8H'
p1060
tp1061
Rp1062
sg25
I0
sg26
g27
(g28
(I0
tp1063
g30
tp1064
Rp1065
(I1
(I2
tp1066
g36
I00
S'K\x00\x00\x00\x88\x00\x00\x00'
p1067
tp1068
bsba(i__main__
FrameData
p1069
(dp1070
g6
g1056
sg8
g9
(g13
S'u\xa6<oS\x185@'
p1071
tp1072
Rp1073
sg19
I0
sg20
g21
(S'\x07\xdd\t\x1d\x13\x14\x0e\x0f\x05b'
p1074
tp1075
Rp1076
sg25
I0
sg26
g27
(g28
(I0
tp1077
g30
tp1078
Rp1079
(I1
(I2
tp1080
g36
I00
S'L\x00\x00\x00\x89\x00\x00\x00'
p1081
tp1082
bsba(i__main__
FrameData
p1083
(dp1084
g6
g1056
sg8
g9
(g13
S'\x14\xda\xbaX\x1f46@'
p1085
tp1086
Rp1087
sg19
I0
sg20
g21
(S'\x07\xdd\t\x1d\x13\x14\x0f\x00\x02p'
p1088
tp1089
Rp1090
sg25
I0
sg26
g27
(g28
(I0
tp1091
g30
tp1092
Rp1093
(I1
(I2
tp1094
g36
I00
S'N\x00\x00\x00\x89\x00\x00\x00'
p1095
tp1096
bsba(i__main__
FrameData
p1097
(dp1098
g6
S'c'
p1099
sg8
g9
(g13
S'u\xa6<oS\x185@'
p1100
tp1101
Rp1102
sg19
I0
sg20
g21
(S'\x07\xdd\t\x1d\x13\x14\x0f\x00D\x8e'
p1103
tp1104
Rp1105
sg25
I0
sg26
g27
(g28
(I0
tp1106
g30
tp1107
Rp1108
(I1
(I2
tp1109
g36
I00
S'O\x00\x00\x00\x8a\x00\x00\x00'
p1110
tp1111
bsba(i__main__
FrameData
p1112
(dp1113
g6
g1099
sg8
g9
(g13
S':\xf0c\xf6\x1b\xb93@'
p1114
tp1115
Rp1116
sg19
I0
sg20
g21
(S'\x07\xdd\t\x1d\x13\x14\x0f\x00\x89\xcf'
p1117
tp1118
Rp1119
sg25
I0
sg26
g27
(g28
(I0
tp1120
g30
tp1121
Rp1122
(I1
(I2
tp1123
g36
I00
S'P\x00\x00\x00\x8b\x00\x00\x00'
p1124
tp1125
bsba(i__main__
FrameData
p1126
(dp1127
g6
g1099
sg8
g9
(g13
S'\xbf\x8f+\t\x89[2@'
p1128
tp1129
Rp1130
sg19
I0
sg20
g21
(S'\x07\xdd\t\x1d\x13\x14\x0f\x00\xc6\x13'
p1131
tp1132
Rp1133
sg25
I0
sg26
g27
(g28
(I0
tp1134
g30
tp1135
Rp1136
(I1
(I2
tp1137
g36
I00
S'Q\x00\x00\x00\x8c\x00\x00\x00'
p1138
tp1139
bsba(i__main__
FrameData
p1140
(dp1141
g6
g1099
sg8
g9
(g13
S'\xa8\xf4\x97\x9bw\xe31@'
p1142
tp1143
Rp1144
sg19
I0
sg20
g21
(S'\x07\xdd\t\x1d\x13\x14\x0f\x01\x08\xdb'
p1145
tp1146
Rp1147
sg25
I0
sg26
g27
(g28
(I0
tp1148
g30
tp1149
Rp1150
(I1
(I2
tp1151
g36
I00
S'R\x00\x00\x00\x8c\x00\x00\x00'
p1152
tp1153
bsba(i__main__
FrameData
p1154
(dp1155
g6
g1099
sg8
g9
(g13
S'\xa8y\x0c\t\xd9v1@'
p1156
tp1157
Rp1158
sg19
I0
sg20
g21
(S'\x07\xdd\t\x1d\x13\x14\x0f\x01J\xd6'
p1159
tp1160
Rp1161
sg25
I0
sg26
g27
(g28
(I0
tp1162
g30
tp1163
Rp1164
(I1
(I2
tp1165
g36
I00
S'S\x00\x00\x00\x8c\x00\x00\x00'
p1166
tp1167
bsba(i__main__
FrameData
p1168
(dp1169
g6
g1099
sg8
g9
(g13
S"v\xa3~{\xce'0@"
p1170
tp1171
Rp1172
sg19
I0
sg20
g21
(S'\x07\xdd\t\x1d\x13\x14\x0f\x01\x8c\xfe'
p1173
tp1174
Rp1175
sg25
I0
sg26
g27
(g28
(I0
tp1176
g30
tp1177
Rp1178
(I1
(I2
tp1179
g36
I00
S'T\x00\x00\x00\x8d\x00\x00\x00'
p1180
tp1181
bsba(i__main__
FrameData
p1182
(dp1183
g6
g1099
sg8
g9
(g13
S'/\xa4\xe3\\m\xbb-@'
p1184
tp1185
Rp1186
sg19
I0
sg20
g21
(S'\x07\xdd\t\x1d\x13\x14\x0f\x01\xcc@'
p1187
tp1188
Rp1189
sg25
I0
sg26
g27
(g28
(I0
tp1190
g30
tp1191
Rp1192
(I1
(I2
tp1193
g36
I00
S'U\x00\x00\x00\x8e\x00\x00\x00'
p1194
tp1195
bsba(i__main__
FrameData
p1196
(dp1197
g6
g1099
sg8
g9
(g13
S'\xef\rI\xf1\xf33+@'
p1198
tp1199
Rp1200
sg19
I0
sg20
g21
(S'\x07\xdd\t\x1d\x13\x14\x0f\x02\x0e\xa4'
p1201
tp1202
Rp1203
sg25
I0
sg26
g27
(g28
(I0
tp1204
g30
tp1205
Rp1206
(I1
(I2
tp1207
g36
I00
S'V\x00\x00\x00\x8f\x00\x00\x00'
p1208
tp1209
bsba(i__main__
FrameData
p1210
(dp1211
g6
g1099
sg8
g9
(g13
S'\x8a\xe3\x07\x1a\x17\xbd(@'
p1212
tp1213
Rp1214
sg19
I0
sg20
g21
(S'\x07\xdd\t\x1d\x13\x14\x0f\x02Q\x1a'
p1215
tp1216
Rp1217
sg25
I0
sg26
g27
(g28
(I0
tp1218
g30
tp1219
Rp1220
(I1
(I2
tp1221
g36
I00
S'W\x00\x00\x00\x90\x00\x00\x00'
p1222
tp1223
bsba(i__main__
FrameData
p1224
(dp1225
g6
g1099
sg8
g9
(g13
S'\xd2\xf1}\x82U\\&@'
p1226
tp1227
Rp1228
sg19
I0
sg20
g21
(S'\x07\xdd\t\x1d\x13\x14\x0f\x02\x8f\xf7'
p1229
tp1230
Rp1231
sg25
I0
sg26
g27
(g28
(I0
tp1232
g30
tp1233
Rp1234
(I1
(I2
tp1235
g36
I00
S'X\x00\x00\x00\x91\x00\x00\x00'
p1236
tp1237
bsba(i__main__
FrameData
p1238
(dp1239
g6
g1099
sg8
g9
(g13
S'\xf0)#L\x89\x19$@'
p1240
tp1241
Rp1242
sg19
I0
sg20
g21
(S'\x07\xdd\t\x1d\x13\x14\x0f\x02\xcf\xc7'
p1243
tp1244
Rp1245
sg25
I0
sg26
g27
(g28
(I0
tp1246
g30
tp1247
Rp1248
(I1
(I2
tp1249
g36
I00
S'Y\x00\x00\x00\x92\x00\x00\x00'
p1250
tp1251
bsba(i__main__
FrameData
p1252
(dp1253
g6
g1099
sg8
g9
(g13
S'\x00\x00\x00\x00\x00\x00"@'
p1254
tp1255
Rp1256
sg19
I0
sg20
g21
(S'\x07\xdd\t\x1d\x13\x14\x0f\x03\x12\x12'
p1257
tp1258
Rp1259
sg25
I0
sg26
g27
(g28
(I0
tp1260
g30
tp1261
Rp1262
(I1
(I2
tp1263
g36
I00
S'Z\x00\x00\x00\x93\x00\x00\x00'
p1264
tp1265
bsba(i__main__
FrameData
p1266
(dp1267
g6
g1099
sg8
g9
(g13
S'\x00\x00\x00\x00\x00\x00\x1c@'
p1268
tp1269
Rp1270
sg19
I0
sg20
g21
(S'\x07\xdd\t\x1d\x13\x14\x0f\x03W6'
p1271
tp1272
Rp1273
sg25
I0
sg26
g27
(g28
(I0
tp1274
g30
tp1275
Rp1276
(I1
(I2
tp1277
g36
I00
S'Z\x00\x00\x00\x95\x00\x00\x00'
p1278
tp1279
bsba(i__main__
FrameData
p1280
(dp1281
g6
g1099
sg8
g9
(g13
S'9\xdcc\xb3\xbfT\x18@'
p1282
tp1283
Rp1284
sg19
I0
sg20
g21
(S'\x07\xdd\t\x1d\x13\x14\x0f\x03\x94\xed'
p1285
tp1286
Rp1287
sg25
I0
sg26
g27
(g28
(I0
tp1288
g30
tp1289
Rp1290
(I1
(I2
tp1291
g36
I00
S'[\x00\x00\x00\x96\x00\x00\x00'
p1292
tp1293
bsba(i__main__
FrameData
p1294
(dp1295
g6
g1099
sg8
g9
(g13
S'S[\xda:XL\x19@'
p1296
tp1297
Rp1298
sg19
I0
sg20
g21
(S'\x07\xdd\t\x1d\x13\x14\x0f\x03\xd5\xca'
p1299
tp1300
Rp1301
sg25
I0
sg26
g27
(g28
(I0
tp1302
g30
tp1303
Rp1304
(I1
(I2
tp1305
g36
I00
S'\\\x00\x00\x00\x96\x00\x00\x00'
p1306
tp1307
bsba(i__main__
FrameData
p1308
(dp1309
g6
g1099
sg8
g9
(g13
S'\x00\x00\x00\x00\x00\x00\x14@'
p1310
tp1311
Rp1312
sg19
I0
sg20
g21
(S'\x07\xdd\t\x1d\x13\x14\x0f\x04Wz'
p1313
tp1314
Rp1315
sg25
I0
sg26
g27
(g28
(I0
tp1316
g30
tp1317
Rp1318
(I1
(I2
tp1319
g36
I00
S']\x00\x00\x00\x98\x00\x00\x00'
p1320
tp1321
bsba(i__main__
FrameData
p1322
(dp1323
g6
g1099
sg8
g9
(g13
S'\xd9l\xdf\xccv\xf8\x10@'
p1324
tp1325
Rp1326
sg19
I0
sg20
g21
(S'\x07\xdd\t\x1d\x13\x14\x0f\x04\x98\x9b'
p1327
tp1328
Rp1329
sg25
I0
sg26
g27
(g28
(I0
tp1330
g30
tp1331
Rp1332
(I1
(I2
tp1333
g36
I00
S']\x00\x00\x00\x99\x00\x00\x00'
p1334
tp1335
bsba(i__main__
FrameData
p1336
(dp1337
g6
g1099
sg8
g9
(g13
S'\xa8\xf4\x97\x9bw\xe3\x11@'
p1338
tp1339
Rp1340
sg19
I0
sg20
g21
(S'\x07\xdd\t\x1d\x13\x14\x0f\x05\x1eT'
p1341
tp1342
Rp1343
sg25
I0
sg26
g27
(g28
(I0
tp1344
g30
tp1345
Rp1346
(I1
(I2
tp1347
g36
I00
S'^\x00\x00\x00\x9a\x00\x00\x00'
p1348
tp1349
bsba(i__main__
FrameData
p1350
(dp1351
g6
g1099
sg8
g9
(g13
S'\x07\xed\xaff\x0f~\x10@'
p1352
tp1353
Rp1354
sg19
I0
sg20
g21
(S'\x07\xdd\t\x1d\x13\x14\x0f\x05\xa1\x0b'
p1355
tp1356
Rp1357
sg25
I0
sg26
g27
(g28
(I0
tp1358
g30
tp1359
Rp1360
(I1
(I2
tp1361
g36
I00
S'^\x00\x00\x00\x9b\x00\x00\x00'
p1362
tp1363
bsba(i__main__
FrameData
p1364
(dp1365
g6
g1099
sg8
g9
(g13
S'\x00\x00\x00\x00\x00\x00\x14@'
p1366
tp1367
Rp1368
sg19
I0
sg20
g21
(S'\x07\xdd\t\x1d\x13\x14\x0f\x05\xdf8'
p1369
tp1370
Rp1371
sg25
I0
sg26
g27
(g28
(I0
tp1372
g30
tp1373
Rp1374
(I1
(I2
tp1375
g36
I00
S'_\x00\x00\x00\x9c\x00\x00\x00'
p1376
tp1377
bsba(i__main__
FrameData
p1378
(dp1379
g6
g1099
sg8
g9
(g13
S'\xf6/\x12_ee\x14@'
p1380
tp1381
Rp1382
sg19
I0
sg20
g21
(S'\x07\xdd\t\x1d\x13\x14\x0f\x06!\x8e'
p1383
tp1384
Rp1385
sg25
I0
sg26
g27
(g28
(I0
tp1386
g30
tp1387
Rp1388
(I1
(I2
tp1389
g36
I00
S'_\x00\x00\x00\x9d\x00\x00\x00'
p1390
tp1391
bsba(i__main__
FrameData
p1392
(dp1393
g6
g1099
sg8
g9
(g13
S'\xc0\n\x1f\x00\xc6H\x1c@'
p1394
tp1395
Rp1396
sg19
I0
sg20
g21
(S'\x07\xdd\t\x1d\x13\x14\x0f\x06c\xd7'
p1397
tp1398
Rp1399
sg25
I0
sg26
g27
(g28
(I0
tp1400
g30
tp1401
Rp1402
(I1
(I2
tp1403
g36
I00
S'a\x00\x00\x00\x9d\x00\x00\x00'
p1404
tp1405
bsba(i__main__
FrameData
p1406
(dp1407
g6
g1099
sg8
g9
(g13
S'\x00\x00\x00\x00\x00\x00\x1c@'
p1408
tp1409
Rp1410
sg19
I0
sg20
g21
(S'\x07\xdd\t\x1d\x13\x14\x0f\x08.\x10'
p1411
tp1412
Rp1413
sg25
I0
sg26
g27
(g28
(I0
tp1414
g30
tp1415
Rp1416
(I1
(I2
tp1417
g36
I00
S'a\x00\x00\x00\x9c\x00\x00\x00'
p1418
tp1419
bsba(i__main__
FrameData
p1420
(dp1421
g6
g1099
sg8
g9
(g13
S'\xc0\n\x1f\x00\xc6H\x1c@'
p1422
tp1423
Rp1424
sg19
I0
sg20
g21
(S'\x07\xdd\t\x1d\x13\x14\x0f\x08\xb0\xa6'
p1425
tp1426
Rp1427
sg25
I0
sg26
g27
(g28
(I0
tp1428
g30
tp1429
Rp1430
(I1
(I2
tp1431
g36
I00
S'a\x00\x00\x00\x9b\x00\x00\x00'
p1432
tp1433
bsba(i__main__
FrameData
p1434
(dp1435
g6
g1099
sg8
g9
(g13
S'\xe9\xfbv \xd5\x1e\x1d@'
p1436
tp1437
Rp1438
sg19
I0
sg20
g21
(S'\x07\xdd\t\x1d\x13\x14\x0f\x08\xf2+'
p1439
tp1440
Rp1441
sg25
I0
sg26
g27
(g28
(I0
tp1442
g30
tp1443
Rp1444
(I1
(I2
tp1445
g36
I00
S'a\x00\x00\x00\x9a\x00\x00\x00'
p1446
tp1447
bsba(i__main__
FrameData
p1448
(dp1449
g6
g1099
sg8
g9
(g13
S'\xa3\x14\xae\xa8\x87\x16!@'
p1450
tp1451
Rp1452
sg19
I0
sg20
g21
(S'\x07\xdd\t\x1d\x13\x14\x0f\t1\x19'
p1453
tp1454
Rp1455
sg25
I0
sg26
g27
(g28
(I0
tp1456
g30
tp1457
Rp1458
(I1
(I2
tp1459
g36
I00
S'b\x00\x00\x00\x99\x00\x00\x00'
p1460
tp1461
bsba(i__main__
FrameData
p1462
(dp1463
g6
g1099
sg8
g9
(g13
S'\xd2\xf1}\x82U\\&@'
p1464
tp1465
Rp1466
sg19
I0
sg20
g21
(S'\x07\xdd\t\x1d\x13\x14\x0f\tpo'
p1467
tp1468
Rp1469
sg25
I0
sg26
g27
(g28
(I0
tp1470
g30
tp1471
Rp1472
(I1
(I2
tp1473
g36
I00
S'd\x00\x00\x00\x97\x00\x00\x00'
p1474
tp1475
bsba(i__main__
FrameData
p1476
(dp1477
g6
S'v'
p1478
sg8
g9
(g13
S"\xa2\xa3\xb3\r\xe5R'@"
p1479
tp1480
Rp1481
sg19
I0
sg20
g21
(S'\x07\xdd\t\x1d\x13\x14\x0f\t\xb1:'
p1482
tp1483
Rp1484
sg25
I0
sg26
g27
(g28
(I0
tp1485
g30
tp1486
Rp1487
(I1
(I2
tp1488
g36
I00
S'g\x00\x00\x00\x95\x00\x00\x00'
p1489
tp1490
bsba(i__main__
FrameData
p1491
(dp1492
g6
g1478
sg8
g9
(g13
S'6\xd0\xd2x\xa2B%@'
p1493
tp1494
Rp1495
sg19
I0
sg20
g21
(S'\x07\xdd\t\x1d\x13\x14\x0f\t\xf5\x19'
p1496
tp1497
Rp1498
sg25
I0
sg26
g27
(g28
(I0
tp1499
g30
tp1500
Rp1501
(I1
(I2
tp1502
g36
I00
S'j\x00\x00\x00\x93\x00\x00\x00'
p1503
tp1504
bsba(i__main__
FrameData
p1505
(dp1506
g6
g1478
sg8
g9
(g13
S'7\xf9\xcf\xdao\xe1$@'
p1507
tp1508
Rp1509
sg19
I0
sg20
g21
(S'\x07\xdd\t\x1d\x13\x14\x0f\n4]'
p1510
tp1511
Rp1512
sg25
I0
sg26
g27
(g28
(I0
tp1513
g30
tp1514
Rp1515
(I1
(I2
tp1516
g36
I00
S'n\x00\x00\x00\x91\x00\x00\x00'
p1517
tp1518
bsba(i__main__
FrameData
p1519
(dp1520
g6
g1478
sg8
g9
(g13
S'Qf\x99\xcb\xa9\x13*@'
p1521
tp1522
Rp1523
sg19
I0
sg20
g21
(S'\x07\xdd\t\x1d\x13\x14\x0f\nv\xae'
p1524
tp1525
Rp1526
sg25
I0
sg26
g27
(g28
(I0
tp1527
g30
tp1528
Rp1529
(I1
(I2
tp1530
g36
I00
S'r\x00\x00\x00\x8e\x00\x00\x00'
p1531
tp1532
bsba(i__main__
FrameData
p1533
(dp1534
g6
g1478
sg8
g9
(g13
S'>9\x15\x8cW\xc30@'
p1535
tp1536
Rp1537
sg19
I0
sg20
g21
(S'\x07\xdd\t\x1d\x13\x14\x0f\n\xb6u'
p1538
tp1539
Rp1540
sg25
I0
sg26
g27
(g28
(I0
tp1541
g30
tp1542
Rp1543
(I1
(I2
tp1544
g36
I00
S'v\x00\x00\x00\x8b\x00\x00\x00'
p1545
tp1546
bsba(i__main__
FrameData
p1547
(dp1548
g6
g1478
sg8
g9
(g13
S'\xbb\x91T\x7f\x17\x065@'
p1549
tp1550
Rp1551
sg19
I0
sg20
g21
(S'\x07\xdd\t\x1d\x13\x14\x0f\n\xfc\x90'
p1552
tp1553
Rp1554
sg25
I0
sg26
g27
(g28
(I0
tp1555
g30
tp1556
Rp1557
(I1
(I2
tp1558
g36
I00
S'z\x00\x00\x00\x88\x00\x00\x00'
p1559
tp1560
bsba(i__main__
FrameData
p1561
(dp1562
g6
g85
sg8
g9
(g13
S'7\xf9\xcf\xdao\xe14@'
p1563
tp1564
Rp1565
sg19
I0
sg20
g21
(S'\x07\xdd\t\x1d\x13\x14\x0f\x0b:\xa6'
p1566
tp1567
Rp1568
sg25
I0
sg26
g27
(g28
(I0
tp1569
g30
tp1570
Rp1571
(I1
(I2
tp1572
g36
I00
S'~\x00\x00\x00\x86\x00\x00\x00'
p1573
tp1574
bsba(i__main__
FrameData
p1575
(dp1576
g6
g85
sg8
g9
(g13
S'bVc}\x9d\xb23@'
p1577
tp1578
Rp1579
sg19
I0
sg20
g21
(S'\x07\xdd\t\x1d\x13\x14\x0f\x0by\xe5'
p1580
tp1581
Rp1582
sg25
I0
sg26
g27
(g28
(I0
tp1583
g30
tp1584
Rp1585
(I1
(I2
tp1586
g36
I00
S'\x80\x00\x00\x00\x84\x00\x00\x00'
p1587
tp1588
bsba(i__main__
FrameData
p1589
(dp1590
g6
g85
sg8
g9
(g13
S':\xf0c\xf6\x1b\xb93@'
p1591
tp1592
Rp1593
sg19
I0
sg20
g21
(S'\x07\xdd\t\x1d\x13\x14\x0f\x0b\xbc='
p1594
tp1595
Rp1596
sg25
I0
sg26
g27
(g28
(I0
tp1597
g30
tp1598
Rp1599
(I1
(I2
tp1600
g36
I00
S'\x82\x00\x00\x00\x83\x00\x00\x00'
p1601
tp1602
bsba(i__main__
FrameData
p1603
(dp1604
g6
g7
sg8
g9
(g13
S'/vo\xf2\x9ej3@'
p1605
tp1606
Rp1607
sg19
I0
sg20
g21
(S'\x07\xdd\t\x1d\x13\x14\x0f\x0b\xfe\x9a'
p1608
tp1609
Rp1610
sg25
I0
sg26
g27
(g28
(I0
tp1611
g30
tp1612
Rp1613
(I1
(I2
tp1614
g36
I00
S'\x85\x00\x00\x00\x82\x00\x00\x00'
p1615
tp1616
bsba(i__main__
FrameData
p1617
(dp1618
g6
g7
sg8
g9
(g13
S'\x00\x00\x00\x00\x00\x001@'
p1619
tp1620
Rp1621
sg19
I0
sg20
g21
(S'\x07\xdd\t\x1d\x13\x14\x0f\x0cA\x8b'
p1622
tp1623
Rp1624
sg25
I0
sg26
g27
(g28
(I0
tp1625
g30
tp1626
Rp1627
(I1
(I2
tp1628
g36
I00
S'\x88\x00\x00\x00\x81\x00\x00\x00'
p1629
tp1630
bsba(i__main__
FrameData
p1631
(dp1632
g6
g7
sg8
g9
(g13
S'/\xa4\xe3\\m\xbb-@'
p1633
tp1634
Rp1635
sg19
I0
sg20
g21
(S"\x07\xdd\t\x1d\x13\x14\x0f\x0c\x80'"
p1636
tp1637
Rp1638
sg25
I0
sg26
g27
(g28
(I0
tp1639
g30
tp1640
Rp1641
(I1
(I2
tp1642
g36
I00
S'\x8b\x00\x00\x00\x80\x00\x00\x00'
p1643
tp1644
bsba(i__main__
FrameData
p1645
(dp1646
g6
g7
sg8
g9
(g13
S'\xf7\x80Aq\xb9\xa2,@'
p1647
tp1648
Rp1649
sg19
I0
sg20
g21
(S'\x07\xdd\t\x1d\x13\x14\x0f\x0c\xc3|'
p1650
tp1651
Rp1652
sg25
I0
sg26
g27
(g28
(I0
tp1653
g30
tp1654
Rp1655
(I1
(I2
tp1656
g36
I00
S'\x8d\x00\x00\x00\x80\x00\x00\x00'
p1657
tp1658
bsba(i__main__
FrameData
p1659
(dp1660
g6
g7
sg8
g9
(g13
S'9\xdcc\xb3\xbfT(@'
p1661
tp1662
Rp1663
sg19
I0
sg20
g21
(S'\x07\xdd\t\x1d\x13\x14\x0f\r\x01\xc1'
p1664
tp1665
Rp1666
sg25
I0
sg26
g27
(g28
(I0
tp1667
g30
tp1668
Rp1669
(I1
(I2
tp1670
g36
I00
S'\x92\x00\x00\x00~\x00\x00\x00'
p1671
tp1672
bsba(i__main__
FrameData
p1673
(dp1674
g6
g7
sg8
g9
(g13
S'S[\xda:XL)@'
p1675
tp1676
Rp1677
sg19
I0
sg20
g21
(S'\x07\xdd\t\x1d\x13\x14\x0f\rD\x01'
p1678
tp1679
Rp1680
sg25
I0
sg26
g27
(g28
(I0
tp1681
g30
tp1682
Rp1683
(I1
(I2
tp1684
g36
I00
S'\x94\x00\x00\x00~\x00\x00\x00'
p1685
tp1686
bsba(i__main__
FrameData
p1687
(dp1688
g6
g7
sg8
g9
(g13
S'Qf\x99\xcb\xa9\x13*@'
p1689
tp1690
Rp1691
sg19
I0
sg20
g21
(S'\x07\xdd\t\x1d\x13\x14\x0f\r\x89d'
p1692
tp1693
Rp1694
sg25
I0
sg26
g27
(g28
(I0
tp1695
g30
tp1696
Rp1697
(I1
(I2
tp1698
g36
I00
S'\x97\x00\x00\x00}\x00\x00\x00'
p1699
tp1700
bsba(i__main__
FrameData
p1701
(dp1702
g6
g7
sg8
g9
(g13
S'\xc0\n\x1f\x00\xc6H,@'
p1703
tp1704
Rp1705
sg19
I0
sg20
g21
(S'\x07\xdd\t\x1d\x13\x14\x0f\r\xc5\x98'
p1706
tp1707
Rp1708
sg25
I0
sg26
g27
(g28
(I0
tp1709
g30
tp1710
Rp1711
(I1
(I2
tp1712
g36
I00
S'\x9a\x00\x00\x00|\x00\x00\x00'
p1713
tp1714
bsba(i__main__
FrameData
p1715
(dp1716
g6
S'j'
p1717
sg8
g9
(g13
S'/\xa4\xe3\\m\xbb-@'
p1718
tp1719
Rp1720
sg19
I0
sg20
g21
(S'\x07\xdd\t\x1d\x13\x14\x0f\x0e\x0c3'
p1721
tp1722
Rp1723
sg25
I0
sg26
g27
(g28
(I0
tp1724
g30
tp1725
Rp1726
(I1
(I2
tp1727
g36
I00
S'\x9c\x00\x00\x00|\x00\x00\x00'
p1728
tp1729
bsba(i__main__
FrameData
p1730
(dp1731
g6
g1717
sg8
g9
(g13
S'\x00\xff\x9f\x99\xcc\x9c)@'
p1732
tp1733
Rp1734
sg19
I0
sg20
g21
(S'\x07\xdd\t\x1d\x13\x14\x0f\x0eJJ'
p1735
tp1736
Rp1737
sg25
I0
sg26
g27
(g28
(I0
tp1738
g30
tp1739
Rp1740
(I1
(I2
tp1741
g36
I00
S'\x9f\x00\x00\x00|\x00\x00\x00'
p1742
tp1743
bsba(i__main__
FrameData
p1744
(dp1745
g6
g1717
sg8
g9
(g13
S'F\xc3\\\xa8\xc1i(@'
p1746
tp1747
Rp1748
sg19
I0
sg20
g21
(S'\x07\xdd\t\x1d\x13\x14\x0f\x0e\x8c\x11'
p1749
tp1750
Rp1751
sg25
I0
sg26
g27
(g28
(I0
tp1752
g30
tp1753
Rp1754
(I1
(I2
tp1755
g36
I00
S'\xa0\x00\x00\x00|\x00\x00\x00'
p1756
tp1757
bsba(i__main__
FrameData
p1758
(dp1759
g6
g1717
sg8
g9
(g13
S'\x88\x80v\xd5\\\x97$@'
p1760
tp1761
Rp1762
sg19
I0
sg20
g21
(S'\x07\xdd\t\x1d\x13\x14\x0f\x0e\xcdR'
p1763
tp1764
Rp1765
sg25
I0
sg26
g27
(g28
(I0
tp1766
g30
tp1767
Rp1768
(I1
(I2
tp1769
g36
I00
S'\xa2\x00\x00\x00{\x00\x00\x00'
p1770
tp1771
bsba(i__main__
FrameData
p1772
(dp1773
g6
g1717
sg8
g9
(g13
S'~\xc4#,B\xf9"@'
p1774
tp1775
Rp1776
sg19
I0
sg20
g21
(S'\x07\xdd\t\x1d\x13\x14\x0f\x0f\x11\x0e'
p1777
tp1778
Rp1779
sg25
I0
sg26
g27
(g28
(I0
tp1780
g30
tp1781
Rp1782
(I1
(I2
tp1783
g36
I00
S'\xa4\x00\x00\x00{\x00\x00\x00'
p1784
tp1785
bsba(i__main__
FrameData
p1786
(dp1787
g6
g1717
sg8
g9
(g13
S'\x00\x00\x00\x00\x00\x00 @'
p1788
tp1789
Rp1790
sg19
I0
sg20
g21
(S'\x07\xdd\t\x1d\x13\x14\x10\x00\x0b\x1b'
p1791
tp1792
Rp1793
sg25
I0
sg26
g27
(g28
(I0
tp1794
g30
tp1795
Rp1796
(I1
(I2
tp1797
g36
I00
S'\xa7\x00\x00\x00z\x00\x00\x00'
p1798
tp1799
bsba(i__main__
FrameData
p1800
(dp1801
g6
g1717
sg8
g9
(g13
S'\xa3\x14\xae\xa8\x87\x16!@'
p1802
tp1803
Rp1804
sg19
I0
sg20
g21
(S'\x07\xdd\t\x1d\x13\x14\x10\x00M\x00'
p1805
tp1806
Rp1807
sg25
I0
sg26
g27
(g28
(I0
tp1808
g30
tp1809
Rp1810
(I1
(I2
tp1811
g36
I00
S'\xaa\x00\x00\x00z\x00\x00\x00'
p1812
tp1813
bsba(i__main__
FrameData
p1814
(dp1815
g6
g1717
sg8
g9
(g13
S'6\xd0\xd2x\xa2B%@'
p1816
tp1817
Rp1818
sg19
I0
sg20
g21
(S'\x07\xdd\t\x1d\x13\x14\x10\x00\x8c\xa3'
p1819
tp1820
Rp1821
sg25
I0
sg26
g27
(g28
(I0
tp1822
g30
tp1823
Rp1824
(I1
(I2
tp1825
g36
I00
S'\xae\x00\x00\x00z\x00\x00\x00'
p1826
tp1827
bsba(i__main__
FrameData
p1828
(dp1829
g6
g1717
sg8
g9
(g13
S'F\xc3\\\xa8\xc1i(@'
p1830
tp1831
Rp1832
sg19
I0
sg20
g21
(S'\x07\xdd\t\x1d\x13\x14\x10\x00\xcf\x02'
p1833
tp1834
Rp1835
sg25
I0
sg26
g27
(g28
(I0
tp1836
g30
tp1837
Rp1838
(I1
(I2
tp1839
g36
I00
S'\xb1\x00\x00\x00y\x00\x00\x00'
p1840
tp1841
bsba(i__main__
FrameData
p1842
(dp1843
g6
S'k'
p1844
sg8
g9
(g13
S'\xeb\x12\xb2\xbb\xb2\xcd&@'
p1845
tp1846
Rp1847
sg19
I0
sg20
g21
(S'\x07\xdd\t\x1d\x13\x14\x10\x01\x10\x95'
p1848
tp1849
Rp1850
sg25
I0
sg26
g27
(g28
(I0
tp1851
g30
tp1852
Rp1853
(I1
(I2
tp1854
g36
I00
S'\xb5\x00\x00\x00y\x00\x00\x00'
p1855
tp1856
bsba(i__main__
FrameData
p1857
(dp1858
g6
g1844
sg8
g9
(g13
S'ST\xaf\x99\x8a\xcc#@'
p1859
tp1860
Rp1861
sg19
I0
sg20
g21
(S'\x07\xdd\t\x1d\x13\x14\x10\x01Q\xed'
p1862
tp1863
Rp1864
sg25
I0
sg26
g27
(g28
(I0
tp1865
g30
tp1866
Rp1867
(I1
(I2
tp1868
g36
I00
S'\xb7\x00\x00\x00y\x00\x00\x00'
p1869
tp1870
bsba(i__main__
FrameData
p1871
(dp1872
g6
g1844
sg8
g9
(g13
S'N\x017\xfac4!@'
p1873
tp1874
Rp1875
sg19
I0
sg20
g21
(S'\x07\xdd\t\x1d\x13\x14\x10\x01\x93\x08'
p1876
tp1877
Rp1878
sg25
I0
sg26
g27
(g28
(I0
tp1879
g30
tp1880
Rp1881
(I1
(I2
tp1882
g36
I00
S'\xb9\x00\x00\x00y\x00\x00\x00'
p1883
tp1884
bsba(i__main__
FrameData
p1885
(dp1886
g6
g1844
sg8
g9
(g13
S'p\xc4\x9d9\x8dv\x1e@'
p1887
tp1888
Rp1889
sg19
I0
sg20
g21
(S'\x07\xdd\t\x1d\x13\x14\x10\x01\xd6\x93'
p1890
tp1891
Rp1892
sg25
I0
sg26
g27
(g28
(I0
tp1893
g30
tp1894
Rp1895
(I1
(I2
tp1896
g36
I00
S'\xbb\x00\x00\x00y\x00\x00\x00'
p1897
tp1898
bsba(i__main__
FrameData
p1899
(dp1900
g6
g1844
sg8
g9
(g13
S'\xe9\xfbv \xd5\x1e\x1d@'
p1901
tp1902
Rp1903
sg19
I0
sg20
g21
(S'\x07\xdd\t\x1d\x13\x14\x10\x02\x15\x91'
p1904
tp1905
Rp1906
sg25
I0
sg26
g27
(g28
(I0
tp1907
g30
tp1908
Rp1909
(I1
(I2
tp1910
g36
I00
S'\xbc\x00\x00\x00y\x00\x00\x00'
p1911
tp1912
bsba(i__main__
FrameData
p1913
(dp1914
g6
g1844
sg8
g9
(g13
S'\xc0\n\x1f\x00\xc6H\x1c@'
p1915
tp1916
Rp1917
sg19
I0
sg20
g21
(S'\x07\xdd\t\x1d\x13\x14\x10\x02Y\xe7'
p1918
tp1919
Rp1920
sg25
I0
sg26
g27
(g28
(I0
tp1921
g30
tp1922
Rp1923
(I1
(I2
tp1924
g36
I00
S'\xbd\x00\x00\x00y\x00\x00\x00'
p1925
tp1926
bsba(i__main__
FrameData
p1927
(dp1928
g6
g1844
sg8
g9
(g13
S'\x00\x00\x00\x00\x00\x00\x1c@'
p1929
tp1930
Rp1931
sg19
I0
sg20
g21
(S'\x07\xdd\t\x1d\x13\x14\x10\x02\xd9W'
p1932
tp1933
Rp1934
sg25
I0
sg26
g27
(g28
(I0
tp1935
g30
tp1936
Rp1937
(I1
(I2
tp1938
g36
I00
S'\xbe\x00\x00\x00y\x00\x00\x00'
p1939
tp1940
bsba(i__main__
FrameData
p1941
(dp1942
g6
g1844
sg8
g9
(g13
S'\xc0\n\x1f\x00\xc6H\x1c@'
p1943
tp1944
Rp1945
sg19
I0
sg20
g21
(S'\x07\xdd\t\x1d\x13\x14\x10\x03\x1d\xe8'
p1946
tp1947
Rp1948
sg25
I0
sg26
g27
(g28
(I0
tp1949
g30
tp1950
Rp1951
(I1
(I2
tp1952
g36
I00
S'\xbf\x00\x00\x00y\x00\x00\x00'
p1953
tp1954
bsba(i__main__
FrameData
p1955
(dp1956
g6
g1844
sg8
g9
(g13
S'\xf3\xd9\xa8\xa4h\x8a\x15@'
p1957
tp1958
Rp1959
sg19
I0
sg20
g21
(S'\x07\xdd\t\x1d\x13\x14\x10\x06i\xdd'
p1960
tp1961
Rp1962
sg25
I0
sg26
g27
(g28
(I0
tp1963
g30
tp1964
Rp1965
(I1
(I2
tp1966
g36
I00
S'\xc0\x00\x00\x00w\x00\x00\x00'
p1967
tp1968
bsba(i__main__
FrameData
p1969
(dp1970
g6
g1844
sg8
g9
(g13
S'\xf6/\x12_ee\x14@'
p1971
tp1972
Rp1973
sg19
I0
sg20
g21
(S'\x07\xdd\t\x1d\x13\x14\x10\x06\xeee'
p1974
tp1975
Rp1976
sg25
I0
sg26
g27
(g28
(I0
tp1977
g30
tp1978
Rp1979
(I1
(I2
tp1980
g36
I00
S'\xbf\x00\x00\x00w\x00\x00\x00'
p1981
tp1982
bsba(i__main__
FrameData
p1983
(dp1984
g6
g1844
sg8
g9
(g13
S'\x00\x00\x00\x00\x00\x00\x14@'
p1985
tp1986
Rp1987
sg19
I0
sg20
g21
(S'\x07\xdd\t\x1d\x13\x14\x10\x07-\xae'
p1988
tp1989
Rp1990
sg25
I0
sg26
g27
(g28
(I0
tp1991
g30
tp1992
Rp1993
(I1
(I2
tp1994
g36
I00
S'\xbe\x00\x00\x00w\x00\x00\x00'
p1995
tp1996
bsba(i__main__
FrameData
p1997
(dp1998
g6
g1844
sg8
g9
(g13
S'\xf3\xd9\xa8\xa4h\x8a\x15@'
p1999
tp2000
Rp2001
sg19
I0
sg20
g21
(S'\x07\xdd\t\x1d\x13\x14\x10\x07q@'
p2002
tp2003
Rp2004
sg25
I0
sg26
g27
(g28
(I0
tp2005
g30
tp2006
Rp2007
(I1
(I2
tp2008
g36
I00
S'\xbc\x00\x00\x00w\x00\x00\x00'
p2009
tp2010
bsba(i__main__
FrameData
p2011
(dp2012
g6
g1844
sg8
g9
(g13
S'\x00\xff\x9f\x99\xcc\x9c\x19@'
p2013
tp2014
Rp2015
sg19
I0
sg20
g21
(S'\x07\xdd\t\x1d\x13\x14\x10\x07\xb2W'
p2016
tp2017
Rp2018
sg25
I0
sg26
g27
(g28
(I0
tp2019
g30
tp2020
Rp2021
(I1
(I2
tp2022
g36
I00
S'\xba\x00\x00\x00w\x00\x00\x00'
p2023
tp2024
bsba(i__main__
FrameData
p2025
(dp2026
g6
g1844
sg8
g9
(g13
S'\xf3YaD+\xd8\x1c@'
p2027
tp2028
Rp2029
sg19
I0
sg20
g21
(S'\x07\xdd\t\x1d\x13\x14\x10\x07\xf4v'
p2030
tp2031
Rp2032
sg25
I0
sg26
g27
(g28
(I0
tp2033
g30
tp2034
Rp2035
(I1
(I2
tp2036
g36
I00
S'\xb8\x00\x00\x00v\x00\x00\x00'
p2037
tp2038
bsba(i__main__
FrameData
p2039
(dp2040
g6
g1844
sg8
g9
(g13
S"\xe0\x11<m\xceh'@"
p2041
tp2042
Rp2043
sg19
I0
sg20
g21
(S'\x07\xdd\t\x1d\x13\x14\x10\x085\xcf'
p2044
tp2045
Rp2046
sg25
I0
sg26
g27
(g28
(I0
tp2047
g30
tp2048
Rp2049
(I1
(I2
tp2050
g36
I00
S'\xb3\x00\x00\x00v\x00\x00\x00'
p2051
tp2052
bsba(i__main__
FrameData
p2053
(dp2054
g6
g1717
sg8
g9
(g13
S'p\xc4\x9d9\x8dv\x1e@'
p2055
tp2056
Rp2057
sg19
I0
sg20
g21
(S'\x07\xdd\t\x1d\x13\x14\x10\x08s7'
p2058
tp2059
Rp2060
sg25
I0
sg26
g27
(g28
(I0
tp2061
g30
tp2062
Rp2063
(I1
(I2
tp2064
g36
I00
S'\xae\x00\x00\x00u\x00\x00\x00'
p2065
tp2066
bsba(i__main__
FrameData
p2067
(dp2068
g6
g1717
sg8
g9
(g13
S'\xf3YaD+\xd8\x0c@'
p2069
tp2070
Rp2071
sg19
I0
sg20
g21
(S'\x07\xdd\t\x1d\x13\x14\x10\x08\xb8i'
p2072
tp2073
Rp2074
sg25
I0
sg26
g27
(g28
(I0
tp2075
g30
tp2076
Rp2077
(I1
(I2
tp2078
g36
I00
S'\xa4\x00\x00\x00t\x00\x00\x00'
p2079
tp2080
bsba(i__main__
FrameData
p2081
(dp2082
g6
g1717
sg8
g9
(g13
S'\xd0\xbaa?\xe0\x1f @'
p2083
tp2084
Rp2085
sg19
I0
sg20
g21
(S'\x07\xdd\t\x1d\x13\x14\x10\x08\xf5\xf6'
p2086
tp2087
Rp2088
sg25
I0
sg26
g27
(g28
(I0
tp2089
g30
tp2090
Rp2091
(I1
(I2
tp2092
g36
I00
S'\x9f\x00\x00\x00s\x00\x00\x00'
p2093
tp2094
bsba(i__main__
FrameData
p2095
(dp2096
g6
g7
sg8
g9
(g13
S'\x00\x00\x00\x00\x00\x00\x14@'
p2097
tp2098
Rp2099
sg19
I0
sg20
g21
(S'\x07\xdd\t\x1d\x13\x14\x10\t:\x17'
p2100
tp2101
Rp2102
sg25
I0
sg26
g27
(g28
(I0
tp2103
g30
tp2104
Rp2105
(I1
(I2
tp2106
g36
I00
S'\x95\x00\x00\x00r\x00\x00\x00'
p2107
tp2108
bsba(i__main__
FrameData
p2109
(dp2110
g6
g7
sg8
g9
(g13
S'S[\xda:XL\t@'
p2111
tp2112
Rp2113
sg19
I0
sg20
g21
(S'\x07\xdd\t\x1d\x13\x14\x10\t|m'
p2114
tp2115
Rp2116
sg25
I0
sg26
g27
(g28
(I0
tp2117
g30
tp2118
Rp2119
(I1
(I2
tp2120
g36
I00
S'\x8f\x00\x00\x00o\x00\x00\x00'
p2121
tp2122
bsba(i__main__
FrameData
p2123
(dp2124
g6
g7
sg8
g9
(g13
S'htN\x17\xb2=\x1f@'
p2125
tp2126
Rp2127
sg19
I0
sg20
g21
(S'\x07\xdd\t\x1d\x13\x14\x10\t\xba\xc8'
p2128
tp2129
Rp2130
sg25
I0
sg26
g27
(g28
(I0
tp2131
g30
tp2132
Rp2133
(I1
(I2
tp2134
g36
I00
S'\x8a\x00\x00\x00m\x00\x00\x00'
p2135
tp2136
bsba(i__main__
FrameData
p2137
(dp2138
g6
g7
sg8
g9
(g13
S'\xef\rI\xf1\xf33+@'
p2139
tp2140
Rp2141
sg19
I0
sg20
g21
(S'\x07\xdd\t\x1d\x13\x14\x10\t\xfa\xf5'
p2142
tp2143
Rp2144
sg25
I0
sg26
g27
(g28
(I0
tp2145
g30
tp2146
Rp2147
(I1
(I2
tp2148
g36
I00
S'\x85\x00\x00\x00j\x00\x00\x00'
p2149
tp2150
bsba(i__main__
FrameData
p2151
(dp2152
g6
g85
sg8
g9
(g13
S'\xb4\xb8=iA\xe8*@'
p2153
tp2154
Rp2155
sg19
I0
sg20
g21
(S'\x07\xdd\t\x1d\x13\x14\x10\n=\xa0'
p2156
tp2157
Rp2158
sg25
I0
sg26
g27
(g28
(I0
tp2159
g30
tp2160
Rp2161
(I1
(I2
tp2162
g36
I00
S'\x82\x00\x00\x00i\x00\x00\x00'
p2163
tp2164
bsba(i__main__
FrameData
p2165
(dp2166
g6
g85
sg8
g9
(g13
S'Qf\x99\xcb\xa9\x13*@'
p2167
tp2168
Rp2169
sg19
I0
sg20
g21
(S'\x07\xdd\t\x1d\x13\x14\x10\n~H'
p2170
tp2171
Rp2172
sg25
I0
sg26
g27
(g28
(I0
tp2173
g30
tp2174
Rp2175
(I1
(I2
tp2176
g36
I00
S'\x7f\x00\x00\x00g\x00\x00\x00'
p2177
tp2178
bsba(i__main__
FrameData
p2179
(dp2180
g6
g85
sg8
g9
(g13
S'\xf7\x80Aq\xb9\xa2,@'
p2181
tp2182
Rp2183
sg19
I0
sg20
g21
(S'\x07\xdd\t\x1d\x13\x14\x10\n\xbf\x18'
p2184
tp2185
Rp2186
sg25
I0
sg26
g27
(g28
(I0
tp2187
g30
tp2188
Rp2189
(I1
(I2
tp2190
g36
I00
S'u\x00\x00\x00d\x00\x00\x00'
p2191
tp2192
bsba(i__main__
FrameData
p2193
(dp2194
g6
g85
sg8
g9
(g13
S'\xa8\xf4\x97\x9bw\xe31@'
p2195
tp2196
Rp2197
sg19
I0
sg20
g21
(S'\x07\xdd\t\x1d\x13\x14\x10\x0b\x048'
p2198
tp2199
Rp2200
sg25
I0
sg26
g27
(g28
(I0
tp2201
g30
tp2202
Rp2203
(I1
(I2
tp2204
g36
I00
S'p\x00\x00\x00b\x00\x00\x00'
p2205
tp2206
bsba(i__main__
FrameData
p2207
(dp2208
g6
S't'
p2209
sg8
g9
(g13
S'X(/\x84y\xae2@'
p2210
tp2211
Rp2212
sg19
I0
sg20
g21
(S'\x07\xdd\t\x1d\x13\x14\x10\x0bA\xee'
p2213
tp2214
Rp2215
sg25
I0
sg26
g27
(g28
(I0
tp2216
g30
tp2217
Rp2218
(I1
(I2
tp2219
g36
I00
S'e\x00\x00\x00]\x00\x00\x00'
p2220
tp2221
bsba(i__main__
FrameData
p2222
(dp2223
g6
g2209
sg8
g9
(g13
S'A\x87b\xc62\xde2@'
p2224
tp2225
Rp2226
sg19
I0
sg20
g21
(S'\x07\xdd\t\x1d\x13\x14\x10\x0b\x85\xb5'
p2227
tp2228
Rp2229
sg25
I0
sg26
g27
(g28
(I0
tp2230
g30
tp2231
Rp2232
(I1
(I2
tp2233
g36
I00
S'`\x00\x00\x00[\x00\x00\x00'
p2234
tp2235
bsba(i__main__
FrameData
p2236
(dp2237
g6
S'r'
p2238
sg8
g9
(g13
S'\xd0\xbaa?\xe0\x1f0@'
p2239
tp2240
Rp2241
sg19
I0
sg20
g21
(S'\x07\xdd\t\x1d\x13\x14\x10\x0b\xc8\x84'
p2242
tp2243
Rp2244
sg25
I0
sg26
g27
(g28
(I0
tp2245
g30
tp2246
Rp2247
(I1
(I2
tp2248
g36
I00
S'Z\x00\x00\x00Y\x00\x00\x00'
p2249
tp2250
bsba(i__main__
FrameData
p2251
(dp2252
g6
g2238
sg8
g9
(g13
S'S[\xda:XL)@'
p2253
tp2254
Rp2255
sg19
I0
sg20
g21
(S'\x07\xdd\t\x1d\x13\x14\x10\x0c\x05V'
p2256
tp2257
Rp2258
sg25
I0
sg26
g27
(g28
(I0
tp2259
g30
tp2260
Rp2261
(I1
(I2
tp2262
g36
I00
S'V\x00\x00\x00W\x00\x00\x00'
p2263
tp2264
bsba(i__main__
FrameData
p2265
(dp2266
g6
g2238
sg8
g9
(g13
S'\xf0)#L\x89\x19$@'
p2267
tp2268
Rp2269
sg19
I0
sg20
g21
(S'\x07\xdd\t\x1d\x13\x14\x10\x0cF\x9d'
p2270
tp2271
Rp2272
sg25
I0
sg26
g27
(g28
(I0
tp2273
g30
tp2274
Rp2275
(I1
(I2
tp2276
g36
I00
S'Q\x00\x00\x00U\x00\x00\x00'
p2277
tp2278
bsba(i__main__
FrameData
p2279
(dp2280
g6
g2238
sg8
g9
(g13
S'ST\xaf\x99\x8a\xcc#@'
p2281
tp2282
Rp2283
sg19
I0
sg20
g21
(S'\x07\xdd\t\x1d\x13\x14\x10\x0c\x8b\xd6'
p2284
tp2285
Rp2286
sg25
I0
sg26
g27
(g28
(I0
tp2287
g30
tp2288
Rp2289
(I1
(I2
tp2290
g36
I00
S'K\x00\x00\x00R\x00\x00\x00'
p2291
tp2292
bsba(i__main__
FrameData
p2293
(dp2294
g6
S'e'
p2295
sg8
g9
(g13
S"\xe0\x11<m\xceh'@"
p2296
tp2297
Rp2298
sg19
I0
sg20
g21
(S'\x07\xdd\t\x1d\x13\x14\x10\x0c\xceG'
p2299
tp2300
Rp2301
sg25
I0
sg26
g27
(g28
(I0
tp2302
g30
tp2303
Rp2304
(I1
(I2
tp2305
g36
I00
S'F\x00\x00\x00P\x00\x00\x00'
p2306
tp2307
bsba(i__main__
FrameData
p2308
(dp2309
g6
g2295
sg8
g9
(g13
S'\xe9\xfbv \xd5\x1e\x1d@'
p2310
tp2311
Rp2312
sg19
I0
sg20
g21
(S'\x07\xdd\t\x1d\x13\x14\x10\r\ny'
p2313
tp2314
Rp2315
sg25
I0
sg26
g27
(g28
(I0
tp2316
g30
tp2317
Rp2318
(I1
(I2
tp2319
g36
I00
S'B\x00\x00\x00N\x00\x00\x00'
p2320
tp2321
bsba(i__main__
FrameData
p2322
(dp2323
g6
g2295
sg8
g9
(g13
S'\x00\x00\x00\x00\x00\x00\x08@'
p2324
tp2325
Rp2326
sg19
I0
sg20
g21
(S'\x07\xdd\t\x1d\x13\x14\x10\rM\xb3'
p2327
tp2328
Rp2329
sg25
I0
sg26
g27
(g28
(I0
tp2330
g30
tp2331
Rp2332
(I1
(I2
tp2333
g36
I00
S'>\x00\x00\x00L\x00\x00\x00'
p2334
tp2335
bsba(i__main__
FrameData
p2336
(dp2337
g6
g2295
sg8
g9
(g13
S'\x00\x00\x00\x00\x00\x00\xf0?'
p2338
tp2339
Rp2340
sg19
I0
sg20
g21
(S'\x07\xdd\t\x1d\x13\x14\x10\r\x8e\xb8'
p2341
tp2342
Rp2343
sg25
I0
sg26
g27
(g28
(I0
tp2344
g30
tp2345
Rp2346
(I1
(I2
tp2347
g36
I00
S';\x00\x00\x00K\x00\x00\x00'
p2348
tp2349
bsba(i__main__
FrameData
p2350
(dp2351
g6
g2295
sg8
g9
(g13
S'\xcd;\x7ff\x9e\xa0\x06@'
p2352
tp2353
Rp2354
sg19
I0
sg20
g21
(S'\x07\xdd\t\x1d\x13\x14\x10\r\xcd\xa2'
p2355
tp2356
Rp2357
sg25
I0
sg26
g27
(g28
(I0
tp2358
g30
tp2359
Rp2360
(I1
(I2
tp2361
g36
I00
S'9\x00\x00\x00J\x00\x00\x00'
p2362
tp2363
bsba(i__main__
FrameData
p2364
(dp2365
g6
g2295
sg8
g9
(g13
S'\xf3YaD+\xd8\x0c@'
p2366
tp2367
Rp2368
sg19
I0
sg20
g21
(S'\x07\xdd\t\x1d\x13\x14\x10\x0e\x13\xba'
p2369
tp2370
Rp2371
sg25
I0
sg26
g27
(g28
(I0
tp2372
g30
tp2373
Rp2374
(I1
(I2
tp2375
g36
I00
S'8\x00\x00\x00J\x00\x00\x00'
p2376
tp2377
bsba(i__main__
FrameData
p2378
(dp2379
g6
g2295
sg8
g9
(g13
S'\x00\x00\x00\x00\x00\x00\x14@'
p2380
tp2381
Rp2382
sg19
I0
sg20
g21
(S'\x07\xdd\t\x1d\x13\x14\x10\x0eT\x07'
p2383
tp2384
Rp2385
sg25
I0
sg26
g27
(g28
(I0
tp2386
g30
tp2387
Rp2388
(I1
(I2
tp2389
g36
I00
S'8\x00\x00\x00H\x00\x00\x00'
p2390
tp2391
bsba(i__main__
FrameData
p2392
(dp2393
g6
g2295
sg8
g9
(g13
S'\xcd;\x7ff\x9e\xa0\x16@'
p2394
tp2395
Rp2396
sg19
I0
sg20
g21
(S'\x07\xdd\t\x1d\x13\x14\x10\x0e\x92O'
p2397
tp2398
Rp2399
sg25
I0
sg26
g27
(g28
(I0
tp2400
g30
tp2401
Rp2402
(I1
(I2
tp2403
g36
I00
S'7\x00\x00\x00H\x00\x00\x00'
p2404
tp2405
bsba(i__main__
FrameData
p2406
(dp2407
g6
g2295
sg8
g9
(g13
S'\xc0\n\x1f\x00\xc6H\x1c@'
p2408
tp2409
Rp2410
sg19
I0
sg20
g21
(S'\x07\xdd\t\x1d\x13\x14\x10\x0e\xd4\xa5'
p2411
tp2412
Rp2413
sg25
I0
sg26
g27
(g28
(I0
tp2414
g30
tp2415
Rp2416
(I1
(I2
tp2417
g36
I00
S'6\x00\x00\x00G\x00\x00\x00'
p2418
tp2419
bsba(i__main__
FrameData
p2420
(dp2421
g6
g2295
sg8
g9
(g13
S'\x00\xff\x9f\x99\xcc\x9c\x19@'
p2422
tp2423
Rp2424
sg19
I0
sg20
g21
(S'\x07\xdd\t\x1d\x13\x14\x11\x02\x9f\x96'
p2425
tp2426
Rp2427
sg25
I0
sg26
g27
(g28
(I0
tp2428
g30
tp2429
Rp2430
(I1
(I2
tp2431
g36
I00
S'7\x00\x00\x00G\x00\x00\x00'
p2432
tp2433
bsba(i__main__
FrameData
p2434
(dp2435
g6
g2295
sg8
g9
(g13
S'\xa2\xa3\xb3\r\xe5R\x17@'
p2436
tp2437
Rp2438
sg19
I0
sg20
g21
(S'\x07\xdd\t\x1d\x13\x14\x11\x03b\xd4'
p2439
tp2440
Rp2441
sg25
I0
sg26
g27
(g28
(I0
tp2442
g30
tp2443
Rp2444
(I1
(I2
tp2445
g36
I00
S'8\x00\x00\x00G\x00\x00\x00'
p2446
tp2447
bsba(i__main__
FrameData
p2448
(dp2449
g6
g2295
sg8
g9
(g13
S'\xf3\xd9\xa8\xa4h\x8a\x15@'
p2450
tp2451
Rp2452
sg19
I0
sg20
g21
(S'\x07\xdd\t\x1d\x13\x14\x11\x03\xe6P'
p2453
tp2454
Rp2455
sg25
I0
sg26
g27
(g28
(I0
tp2456
g30
tp2457
Rp2458
(I1
(I2
tp2459
g36
I00
S'9\x00\x00\x00G\x00\x00\x00'
p2460
tp2461
bsba(i__main__
FrameData
p2462
(dp2463
g6
g2295
sg8
g9
(g13
S'\xf6/\x12_ee\x14@'
p2464
tp2465
Rp2466
sg19
I0
sg20
g21
(S"\x07\xdd\t\x1d\x13\x14\x11\x04m'"
p2467
tp2468
Rp2469
sg25
I0
sg26
g27
(g28
(I0
tp2470
g30
tp2471
Rp2472
(I1
(I2
tp2473
g36
I00
S':\x00\x00\x00G\x00\x00\x00'
p2474
tp2475
bsba(i__main__
FrameData
p2476
(dp2477
g6
g2295
sg8
g9
(g13
S'\x00\x00\x00\x00\x00\x00\x14@'
p2478
tp2479
Rp2480
sg19
I0
sg20
g21
(S'\x07\xdd\t\x1d\x13\x14\x11\x04\xea\xdf'
p2481
tp2482
Rp2483
sg25
I0
sg26
g27
(g28
(I0
tp2484
g30
tp2485
Rp2486
(I1
(I2
tp2487
g36
I00
S';\x00\x00\x00G\x00\x00\x00'
p2488
tp2489
bsba(i__main__
FrameData
p2490
(dp2491
g6
g2295
sg8
g9
(g13
S'\xf6/\x12_ee\x14@'
p2492
tp2493
Rp2494
sg19
I0
sg20
g21
(S'\x07\xdd\t\x1d\x13\x14\x11\x05,\xbf'
p2495
tp2496
Rp2497
sg25
I0
sg26
g27
(g28
(I0
tp2498
g30
tp2499
Rp2500
(I1
(I2
tp2501
g36
I00
S'<\x00\x00\x00G\x00\x00\x00'
p2502
tp2503
bsba(i__main__
FrameData
p2504
(dp2505
g6
g2295
sg8
g9
(g13
S'\xf3\xd9\xa8\xa4h\x8a\x15@'
p2506
tp2507
Rp2508
sg19
I0
sg20
g21
(S'\x07\xdd\t\x1d\x13\x14\x11\x05\xae\xae'
p2509
tp2510
Rp2511
sg25
I0
sg26
g27
(g28
(I0
tp2512
g30
tp2513
Rp2514
(I1
(I2
tp2515
g36
I00
S'=\x00\x00\x00G\x00\x00\x00'
p2516
tp2517
bsba(i__main__
FrameData
p2518
(dp2519
g6
g2295
sg8
g9
(g13
S'\xa2\xa3\xb3\r\xe5R\x17@'
p2520
tp2521
Rp2522
sg19
I0
sg20
g21
(S'\x07\xdd\t\x1d\x13\x14\x11\x05\xf3\xed'
p2523
tp2524
Rp2525
sg25
I0
sg26
g27
(g28
(I0
tp2526
g30
tp2527
Rp2528
(I1
(I2
tp2529
g36
I00
S'>\x00\x00\x00G\x00\x00\x00'
p2530
tp2531
bsba(i__main__
FrameData
p2532
(dp2533
g6
g2295
sg8
g9
(g13
S'\x00\xff\x9f\x99\xcc\x9c\x19@'
p2534
tp2535
Rp2536
sg19
I0
sg20
g21
(S'\x07\xdd\t\x1d\x13\x14\x11\x06ur'
p2537
tp2538
Rp2539
sg25
I0
sg26
g27
(g28
(I0
tp2540
g30
tp2541
Rp2542
(I1
(I2
tp2543
g36
I00
S'?\x00\x00\x00G\x00\x00\x00'
p2544
tp2545
bsba(i__main__
FrameData
p2546
(dp2547
g6
g2295
sg8
g9
(g13
S'\xc0\n\x1f\x00\xc6H\x1c@'
p2548
tp2549
Rp2550
sg19
I0
sg20
g21
(S'\x07\xdd\t\x1d\x13\x14\x11\x06\xb6\x17'
p2551
tp2552
Rp2553
sg25
I0
sg26
g27
(g28
(I0
tp2554
g30
tp2555
Rp2556
(I1
(I2
tp2557
g36
I00
S'@\x00\x00\x00G\x00\x00\x00'
p2558
tp2559
bsba(i__main__
FrameData
p2560
(dp2561
g6
g2295
sg8
g9
(g13
S'htN\x17\xb2=\x1f@'
p2562
tp2563
Rp2564
sg19
I0
sg20
g21
(S'\x07\xdd\t\x1d\x13\x14\x11\x06\xf5\xe7'
p2565
tp2566
Rp2567
sg25
I0
sg26
g27
(g28
(I0
tp2568
g30
tp2569
Rp2570
(I1
(I2
tp2571
g36
I00
S'A\x00\x00\x00G\x00\x00\x00'
p2572
tp2573
bsba(i__main__
FrameData
p2574
(dp2575
g6
g2295
sg8
g9
(g13
S'\xa3\x14\xae\xa8\x87\x16!@'
p2576
tp2577
Rp2578
sg19
I0
sg20
g21
(S'\x07\xdd\t\x1d\x13\x14\x11\x079l'
p2579
tp2580
Rp2581
sg25
I0
sg26
g27
(g28
(I0
tp2582
g30
tp2583
Rp2584
(I1
(I2
tp2585
g36
I00
S'C\x00\x00\x00I\x00\x00\x00'
p2586
tp2587
bsba(i__main__
FrameData
p2588
(dp2589
g6
g2295
sg8
g9
(g13
S'~\xc4#,B\xf9"@'
p2590
tp2591
Rp2592
sg19
I0
sg20
g21
(S'\x07\xdd\t\x1d\x13\x14\x11\x07x&'
p2593
tp2594
Rp2595
sg25
I0
sg26
g27
(g28
(I0
tp2596
g30
tp2597
Rp2598
(I1
(I2
tp2599
g36
I00
S'D\x00\x00\x00I\x00\x00\x00'
p2600
tp2601
bsba(i__main__
FrameData
p2602
(dp2603
g6
g2295
sg8
g9
(g13
S'\xeb\x12\xb2\xbb\xb2\xcd&@'
p2604
tp2605
Rp2606
sg19
I0
sg20
g21
(S'\x07\xdd\t\x1d\x13\x14\x11\x07\xb8\x0e'
p2607
tp2608
Rp2609
sg25
I0
sg26
g27
(g28
(I0
tp2610
g30
tp2611
Rp2612
(I1
(I2
tp2613
g36
I00
S'F\x00\x00\x00I\x00\x00\x00'
p2614
tp2615
bsba(i__main__
FrameData
p2616
(dp2617
g6
g2238
sg8
g9
(g13
S'\xd2\xf1}\x82U\\&@'
p2618
tp2619
Rp2620
sg19
I0
sg20
g21
(S'\x07\xdd\t\x1d\x13\x14\x11\x07\xfdg'
p2621
tp2622
Rp2623
sg25
I0
sg26
g27
(g28
(I0
tp2624
g30
tp2625
Rp2626
(I1
(I2
tp2627
g36
I00
S'G\x00\x00\x00I\x00\x00\x00'
p2628
tp2629
bsba(i__main__
FrameData
p2630
(dp2631
g6
g2238
sg8
g9
(g13
S'\xf6/\x12_ee$@'
p2632
tp2633
Rp2634
sg19
I0
sg20
g21
(S'\x07\xdd\t\x1d\x13\x14\x11\x08;`'
p2635
tp2636
Rp2637
sg25
I0
sg26
g27
(g28
(I0
tp2638
g30
tp2639
Rp2640
(I1
(I2
tp2641
g36
I00
S'H\x00\x00\x00I\x00\x00\x00'
p2642
tp2643
bsba(i__main__
FrameData
p2644
(dp2645
g6
g2238
sg8
g9
(g13
S'\x07\xed\xaff\x0f~ @'
p2646
tp2647
Rp2648
sg19
I0
sg20
g21
(S'\x07\xdd\t\x1d\x13\x14\x11\x08\xc1>'
p2649
tp2650
Rp2651
sg25
I0
sg26
g27
(g28
(I0
tp2652
g30
tp2653
Rp2654
(I1
(I2
tp2655
g36
I00
S'J\x00\x00\x00I\x00\x00\x00'
p2656
tp2657
bsba(i__main__
FrameData
p2658
(dp2659
g6
g2238
sg8
g9
(g13
S'\xe9\xfbv \xd5\x1e\x1d@'
p2660
tp2661
Rp2662
sg19
I0
sg20
g21
(S'\x07\xdd\t\x1d\x13\x14\x11\t?s'
p2663
tp2664
Rp2665
sg25
I0
sg26
g27
(g28
(I0
tp2666
g30
tp2667
Rp2668
(I1
(I2
tp2669
g36
I00
S'K\x00\x00\x00I\x00\x00\x00'
p2670
tp2671
bsba(i__main__
FrameData
p2672
(dp2673
g6
g2238
sg8
g9
(g13
S'S[\xda:XL\x19@'
p2674
tp2675
Rp2676
sg19
I0
sg20
g21
(S'\x07\xdd\t\x1d\x13\x14\x11\t\x823'
p2677
tp2678
Rp2679
sg25
I0
sg26
g27
(g28
(I0
tp2680
g30
tp2681
Rp2682
(I1
(I2
tp2683
g36
I00
S'L\x00\x00\x00I\x00\x00\x00'
p2684
tp2685
bsba(i__main__
FrameData
p2686
(dp2687
g6
g2238
sg8
g9
(g13
S'\xf3\xd9\xa8\xa4h\x8a\x15@'
p2688
tp2689
Rp2690
sg19
I0
sg20
g21
(S'\x07\xdd\t\x1d\x13\x14\x11\n\x03\x14'
p2691
tp2692
Rp2693
sg25
I0
sg26
g27
(g28
(I0
tp2694
g30
tp2695
Rp2696
(I1
(I2
tp2697
g36
I00
S'M\x00\x00\x00I\x00\x00\x00'
p2698
tp2699
bsba(i__main__
FrameData
p2700
(dp2701
g6
g2238
sg8
g9
(g13
S'\xa8\xf4\x97\x9bw\xe3\x11@'
p2702
tp2703
Rp2704
sg19
I0
sg20
g21
(S'\x07\xdd\t\x1d\x13\x14\x11\nI\x0c'
p2705
tp2706
Rp2707
sg25
I0
sg26
g27
(g28
(I0
tp2708
g30
tp2709
Rp2710
(I1
(I2
tp2711
g36
I00
S'N\x00\x00\x00I\x00\x00\x00'
p2712
tp2713
bsba(i__main__
FrameData
p2714
(dp2715
g6
g2238
sg8
g9
(g13
S'\xf3YaD+\xd8\x0c@'
p2716
tp2717
Rp2718
sg19
I0
sg20
g21
(S'\x07\xdd\t\x1d\x13\x14\x11\n\xc7\x85'
p2719
tp2720
Rp2721
sg25
I0
sg26
g27
(g28
(I0
tp2722
g30
tp2723
Rp2724
(I1
(I2
tp2725
g36
I00
S'O\x00\x00\x00I\x00\x00\x00'
p2726
tp2727
bsba(i__main__
FrameData
p2728
(dp2729
g6
g2238
sg8
g9
(g13
S'\xcd;\x7ff\x9e\xa0\x06@'
p2730
tp2731
Rp2732
sg19
I0
sg20
g21
(S'\x07\xdd\t\x1d\x13\x14\x11\x0bLI'
p2733
tp2734
Rp2735
sg25
I0
sg26
g27
(g28
(I0
tp2736
g30
tp2737
Rp2738
(I1
(I2
tp2739
g36
I00
S'P\x00\x00\x00I\x00\x00\x00'
p2740
tp2741
bsba(i__main__
FrameData
p2742
(dp2743
g6
g2238
sg8
g9
(g13
S'\xa8\xf4\x97\x9bw\xe3\x01@'
p2744
tp2745
Rp2746
sg19
I0
sg20
g21
(S"\x07\xdd\t\x1d\x13\x14\x12\x02'o"
p2747
tp2748
Rp2749
sg25
I0
sg26
g27
(g28
(I0
tp2750
g30
tp2751
Rp2752
(I1
(I2
tp2753
g36
I00
S'P\x00\x00\x00J\x00\x00\x00'
p2754
tp2755
bsba(i__main__
FrameData
p2756
(dp2757
g6
g2238
sg8
g9
(g13
S'\x00\x00\x00\x00\x00\x00\x00@'
p2758
tp2759
Rp2760
sg19
I0
sg20
g21
(S'\x07\xdd\t\x1d\x13\x14\x12\x02\xa7\xe5'
p2761
tp2762
Rp2763
sg25
I0
sg26
g27
(g28
(I0
tp2764
g30
tp2765
Rp2766
(I1
(I2
tp2767
g36
I00
S'P\x00\x00\x00K\x00\x00\x00'
p2768
tp2769
bsba(i__main__
FrameData
p2770
(dp2771
g6
g2238
sg8
g9
(g13
S'\xa8\xf4\x97\x9bw\xe3\x01@'
p2772
tp2773
Rp2774
sg19
I0
sg20
g21
(S'\x07\xdd\t\x1d\x13\x14\x12\x02\xeaR'
p2775
tp2776
Rp2777
sg25
I0
sg26
g27
(g28
(I0
tp2778
g30
tp2779
Rp2780
(I1
(I2
tp2781
g36
I00
S'P\x00\x00\x00L\x00\x00\x00'
p2782
tp2783
bsba(i__main__
FrameData
p2784
(dp2785
g6
g2238
sg8
g9
(g13
S'\xcd;\x7ff\x9e\xa0\x06@'
p2786
tp2787
Rp2788
sg19
I0
sg20
g21
(S'\x07\xdd\t\x1d\x13\x14\x12\x03,\xb7'
p2789
tp2790
Rp2791
sg25
I0
sg26
g27
(g28
(I0
tp2792
g30
tp2793
Rp2794
(I1
(I2
tp2795
g36
I00
S'P\x00\x00\x00M\x00\x00\x00'
p2796
tp2797
bsba(i__main__
FrameData
p2798
(dp2799
g6
g2238
sg8
g9
(g13
S'\xd9l\xdf\xccv\xf8\x10@'
p2800
tp2801
Rp2802
sg19
I0
sg20
g21
(S'\x07\xdd\t\x1d\x13\x14\x12\x03k\xfe'
p2803
tp2804
Rp2805
sg25
I0
sg26
g27
(g28
(I0
tp2806
g30
tp2807
Rp2808
(I1
(I2
tp2809
g36
I00
S'O\x00\x00\x00N\x00\x00\x00'
p2810
tp2811
bsba(i__main__
FrameData
p2812
(dp2813
g6
g2238
sg8
g9
(g13
S'\xa2\xa3\xb3\r\xe5R\x17@'
p2814
tp2815
Rp2816
sg19
I0
sg20
g21
(S'\x07\xdd\t\x1d\x13\x14\x12\x03\xb1H'
p2817
tp2818
Rp2819
sg25
I0
sg26
g27
(g28
(I0
tp2820
g30
tp2821
Rp2822
(I1
(I2
tp2823
g36
I00
S'M\x00\x00\x00N\x00\x00\x00'
p2824
tp2825
bsba(i__main__
FrameData
p2826
(dp2827
g6
g2238
sg8
g9
(g13
S'htN\x17\xb2=\x1f@'
p2828
tp2829
Rp2830
sg19
I0
sg20
g21
(S'\x07\xdd\t\x1d\x13\x14\x12\x03\xed\x92'
p2831
tp2832
Rp2833
sg25
I0
sg26
g27
(g28
(I0
tp2834
g30
tp2835
Rp2836
(I1
(I2
tp2837
g36
I00
S'L\x00\x00\x00P\x00\x00\x00'
p2838
tp2839
bsba(i__main__
FrameData
p2840
(dp2841
g6
g2238
sg8
g9
(g13
S'\x9a.\x90!hp"@'
p2842
tp2843
Rp2844
sg19
I0
sg20
g21
(S'\x07\xdd\t\x1d\x13\x14\x12\x04/\xe3'
p2845
tp2846
Rp2847
sg25
I0
sg26
g27
(g28
(I0
tp2848
g30
tp2849
Rp2850
(I1
(I2
tp2851
g36
I00
S'K\x00\x00\x00Q\x00\x00\x00'
p2852
tp2853
bsba(i__main__
FrameData
p2854
(dp2855
g6
g2238
sg8
g9
(g13
S'\x00\xff\x9f\x99\xcc\x9c)@'
p2856
tp2857
Rp2858
sg19
I0
sg20
g21
(S'\x07\xdd\t\x1d\x13\x14\x12\x04q~'
p2859
tp2860
Rp2861
sg25
I0
sg26
g27
(g28
(I0
tp2862
g30
tp2863
Rp2864
(I1
(I2
tp2865
g36
I00
S'H\x00\x00\x00S\x00\x00\x00'
p2866
tp2867
bsba(i__main__
FrameData
p2868
(dp2869
g6
g2295
sg8
g9
(g13
S'/\xa4\xe3\\m\xbb-@'
p2870
tp2871
Rp2872
sg19
I0
sg20
g21
(S'\x07\xdd\t\x1d\x13\x14\x12\x04\xb4}'
p2873
tp2874
Rp2875
sg25
I0
sg26
g27
(g28
(I0
tp2876
g30
tp2877
Rp2878
(I1
(I2
tp2879
g36
I00
S'F\x00\x00\x00V\x00\x00\x00'
p2880
tp2881
bsba(i__main__
FrameData
p2882
(dp2883
g6
g2295
sg8
g9
(g13
S'/\xa4\xe3\\m\xbb-@'
p2884
tp2885
Rp2886
sg19
I0
sg20
g21
(S'\x07\xdd\t\x1d\x13\x14\x12\x04\xf3\xd2'
p2887
tp2888
Rp2889
sg25
I0
sg26
g27
(g28
(I0
tp2890
g30
tp2891
Rp2892
(I1
(I2
tp2893
g36
I00
S'E\x00\x00\x00W\x00\x00\x00'
p2894
tp2895
bsba(i__main__
FrameData
p2896
(dp2897
g6
g2295
sg8
g9
(g13
S"'\xf2\x90In\x9f/@"
p2898
tp2899
Rp2900
sg19
I0
sg20
g21
(S'\x07\xdd\t\x1d\x13\x14\x12\x059\x11'
p2901
tp2902
Rp2903
sg25
I0
sg26
g27
(g28
(I0
tp2904
g30
tp2905
Rp2906
(I1
(I2
tp2907
g36
I00
S'D\x00\x00\x00Y\x00\x00\x00'
p2908
tp2909
bsba(i__main__
FrameData
p2910
(dp2911
g6
g2295
sg8
g9
(g13
S'\xc5Bl?W\x87.@'
p2912
tp2913
Rp2914
sg19
I0
sg20
g21
(S'\x07\xdd\t\x1d\x13\x14\x12\x05v\xaa'
p2915
tp2916
Rp2917
sg25
I0
sg26
g27
(g28
(I0
tp2918
g30
tp2919
Rp2920
(I1
(I2
tp2921
g36
I00
S'C\x00\x00\x00Y\x00\x00\x00'
p2922
tp2923
bsba(i__main__
FrameData
p2924
(dp2925
g6
g2295
sg8
g9
(g13
S'&\xecIP\x11N/@'
p2926
tp2927
Rp2928
sg19
I0
sg20
g21
(S'\x07\xdd\t\x1d\x13\x14\x12\x05\xba\xac'
p2929
tp2930
Rp2931
sg25
I0
sg26
g27
(g28
(I0
tp2932
g30
tp2933
Rp2934
(I1
(I2
tp2935
g36
I00
S'B\x00\x00\x00Z\x00\x00\x00'
p2936
tp2937
bsba(i__main__
FrameData
p2938
(dp2939
g6
g2295
sg8
g9
(g13
S'\xaa\xd9\xb1\xd3\x8d\x8d0@'
p2940
tp2941
Rp2942
sg19
I0
sg20
g21
(S'\x07\xdd\t\x1d\x13\x14\x12\x06<C'
p2943
tp2944
Rp2945
sg25
I0
sg26
g27
(g28
(I0
tp2946
g30
tp2947
Rp2948
(I1
(I2
tp2949
g36
I00
S'B\x00\x00\x00[\x00\x00\x00'
p2950
tp2951
bsba(i__main__
FrameData
p2952
(dp2953
g6
g2295
sg8
g9
(g13
S'\xa3\x14\xae\xa8\x87\x161@'
p2954
tp2955
Rp2956
sg19
I0
sg20
g21
(S'\x07\xdd\t\x1d\x13\x14\x12\x06~\xa0'
p2957
tp2958
Rp2959
sg25
I0
sg26
g27
(g28
(I0
tp2960
g30
tp2961
Rp2962
(I1
(I2
tp2963
g36
I00
S'A\x00\x00\x00\\\x00\x00\x00'
p2964
tp2965
bsba(i__main__
FrameData
p2966
(dp2967
g6
g2295
sg8
g9
(g13
S'>9\x15\x8cW\xc30@'
p2968
tp2969
Rp2970
sg19
I0
sg20
g21
(S'\x07\xdd\t\x1d\x13\x14\x12\x06\xc0\xde'
p2971
tp2972
Rp2973
sg25
I0
sg26
g27
(g28
(I0
tp2974
g30
tp2975
Rp2976
(I1
(I2
tp2977
g36
I00
S'@\x00\x00\x00\\\x00\x00\x00'
p2978
tp2979
bsba(i__main__
FrameData
p2980
(dp2981
g6
g2295
sg8
g9
(g13
S'\xa0\x96\xf4\xe0T\xb81@'
p2982
tp2983
Rp2984
sg19
I0
sg20
g21
(S'\x07\xdd\t\x1d\x13\x14\x12\x06\xfeT'
p2985
tp2986
Rp2987
sg25
I0
sg26
g27
(g28
(I0
tp2988
g30
tp2989
Rp2990
(I1
(I2
tp2991
g36
I00
S'@\x00\x00\x00]\x00\x00\x00'
p2992
tp2993
bsba(i__main__
FrameData
p2994
(dp2995
g6
g2295
sg8
g9
(g13
S'\xa8y\x0c\t\xd9v1@'
p2996
tp2997
Rp2998
sg19
I0
sg20
g21
(S'\x07\xdd\t\x1d\x13\x14\x12\x07?\x8c'
p2999
tp3000
Rp3001
sg25
I0
sg26
g27
(g28
(I0
tp3002
g30
tp3003
Rp3004
(I1
(I2
tp3005
g36
I00
S'?\x00\x00\x00]\x00\x00\x00'
p3006
tp3007
bsba(i__main__
FrameData
p3008
(dp3009
g6
g2295
sg8
g9
(g13
S'\xfb\xefg\xc4>C1@'
p3010
tp3011
Rp3012
sg19
I0
sg20
g21
(S'\x07\xdd\t\x1d\x13\x14\x12\x07\x81\xd8'
p3013
tp3014
Rp3015
sg25
I0
sg26
g27
(g28
(I0
tp3016
g30
tp3017
Rp3018
(I1
(I2
tp3019
g36
I00
S'>\x00\x00\x00]\x00\x00\x00'
p3020
tp3021
bsba(i__main__
FrameData
p3022
(dp3023
g6
g2295
sg8
g9
(g13
S'+\xe5\x8a\xc6\x8f?2@'
p3024
tp3025
Rp3026
sg19
I0
sg20
g21
(S'\x07\xdd\t\x1d\x13\x14\x12\x07\xc1\x12'
p3027
tp3028
Rp3029
sg25
I0
sg26
g27
(g28
(I0
tp3030
g30
tp3031
Rp3032
(I1
(I2
tp3033
g36
I00
S'>\x00\x00\x00^\x00\x00\x00'
p3034
tp3035
bsba(i__main__
FrameData
p3036
(dp3037
g6
g2295
sg8
g9
(g13
S'$\xf8\xd9p[\x1c2@'
p3038
tp3039
Rp3040
sg19
I0
sg20
g21
(S'\x07\xdd\t\x1d\x13\x14\x12\x08\x03m'
p3041
tp3042
Rp3043
sg25
I0
sg26
g27
(g28
(I0
tp3044
g30
tp3045
Rp3046
(I1
(I2
tp3047
g36
I00
S'=\x00\x00\x00^\x00\x00\x00'
p3048
tp3049
bsba(i__main__
FrameData
p3050
(dp3051
g6
g2295
sg8
g9
(g13
S'\xf0)#L\x89\x194@'
p3052
tp3053
Rp3054
sg19
I0
sg20
g21
(S'\x07\xdd\t\x1d\x13\x14\x12\x08B\xbd'
p3055
tp3056
Rp3057
sg25
I0
sg26
g27
(g28
(I0
tp3058
g30
tp3059
Rp3060
(I1
(I2
tp3061
g36
I00
S'=\x00\x00\x00`\x00\x00\x00'
p3062
tp3063
bsba(i__main__
FrameData
p3064
(dp3065
g6
g312
sg8
g9
(g13
S'/vo\xf2\x9ej3@'
p3066
tp3067
Rp3068
sg19
I0
sg20
g21
(S'\x07\xdd\t\x1d\x13\x14\x12\x08\x85\x04'
p3069
tp3070
Rp3071
sg25
I0
sg26
g27
(g28
(I0
tp3072
g30
tp3073
Rp3074
(I1
(I2
tp3075
g36
I00
S'<\x00\x00\x00a\x00\x00\x00'
p3076
tp3077
bsba(i__main__
FrameData
p3078
(dp3079
g6
g312
sg8
g9
(g13
S'\xb9\xbaF\xca+~1@'
p3080
tp3081
Rp3082
sg19
I0
sg20
g21
(S'\x07\xdd\t\x1d\x13\x14\x12\x08\xc7I'
p3083
tp3084
Rp3085
sg25
I0
sg26
g27
(g28
(I0
tp3086
g30
tp3087
Rp3088
(I1
(I2
tp3089
g36
I00
S':\x00\x00\x00b\x00\x00\x00'
p3090
tp3091
bsba(i__main__
FrameData
p3092
(dp3093
g6
g312
sg8
g9
(g13
S'\xd0\xbaa?\xe0\x1f0@'
p3094
tp3095
Rp3096
sg19
I0
sg20
g21
(S'\x07\xdd\t\x1d\x13\x14\x12\t\t\xc5'
p3097
tp3098
Rp3099
sg25
I0
sg26
g27
(g28
(I0
tp3100
g30
tp3101
Rp3102
(I1
(I2
tp3103
g36
I00
S'9\x00\x00\x00c\x00\x00\x00'
p3104
tp3105
bsba(i__main__
FrameData
p3106
(dp3107
g6
g312
sg8
g9
(g13
S'\xc5Bl?W\x87.@'
p3108
tp3109
Rp3110
sg19
I0
sg20
g21
(S'\x07\xdd\t\x1d\x13\x14\x12\tL\r'
p3111
tp3112
Rp3113
sg25
I0
sg26
g27
(g28
(I0
tp3114
g30
tp3115
Rp3116
(I1
(I2
tp3117
g36
I00
S'9\x00\x00\x00d\x00\x00\x00'
p3118
tp3119
bsba(i__main__
FrameData
p3120
(dp3121
g6
g312
sg8
g9
(g13
S'\xb2\xdb]\xe3\x96\x87-@'
p3122
tp3123
Rp3124
sg19
I0
sg20
g21
(S'\x07\xdd\t\x1d\x13\x14\x12\t\x8d\xfe'
p3125
tp3126
Rp3127
sg25
I0
sg26
g27
(g28
(I0
tp3128
g30
tp3129
Rp3130
(I1
(I2
tp3131
g36
I00
S'8\x00\x00\x00d\x00\x00\x00'
p3132
tp3133
bsba(i__main__
FrameData
p3134
(dp3135
g6
g312
sg8
g9
(g13
S'\xf7\x80Aq\xb9\xa2,@'
p3136
tp3137
Rp3138
sg19
I0
sg20
g21
(S'\x07\xdd\t\x1d\x13\x14\x12\t\xca\x84'
p3139
tp3140
Rp3141
sg25
I0
sg26
g27
(g28
(I0
tp3142
g30
tp3143
Rp3144
(I1
(I2
tp3145
g36
I00
S'7\x00\x00\x00d\x00\x00\x00'
p3146
tp3147
bsba(i__main__
FrameData
p3148
(dp3149
g6
g312
sg8
g9
(g13
S'\xe4\x10\xe4sW\x0f)@'
p3150
tp3151
Rp3152
sg19
I0
sg20
g21
(S'\x07\xdd\t\x1d\x13\x14\x12\n\r\xf5'
p3153
tp3154
Rp3155
sg25
I0
sg26
g27
(g28
(I0
tp3156
g30
tp3157
Rp3158
(I1
(I2
tp3159
g36
I00
S'7\x00\x00\x00f\x00\x00\x00'
p3160
tp3161
bsba(i__main__
FrameData
p3162
(dp3163
g6
g312
sg8
g9
(g13
S"\xe0\x11<m\xceh'@"
p3164
tp3165
Rp3166
sg19
I0
sg20
g21
(S'\x07\xdd\t\x1d\x13\x14\x12\n\x91z'
p3167
tp3168
Rp3169
sg25
I0
sg26
g27
(g28
(I0
tp3170
g30
tp3171
Rp3172
(I1
(I2
tp3173
g36
I00
S'5\x00\x00\x00f\x00\x00\x00'
p3174
tp3175
bsba(i__main__
FrameData
p3176
(dp3177
g6
g312
sg8
g9
(g13
S'~\xc4#,B\xf9"@'
p3178
tp3179
Rp3180
sg19
I0
sg20
g21
(S'\x07\xdd\t\x1d\x13\x14\x12\n\xce\xea'
p3181
tp3182
Rp3183
sg25
I0
sg26
g27
(g28
(I0
tp3184
g30
tp3185
Rp3186
(I1
(I2
tp3187
g36
I00
S'4\x00\x00\x00h\x00\x00\x00'
p3188
tp3189
bsba(i__main__
FrameData
p3190
(dp3191
g6
g312
sg8
g9
(g13
S'\xa3\x14\xae\xa8\x87\x16!@'
p3192
tp3193
Rp3194
sg19
I0
sg20
g21
(S'\x07\xdd\t\x1d\x13\x14\x12\r\x1cp'
p3195
tp3196
Rp3197
sg25
I0
sg26
g27
(g28
(I0
tp3198
g30
tp3199
Rp3200
(I1
(I2
tp3201
g36
I00
S'4\x00\x00\x00i\x00\x00\x00'
p3202
tp3203
bsba(i__main__
FrameData
p3204
(dp3205
g6
g312
sg8
g9
(g13
S'p\xc4\x9d9\x8dv\x1e@'
p3206
tp3207
Rp3208
sg19
I0
sg20
g21
(S'\x07\xdd\t\x1d\x13\x14\x12\r^\xa2'
p3209
tp3210
Rp3211
sg25
I0
sg26
g27
(g28
(I0
tp3212
g30
tp3213
Rp3214
(I1
(I2
tp3215
g36
I00
S'4\x00\x00\x00j\x00\x00\x00'
p3216
tp3217
bsba(i__main__
FrameData
p3218
(dp3219
g6
g312
sg8
g9
(g13
S'\xfc\xeeci3\xd5\x1a@'
p3220
tp3221
Rp3222
sg19
I0
sg20
g21
(S'\x07\xdd\t\x1d\x13\x14\x12\r\x9d\xf4'
p3223
tp3224
Rp3225
sg25
I0
sg26
g27
(g28
(I0
tp3226
g30
tp3227
Rp3228
(I1
(I2
tp3229
g36
I00
S'4\x00\x00\x00k\x00\x00\x00'
p3230
tp3231
bsba(i__main__
FrameData
p3232
(dp3233
g6
g312
sg8
g9
(g13
S'\xa2\xa3\xb3\r\xe5R\x17@'
p3234
tp3235
Rp3236
sg19
I0
sg20
g21
(S'\x07\xdd\t\x1d\x13\x14\x12\r\xde\xb5'
p3237
tp3238
Rp3239
sg25
I0
sg26
g27
(g28
(I0
tp3240
g30
tp3241
Rp3242
(I1
(I2
tp3243
g36
I00
S'4\x00\x00\x00l\x00\x00\x00'
p3244
tp3245
bsba(i__main__
FrameData
p3246
(dp3247
g6
g312
sg8
g9
(g13
S'\x00\x00\x00\x00\x00\x00\x14@'
p3248
tp3249
Rp3250
sg19
I0
sg20
g21
(S'\x07\xdd\t\x1d\x13\x14\x12\x0e"\x82'
p3251
tp3252
Rp3253
sg25
I0
sg26
g27
(g28
(I0
tp3254
g30
tp3255
Rp3256
(I1
(I2
tp3257
g36
I00
S'4\x00\x00\x00m\x00\x00\x00'
p3258
tp3259
bsba(i__main__
FrameData
p3260
(dp3261
g6
g312
sg8
g9
(g13
S'\xd9l\xdf\xccv\xf8\x10@'
p3262
tp3263
Rp3264
sg19
I0
sg20
g21
(S'\x07\xdd\t\x1d\x13\x14\x12\x0f&\xc6'
p3265
tp3266
Rp3267
sg25
I0
sg26
g27
(g28
(I0
tp3268
g30
tp3269
Rp3270
(I1
(I2
tp3271
g36
I00
S'4\x00\x00\x00n\x00\x00\x00'
p3272
tp3273
bsba(i__main__
FrameData
p3274
(dp3275
g6
g312
sg8
g9
(g13
S'\xf3YaD+\xd8\x0c@'
p3276
tp3277
Rp3278
sg19
I0
sg20
g21
(S'\x07\xdd\t\x1d\x13\x14\x13\x03w\xbc'
p3279
tp3280
Rp3281
sg25
I0
sg26
g27
(g28
(I0
tp3282
g30
tp3283
Rp3284
(I1
(I2
tp3285
g36
I00
S'3\x00\x00\x00n\x00\x00\x00'
p3286
tp3287
bsbasS'_fileName'
p3288
S'training/trajectory2013-09-29_19:20:11.343376'
p3289
sS'word'
p3290
S'hackers'
p3291
sb.