(i__main__
SwypeTrajectory
p0
(dp1
S'_frameDataList'
p2
(lp3
(i__main__
FrameData
p4
(dp5
S'closestLetter'
p6
S'w'
p7
sS'letterDistance'
p8
cnumpy.core.multiarray
scalar
p9
(cnumpy
dtype
p10
(S'f8'
p11
I0
I1
tp12
Rp13
(I3
S'<'
p14
NNNI-1
I-1
I0
tp15
bS'S[\xda:XL\x19@'
p16
tp17
Rp18
sS'accel'
p19
I0
sS'time'
p20
cdatetime
datetime
p21
(S'\x07\xdd\t\x12\n.\x00\x0c\xf4\xf4'
p22
tp23
Rp24
sS'velocity'
p25
I0
sS'position'
p26
cnumpy.core.multiarray
_reconstruct
p27
(cnumpy
ndarray
p28
(I0
tp29
S'b'
p30
tp31
Rp32
(I1
(I2
tp33
g10
(S'i4'
p34
I0
I1
tp35
Rp36
(I3
S'<'
p37
NNNI-1
I-1
I0
tp38
bI00
S' \x00\x00\x00N\x00\x00\x00'
p39
tp40
bsba(i__main__
FrameData
p41
(dp42
g6
g7
sg8
g9
(g13
S'\xe9\xfbv \xd5\x1e\x1d@'
p43
tp44
Rp45
sg19
I0
sg20
g21
(S'\x07\xdd\t\x12\n.\x00\r6\xdf'
p46
tp47
Rp48
sg25
I0
sg26
g27
(g28
(I0
tp49
g30
tp50
Rp51
(I1
(I2
tp52
g36
I00
S' \x00\x00\x00O\x00\x00\x00'
p53
tp54
bsba(i__main__
FrameData
p55
(dp56
g6
g7
sg8
g9
(g13
S'bVc}\x9d\xb2#@'
p57
tp58
Rp59
sg19
I0
sg20
g21
(S'\x07\xdd\t\x12\n.\x00\rv\xf1'
p60
tp61
Rp62
sg25
I0
sg26
g27
(g28
(I0
tp63
g30
tp64
Rp65
(I1
(I2
tp66
g36
I00
S'\x1e\x00\x00\x00Q\x00\x00\x00'
p67
tp68
bsba(i__main__
FrameData
p69
(dp70
g6
g7
sg8
g9
(g13
S'\xd2\xf1}\x82U\\&@'
p71
tp72
Rp73
sg19
I0
sg20
g21
(S'\x07\xdd\t\x12\n.\x00\r\xb9\xec'
p74
tp75
Rp76
sg25
I0
sg26
g27
(g28
(I0
tp77
g30
tp78
Rp79
(I1
(I2
tp80
g36
I00
S'\x1d\x00\x00\x00R\x00\x00\x00'
p81
tp82
bsba(i__main__
FrameData
p83
(dp84
g6
g7
sg8
g9
(g13
S'lNy\x00\x85*(@'
p85
tp86
Rp87
sg19
I0
sg20
g21
(S'\x07\xdd\t\x12\n.\x00\r\xf9\xa9'
p88
tp89
Rp90
sg25
I0
sg26
g27
(g28
(I0
tp91
g30
tp92
Rp93
(I1
(I2
tp94
g36
I00
S'\x1d\x00\x00\x00S\x00\x00\x00'
p95
tp96
bsba(i__main__
FrameData
p97
(dp98
g6
g7
sg8
g9
(g13
S'\xb2\xdb]\xe3\x96\x87-@'
p99
tp100
Rp101
sg19
I0
sg20
g21
(S'\x07\xdd\t\x12\n.\x00\x0e:\xcd'
p102
tp103
Rp104
sg25
I0
sg26
g27
(g28
(I0
tp105
g30
tp106
Rp107
(I1
(I2
tp108
g36
I00
S'\x1b\x00\x00\x00U\x00\x00\x00'
p109
tp110
bsba(i__main__
FrameData
p111
(dp112
g6
g7
sg8
g9
(g13
S'\xaa\xd9\xb1\xd3\x8d\x8d0@'
p113
tp114
Rp115
sg19
I0
sg20
g21
(S'\x07\xdd\t\x12\n.\x00\x0e~\x15'
p116
tp117
Rp118
sg25
I0
sg26
g27
(g28
(I0
tp119
g30
tp120
Rp121
(I1
(I2
tp122
g36
I00
S'\x1b\x00\x00\x00W\x00\x00\x00'
p123
tp124
bsba(i__main__
FrameData
p125
(dp126
g6
g7
sg8
g9
(g13
S'\x96`G\xb3\x80b2@'
p127
tp128
Rp129
sg19
I0
sg20
g21
(S'\x07\xdd\t\x12\n.\x00\x0e\xbc%'
p130
tp131
Rp132
sg25
I0
sg26
g27
(g28
(I0
tp133
g30
tp134
Rp135
(I1
(I2
tp136
g36
I00
S'\x1b\x00\x00\x00Y\x00\x00\x00'
p137
tp138
bsba(i__main__
FrameData
p139
(dp140
g6
S'a'
p141
sg8
g9
(g13
S'u\xa6<oS\x185@'
p142
tp143
Rp144
sg19
I0
sg20
g21
(S'\x07\xdd\t\x12\n.\x00\x0f\x00a'
p145
tp146
Rp147
sg25
I0
sg26
g27
(g28
(I0
tp148
g30
tp149
Rp150
(I1
(I2
tp151
g36
I00
S'\x19\x00\x00\x00\\\x00\x00\x00'
p152
tp153
bsba(i__main__
FrameData
p154
(dp155
g6
g141
sg8
g9
(g13
S'^\x9e\x9f\x85\xdf\x1a3@'
p156
tp157
Rp158
sg19
I0
sg20
g21
(S'\x07\xdd\t\x12\n.\x00\x0f>e'
p159
tp160
Rp161
sg25
I0
sg26
g27
(g28
(I0
tp162
g30
tp163
Rp164
(I1
(I2
tp165
g36
I00
S'\x19\x00\x00\x00^\x00\x00\x00'
p166
tp167
bsba(i__main__
FrameData
p168
(dp169
g6
g141
sg8
g9
(g13
S')\x9ah\xdd\x85\x071@'
p170
tp171
Rp172
sg19
I0
sg20
g21
(S'\x07\xdd\t\x12\n.\x01\x00@\xfc'
p173
tp174
Rp175
sg25
I0
sg26
g27
(g28
(I0
tp176
g30
tp177
Rp178
(I1
(I2
tp179
g36
I00
S'\x18\x00\x00\x00`\x00\x00\x00'
p180
tp181
bsba(i__main__
FrameData
p182
(dp183
g6
g141
sg8
g9
(g13
S'\xaf_\x109\x0c\x11.@'
p184
tp185
Rp186
sg19
I0
sg20
g21
(S'\x07\xdd\t\x12\n.\x01\x00\x83$'
p187
tp188
Rp189
sg25
I0
sg26
g27
(g28
(I0
tp190
g30
tp191
Rp192
(I1
(I2
tp193
g36
I00
S'\x18\x00\x00\x00b\x00\x00\x00'
p194
tp195
bsba(i__main__
FrameData
p196
(dp197
g6
g141
sg8
g9
(g13
S')\x03\xec/C\x12,@'
p198
tp199
Rp200
sg19
I0
sg20
g21
(S'\x07\xdd\t\x12\n.\x01\x00\xc3\xcb'
p201
tp202
Rp203
sg25
I0
sg26
g27
(g28
(I0
tp204
g30
tp205
Rp206
(I1
(I2
tp207
g36
I00
S'\x18\x00\x00\x00c\x00\x00\x00'
p208
tp209
bsba(i__main__
FrameData
p210
(dp211
g6
g141
sg8
g9
(g13
S'&5w\xe2K\x15(@'
p212
tp213
Rp214
sg19
I0
sg20
g21
(S'\x07\xdd\t\x12\n.\x01\x01\x01\xe6'
p215
tp216
Rp217
sg25
I0
sg26
g27
(g28
(I0
tp218
g30
tp219
Rp220
(I1
(I2
tp221
g36
I00
S'\x18\x00\x00\x00e\x00\x00\x00'
p222
tp223
bsba(i__main__
FrameData
p224
(dp225
g6
g141
sg8
g9
(g13
S'H\xaa*\x8f9\x17&@'
p226
tp227
Rp228
sg19
I0
sg20
g21
(S'\x07\xdd\t\x12\n.\x01\x01B\x1d'
p229
tp230
Rp231
sg25
I0
sg26
g27
(g28
(I0
tp232
g30
tp233
Rp234
(I1
(I2
tp235
g36
I00
S'\x18\x00\x00\x00f\x00\x00\x00'
p236
tp237
bsba(i__main__
FrameData
p238
(dp239
g6
g141
sg8
g9
(g13
S'\x00\x00\x00\x00\x00\x00$@'
p240
tp241
Rp242
sg19
I0
sg20
g21
(S'\x07\xdd\t\x12\n.\x01\x01\x8b\xd9'
p243
tp244
Rp245
sg25
I0
sg26
g27
(g28
(I0
tp246
g30
tp247
Rp248
(I1
(I2
tp249
g36
I00
S'\x17\x00\x00\x00g\x00\x00\x00'
p250
tp251
bsba(i__main__
FrameData
p252
(dp253
g6
g141
sg8
g9
(g13
S'\x00\x00\x00\x00\x00\x00"@'
p254
tp255
Rp256
sg19
I0
sg20
g21
(S'\x07\xdd\t\x12\n.\x01\x01\xc4\xb1'
p257
tp258
Rp259
sg25
I0
sg26
g27
(g28
(I0
tp260
g30
tp261
Rp262
(I1
(I2
tp263
g36
I00
S'\x17\x00\x00\x00h\x00\x00\x00'
p264
tp265
bsba(i__main__
FrameData
p266
(dp267
g6
g141
sg8
g9
(g13
S'\x00\x00\x00\x00\x00\x00 @'
p268
tp269
Rp270
sg19
I0
sg20
g21
(S'\x07\xdd\t\x12\n.\x01\x02\x06\xfa'
p271
tp272
Rp273
sg25
I0
sg26
g27
(g28
(I0
tp274
g30
tp275
Rp276
(I1
(I2
tp277
g36
I00
S'\x17\x00\x00\x00i\x00\x00\x00'
p278
tp279
bsba(i__main__
FrameData
p280
(dp281
g6
g141
sg8
g9
(g13
S'\x00\x00\x00\x00\x00\x00\x1c@'
p282
tp283
Rp284
sg19
I0
sg20
g21
(S'\x07\xdd\t\x12\n.\x01\x02\x88>'
p285
tp286
Rp287
sg25
I0
sg26
g27
(g28
(I0
tp288
g30
tp289
Rp290
(I1
(I2
tp291
g36
I00
S'\x17\x00\x00\x00j\x00\x00\x00'
p292
tp293
bsba(i__main__
FrameData
p294
(dp295
g6
g141
sg8
g9
(g13
S'\x00\x00\x00\x00\x00\x00\x18@'
p296
tp297
Rp298
sg19
I0
sg20
g21
(S'\x07\xdd\t\x12\n.\x01\x02\xcb\x04'
p299
tp300
Rp301
sg25
I0
sg26
g27
(g28
(I0
tp302
g30
tp303
Rp304
(I1
(I2
tp305
g36
I00
S'\x17\x00\x00\x00k\x00\x00\x00'
p306
tp307
bsba(i__main__
FrameData
p308
(dp309
g6
g141
sg8
g9
(g13
S'\x00\x00\x00\x00\x00\x00\x14@'
p310
tp311
Rp312
sg19
I0
sg20
g21
(S'\x07\xdd\t\x12\n.\x01\x03\x0b\x1e'
p313
tp314
Rp315
sg25
I0
sg26
g27
(g28
(I0
tp316
g30
tp317
Rp318
(I1
(I2
tp319
g36
I00
S'\x17\x00\x00\x00l\x00\x00\x00'
p320
tp321
bsba(i__main__
FrameData
p322
(dp323
g6
g141
sg8
g9
(g13
S'\x00\x00\x00\x00\x00\x00\x08@'
p324
tp325
Rp326
sg19
I0
sg20
g21
(S'\x07\xdd\t\x12\n.\x01\x03M\x0c'
p327
tp328
Rp329
sg25
I0
sg26
g27
(g28
(I0
tp330
g30
tp331
Rp332
(I1
(I2
tp333
g36
I00
S'\x17\x00\x00\x00n\x00\x00\x00'
p334
tp335
bsba(i__main__
FrameData
p336
(dp337
g6
g141
sg8
g9
(g13
S'\x00\x00\x00\x00\x00\x00\x00@'
p338
tp339
Rp340
sg19
I0
sg20
g21
(S'\x07\xdd\t\x12\n.\x01\x03\x8f\x1f'
p341
tp342
Rp343
sg25
I0
sg26
g27
(g28
(I0
tp344
g30
tp345
Rp346
(I1
(I2
tp347
g36
I00
S'\x17\x00\x00\x00o\x00\x00\x00'
p348
tp349
bsba(i__main__
FrameData
p350
(dp351
g6
g141
sg8
g9
(g13
S'\x00\x00\x00\x00\x00\x00\xf0?'
p352
tp353
Rp354
sg19
I0
sg20
g21
(S'\x07\xdd\t\x12\n.\x01\x03\xcf9'
p355
tp356
Rp357
sg25
I0
sg26
g27
(g28
(I0
tp358
g30
tp359
Rp360
(I1
(I2
tp361
g36
I00
S'\x17\x00\x00\x00p\x00\x00\x00'
p362
tp363
bsba(i__main__
FrameData
p364
(dp365
g6
g141
sg8
g9
(g13
S'\x00\x00\x00\x00\x00\x00\x00\x00'
p366
tp367
Rp368
sg19
I0
sg20
g21
(S'\x07\xdd\t\x12\n.\x01\x04\x10\x93'
p369
tp370
Rp371
sg25
I0
sg26
g27
(g28
(I0
tp372
g30
tp373
Rp374
(I1
(I2
tp375
g36
I00
S'\x17\x00\x00\x00q\x00\x00\x00'
p376
tp377
bsba(i__main__
FrameData
p378
(dp379
g6
g141
sg8
g9
(g13
S'\x00\x00\x00\x00\x00\x00\x00@'
p380
tp381
Rp382
sg19
I0
sg20
g21
(S'\x07\xdd\t\x12\n.\x01\x04Q\xf3'
p383
tp384
Rp385
sg25
I0
sg26
g27
(g28
(I0
tp386
g30
tp387
Rp388
(I1
(I2
tp389
g36
I00
S'\x17\x00\x00\x00s\x00\x00\x00'
p390
tp391
bsba(i__main__
FrameData
p392
(dp393
g6
g141
sg8
g9
(g13
S'\x00\x00\x00\x00\x00\x00\x08@'
p394
tp395
Rp396
sg19
I0
sg20
g21
(S'\x07\xdd\t\x12\n.\x01\x04\x92\xe4'
p397
tp398
Rp399
sg25
I0
sg26
g27
(g28
(I0
tp400
g30
tp401
Rp402
(I1
(I2
tp403
g36
I00
S'\x17\x00\x00\x00t\x00\x00\x00'
p404
tp405
bsba(i__main__
FrameData
p406
(dp407
g6
g141
sg8
g9
(g13
S'\x00\x00\x00\x00\x00\x00\x00@'
p408
tp409
Rp410
sg19
I0
sg20
g21
(S'\x07\xdd\t\x12\n.\x01\x06[)'
p411
tp412
Rp413
sg25
I0
sg26
g27
(g28
(I0
tp414
g30
tp415
Rp416
(I1
(I2
tp417
g36
I00
S'\x17\x00\x00\x00s\x00\x00\x00'
p418
tp419
bsba(i__main__
FrameData
p420
(dp421
g6
g141
sg8
g9
(g13
S'\x00\x00\x00\x00\x00\x00\x00\x00'
p422
tp423
Rp424
sg19
I0
sg20
g21
(S'\x07\xdd\t\x12\n.\x01\x06\x9e\x10'
p425
tp426
Rp427
sg25
I0
sg26
g27
(g28
(I0
tp428
g30
tp429
Rp430
(I1
(I2
tp431
g36
I00
S'\x17\x00\x00\x00q\x00\x00\x00'
p432
tp433
bsba(i__main__
FrameData
p434
(dp435
g6
g141
sg8
g9
(g13
S'\xcd;\x7ff\x9e\xa0\x06@'
p436
tp437
Rp438
sg19
I0
sg20
g21
(S'\x07\xdd\t\x12\n.\x01\x06\xdd\xd5'
p439
tp440
Rp441
sg25
I0
sg26
g27
(g28
(I0
tp442
g30
tp443
Rp444
(I1
(I2
tp445
g36
I00
S'\x19\x00\x00\x00o\x00\x00\x00'
p446
tp447
bsba(i__main__
FrameData
p448
(dp449
g6
g141
sg8
g9
(g13
S'\x00\xff\x9f\x99\xcc\x9c\x19@'
p450
tp451
Rp452
sg19
I0
sg20
g21
(S'\x07\xdd\t\x12\n.\x01\x07 \xad'
p453
tp454
Rp455
sg25
I0
sg26
g27
(g28
(I0
tp456
g30
tp457
Rp458
(I1
(I2
tp459
g36
I00
S'\x1b\x00\x00\x00l\x00\x00\x00'
p460
tp461
bsba(i__main__
FrameData
p462
(dp463
g6
g141
sg8
g9
(g13
S'\xc5Bl?W\x87.@'
p464
tp465
Rp466
sg19
I0
sg20
g21
(S'\x07\xdd\t\x12\n.\x01\x07b\xe6'
p467
tp468
Rp469
sg25
I0
sg26
g27
(g28
(I0
tp470
g30
tp471
Rp472
(I1
(I2
tp473
g36
I00
S'$\x00\x00\x00i\x00\x00\x00'
p474
tp475
bsba(i__main__
FrameData
p476
(dp477
g6
S's'
p478
sg8
g9
(g13
S'\xef\rI\xf1\xf33+@'
p479
tp480
Rp481
sg19
I0
sg20
g21
(S'\x07\xdd\t\x12\n.\x01\x07\xa3\x8d'
p482
tp483
Rp484
sg25
I0
sg26
g27
(g28
(I0
tp485
g30
tp486
Rp487
(I1
(I2
tp488
g36
I00
S'-\x00\x00\x00d\x00\x00\x00'
p489
tp490
bsba(i__main__
FrameData
p491
(dp492
g6
g478
sg8
g9
(g13
S'\xc9\xe0>!B<3@'
p493
tp494
Rp495
sg19
I0
sg20
g21
(S'\x07\xdd\t\x12\n.\x01\x07\xe4O'
p496
tp497
Rp498
sg25
I0
sg26
g27
(g28
(I0
tp499
g30
tp500
Rp501
(I1
(I2
tp502
g36
I00
S':\x00\x00\x00`\x00\x00\x00'
p503
tp504
bsba(i__main__
FrameData
p505
(dp506
g6
S'e'
p507
sg8
g9
(g13
S'\xbf\x8f+\t\x89[2@'
p508
tp509
Rp510
sg19
I0
sg20
g21
(S"\x07\xdd\t\x12\n.\x01\x08't"
p511
tp512
Rp513
sg25
I0
sg26
g27
(g28
(I0
tp514
g30
tp515
Rp516
(I1
(I2
tp517
g36
I00
S'D\x00\x00\x00\\\x00\x00\x00'
p518
tp519
bsba(i__main__
FrameData
p520
(dp521
g6
S'r'
p522
sg8
g9
(g13
S'S[\xda:XL)@'
p523
tp524
Rp525
sg19
I0
sg20
g21
(S'\x07\xdd\t\x12\n.\x01\x08l|'
p526
tp527
Rp528
sg25
I0
sg26
g27
(g28
(I0
tp529
g30
tp530
Rp531
(I1
(I2
tp532
g36
I00
S'N\x00\x00\x00W\x00\x00\x00'
p533
tp534
bsba(i__main__
FrameData
p535
(dp536
g6
g522
sg8
g9
(g13
S'\x00\x00\x00\x00\x00\x00$@'
p537
tp538
Rp539
sg19
I0
sg20
g21
(S'\x07\xdd\t\x12\n.\x01\x08\xa8\xe6'
p540
tp541
Rp542
sg25
I0
sg26
g27
(g28
(I0
tp543
g30
tp544
Rp545
(I1
(I2
tp546
g36
I00
S'R\x00\x00\x00U\x00\x00\x00'
p547
tp548
bsba(i__main__
FrameData
p549
(dp550
g6
g522
sg8
g9
(g13
S'\x9a.\x90!hp"@'
p551
tp552
Rp553
sg19
I0
sg20
g21
(S'\x07\xdd\t\x12\n.\x01\x08\xeaB'
p554
tp555
Rp556
sg25
I0
sg26
g27
(g28
(I0
tp557
g30
tp558
Rp559
(I1
(I2
tp560
g36
I00
S'T\x00\x00\x00T\x00\x00\x00'
p561
tp562
bsba(i__main__
FrameData
p563
(dp564
g6
g522
sg8
g9
(g13
S'\xa3\x14\xae\xa8\x87\x16!@'
p565
tp566
Rp567
sg19
I0
sg20
g21
(S'\x07\xdd\t\x12\n.\x01\t(f'
p568
tp569
Rp570
sg25
I0
sg26
g27
(g28
(I0
tp571
g30
tp572
Rp573
(I1
(I2
tp574
g36
I00
S'U\x00\x00\x00S\x00\x00\x00'
p575
tp576
bsba(i__main__
FrameData
p577
(dp578
g6
g522
sg8
g9
(g13
S'\xa8\xf4\x97\x9bw\xe3!@'
p579
tp580
Rp581
sg19
I0
sg20
g21
(S'\x07\xdd\t\x12\n.\x01\tm\x12'
p582
tp583
Rp584
sg25
I0
sg26
g27
(g28
(I0
tp585
g30
tp586
Rp587
(I1
(I2
tp588
g36
I00
S'V\x00\x00\x00S\x00\x00\x00'
p589
tp590
bsba(i__main__
FrameData
p591
(dp592
g6
g522
sg8
g9
(g13
S'N\x017\xfac4!@'
p593
tp594
Rp595
sg19
I0
sg20
g21
(S'\x07\xdd\t\x12\n.\x01\t\xafV'
p596
tp597
Rp598
sg25
I0
sg26
g27
(g28
(I0
tp599
g30
tp600
Rp601
(I1
(I2
tp602
g36
I00
S'W\x00\x00\x00R\x00\x00\x00'
p603
tp604
bsba(i__main__
FrameData
p605
(dp606
g6
g522
sg8
g9
(g13
S'\x9a.\x90!hp"@'
p607
tp608
Rp609
sg19
I0
sg20
g21
(S'\x07\xdd\t\x12\n.\x01\n14'
p610
tp611
Rp612
sg25
I0
sg26
g27
(g28
(I0
tp613
g30
tp614
Rp615
(I1
(I2
tp616
g36
I00
S'X\x00\x00\x00R\x00\x00\x00'
p617
tp618
bsba(i__main__
FrameData
p619
(dp620
g6
g522
sg8
g9
(g13
S'ST\xaf\x99\x8a\xcc#@'
p621
tp622
Rp623
sg19
I0
sg20
g21
(S'\x07\xdd\t\x12\n.\x01\n\xf5\r'
p624
tp625
Rp626
sg25
I0
sg26
g27
(g28
(I0
tp627
g30
tp628
Rp629
(I1
(I2
tp630
g36
I00
S'Y\x00\x00\x00R\x00\x00\x00'
p631
tp632
bsba(i__main__
FrameData
p633
(dp634
g6
g522
sg8
g9
(g13
S'\x9a.\x90!hp"@'
p635
tp636
Rp637
sg19
I0
sg20
g21
(S'\x07\xdd\t\x12\n.\x02\x00Fd'
p638
tp639
Rp640
sg25
I0
sg26
g27
(g28
(I0
tp641
g30
tp642
Rp643
(I1
(I2
tp644
g36
I00
S'Y\x00\x00\x00Q\x00\x00\x00'
p645
tp646
bsba(i__main__
FrameData
p647
(dp648
g6
g522
sg8
g9
(g13
S'\x00\x00\x00\x00\x00\x00$@'
p649
tp650
Rp651
sg19
I0
sg20
g21
(S'\x07\xdd\t\x12\n.\x02\x00\xca\x16'
p652
tp653
Rp654
sg25
I0
sg26
g27
(g28
(I0
tp655
g30
tp656
Rp657
(I1
(I2
tp658
g36
I00
S'Z\x00\x00\x00Q\x00\x00\x00'
p659
tp660
bsba(i__main__
FrameData
p661
(dp662
g6
g522
sg8
g9
(g13
S'w\x03Is \xa2%@'
p663
tp664
Rp665
sg19
I0
sg20
g21
(S'\x07\xdd\t\x12\n.\x02\x01\n\t'
p666
tp667
Rp668
sg25
I0
sg26
g27
(g28
(I0
tp669
g30
tp670
Rp671
(I1
(I2
tp672
g36
I00
S'[\x00\x00\x00Q\x00\x00\x00'
p673
tp674
bsba(i__main__
FrameData
p675
(dp676
g6
g522
sg8
g9
(g13
S"\xa2\xa3\xb3\r\xe5R'@"
p677
tp678
Rp679
sg19
I0
sg20
g21
(S'\x07\xdd\t\x12\n.\x02\x01K\x85'
p680
tp681
Rp682
sg25
I0
sg26
g27
(g28
(I0
tp683
g30
tp684
Rp685
(I1
(I2
tp686
g36
I00
S'\\\x00\x00\x00Q\x00\x00\x00'
p687
tp688
bsba(i__main__
FrameData
p689
(dp690
g6
g522
sg8
g9
(g13
S'\xe4\x10\xe4sW\x0f)@'
p691
tp692
Rp693
sg19
I0
sg20
g21
(S'\x07\xdd\t\x12\n.\x02\x01\x8d\xeb'
p694
tp695
Rp696
sg25
I0
sg26
g27
(g28
(I0
tp697
g30
tp698
Rp699
(I1
(I2
tp700
g36
I00
S']\x00\x00\x00Q\x00\x00\x00'
p701
tp702
bsba(i__main__
FrameData
p703
(dp704
g6
S't'
p705
sg8
g9
(g13
S'\xe4\x10\xe4sW\x0f)@'
p706
tp707
Rp708
sg19
I0
sg20
g21
(S'\x07\xdd\t\x12\n.\x02\x01\xcd^'
p709
tp710
Rp711
sg25
I0
sg26
g27
(g28
(I0
tp712
g30
tp713
Rp714
(I1
(I2
tp715
g36
I00
S'_\x00\x00\x00Q\x00\x00\x00'
p716
tp717
bsba(i__main__
FrameData
p718
(dp719
g6
g705
sg8
g9
(g13
S"\xa2\xa3\xb3\r\xe5R'@"
p720
tp721
Rp722
sg19
I0
sg20
g21
(S'\x07\xdd\t\x12\n.\x02\x02\x0f\xa5'
p723
tp724
Rp725
sg25
I0
sg26
g27
(g28
(I0
tp726
g30
tp727
Rp728
(I1
(I2
tp729
g36
I00
S'`\x00\x00\x00Q\x00\x00\x00'
p730
tp731
bsba(i__main__
FrameData
p732
(dp733
g6
g705
sg8
g9
(g13
S'w\x03Is \xa2%@'
p734
tp735
Rp736
sg19
I0
sg20
g21
(S'\x07\xdd\t\x12\n.\x02\x02\x90\xd4'
p737
tp738
Rp739
sg25
I0
sg26
g27
(g28
(I0
tp740
g30
tp741
Rp742
(I1
(I2
tp743
g36
I00
S'a\x00\x00\x00Q\x00\x00\x00'
p744
tp745
bsba(i__main__
FrameData
p746
(dp747
g6
g705
sg8
g9
(g13
S'\x9a.\x90!hp"@'
p748
tp749
Rp750
sg19
I0
sg20
g21
(S'\x07\xdd\t\x12\n.\x02\x03\x15\xf6'
p751
tp752
Rp753
sg25
I0
sg26
g27
(g28
(I0
tp754
g30
tp755
Rp756
(I1
(I2
tp757
g36
I00
S'c\x00\x00\x00Q\x00\x00\x00'
p758
tp759
bsba(i__main__
FrameData
p760
(dp761
g6
g705
sg8
g9
(g13
S'\xd9l\xdf\xccv\xf8 @'
p762
tp763
Rp764
sg19
I0
sg20
g21
(S'\x07\xdd\t\x12\n.\x02\x03Vg'
p765
tp766
Rp767
sg25
I0
sg26
g27
(g28
(I0
tp768
g30
tp769
Rp770
(I1
(I2
tp771
g36
I00
S'd\x00\x00\x00Q\x00\x00\x00'
p772
tp773
bsba(i__main__
FrameData
p774
(dp775
g6
g705
sg8
g9
(g13
S'\xf3YaD+\xd8\x1c@'
p776
tp777
Rp778
sg19
I0
sg20
g21
(S'\x07\xdd\t\x12\n.\x02\x03\x97\xbc'
p779
tp780
Rp781
sg25
I0
sg26
g27
(g28
(I0
tp782
g30
tp783
Rp784
(I1
(I2
tp785
g36
I00
S'f\x00\x00\x00Q\x00\x00\x00'
p786
tp787
bsba(i__main__
FrameData
p788
(dp789
g6
g705
sg8
g9
(g13
S'\xfc\xeeci3\xd5\x1a@'
p790
tp791
Rp792
sg19
I0
sg20
g21
(S'\x07\xdd\t\x12\n.\x02\x03\xdad'
p793
tp794
Rp795
sg25
I0
sg26
g27
(g28
(I0
tp796
g30
tp797
Rp798
(I1
(I2
tp799
g36
I00
S'g\x00\x00\x00Q\x00\x00\x00'
p800
tp801
bsba(i__main__
FrameData
p802
(dp803
g6
g705
sg8
g9
(g13
S'S[\xda:XL\x19@'
p804
tp805
Rp806
sg19
I0
sg20
g21
(S'\x07\xdd\t\x12\n.\x02\x04[\xb9'
p807
tp808
Rp809
sg25
I0
sg26
g27
(g28
(I0
tp810
g30
tp811
Rp812
(I1
(I2
tp813
g36
I00
S'h\x00\x00\x00Q\x00\x00\x00'
p814
tp815
bsba(i__main__
FrameData
p816
(dp817
g6
g705
sg8
g9
(g13
S'\xf3\xd9\xa8\xa4h\x8a\x15@'
p818
tp819
Rp820
sg19
I0
sg20
g21
(S'\x07\xdd\t\x12\n.\x02\x06"['
p821
tp822
Rp823
sg25
I0
sg26
g27
(g28
(I0
tp824
g30
tp825
Rp826
(I1
(I2
tp827
g36
I00
S'h\x00\x00\x00P\x00\x00\x00'
p828
tp829
bsba(i__main__
FrameData
p830
(dp831
g6
g705
sg8
g9
(g13
S'\xa8\xf4\x97\x9bw\xe3\x11@'
p832
tp833
Rp834
sg19
I0
sg20
g21
(S'\x07\xdd\t\x12\n.\x02\x07*\xb3'
p835
tp836
Rp837
sg25
I0
sg26
g27
(g28
(I0
tp838
g30
tp839
Rp840
(I1
(I2
tp841
g36
I00
S'h\x00\x00\x00O\x00\x00\x00'
p842
tp843
bsbasS'_fileName'
p844
S'training/trajectory2013-09-18_10:45:57.639200'
p845
sS'word'
p846
S'wart'
p847
sb.