(i__main__
SwypeTrajectory
p0
(dp1
S'_frameDataList'
p2
(lp3
(i__main__
FrameData
p4
(dp5
S'closestLetter'
p6
S'a'
p7
sS'letterDistance'
p8
cnumpy.core.multiarray
scalar
p9
(cnumpy
dtype
p10
(S'f8'
p11
I0
I1
tp12
Rp13
(I3
S'<'
p14
NNNI-1
I-1
I0
tp15
bS'\xa8\xf4\x97\x9bw\xe3!@'
p16
tp17
Rp18
sS'accel'
p19
I0
sS'time'
p20
cdatetime
datetime
p21
(S'\x07\xdd\t\x1d\x13\r8\x0c7\xa6'
p22
tp23
Rp24
sS'velocity'
p25
I0
sS'position'
p26
cnumpy.core.multiarray
_reconstruct
p27
(cnumpy
ndarray
p28
(I0
tp29
S'b'
p30
tp31
Rp32
(I1
(I2
tp33
g10
(S'i4'
p34
I0
I1
tp35
Rp36
(I3
S'<'
p37
NNNI-1
I-1
I0
tp38
bI00
S'\x1f\x00\x00\x00u\x00\x00\x00'
p39
tp40
bsba(i__main__
FrameData
p41
(dp42
g6
S's'
p43
sg8
g9
(g13
S'bVc}\x9d\xb2#@'
p44
tp45
Rp46
sg19
I0
sg20
g21
(S'\x07\xdd\t\x1d\x13\r8\x0c\x85\xa7'
p47
tp48
Rp49
sg25
I0
sg26
g27
(g28
(I0
tp50
g30
tp51
Rp52
(I1
(I2
tp53
g36
I00
S'(\x00\x00\x00u\x00\x00\x00'
p54
tp55
bsba(i__main__
FrameData
p56
(dp57
g6
g43
sg8
g9
(g13
S'\xa8\xf4\x97\x9bw\xe3\x11@'
p58
tp59
Rp60
sg19
I0
sg20
g21
(S'\x07\xdd\t\x1d\x13\r8\x0c\xd4\xe8'
p61
tp62
Rp63
sg25
I0
sg26
g27
(g28
(I0
tp64
g30
tp65
Rp66
(I1
(I2
tp67
g36
I00
S'3\x00\x00\x00u\x00\x00\x00'
p68
tp69
bsba(i__main__
FrameData
p70
(dp71
g6
g43
sg8
g9
(g13
S'bVc}\x9d\xb2#@'
p72
tp73
Rp74
sg19
I0
sg20
g21
(S'\x07\xdd\t\x1d\x13\r8\x0c\xf9\xa6'
p75
tp76
Rp77
sg25
I0
sg26
g27
(g28
(I0
tp78
g30
tp79
Rp80
(I1
(I2
tp81
g36
I00
S':\x00\x00\x00u\x00\x00\x00'
p82
tp83
bsba(i__main__
FrameData
p84
(dp85
g6
S'd'
p86
sg8
g9
(g13
S'\xfc\xeeci3\xd5\x1a@'
p87
tp88
Rp89
sg19
I0
sg20
g21
(S'\x07\xdd\t\x1d\x13\r8\rH\xf1'
p90
tp91
Rp92
sg25
I0
sg26
g27
(g28
(I0
tp93
g30
tp94
Rp95
(I1
(I2
tp96
g36
I00
S'C\x00\x00\x00t\x00\x00\x00'
p97
tp98
bsba(i__main__
FrameData
p99
(dp100
g6
g86
sg8
g9
(g13
S'\x00\x00\x00\x00\x00\x00\x00@'
p101
tp102
Rp103
sg19
I0
sg20
g21
(S'\x07\xdd\t\x1d\x13\r8\r\x970'
p104
tp105
Rp106
sg25
I0
sg26
g27
(g28
(I0
tp107
g30
tp108
Rp109
(I1
(I2
tp110
g36
I00
S'I\x00\x00\x00s\x00\x00\x00'
p111
tp112
bsba(i__main__
FrameData
p113
(dp114
g6
g86
sg8
g9
(g13
S'9\xdcc\xb3\xbfT\x18@'
p115
tp116
Rp117
sg19
I0
sg20
g21
(S'\x07\xdd\t\x1d\x13\r8\r\xbc\xcb'
p118
tp119
Rp120
sg25
I0
sg26
g27
(g28
(I0
tp121
g30
tp122
Rp123
(I1
(I2
tp124
g36
I00
S'O\x00\x00\x00p\x00\x00\x00'
p125
tp126
bsba(i__main__
FrameData
p127
(dp128
g6
S'f'
p129
sg8
g9
(g13
S'7\xf9\xcf\xdao\xe1$@'
p130
tp131
Rp132
sg19
I0
sg20
g21
(S'\x07\xdd\t\x1d\x13\r8\x0e\x0c\xac'
p133
tp134
Rp135
sg25
I0
sg26
g27
(g28
(I0
tp136
g30
tp137
Rp138
(I1
(I2
tp139
g36
I00
S'V\x00\x00\x00o\x00\x00\x00'
p140
tp141
bsba(i__main__
FrameData
p142
(dp143
g6
g129
sg8
g9
(g13
S'\x00\xff\x9f\x99\xcc\x9c\x19@'
p144
tp145
Rp146
sg19
I0
sg20
g21
(S'\x07\xdd\t\x1d\x13\r8\x0eW0'
p147
tp148
Rp149
sg25
I0
sg26
g27
(g28
(I0
tp150
g30
tp151
Rp152
(I1
(I2
tp153
g36
I00
S'\\\x00\x00\x00m\x00\x00\x00'
p154
tp155
bsba(i__main__
FrameData
p156
(dp157
g6
g129
sg8
g9
(g13
S'\xeb\x12\xb2\xbb\xb2\xcd&@'
p158
tp159
Rp160
sg19
I0
sg20
g21
(S'\x07\xdd\t\x1d\x13\r8\x0e\x81\x8a'
p161
tp162
Rp163
sg25
I0
sg26
g27
(g28
(I0
tp164
g30
tp165
Rp166
(I1
(I2
tp167
g36
I00
S'i\x00\x00\x00k\x00\x00\x00'
p168
tp169
bsba(i__main__
FrameData
p170
(dp171
g6
S'g'
p172
sg8
g9
(g13
S'\xd0\xbaa?\xe0\x1f @'
p173
tp174
Rp175
sg19
I0
sg20
g21
(S'\x07\xdd\t\x1d\x13\r8\x0e\xcf\xa4'
p176
tp177
Rp178
sg25
I0
sg26
g27
(g28
(I0
tp179
g30
tp180
Rp181
(I1
(I2
tp182
g36
I00
S'w\x00\x00\x00j\x00\x00\x00'
p183
tp184
bsba(i__main__
FrameData
p185
(dp186
g6
g172
sg8
g9
(g13
S'\xa8\xf4\x97\x9bw\xe3!@'
p187
tp188
Rp189
sg19
I0
sg20
g21
(S'\x07\xdd\t\x1d\x13\r8\x0f\n\xf1'
p190
tp191
Rp192
sg25
I0
sg26
g27
(g28
(I0
tp193
g30
tp194
Rp195
(I1
(I2
tp196
g36
I00
S'|\x00\x00\x00j\x00\x00\x00'
p197
tp198
bsba(i__main__
FrameData
p199
(dp200
g6
g172
sg8
g9
(g13
S'/\xa4\xe3\\m\xbb-@'
p201
tp202
Rp203
sg19
I0
sg20
g21
(S'\x07\xdd\t\x1d\x13\r9\x00\x02\xbe'
p204
tp205
Rp206
sg25
I0
sg26
g27
(g28
(I0
tp207
g30
tp208
Rp209
(I1
(I2
tp210
g36
I00
S'\x83\x00\x00\x00h\x00\x00\x00'
p211
tp212
bsba(i__main__
FrameData
p213
(dp214
g6
S'h'
p215
sg8
g9
(g13
S"\xa2\xa3\xb3\r\xe5R'@"
p216
tp217
Rp218
sg19
I0
sg20
g21
(S'\x07\xdd\t\x1d\x13\r9\x00Q\xc9'
p219
tp220
Rp221
sg25
I0
sg26
g27
(g28
(I0
tp222
g30
tp223
Rp224
(I1
(I2
tp225
g36
I00
S'\x8a\x00\x00\x00h\x00\x00\x00'
p226
tp227
bsba(i__main__
FrameData
p228
(dp229
g6
g215
sg8
g9
(g13
S'&5w\xe2K\x15(@'
p230
tp231
Rp232
sg19
I0
sg20
g21
(S'\x07\xdd\t\x1d\x13\r9\x00}\xae'
p233
tp234
Rp235
sg25
I0
sg26
g27
(g28
(I0
tp236
g30
tp237
Rp238
(I1
(I2
tp239
g36
I00
S'\x8f\x00\x00\x00f\x00\x00\x00'
p240
tp241
bsba(i__main__
FrameData
p242
(dp243
g6
g215
sg8
g9
(g13
S'p\xc4\x9d9\x8dv.@'
p244
tp245
Rp246
sg19
I0
sg20
g21
(S'\x07\xdd\t\x1d\x13\r9\x00\xc5\xeb'
p247
tp248
Rp249
sg25
I0
sg26
g27
(g28
(I0
tp250
g30
tp251
Rp252
(I1
(I2
tp253
g36
I00
S'\x96\x00\x00\x00d\x00\x00\x00'
p254
tp255
bsba(i__main__
FrameData
p256
(dp257
g6
g215
sg8
g9
(g13
S'\xd5?\x80N\xf3\xcd1@'
p258
tp259
Rp260
sg19
I0
sg20
g21
(S'\x07\xdd\t\x1d\x13\r9\x01\x13\xf8'
p261
tp262
Rp263
sg25
I0
sg26
g27
(g28
(I0
tp264
g30
tp265
Rp266
(I1
(I2
tp267
g36
I00
S'\x9b\x00\x00\x00d\x00\x00\x00'
p268
tp269
bsba(i__main__
FrameData
p270
(dp271
g6
S'j'
p272
sg8
g9
(g13
S'\xa8\xf4\x97\x9bw\xe31@'
p273
tp274
Rp275
sg19
I0
sg20
g21
(S'\x07\xdd\t\x1d\x13\r9\x01Z\x89'
p276
tp277
Rp278
sg25
I0
sg26
g27
(g28
(I0
tp279
g30
tp280
Rp281
(I1
(I2
tp282
g36
I00
S'\x9f\x00\x00\x00b\x00\x00\x00'
p283
tp284
bsba(i__main__
FrameData
p285
(dp286
g6
g272
sg8
g9
(g13
S'+\xe5\x8a\xc6\x8f?2@'
p287
tp288
Rp289
sg19
I0
sg20
g21
(S'\x07\xdd\t\x1d\x13\r9\x01\xa9\x08'
p290
tp291
Rp292
sg25
I0
sg26
g27
(g28
(I0
tp293
g30
tp294
Rp295
(I1
(I2
tp296
g36
I00
S'\xa4\x00\x00\x00`\x00\x00\x00'
p297
tp298
bsba(i__main__
FrameData
p299
(dp300
g6
g272
sg8
g9
(g13
S'8\xd8\xbc\n\x1b\x072@'
p301
tp302
Rp303
sg19
I0
sg20
g21
(S'\x07\xdd\t\x1d\x13\r9\x01\xd0\x96'
p304
tp305
Rp306
sg25
I0
sg26
g27
(g28
(I0
tp307
g30
tp308
Rp309
(I1
(I2
tp310
g36
I00
S'\xa6\x00\x00\x00`\x00\x00\x00'
p311
tp312
bsba(i__main__
FrameData
p313
(dp314
g6
g272
sg8
g9
(g13
S'^\x9e\x9f\x85\xdf\x1a3@'
p315
tp316
Rp317
sg19
I0
sg20
g21
(S'\x07\xdd\t\x1d\x13\r9\x02\x16\x1a'
p318
tp319
Rp320
sg25
I0
sg26
g27
(g28
(I0
tp321
g30
tp322
Rp323
(I1
(I2
tp324
g36
I00
S'\xa9\x00\x00\x00_\x00\x00\x00'
p325
tp326
bsba(i__main__
FrameData
p327
(dp328
g6
S'i'
p329
sg8
g9
(g13
S'\xcey?\xdc\x9a?4@'
p330
tp331
Rp332
sg19
I0
sg20
g21
(S'\x07\xdd\t\x1d\x13\r9\x02Q#'
p333
tp334
Rp335
sg25
I0
sg26
g27
(g28
(I0
tp336
g30
tp337
Rp338
(I1
(I2
tp339
g36
I00
S'\xab\x00\x00\x00^\x00\x00\x00'
p340
tp341
bsba(i__main__
FrameData
p342
(dp343
g6
g329
sg8
g9
(g13
S'/vo\xf2\x9ej3@'
p344
tp345
Rp346
sg19
I0
sg20
g21
(S'\x07\xdd\t\x1d\x13\r9\x02\x8aW'
p347
tp348
Rp349
sg25
I0
sg26
g27
(g28
(I0
tp350
g30
tp351
Rp352
(I1
(I2
tp353
g36
I00
S'\xae\x00\x00\x00^\x00\x00\x00'
p354
tp355
bsba(i__main__
FrameData
p356
(dp357
g6
g329
sg8
g9
(g13
S'\x00\x00\x00\x00\x00\x002@'
p358
tp359
Rp360
sg19
I0
sg20
g21
(S'\x07\xdd\t\x1d\x13\r9\x02\xcc-'
p361
tp362
Rp363
sg25
I0
sg26
g27
(g28
(I0
tp364
g30
tp365
Rp366
(I1
(I2
tp367
g36
I00
S'\xb2\x00\x00\x00]\x00\x00\x00'
p368
tp369
bsba(i__main__
FrameData
p370
(dp371
g6
g329
sg8
g9
(g13
S'f\xee@\x9f\x03\x1e1@'
p372
tp373
Rp374
sg19
I0
sg20
g21
(S'\x07\xdd\t\x1d\x13\r9\x03&\x1a'
p375
tp376
Rp377
sg25
I0
sg26
g27
(g28
(I0
tp378
g30
tp379
Rp380
(I1
(I2
tp381
g36
I00
S'\xb4\x00\x00\x00\\\x00\x00\x00'
p382
tp383
bsba(i__main__
FrameData
p384
(dp385
g6
g329
sg8
g9
(g13
S'\xa8y\x0c\t\xd9v1@'
p386
tp387
Rp388
sg19
I0
sg20
g21
(S'\x07\xdd\t\x1d\x13\r9\x03W\x98'
p389
tp390
Rp391
sg25
I0
sg26
g27
(g28
(I0
tp392
g30
tp393
Rp394
(I1
(I2
tp395
g36
I00
S'\xb6\x00\x00\x00\\\x00\x00\x00'
p396
tp397
bsba(i__main__
FrameData
p398
(dp399
g6
g329
sg8
g9
(g13
S'\xa0\x96\xf4\xe0T\xb81@'
p400
tp401
Rp402
sg19
I0
sg20
g21
(S'\x07\xdd\t\x1d\x13\r9\x03\xa4\xca'
p403
tp404
Rp405
sg25
I0
sg26
g27
(g28
(I0
tp406
g30
tp407
Rp408
(I1
(I2
tp409
g36
I00
S'\xb7\x00\x00\x00\\\x00\x00\x00'
p410
tp411
bsba(i__main__
FrameData
p412
(dp413
g6
g329
sg8
g9
(g13
S'\x96`G\xb3\x80b2@'
p414
tp415
Rp416
sg19
I0
sg20
g21
(S'\x07\xdd\t\x1d\x13\r9\x03\xda\xef'
p417
tp418
Rp419
sg25
I0
sg26
g27
(g28
(I0
tp420
g30
tp421
Rp422
(I1
(I2
tp423
g36
I00
S'\xb9\x00\x00\x00\\\x00\x00\x00'
p424
tp425
bsba(i__main__
FrameData
p426
(dp427
g6
g329
sg8
g9
(g13
S'5 \x89\xa6\xcd\xc92@'
p428
tp429
Rp430
sg19
I0
sg20
g21
(S'\x07\xdd\t\x1d\x13\r9\x046\xe0'
p431
tp432
Rp433
sg25
I0
sg26
g27
(g28
(I0
tp434
g30
tp435
Rp436
(I1
(I2
tp437
g36
I00
S'\xba\x00\x00\x00\\\x00\x00\x00'
p438
tp439
bsba(i__main__
FrameData
p440
(dp441
g6
g329
sg8
g9
(g13
S'\xbf\x8f+\t\x89[2@'
p442
tp443
Rp444
sg19
I0
sg20
g21
(S'\x07\xdd\t\x1d\x13\r9\x04]B'
p445
tp446
Rp447
sg25
I0
sg26
g27
(g28
(I0
tp448
g30
tp449
Rp450
(I1
(I2
tp451
g36
I00
S'\xbb\x00\x00\x00[\x00\x00\x00'
p452
tp453
bsba(i__main__
FrameData
p454
(dp455
g6
g329
sg8
g9
(g13
S'/vo\xf2\x9ej3@'
p456
tp457
Rp458
sg19
I0
sg20
g21
(S'\x07\xdd\t\x1d\x13\r9\x04\x92\xdc'
p459
tp460
Rp461
sg25
I0
sg26
g27
(g28
(I0
tp462
g30
tp463
Rp464
(I1
(I2
tp465
g36
I00
S'\xbd\x00\x00\x00[\x00\x00\x00'
p466
tp467
bsba(i__main__
FrameData
p468
(dp469
g6
g329
sg8
g9
(g13
S'\x00\x00\x00\x00\x00\x004@'
p470
tp471
Rp472
sg19
I0
sg20
g21
(S'\x07\xdd\t\x1d\x13\r9\x04\xd3\x10'
p473
tp474
Rp475
sg25
I0
sg26
g27
(g28
(I0
tp476
g30
tp477
Rp478
(I1
(I2
tp479
g36
I00
S'\xbe\x00\x00\x00[\x00\x00\x00'
p480
tp481
bsba(i__main__
FrameData
p482
(dp483
g6
S'o'
p484
sg8
g9
(g13
S'u\x85\x18\x11\xe0\x992@'
p485
tp486
Rp487
sg19
I0
sg20
g21
(S'\x07\xdd\t\x1d\x13\r9\x05#?'
p488
tp489
Rp490
sg25
I0
sg26
g27
(g28
(I0
tp491
g30
tp492
Rp493
(I1
(I2
tp494
g36
I00
S'\xbf\x00\x00\x00Z\x00\x00\x00'
p495
tp496
bsba(i__main__
FrameData
p497
(dp498
g6
g484
sg8
g9
(g13
S'\xb9\xbaF\xca+~1@'
p499
tp500
Rp501
sg19
I0
sg20
g21
(S'\x07\xdd\t\x1d\x13\r9\x05X\xbf'
p502
tp503
Rp504
sg25
I0
sg26
g27
(g28
(I0
tp505
g30
tp506
Rp507
(I1
(I2
tp508
g36
I00
S'\xc1\x00\x00\x00Z\x00\x00\x00'
p509
tp510
bsba(i__main__
FrameData
p511
(dp512
g6
g484
sg8
g9
(g13
S'\xd0\xbaa?\xe0\x1f0@'
p513
tp514
Rp515
sg19
I0
sg20
g21
(S'\x07\xdd\t\x1d\x13\r9\x05\x9b)'
p516
tp517
Rp518
sg25
I0
sg26
g27
(g28
(I0
tp519
g30
tp520
Rp521
(I1
(I2
tp522
g36
I00
S'\xc2\x00\x00\x00Y\x00\x00\x00'
p523
tp524
bsba(i__main__
FrameData
p525
(dp526
g6
g484
sg8
g9
(g13
S'\xf7\x80Aq\xb9\xa2,@'
p527
tp528
Rp529
sg19
I0
sg20
g21
(S'\x07\xdd\t\x1d\x13\r9\x05\xd9s'
p530
tp531
Rp532
sg25
I0
sg26
g27
(g28
(I0
tp533
g30
tp534
Rp535
(I1
(I2
tp536
g36
I00
S'\xc4\x00\x00\x00X\x00\x00\x00'
p537
tp538
bsba(i__main__
FrameData
p539
(dp540
g6
g484
sg8
g9
(g13
S'\xef\rI\xf1\xf33+@'
p541
tp542
Rp543
sg19
I0
sg20
g21
(S'\x07\xdd\t\x1d\x13\r9\x068\xcd'
p544
tp545
Rp546
sg25
I0
sg26
g27
(g28
(I0
tp547
g30
tp548
Rp549
(I1
(I2
tp550
g36
I00
S'\xc6\x00\x00\x00X\x00\x00\x00'
p551
tp552
bsba(i__main__
FrameData
p553
(dp554
g6
g484
sg8
g9
(g13
S'8H\x9b\x97\xee\xae*@'
p555
tp556
Rp557
sg19
I0
sg20
g21
(S'\x07\xdd\t\x1d\x13\r9\x06]i'
p558
tp559
Rp560
sg25
I0
sg26
g27
(g28
(I0
tp561
g30
tp562
Rp563
(I1
(I2
tp564
g36
I00
S'\xc7\x00\x00\x00X\x00\x00\x00'
p565
tp566
bsba(i__main__
FrameData
p567
(dp568
g6
g484
sg8
g9
(g13
S'9\xdcc\xb3\xbfT(@'
p569
tp570
Rp571
sg19
I0
sg20
g21
(S'\x07\xdd\t\x1d\x13\r9\x06\xa9\xbd'
p572
tp573
Rp574
sg25
I0
sg26
g27
(g28
(I0
tp575
g30
tp576
Rp577
(I1
(I2
tp578
g36
I00
S'\xc8\x00\x00\x00W\x00\x00\x00'
p579
tp580
bsba(i__main__
FrameData
p581
(dp582
g6
g484
sg8
g9
(g13
S'\x00\x00\x00\x00\x00\x00(@'
p583
tp584
Rp585
sg19
I0
sg20
g21
(S'\x07\xdd\t\x1d\x13\r9\x07 \xa6'
p586
tp587
Rp588
sg25
I0
sg26
g27
(g28
(I0
tp589
g30
tp590
Rp591
(I1
(I2
tp592
g36
I00
S'\xca\x00\x00\x00W\x00\x00\x00'
p593
tp594
bsba(i__main__
FrameData
p595
(dp596
g6
g484
sg8
g9
(g13
S'&5w\xe2K\x15(@'
p597
tp598
Rp599
sg19
I0
sg20
g21
(S'\x07\xdd\t\x1d\x13\r9\x07i\xa6'
p600
tp601
Rp602
sg25
I0
sg26
g27
(g28
(I0
tp603
g30
tp604
Rp605
(I1
(I2
tp606
g36
I00
S'\xcb\x00\x00\x00W\x00\x00\x00'
p607
tp608
bsba(i__main__
FrameData
p609
(dp610
g6
g484
sg8
g9
(g13
S'\xd2\xf1}\x82U\\&@'
p611
tp612
Rp613
sg19
I0
sg20
g21
(S'\x07\xdd\t\x1d\x13\r9\x07\xbd\x83'
p614
tp615
Rp616
sg25
I0
sg26
g27
(g28
(I0
tp617
g30
tp618
Rp619
(I1
(I2
tp620
g36
I00
S'\xcc\x00\x00\x00V\x00\x00\x00'
p621
tp622
bsba(i__main__
FrameData
p623
(dp624
g6
g484
sg8
g9
(g13
S"\xe0\x11<m\xceh'@"
p625
tp626
Rp627
sg19
I0
sg20
g21
(S'\x07\xdd\t\x1d\x13\r9\x07\xe5\x00'
p628
tp629
Rp630
sg25
I0
sg26
g27
(g28
(I0
tp631
g30
tp632
Rp633
(I1
(I2
tp634
g36
I00
S'\xce\x00\x00\x00V\x00\x00\x00'
p635
tp636
bsba(i__main__
FrameData
p637
(dp638
g6
g484
sg8
g9
(g13
S'\xd2\xf1}\x82U\\&@'
p639
tp640
Rp641
sg19
I0
sg20
g21
(S'\x07\xdd\t\x1d\x13\r9\x082\xde'
p642
tp643
Rp644
sg25
I0
sg26
g27
(g28
(I0
tp645
g30
tp646
Rp647
(I1
(I2
tp648
g36
I00
S'\xcf\x00\x00\x00U\x00\x00\x00'
p649
tp650
bsba(i__main__
FrameData
p651
(dp652
g6
g484
sg8
g9
(g13
S'w\x03Is \xa2%@'
p653
tp654
Rp655
sg19
I0
sg20
g21
(S'\x07\xdd\t\x1d\x13\r9\x08v{'
p656
tp657
Rp658
sg25
I0
sg26
g27
(g28
(I0
tp659
g30
tp660
Rp661
(I1
(I2
tp662
g36
I00
S'\xd0\x00\x00\x00T\x00\x00\x00'
p663
tp664
bsba(i__main__
FrameData
p665
(dp666
g6
g484
sg8
g9
(g13
S'\xcd;\x7ff\x9e\xa0&@'
p667
tp668
Rp669
sg19
I0
sg20
g21
(S'\x07\xdd\t\x1d\x13\r9\x08\xa7\x03'
p670
tp671
Rp672
sg25
I0
sg26
g27
(g28
(I0
tp673
g30
tp674
Rp675
(I1
(I2
tp676
g36
I00
S'\xd2\x00\x00\x00S\x00\x00\x00'
p677
tp678
bsba(i__main__
FrameData
p679
(dp680
g6
g484
sg8
g9
(g13
S'&5w\xe2K\x15(@'
p681
tp682
Rp683
sg19
I0
sg20
g21
(S'\x07\xdd\t\x1d\x13\r9\x08\xf6i'
p684
tp685
Rp686
sg25
I0
sg26
g27
(g28
(I0
tp687
g30
tp688
Rp689
(I1
(I2
tp690
g36
I00
S'\xd3\x00\x00\x00S\x00\x00\x00'
p691
tp692
bsba(i__main__
FrameData
p693
(dp694
g6
g484
sg8
g9
(g13
S'\x00\xff\x9f\x99\xcc\x9c)@'
p695
tp696
Rp697
sg19
I0
sg20
g21
(S'\x07\xdd\t\x1d\x13\r9\tDX'
p698
tp699
Rp700
sg25
I0
sg26
g27
(g28
(I0
tp701
g30
tp702
Rp703
(I1
(I2
tp704
g36
I00
S'\xd4\x00\x00\x00S\x00\x00\x00'
p705
tp706
bsba(i__main__
FrameData
p707
(dp708
g6
g484
sg8
g9
(g13
S'\xef\rI\xf1\xf33+@'
p709
tp710
Rp711
sg19
I0
sg20
g21
(S'\x07\xdd\t\x1d\x13\r9\tiV'
p712
tp713
Rp714
sg25
I0
sg26
g27
(g28
(I0
tp715
g30
tp716
Rp717
(I1
(I2
tp718
g36
I00
S'\xd5\x00\x00\x00S\x00\x00\x00'
p719
tp720
bsba(i__main__
FrameData
p721
(dp722
g6
g484
sg8
g9
(g13
S'\xe4\x10\xe4sW\x0f)@'
p723
tp724
Rp725
sg19
I0
sg20
g21
(S'\x07\xdd\t\x1d\x13\r9\t\xb34'
p726
tp727
Rp728
sg25
I0
sg26
g27
(g28
(I0
tp729
g30
tp730
Rp731
(I1
(I2
tp732
g36
I00
S'\xd5\x00\x00\x00Q\x00\x00\x00'
p733
tp734
bsba(i__main__
FrameData
p735
(dp736
g6
S'p'
p737
sg8
g9
(g13
S"\xa2\xa3\xb3\r\xe5R'@"
p738
tp739
Rp740
sg19
I0
sg20
g21
(S'\x07\xdd\t\x1d\x13\r9\n<V'
p741
tp742
Rp743
sg25
I0
sg26
g27
(g28
(I0
tp744
g30
tp745
Rp746
(I1
(I2
tp747
g36
I00
S'\xd7\x00\x00\x00Q\x00\x00\x00'
p748
tp749
bsba(i__main__
FrameData
p750
(dp751
g6
g737
sg8
g9
(g13
S'\x88\x80v\xd5\\\x97$@'
p752
tp753
Rp754
sg19
I0
sg20
g21
(S'\x07\xdd\t\x1d\x13\r9\n\xb1\x08'
p755
tp756
Rp757
sg25
I0
sg26
g27
(g28
(I0
tp758
g30
tp759
Rp760
(I1
(I2
tp761
g36
I00
S'\xd8\x00\x00\x00P\x00\x00\x00'
p762
tp763
bsba(i__main__
FrameData
p764
(dp765
g6
g737
sg8
g9
(g13
S'A\x87b\xc62\xde"@'
p766
tp767
Rp768
sg19
I0
sg20
g21
(S'\x07\xdd\t\x1d\x13\r9\x0bMG'
p769
tp770
Rp771
sg25
I0
sg26
g27
(g28
(I0
tp772
g30
tp773
Rp774
(I1
(I2
tp775
g36
I00
S'\xd9\x00\x00\x00P\x00\x00\x00'
p776
tp777
bsba(i__main__
FrameData
p778
(dp779
g6
g737
sg8
g9
(g13
S'\xa8\xf4\x97\x9bw\xe3!@'
p780
tp781
Rp782
sg19
I0
sg20
g21
(S'\x07\xdd\t\x1d\x13\r9\x0bt\x83'
p783
tp784
Rp785
sg25
I0
sg26
g27
(g28
(I0
tp786
g30
tp787
Rp788
(I1
(I2
tp789
g36
I00
S'\xd9\x00\x00\x00O\x00\x00\x00'
p790
tp791
bsba(i__main__
FrameData
p792
(dp793
g6
g737
sg8
g9
(g13
S'\xf3YaD+\xd8\x1c@'
p794
tp795
Rp796
sg19
I0
sg20
g21
(S'\x07\xdd\t\x1d\x13\r9\x0b\xf8*'
p797
tp798
Rp799
sg25
I0
sg26
g27
(g28
(I0
tp800
g30
tp801
Rp802
(I1
(I2
tp803
g36
I00
S'\xdb\x00\x00\x00O\x00\x00\x00'
p804
tp805
bsba(i__main__
FrameData
p806
(dp807
g6
g737
sg8
g9
(g13
S'\xa2\xa3\xb3\r\xe5R\x17@'
p808
tp809
Rp810
sg19
I0
sg20
g21
(S'\x07\xdd\t\x1d\x13\r9\x0c6\xc7'
p811
tp812
Rp813
sg25
I0
sg26
g27
(g28
(I0
tp814
g30
tp815
Rp816
(I1
(I2
tp817
g36
I00
S'\xdc\x00\x00\x00N\x00\x00\x00'
p818
tp819
bsba(i__main__
FrameData
p820
(dp821
g6
g737
sg8
g9
(g13
S'\x00\x00\x00\x00\x00\x00\x14@'
p822
tp823
Rp824
sg19
I0
sg20
g21
(S'\x07\xdd\t\x1d\x13\r9\x0c\xd4\x10'
p825
tp826
Rp827
sg25
I0
sg26
g27
(g28
(I0
tp828
g30
tp829
Rp830
(I1
(I2
tp831
g36
I00
S'\xdd\x00\x00\x00N\x00\x00\x00'
p832
tp833
bsba(i__main__
FrameData
p834
(dp835
g6
g737
sg8
g9
(g13
S'\xf3YaD+\xd8\x0c@'
p836
tp837
Rp838
sg19
I0
sg20
g21
(S'\x07\xdd\t\x1d\x13\r9\x0c\xfb\xe0'
p839
tp840
Rp841
sg25
I0
sg26
g27
(g28
(I0
tp842
g30
tp843
Rp844
(I1
(I2
tp845
g36
I00
S'\xde\x00\x00\x00M\x00\x00\x00'
p846
tp847
bsba(i__main__
FrameData
p848
(dp849
g6
g737
sg8
g9
(g13
S'S[\xda:XL\t@'
p850
tp851
Rp852
sg19
I0
sg20
g21
(S'\x07\xdd\t\x1d\x13\r9\ra\x1c'
p853
tp854
Rp855
sg25
I0
sg26
g27
(g28
(I0
tp856
g30
tp857
Rp858
(I1
(I2
tp859
g36
I00
S'\xde\x00\x00\x00L\x00\x00\x00'
p860
tp861
bsba(i__main__
FrameData
p862
(dp863
g6
g737
sg8
g9
(g13
S'\x00\x00\x00\x00\x00\x00\x00@'
p864
tp865
Rp866
sg19
I0
sg20
g21
(S'\x07\xdd\t\x1d\x13\r9\r\xc0^'
p867
tp868
Rp869
sg25
I0
sg26
g27
(g28
(I0
tp870
g30
tp871
Rp872
(I1
(I2
tp873
g36
I00
S'\xdf\x00\x00\x00K\x00\x00\x00'
p874
tp875
bsba(i__main__
FrameData
p876
(dp877
g6
g737
sg8
g9
(g13
S'\xa8\xf4\x97\x9bw\xe3\x01@'
p878
tp879
Rp880
sg19
I0
sg20
g21
(S'\x07\xdd\t\x1d\x13\r:\x01"p'
p881
tp882
Rp883
sg25
I0
sg26
g27
(g28
(I0
tp884
g30
tp885
Rp886
(I1
(I2
tp887
g36
I00
S'\xdf\x00\x00\x00L\x00\x00\x00'
p888
tp889
bsba(i__main__
FrameData
p890
(dp891
g6
g737
sg8
g9
(g13
S'\xf3YaD+\xd8\x0c@'
p892
tp893
Rp894
sg19
I0
sg20
g21
(S'\x07\xdd\t\x1d\x13\r:\x01\x98\x96'
p895
tp896
Rp897
sg25
I0
sg26
g27
(g28
(I0
tp898
g30
tp899
Rp900
(I1
(I2
tp901
g36
I00
S'\xdf\x00\x00\x00N\x00\x00\x00'
p902
tp903
bsba(i__main__
FrameData
p904
(dp905
g6
g737
sg8
g9
(g13
S'\xa8\xf4\x97\x9bw\xe3\x11@'
p906
tp907
Rp908
sg19
I0
sg20
g21
(S'\x07\xdd\t\x1d\x13\r:\x02\x0eW'
p909
tp910
Rp911
sg25
I0
sg26
g27
(g28
(I0
tp912
g30
tp913
Rp914
(I1
(I2
tp915
g36
I00
S'\xdf\x00\x00\x00O\x00\x00\x00'
p916
tp917
bsba(i__main__
FrameData
p918
(dp919
g6
g737
sg8
g9
(g13
S'\xf3\xd9\xa8\xa4h\x8a\x15@'
p920
tp921
Rp922
sg19
I0
sg20
g21
(S'\x07\xdd\t\x1d\x13\r:\x02\x97\xd3'
p923
tp924
Rp925
sg25
I0
sg26
g27
(g28
(I0
tp926
g30
tp927
Rp928
(I1
(I2
tp929
g36
I00
S'\xdf\x00\x00\x00P\x00\x00\x00'
p930
tp931
bsba(i__main__
FrameData
p932
(dp933
g6
g737
sg8
g9
(g13
S'\xa2\xa3\xb3\r\xe5R\x17@'
p934
tp935
Rp936
sg19
I0
sg20
g21
(S'\x07\xdd\t\x1d\x13\r:\x03a\xa6'
p937
tp938
Rp939
sg25
I0
sg26
g27
(g28
(I0
tp940
g30
tp941
Rp942
(I1
(I2
tp943
g36
I00
S'\xde\x00\x00\x00P\x00\x00\x00'
p944
tp945
bsba(i__main__
FrameData
p946
(dp947
g6
g737
sg8
g9
(g13
S'\x00\xff\x9f\x99\xcc\x9c\x19@'
p948
tp949
Rp950
sg19
I0
sg20
g21
(S'\x07\xdd\t\x1d\x13\r:\x03\x96\x90'
p951
tp952
Rp953
sg25
I0
sg26
g27
(g28
(I0
tp954
g30
tp955
Rp956
(I1
(I2
tp957
g36
I00
S'\xdd\x00\x00\x00P\x00\x00\x00'
p958
tp959
bsba(i__main__
FrameData
p960
(dp961
g6
g737
sg8
g9
(g13
S'\xc0\n\x1f\x00\xc6H\x1c@'
p962
tp963
Rp964
sg19
I0
sg20
g21
(S'\x07\xdd\t\x1d\x13\r:\x04/\x90'
p965
tp966
Rp967
sg25
I0
sg26
g27
(g28
(I0
tp968
g30
tp969
Rp970
(I1
(I2
tp971
g36
I00
S'\xdc\x00\x00\x00P\x00\x00\x00'
p972
tp973
bsba(i__main__
FrameData
p974
(dp975
g6
g737
sg8
g9
(g13
S'htN\x17\xb2=\x1f@'
p976
tp977
Rp978
sg19
I0
sg20
g21
(S'\x07\xdd\t\x1d\x13\r:\x04c"'
p979
tp980
Rp981
sg25
I0
sg26
g27
(g28
(I0
tp982
g30
tp983
Rp984
(I1
(I2
tp985
g36
I00
S'\xdb\x00\x00\x00P\x00\x00\x00'
p986
tp987
bsba(i__main__
FrameData
p988
(dp989
g6
g737
sg8
g9
(g13
S'\xf3YaD+\xd8\x1c@'
p990
tp991
Rp992
sg19
I0
sg20
g21
(S'\x07\xdd\t\x1d\x13\r:\x04\xf4t'
p993
tp994
Rp995
sg25
I0
sg26
g27
(g28
(I0
tp996
g30
tp997
Rp998
(I1
(I2
tp999
g36
I00
S'\xdb\x00\x00\x00O\x00\x00\x00'
p1000
tp1001
bsba(i__main__
FrameData
p1002
(dp1003
g6
g737
sg8
g9
(g13
S'S[\xda:XL\x19@'
p1004
tp1005
Rp1006
sg19
I0
sg20
g21
(S'\x07\xdd\t\x1d\x13\r:\x05-\xcd'
p1007
tp1008
Rp1009
sg25
I0
sg26
g27
(g28
(I0
tp1010
g30
tp1011
Rp1012
(I1
(I2
tp1013
g36
I00
S'\xdb\x00\x00\x00M\x00\x00\x00'
p1014
tp1015
bsba(i__main__
FrameData
p1016
(dp1017
g6
g737
sg8
g9
(g13
S'9\xdcc\xb3\xbfT\x18@'
p1018
tp1019
Rp1020
sg19
I0
sg20
g21
(S'\x07\xdd\t\x1d\x13\r:\x05iU'
p1021
tp1022
Rp1023
sg25
I0
sg26
g27
(g28
(I0
tp1024
g30
tp1025
Rp1026
(I1
(I2
tp1027
g36
I00
S'\xdb\x00\x00\x00L\x00\x00\x00'
p1028
tp1029
bsba(i__main__
FrameData
p1030
(dp1031
g6
g737
sg8
g9
(g13
S'\x00\x00\x00\x00\x00\x00\x18@'
p1032
tp1033
Rp1034
sg19
I0
sg20
g21
(S'\x07\xdd\t\x1d\x13\r:\x05\xb1\x17'
p1035
tp1036
Rp1037
sg25
I0
sg26
g27
(g28
(I0
tp1038
g30
tp1039
Rp1040
(I1
(I2
tp1041
g36
I00
S'\xdb\x00\x00\x00K\x00\x00\x00'
p1042
tp1043
bsba(i__main__
FrameData
p1044
(dp1045
g6
g737
sg8
g9
(g13
S'9\xdcc\xb3\xbfT\x18@'
p1046
tp1047
Rp1048
sg19
I0
sg20
g21
(S'\x07\xdd\t\x1d\x13\r:\x06\x05\xfa'
p1049
tp1050
Rp1051
sg25
I0
sg26
g27
(g28
(I0
tp1052
g30
tp1053
Rp1054
(I1
(I2
tp1055
g36
I00
S'\xdb\x00\x00\x00J\x00\x00\x00'
p1056
tp1057
bsba(i__main__
FrameData
p1058
(dp1059
g6
g737
sg8
g9
(g13
S'\xfc\xeeci3\xd5\x1a@'
p1060
tp1061
Rp1062
sg19
I0
sg20
g21
(S'\x07\xdd\t\x1d\x13\r:\x06!\xfe'
p1063
tp1064
Rp1065
sg25
I0
sg26
g27
(g28
(I0
tp1066
g30
tp1067
Rp1068
(I1
(I2
tp1069
g36
I00
S'\xdb\x00\x00\x00H\x00\x00\x00'
p1070
tp1071
bsba(i__main__
FrameData
p1072
(dp1073
g6
g737
sg8
g9
(g13
S'\xf3YaD+\xd8\x1c@'
p1074
tp1075
Rp1076
sg19
I0
sg20
g21
(S'\x07\xdd\t\x1d\x13\r:\x06h\xa8'
p1077
tp1078
Rp1079
sg25
I0
sg26
g27
(g28
(I0
tp1080
g30
tp1081
Rp1082
(I1
(I2
tp1083
g36
I00
S'\xdb\x00\x00\x00G\x00\x00\x00'
p1084
tp1085
bsba(i__main__
FrameData
p1086
(dp1087
g6
g737
sg8
g9
(g13
S'\x00\xff\x9f\x99\xcc\x9c\x19@'
p1088
tp1089
Rp1090
sg19
I0
sg20
g21
(S'\x07\xdd\t\x1d\x13\r:\x07%\xe2'
p1091
tp1092
Rp1093
sg25
I0
sg26
g27
(g28
(I0
tp1094
g30
tp1095
Rp1096
(I1
(I2
tp1097
g36
I00
S'\xdc\x00\x00\x00G\x00\x00\x00'
p1098
tp1099
bsba(i__main__
FrameData
p1100
(dp1101
g6
g737
sg8
g9
(g13
S'\xcd;\x7ff\x9e\xa0\x16@'
p1102
tp1103
Rp1104
sg19
I0
sg20
g21
(S'\x07\xdd\t\x1d\x13\r:\x07\xb9\x80'
p1105
tp1106
Rp1107
sg25
I0
sg26
g27
(g28
(I0
tp1108
g30
tp1109
Rp1110
(I1
(I2
tp1111
g36
I00
S'\xdd\x00\x00\x00G\x00\x00\x00'
p1112
tp1113
bsba(i__main__
FrameData
p1114
(dp1115
g6
g737
sg8
g9
(g13
S'\x00\x00\x00\x00\x00\x00\x14@'
p1116
tp1117
Rp1118
sg19
I0
sg20
g21
(S'\x07\xdd\t\x1d\x13\r:\x08v\t'
p1119
tp1120
Rp1121
sg25
I0
sg26
g27
(g28
(I0
tp1122
g30
tp1123
Rp1124
(I1
(I2
tp1125
g36
I00
S'\xde\x00\x00\x00G\x00\x00\x00'
p1126
tp1127
bsba(i__main__
FrameData
p1128
(dp1129
g6
g737
sg8
g9
(g13
S'\xd9l\xdf\xccv\xf8\x10@'
p1130
tp1131
Rp1132
sg19
I0
sg20
g21
(S'\x07\xdd\t\x1d\x13\r:\n\xbc\xe8'
p1133
tp1134
Rp1135
sg25
I0
sg26
g27
(g28
(I0
tp1136
g30
tp1137
Rp1138
(I1
(I2
tp1139
g36
I00
S'\xde\x00\x00\x00H\x00\x00\x00'
p1140
tp1141
bsba(i__main__
FrameData
p1142
(dp1143
g6
g737
sg8
g9
(g13
S'\xf3YaD+\xd8\x0c@'
p1144
tp1145
Rp1146
sg19
I0
sg20
g21
(S'\x07\xdd\t\x1d\x13\r:\x0b\x00B'
p1147
tp1148
Rp1149
sg25
I0
sg26
g27
(g28
(I0
tp1150
g30
tp1151
Rp1152
(I1
(I2
tp1153
g36
I00
S'\xde\x00\x00\x00I\x00\x00\x00'
p1154
tp1155
bsba(i__main__
FrameData
p1156
(dp1157
g6
g737
sg8
g9
(g13
S'S[\xda:XL\t@'
p1158
tp1159
Rp1160
sg19
I0
sg20
g21
(S'\x07\xdd\t\x1d\x13\r:\x0c\xcc)'
p1161
tp1162
Rp1163
sg25
I0
sg26
g27
(g28
(I0
tp1164
g30
tp1165
Rp1166
(I1
(I2
tp1167
g36
I00
S'\xde\x00\x00\x00J\x00\x00\x00'
p1168
tp1169
bsba(i__main__
FrameData
p1170
(dp1171
g6
g737
sg8
g9
(g13
S'\x00\x00\x00\x00\x00\x00\x08@'
p1172
tp1173
Rp1174
sg19
I0
sg20
g21
(S'\x07\xdd\t\x1d\x13\r:\r\nN'
p1175
tp1176
Rp1177
sg25
I0
sg26
g27
(g28
(I0
tp1178
g30
tp1179
Rp1180
(I1
(I2
tp1181
g36
I00
S'\xde\x00\x00\x00K\x00\x00\x00'
p1182
tp1183
bsba(i__main__
FrameData
p1184
(dp1185
g6
g737
sg8
g9
(g13
S'S[\xda:XL\t@'
p1186
tp1187
Rp1188
sg19
I0
sg20
g21
(S'\x07\xdd\t\x1d\x13\r:\rW\xfd'
p1189
tp1190
Rp1191
sg25
I0
sg26
g27
(g28
(I0
tp1192
g30
tp1193
Rp1194
(I1
(I2
tp1195
g36
I00
S'\xde\x00\x00\x00L\x00\x00\x00'
p1196
tp1197
bsba(i__main__
FrameData
p1198
(dp1199
g6
g737
sg8
g9
(g13
S'\xf3YaD+\xd8\x0c@'
p1200
tp1201
Rp1202
sg19
I0
sg20
g21
(S'\x07\xdd\t\x1d\x13\r:\r\x87\xfd'
p1203
tp1204
Rp1205
sg25
I0
sg26
g27
(g28
(I0
tp1206
g30
tp1207
Rp1208
(I1
(I2
tp1209
g36
I00
S'\xde\x00\x00\x00M\x00\x00\x00'
p1210
tp1211
bsba(i__main__
FrameData
p1212
(dp1213
g6
g737
sg8
g9
(g13
S'\xd9l\xdf\xccv\xf8\x10@'
p1214
tp1215
Rp1216
sg19
I0
sg20
g21
(S'\x07\xdd\t\x1d\x13\r:\r\xd5\x7f'
p1217
tp1218
Rp1219
sg25
I0
sg26
g27
(g28
(I0
tp1220
g30
tp1221
Rp1222
(I1
(I2
tp1223
g36
I00
S'\xde\x00\x00\x00N\x00\x00\x00'
p1224
tp1225
bsba(i__main__
FrameData
p1226
(dp1227
g6
g737
sg8
g9
(g13
S'\x00\x00\x00\x00\x00\x00\x14@'
p1228
tp1229
Rp1230
sg19
I0
sg20
g21
(S'\x07\xdd\t\x1d\x13\r:\x0e\x12s'
p1231
tp1232
Rp1233
sg25
I0
sg26
g27
(g28
(I0
tp1234
g30
tp1235
Rp1236
(I1
(I2
tp1237
g36
I00
S'\xde\x00\x00\x00O\x00\x00\x00'
p1238
tp1239
bsba(i__main__
FrameData
p1240
(dp1241
g6
g737
sg8
g9
(g13
S'\xa2\xa3\xb3\r\xe5R\x17@'
p1242
tp1243
Rp1244
sg19
I0
sg20
g21
(S'\x07\xdd\t\x1d\x13\r:\x0eQ\xbb'
p1245
tp1246
Rp1247
sg25
I0
sg26
g27
(g28
(I0
tp1248
g30
tp1249
Rp1250
(I1
(I2
tp1251
g36
I00
S'\xde\x00\x00\x00P\x00\x00\x00'
p1252
tp1253
bsba(i__main__
FrameData
p1254
(dp1255
g6
g737
sg8
g9
(g13
S'\xfc\xeeci3\xd5\x1a@'
p1256
tp1257
Rp1258
sg19
I0
sg20
g21
(S'\x07\xdd\t\x1d\x13\r:\x0e\xd4u'
p1259
tp1260
Rp1261
sg25
I0
sg26
g27
(g28
(I0
tp1262
g30
tp1263
Rp1264
(I1
(I2
tp1265
g36
I00
S'\xde\x00\x00\x00Q\x00\x00\x00'
p1266
tp1267
bsba(i__main__
FrameData
p1268
(dp1269
g6
g737
sg8
g9
(g13
S'p\xc4\x9d9\x8dv\x1e@'
p1270
tp1271
Rp1272
sg19
I0
sg20
g21
(S'\x07\xdd\t\x1d\x13\r:\x0f\x11\xc1'
p1273
tp1274
Rp1275
sg25
I0
sg26
g27
(g28
(I0
tp1276
g30
tp1277
Rp1278
(I1
(I2
tp1279
g36
I00
S'\xde\x00\x00\x00R\x00\x00\x00'
p1280
tp1281
bsba(i__main__
FrameData
p1282
(dp1283
g6
g737
sg8
g9
(g13
S'\xa3\x14\xae\xa8\x87\x16!@'
p1284
tp1285
Rp1286
sg19
I0
sg20
g21
(S'\x07\xdd\t\x1d\x13\r;\x00O\xeb'
p1287
tp1288
Rp1289
sg25
I0
sg26
g27
(g28
(I0
tp1290
g30
tp1291
Rp1292
(I1
(I2
tp1293
g36
I00
S'\xde\x00\x00\x00S\x00\x00\x00'
p1294
tp1295
bsba(i__main__
FrameData
p1296
(dp1297
g6
g737
sg8
g9
(g13
S'~\xc4#,B\xf9"@'
p1298
tp1299
Rp1300
sg19
I0
sg20
g21
(S'\x07\xdd\t\x1d\x13\r;\x00\xd3\xcb'
p1301
tp1302
Rp1303
sg25
I0
sg26
g27
(g28
(I0
tp1304
g30
tp1305
Rp1306
(I1
(I2
tp1307
g36
I00
S'\xde\x00\x00\x00T\x00\x00\x00'
p1308
tp1309
bsba(i__main__
FrameData
p1310
(dp1311
g6
g737
sg8
g9
(g13
S'7\xf9\xcf\xdao\xe1$@'
p1312
tp1313
Rp1314
sg19
I0
sg20
g21
(S'\x07\xdd\t\x1d\x13\r;\x01S4'
p1315
tp1316
Rp1317
sg25
I0
sg26
g27
(g28
(I0
tp1318
g30
tp1319
Rp1320
(I1
(I2
tp1321
g36
I00
S'\xde\x00\x00\x00U\x00\x00\x00'
p1322
tp1323
bsba(i__main__
FrameData
p1324
(dp1325
g6
g737
sg8
g9
(g13
S'\xeb\x12\xb2\xbb\xb2\xcd&@'
p1326
tp1327
Rp1328
sg19
I0
sg20
g21
(S'\x07\xdd\t\x1d\x13\r;\x01\xdb\x8a'
p1329
tp1330
Rp1331
sg25
I0
sg26
g27
(g28
(I0
tp1332
g30
tp1333
Rp1334
(I1
(I2
tp1335
g36
I00
S'\xde\x00\x00\x00V\x00\x00\x00'
p1336
tp1337
bsba(i__main__
FrameData
p1338
(dp1339
g6
g737
sg8
g9
(g13
S'\x8a\xe3\x07\x1a\x17\xbd(@'
p1340
tp1341
Rp1342
sg19
I0
sg20
g21
(S'\x07\xdd\t\x1d\x13\r;\x02\x16\x98'
p1343
tp1344
Rp1345
sg25
I0
sg26
g27
(g28
(I0
tp1346
g30
tp1347
Rp1348
(I1
(I2
tp1349
g36
I00
S'\xde\x00\x00\x00W\x00\x00\x00'
p1350
tp1351
bsba(i__main__
FrameData
p1352
(dp1353
g6
g737
sg8
g9
(g13
S'S[\xda:XL)@'
p1354
tp1355
Rp1356
sg19
I0
sg20
g21
(S'\x07\xdd\t\x1d\x13\r;\x02Z\xaa'
p1357
tp1358
Rp1359
sg25
I0
sg26
g27
(g28
(I0
tp1360
g30
tp1361
Rp1362
(I1
(I2
tp1363
g36
I00
S'\xdd\x00\x00\x00W\x00\x00\x00'
p1364
tp1365
bsba(i__main__
FrameData
p1366
(dp1367
g6
g737
sg8
g9
(g13
S'\xe9\xfbv \xd5\x1e-@'
p1368
tp1369
Rp1370
sg19
I0
sg20
g21
(S'\x07\xdd\t\x1d\x13\r;\x02\xaa\xb3'
p1371
tp1372
Rp1373
sg25
I0
sg26
g27
(g28
(I0
tp1374
g30
tp1375
Rp1376
(I1
(I2
tp1377
g36
I00
S'\xdd\x00\x00\x00Y\x00\x00\x00'
p1378
tp1379
bsba(i__main__
FrameData
p1380
(dp1381
g6
g737
sg8
g9
(g13
S'\xb3\xa73\xa0`\x0c/@'
p1382
tp1383
Rp1384
sg19
I0
sg20
g21
(S'\x07\xdd\t\x1d\x13\r;\x02\xe0\x8b'
p1385
tp1386
Rp1387
sg25
I0
sg26
g27
(g28
(I0
tp1388
g30
tp1389
Rp1390
(I1
(I2
tp1391
g36
I00
S'\xdd\x00\x00\x00Z\x00\x00\x00'
p1392
tp1393
bsba(i__main__
FrameData
p1394
(dp1395
g6
g737
sg8
g9
(g13
S'\x07\xed\xaff\x0f~0@'
p1396
tp1397
Rp1398
sg19
I0
sg20
g21
(S'\x07\xdd\t\x1d\x13\r;\x03\x1a\xcc'
p1399
tp1400
Rp1401
sg25
I0
sg26
g27
(g28
(I0
tp1402
g30
tp1403
Rp1404
(I1
(I2
tp1405
g36
I00
S'\xdd\x00\x00\x00[\x00\x00\x00'
p1406
tp1407
bsba(i__main__
FrameData
p1408
(dp1409
g6
g737
sg8
g9
(g13
S'\xa0\x96\xf4\xe0T\xb81@'
p1410
tp1411
Rp1412
sg19
I0
sg20
g21
(S'\x07\xdd\t\x1d\x13\r;\x03\\n'
p1413
tp1414
Rp1415
sg25
I0
sg26
g27
(g28
(I0
tp1416
g30
tp1417
Rp1418
(I1
(I2
tp1419
g36
I00
S'\xdc\x00\x00\x00\\\x00\x00\x00'
p1420
tp1421
bsba(i__main__
FrameData
p1422
(dp1423
g6
g737
sg8
g9
(g13
S'X(/\x84y\xae2@'
p1424
tp1425
Rp1426
sg19
I0
sg20
g21
(S'\x07\xdd\t\x1d\x13\r;\x03\xbaK'
p1427
tp1428
Rp1429
sg25
I0
sg26
g27
(g28
(I0
tp1430
g30
tp1431
Rp1432
(I1
(I2
tp1433
g36
I00
S'\xdc\x00\x00\x00]\x00\x00\x00'
p1434
tp1435
bsba(i__main__
FrameData
p1436
(dp1437
g6
g737
sg8
g9
(g13
S'W\xb2\xdb\x1a\x9a\xa53@'
p1438
tp1439
Rp1440
sg19
I0
sg20
g21
(S'\x07\xdd\t\x1d\x13\r;\x03\xe2\xd2'
p1441
tp1442
Rp1443
sg25
I0
sg26
g27
(g28
(I0
tp1444
g30
tp1445
Rp1446
(I1
(I2
tp1447
g36
I00
S'\xdc\x00\x00\x00^\x00\x00\x00'
p1448
tp1449
bsba(i__main__
FrameData
p1450
(dp1451
g6
S'l'
p1452
sg8
g9
(g13
S'W\xb2\xdb\x1a\x9a\xa53@'
p1453
tp1454
Rp1455
sg19
I0
sg20
g21
(S'\x07\xdd\t\x1d\x13\r;\x040\xb6'
p1456
tp1457
Rp1458
sg25
I0
sg26
g27
(g28
(I0
tp1459
g30
tp1460
Rp1461
(I1
(I2
tp1462
g36
I00
S'\xdb\x00\x00\x00_\x00\x00\x00'
p1463
tp1464
bsba(i__main__
FrameData
p1465
(dp1466
g6
g1452
sg8
g9
(g13
S'\xa0\x96\xf4\xe0T\xb81@'
p1467
tp1468
Rp1469
sg19
I0
sg20
g21
(S'\x07\xdd\t\x1d\x13\r;\x04v\xa3'
p1470
tp1471
Rp1472
sg25
I0
sg26
g27
(g28
(I0
tp1473
g30
tp1474
Rp1475
(I1
(I2
tp1476
g36
I00
S'\xdb\x00\x00\x00a\x00\x00\x00'
p1477
tp1478
bsba(i__main__
FrameData
p1479
(dp1480
g6
g1452
sg8
g9
(g13
S"'\xf2\x90In\x9f/@"
p1481
tp1482
Rp1483
sg19
I0
sg20
g21
(S'\x07\xdd\t\x1d\x13\r;\x04\xa6\x0e'
p1484
tp1485
Rp1486
sg25
I0
sg26
g27
(g28
(I0
tp1487
g30
tp1488
Rp1489
(I1
(I2
tp1490
g36
I00
S'\xdb\x00\x00\x00c\x00\x00\x00'
p1491
tp1492
bsba(i__main__
FrameData
p1493
(dp1494
g6
g1452
sg8
g9
(g13
S'\xbc\xfdP\xb5U\xdb+@'
p1495
tp1496
Rp1497
sg19
I0
sg20
g21
(S'\x07\xdd\t\x1d\x13\r;\x04\xe6B'
p1498
tp1499
Rp1500
sg25
I0
sg26
g27
(g28
(I0
tp1501
g30
tp1502
Rp1503
(I1
(I2
tp1504
g36
I00
S'\xdb\x00\x00\x00e\x00\x00\x00'
p1505
tp1506
bsba(i__main__
FrameData
p1507
(dp1508
g6
g1452
sg8
g9
(g13
S'lNy\x00\x85*(@'
p1509
tp1510
Rp1511
sg19
I0
sg20
g21
(S'\x07\xdd\t\x1d\x13\r;\x05%\x97'
p1512
tp1513
Rp1514
sg25
I0
sg26
g27
(g28
(I0
tp1515
g30
tp1516
Rp1517
(I1
(I2
tp1518
g36
I00
S'\xdb\x00\x00\x00g\x00\x00\x00'
p1519
tp1520
bsba(i__main__
FrameData
p1521
(dp1522
g6
g1452
sg8
g9
(g13
S'\xf3\xd9\xa8\xa4h\x8a%@'
p1523
tp1524
Rp1525
sg19
I0
sg20
g21
(S'\x07\xdd\t\x1d\x13\r;\x05h\x80'
p1526
tp1527
Rp1528
sg25
I0
sg26
g27
(g28
(I0
tp1529
g30
tp1530
Rp1531
(I1
(I2
tp1532
g36
I00
S'\xda\x00\x00\x00h\x00\x00\x00'
p1533
tp1534
bsba(i__main__
FrameData
p1535
(dp1536
g6
g1452
sg8
g9
(g13
S'\xa8\xf4\x97\x9bw\xe3!@'
p1537
tp1538
Rp1539
sg19
I0
sg20
g21
(S'\x07\xdd\t\x1d\x13\r;\x05\xb7\xb5'
p1540
tp1541
Rp1542
sg25
I0
sg26
g27
(g28
(I0
tp1543
g30
tp1544
Rp1545
(I1
(I2
tp1546
g36
I00
S'\xda\x00\x00\x00j\x00\x00\x00'
p1547
tp1548
bsba(i__main__
FrameData
p1549
(dp1550
g6
g1452
sg8
g9
(g13
S'\xd0\xbaa?\xe0\x1f @'
p1551
tp1552
Rp1553
sg19
I0
sg20
g21
(S'\x07\xdd\t\x1d\x13\r;\x06\x04#'
p1554
tp1555
Rp1556
sg25
I0
sg26
g27
(g28
(I0
tp1557
g30
tp1558
Rp1559
(I1
(I2
tp1560
g36
I00
S'\xda\x00\x00\x00k\x00\x00\x00'
p1561
tp1562
bsba(i__main__
FrameData
p1563
(dp1564
g6
g1452
sg8
g9
(g13
S'\xf3YaD+\xd8\x1c@'
p1565
tp1566
Rp1567
sg19
I0
sg20
g21
(S'\x07\xdd\t\x1d\x13\r;\x06,\x92'
p1568
tp1569
Rp1570
sg25
I0
sg26
g27
(g28
(I0
tp1571
g30
tp1572
Rp1573
(I1
(I2
tp1574
g36
I00
S'\xda\x00\x00\x00l\x00\x00\x00'
p1575
tp1576
bsba(i__main__
FrameData
p1577
(dp1578
g6
g1452
sg8
g9
(g13
S'\x00\xff\x9f\x99\xcc\x9c\x19@'
p1579
tp1580
Rp1581
sg19
I0
sg20
g21
(S'\x07\xdd\t\x1d\x13\r;\x06kZ'
p1582
tp1583
Rp1584
sg25
I0
sg26
g27
(g28
(I0
tp1585
g30
tp1586
Rp1587
(I1
(I2
tp1588
g36
I00
S'\xda\x00\x00\x00m\x00\x00\x00'
p1589
tp1590
bsba(i__main__
FrameData
p1591
(dp1592
g6
g1452
sg8
g9
(g13
S'\xcd;\x7ff\x9e\xa0\x16@'
p1593
tp1594
Rp1595
sg19
I0
sg20
g21
(S'\x07\xdd\t\x1d\x13\r;\x06\xb1\xb1'
p1596
tp1597
Rp1598
sg25
I0
sg26
g27
(g28
(I0
tp1599
g30
tp1600
Rp1601
(I1
(I2
tp1602
g36
I00
S'\xda\x00\x00\x00n\x00\x00\x00'
p1603
tp1604
bsba(i__main__
FrameData
p1605
(dp1606
g6
g1452
sg8
g9
(g13
S'\x00\x00\x00\x00\x00\x00\x14@'
p1607
tp1608
Rp1609
sg19
I0
sg20
g21
(S'\x07\xdd\t\x1d\x13\r;\x06\xef\x8d'
p1610
tp1611
Rp1612
sg25
I0
sg26
g27
(g28
(I0
tp1613
g30
tp1614
Rp1615
(I1
(I2
tp1616
g36
I00
S'\xda\x00\x00\x00o\x00\x00\x00'
p1617
tp1618
bsba(i__main__
FrameData
p1619
(dp1620
g6
g1452
sg8
g9
(g13
S'\xf3YaD+\xd8\x0c@'
p1621
tp1622
Rp1623
sg19
I0
sg20
g21
(S'\x07\xdd\t\x1d\x13\r;\x07;D'
p1624
tp1625
Rp1626
sg25
I0
sg26
g27
(g28
(I0
tp1627
g30
tp1628
Rp1629
(I1
(I2
tp1630
g36
I00
S'\xd8\x00\x00\x00o\x00\x00\x00'
p1631
tp1632
bsba(i__main__
FrameData
p1633
(dp1634
g6
g1452
sg8
g9
(g13
S'\x00\x00\x00\x00\x00\x00\x00@'
p1635
tp1636
Rp1637
sg19
I0
sg20
g21
(S'\x07\xdd\t\x1d\x13\r;\x07\xb3\x81'
p1638
tp1639
Rp1640
sg25
I0
sg26
g27
(g28
(I0
tp1641
g30
tp1642
Rp1643
(I1
(I2
tp1644
g36
I00
S'\xd8\x00\x00\x00r\x00\x00\x00'
p1645
tp1646
bsba(i__main__
FrameData
p1647
(dp1648
g6
g1452
sg8
g9
(g13
S'\xa8\xf4\x97\x9bw\xe3\x01@'
p1649
tp1650
Rp1651
sg19
I0
sg20
g21
(S'\x07\xdd\t\x1d\x13\r;\x08\x01\xd1'
p1652
tp1653
Rp1654
sg25
I0
sg26
g27
(g28
(I0
tp1655
g30
tp1656
Rp1657
(I1
(I2
tp1658
g36
I00
S'\xd8\x00\x00\x00s\x00\x00\x00'
p1659
tp1660
bsba(i__main__
FrameData
p1661
(dp1662
g6
g1452
sg8
g9
(g13
S'\xcd;\x7ff\x9e\xa0\xf6?'
p1663
tp1664
Rp1665
sg19
I0
sg20
g21
(S'\x07\xdd\t\x1d\x13\r;\x0b\x0f\xac'
p1666
tp1667
Rp1668
sg25
I0
sg26
g27
(g28
(I0
tp1669
g30
tp1670
Rp1671
(I1
(I2
tp1672
g36
I00
S'\xd7\x00\x00\x00s\x00\x00\x00'
p1673
tp1674
bsba(i__main__
FrameData
p1675
(dp1676
g6
g1452
sg8
g9
(g13
S'\x00\x00\x00\x00\x00\x00\xf0?'
p1677
tp1678
Rp1679
sg19
I0
sg20
g21
(S'\x07\xdd\t\x1d\x13\r;\x0b\x8b\x19'
p1680
tp1681
Rp1682
sg25
I0
sg26
g27
(g28
(I0
tp1683
g30
tp1684
Rp1685
(I1
(I2
tp1686
g36
I00
S'\xd6\x00\x00\x00s\x00\x00\x00'
p1687
tp1688
bsba(i__main__
FrameData
p1689
(dp1690
g6
g1452
sg8
g9
(g13
S'\x00\x00\x00\x00\x00\x00\xf0?'
p1691
tp1692
Rp1693
sg19
I0
sg20
g21
(S'\x07\xdd\t\x1d\x13\r;\x0b\xd2#'
p1694
tp1695
Rp1696
sg25
I0
sg26
g27
(g28
(I0
tp1697
g30
tp1698
Rp1699
(I1
(I2
tp1700
g36
I00
S'\xd5\x00\x00\x00r\x00\x00\x00'
p1701
tp1702
bsba(i__main__
FrameData
p1703
(dp1704
g6
g1452
sg8
g9
(g13
S'\xa8\xf4\x97\x9bw\xe3\x01@'
p1705
tp1706
Rp1707
sg19
I0
sg20
g21
(S'\x07\xdd\t\x1d\x13\r;\x0c c'
p1708
tp1709
Rp1710
sg25
I0
sg26
g27
(g28
(I0
tp1711
g30
tp1712
Rp1713
(I1
(I2
tp1714
g36
I00
S'\xd5\x00\x00\x00p\x00\x00\x00'
p1715
tp1716
bsba(i__main__
FrameData
p1717
(dp1718
g6
g1452
sg8
g9
(g13
S'\xf3YaD+\xd8\x0c@'
p1719
tp1720
Rp1721
sg19
I0
sg20
g21
(S'\x07\xdd\t\x1d\x13\r;\x0cN\x84'
p1722
tp1723
Rp1724
sg25
I0
sg26
g27
(g28
(I0
tp1725
g30
tp1726
Rp1727
(I1
(I2
tp1728
g36
I00
S'\xd4\x00\x00\x00o\x00\x00\x00'
p1729
tp1730
bsba(i__main__
FrameData
p1731
(dp1732
g6
g1452
sg8
g9
(g13
S'\xf3YaD+\xd8\x1c@'
p1733
tp1734
Rp1735
sg19
I0
sg20
g21
(S'\x07\xdd\t\x1d\x13\r;\x0c\x94c'
p1736
tp1737
Rp1738
sg25
I0
sg26
g27
(g28
(I0
tp1739
g30
tp1740
Rp1741
(I1
(I2
tp1742
g36
I00
S'\xd2\x00\x00\x00l\x00\x00\x00'
p1743
tp1744
bsba(i__main__
FrameData
p1745
(dp1746
g6
g1452
sg8
g9
(g13
S'\xeb\x12\xb2\xbb\xb2\xcd&@'
p1747
tp1748
Rp1749
sg19
I0
sg20
g21
(S'\x07\xdd\t\x1d\x13\r;\x0c\xd85'
p1750
tp1751
Rp1752
sg25
I0
sg26
g27
(g28
(I0
tp1753
g30
tp1754
Rp1755
(I1
(I2
tp1756
g36
I00
S'\xcf\x00\x00\x00i\x00\x00\x00'
p1757
tp1758
bsba(i__main__
FrameData
p1759
(dp1760
g6
g1452
sg8
g9
(g13
S'\x10\xb3]\xc9`G0@'
p1761
tp1762
Rp1763
sg19
I0
sg20
g21
(S'\x07\xdd\t\x1d\x13\r;\r\x0b\xe3'
p1764
tp1765
Rp1766
sg25
I0
sg26
g27
(g28
(I0
tp1767
g30
tp1768
Rp1769
(I1
(I2
tp1770
g36
I00
S'\xcb\x00\x00\x00f\x00\x00\x00'
p1771
tp1772
bsba(i__main__
FrameData
p1773
(dp1774
g6
S'k'
p1775
sg8
g9
(g13
S'\x0f\xab\xa8Q\xb6f0@'
p1776
tp1777
Rp1778
sg19
I0
sg20
g21
(S'\x07\xdd\t\x1d\x13\r;\rW\xac'
p1779
tp1780
Rp1781
sg25
I0
sg26
g27
(g28
(I0
tp1782
g30
tp1783
Rp1784
(I1
(I2
tp1785
g36
I00
S'\xc8\x00\x00\x00e\x00\x00\x00'
p1786
tp1787
bsba(i__main__
FrameData
p1788
(dp1789
g6
g1775
sg8
g9
(g13
S"v\xa3~{\xce'0@"
p1790
tp1791
Rp1792
sg19
I0
sg20
g21
(S'\x07\xdd\t\x1d\x13\r;\r\x8e@'
p1793
tp1794
Rp1795
sg25
I0
sg26
g27
(g28
(I0
tp1796
g30
tp1797
Rp1798
(I1
(I2
tp1799
g36
I00
S'\xc4\x00\x00\x00c\x00\x00\x00'
p1800
tp1801
bsba(i__main__
FrameData
p1802
(dp1803
g6
g1775
sg8
g9
(g13
S'$\xf8\xd9p[\x1c2@'
p1804
tp1805
Rp1806
sg19
I0
sg20
g21
(S'\x07\xdd\t\x1d\x13\r;\r\xcf\x1e'
p1807
tp1808
Rp1809
sg25
I0
sg26
g27
(g28
(I0
tp1810
g30
tp1811
Rp1812
(I1
(I2
tp1813
g36
I00
S'\xbc\x00\x00\x00`\x00\x00\x00'
p1814
tp1815
bsba(i__main__
FrameData
p1816
(dp1817
g6
g329
sg8
g9
(g13
S'W\xb2\xdb\x1a\x9a\xa53@'
p1818
tp1819
Rp1820
sg19
I0
sg20
g21
(S'\x07\xdd\t\x1d\x13\r;\x0e\x1c`'
p1821
tp1822
Rp1823
sg25
I0
sg26
g27
(g28
(I0
tp1824
g30
tp1825
Rp1826
(I1
(I2
tp1827
g36
I00
S'\xb7\x00\x00\x00^\x00\x00\x00'
p1828
tp1829
bsba(i__main__
FrameData
p1830
(dp1831
g6
g329
sg8
g9
(g13
S'\x00\x00\x00\x00\x00\x000@'
p1832
tp1833
Rp1834
sg19
I0
sg20
g21
(S'\x07\xdd\t\x1d\x13\r;\x0ej)'
p1835
tp1836
Rp1837
sg25
I0
sg26
g27
(g28
(I0
tp1838
g30
tp1839
Rp1840
(I1
(I2
tp1841
g36
I00
S'\xb2\x00\x00\x00[\x00\x00\x00'
p1842
tp1843
bsba(i__main__
FrameData
p1844
(dp1845
g6
g329
sg8
g9
(g13
S'\xbc\xfdP\xb5U\xdb+@'
p1846
tp1847
Rp1848
sg19
I0
sg20
g21
(S'\x07\xdd\t\x1d\x13\r;\x0e\xb8T'
p1849
tp1850
Rp1851
sg25
I0
sg26
g27
(g28
(I0
tp1852
g30
tp1853
Rp1854
(I1
(I2
tp1855
g36
I00
S'\xad\x00\x00\x00X\x00\x00\x00'
p1856
tp1857
bsba(i__main__
FrameData
p1858
(dp1859
g6
g329
sg8
g9
(g13
S'?*\x98"\xe3l,@'
p1860
tp1861
Rp1862
sg19
I0
sg20
g21
(S'\x07\xdd\t\x1d\x13\r;\x0e\xdeJ'
p1863
tp1864
Rp1865
sg25
I0
sg26
g27
(g28
(I0
tp1866
g30
tp1867
Rp1868
(I1
(I2
tp1869
g36
I00
S'\xa9\x00\x00\x00V\x00\x00\x00'
p1870
tp1871
bsba(i__main__
FrameData
p1872
(dp1873
g6
S'u'
p1874
sg8
g9
(g13
S'\x10\xb3]\xc9`G0@'
p1875
tp1876
Rp1877
sg19
I0
sg20
g21
(S'\x07\xdd\t\x1d\x13\r;\x0f-\xc7'
p1878
tp1879
Rp1880
sg25
I0
sg26
g27
(g28
(I0
tp1881
g30
tp1882
Rp1883
(I1
(I2
tp1884
g36
I00
S'\xa4\x00\x00\x00U\x00\x00\x00'
p1885
tp1886
bsba(i__main__
FrameData
p1887
(dp1888
g6
g1874
sg8
g9
(g13
S'F#O3\xb2t)@'
p1889
tp1890
Rp1891
sg19
I0
sg20
g21
(S'\x07\xdd\t\x1d\x13\x0e\x00\x009E'
p1892
tp1893
Rp1894
sg25
I0
sg26
g27
(g28
(I0
tp1895
g30
tp1896
Rp1897
(I1
(I2
tp1898
g36
I00
S'\xa1\x00\x00\x00S\x00\x00\x00'
p1899
tp1900
bsba(i__main__
FrameData
p1901
(dp1902
g6
g1874
sg8
g9
(g13
S'\xd0\xbaa?\xe0\x1f @'
p1903
tp1904
Rp1905
sg19
I0
sg20
g21
(S'\x07\xdd\t\x1d\x13\x0e\x00\x00_\x9c'
p1906
tp1907
Rp1908
sg25
I0
sg26
g27
(g28
(I0
tp1909
g30
tp1910
Rp1911
(I1
(I2
tp1912
g36
I00
S'\x9c\x00\x00\x00Q\x00\x00\x00'
p1913
tp1914
bsba(i__main__
FrameData
p1915
(dp1916
g6
g1874
sg8
g9
(g13
S'\xf6/\x12_ee\x14@'
p1917
tp1918
Rp1919
sg19
I0
sg20
g21
(S'\x07\xdd\t\x1d\x13\x0e\x00\x00\x99\xf5'
p1920
tp1921
Rp1922
sg25
I0
sg26
g27
(g28
(I0
tp1923
g30
tp1924
Rp1925
(I1
(I2
tp1926
g36
I00
S'\x97\x00\x00\x00O\x00\x00\x00'
p1927
tp1928
bsba(i__main__
FrameData
p1929
(dp1930
g6
g1874
sg8
g9
(g13
S'\xfc\xeeci3\xd5\x1a@'
p1931
tp1932
Rp1933
sg19
I0
sg20
g21
(S'\x07\xdd\t\x1d\x13\x0e\x00\x00\xd8\x05'
p1934
tp1935
Rp1936
sg25
I0
sg26
g27
(g28
(I0
tp1937
g30
tp1938
Rp1939
(I1
(I2
tp1940
g36
I00
S'\x92\x00\x00\x00M\x00\x00\x00'
p1941
tp1942
bsba(i__main__
FrameData
p1943
(dp1944
g6
S'y'
p1945
sg8
g9
(g13
S'\xf0)#L\x89\x19$@'
p1946
tp1947
Rp1948
sg19
I0
sg20
g21
(S'\x07\xdd\t\x1d\x13\x0e\x00\x012\xdd'
p1949
tp1950
Rp1951
sg25
I0
sg26
g27
(g28
(I0
tp1952
g30
tp1953
Rp1954
(I1
(I2
tp1955
g36
I00
S'\x8c\x00\x00\x00L\x00\x00\x00'
p1956
tp1957
bsba(i__main__
FrameData
p1958
(dp1959
g6
g1945
sg8
g9
(g13
S'\xf3\xd9\xa8\xa4h\x8a\x15@'
p1960
tp1961
Rp1962
sg19
I0
sg20
g21
(S'\x07\xdd\t\x1d\x13\x0e\x00\x01]\xdb'
p1963
tp1964
Rp1965
sg25
I0
sg26
g27
(g28
(I0
tp1966
g30
tp1967
Rp1968
(I1
(I2
tp1969
g36
I00
S'\x87\x00\x00\x00K\x00\x00\x00'
p1970
tp1971
bsba(i__main__
FrameData
p1972
(dp1973
g6
g1945
sg8
g9
(g13
S'S[\xda:XL\t@'
p1974
tp1975
Rp1976
sg19
I0
sg20
g21
(S'\x07\xdd\t\x1d\x13\x0e\x00\x01\xa7\xf0'
p1977
tp1978
Rp1979
sg25
I0
sg26
g27
(g28
(I0
tp1980
g30
tp1981
Rp1982
(I1
(I2
tp1983
g36
I00
S'\x83\x00\x00\x00J\x00\x00\x00'
p1984
tp1985
bsba(i__main__
FrameData
p1986
(dp1987
g6
g1945
sg8
g9
(g13
S'S[\xda:XL\t@'
p1988
tp1989
Rp1990
sg19
I0
sg20
g21
(S'\x07\xdd\t\x1d\x13\x0e\x00\x01\xeeW'
p1991
tp1992
Rp1993
sg25
I0
sg26
g27
(g28
(I0
tp1994
g30
tp1995
Rp1996
(I1
(I2
tp1997
g36
I00
S'\x81\x00\x00\x00J\x00\x00\x00'
p1998
tp1999
bsba(i__main__
FrameData
p2000
(dp2001
g6
g1945
sg8
g9
(g13
S'\xcd;\x7ff\x9e\xa0\x16@'
p2002
tp2003
Rp2004
sg19
I0
sg20
g21
(S'\x07\xdd\t\x1d\x13\x0e\x00\x02,\x89'
p2005
tp2006
Rp2007
sg25
I0
sg26
g27
(g28
(I0
tp2008
g30
tp2009
Rp2010
(I1
(I2
tp2011
g36
I00
S'~\x00\x00\x00I\x00\x00\x00'
p2012
tp2013
bsba(i__main__
FrameData
p2014
(dp2015
g6
g1945
sg8
g9
(g13
S'\xf3YaD+\xd8\x1c@'
p2016
tp2017
Rp2018
sg19
I0
sg20
g21
(S'\x07\xdd\t\x1d\x13\x0e\x00\x02j\x02'
p2019
tp2020
Rp2021
sg25
I0
sg26
g27
(g28
(I0
tp2022
g30
tp2023
Rp2024
(I1
(I2
tp2025
g36
I00
S'|\x00\x00\x00I\x00\x00\x00'
p2026
tp2027
bsba(i__main__
FrameData
p2028
(dp2029
g6
g1945
sg8
g9
(g13
S'\xd0\xbaa?\xe0\x1f @'
p2030
tp2031
Rp2032
sg19
I0
sg20
g21
(S'\x07\xdd\t\x1d\x13\x0e\x00\x02\xa9\xca'
p2033
tp2034
Rp2035
sg25
I0
sg26
g27
(g28
(I0
tp2036
g30
tp2037
Rp2038
(I1
(I2
tp2039
g36
I00
S'{\x00\x00\x00I\x00\x00\x00'
p2040
tp2041
bsba(i__main__
FrameData
p2042
(dp2043
g6
g1945
sg8
g9
(g13
S'\x88\x80v\xd5\\\x97$@'
p2044
tp2045
Rp2046
sg19
I0
sg20
g21
(S'\x07\xdd\t\x1d\x13\x0e\x00\x02\xe7 '
p2047
tp2048
Rp2049
sg25
I0
sg26
g27
(g28
(I0
tp2050
g30
tp2051
Rp2052
(I1
(I2
tp2053
g36
I00
S'y\x00\x00\x00H\x00\x00\x00'
p2054
tp2055
bsba(i__main__
FrameData
p2056
(dp2057
g6
g1945
sg8
g9
(g13
S'lNy\x00\x85*(@'
p2058
tp2059
Rp2060
sg19
I0
sg20
g21
(S'\x07\xdd\t\x1d\x13\x0e\x00\x03%s'
p2061
tp2062
Rp2063
sg25
I0
sg26
g27
(g28
(I0
tp2064
g30
tp2065
Rp2066
(I1
(I2
tp2067
g36
I00
S'w\x00\x00\x00H\x00\x00\x00'
p2068
tp2069
bsba(i__main__
FrameData
p2070
(dp2071
g6
S't'
p2072
sg8
g9
(g13
S'\xeb\x12\xb2\xbb\xb2\xcd&@'
p2073
tp2074
Rp2075
sg19
I0
sg20
g21
(S'\x07\xdd\t\x1d\x13\x0e\x00\x03d['
p2076
tp2077
Rp2078
sg25
I0
sg26
g27
(g28
(I0
tp2079
g30
tp2080
Rp2081
(I1
(I2
tp2082
g36
I00
S'u\x00\x00\x00H\x00\x00\x00'
p2083
tp2084
bsba(i__main__
FrameData
p2085
(dp2086
g6
g2072
sg8
g9
(g13
S'7\xf9\xcf\xdao\xe1$@'
p2087
tp2088
Rp2089
sg19
I0
sg20
g21
(S'\x07\xdd\t\x1d\x13\x0e\x00\x03\xb4o'
p2090
tp2091
Rp2092
sg25
I0
sg26
g27
(g28
(I0
tp2093
g30
tp2094
Rp2095
(I1
(I2
tp2096
g36
I00
S't\x00\x00\x00H\x00\x00\x00'
p2097
tp2098
bsba(i__main__
FrameData
p2099
(dp2100
g6
g2072
sg8
g9
(g13
S'\xa3\x14\xae\xa8\x87\x16!@'
p2101
tp2102
Rp2103
sg19
I0
sg20
g21
(S'\x07\xdd\t\x1d\x13\x0e\x00\x04\x0b\x11'
p2104
tp2105
Rp2106
sg25
I0
sg26
g27
(g28
(I0
tp2107
g30
tp2108
Rp2109
(I1
(I2
tp2110
g36
I00
S'r\x00\x00\x00H\x00\x00\x00'
p2111
tp2112
bsba(i__main__
FrameData
p2113
(dp2114
g6
g2072
sg8
g9
(g13
S'\xfc\xeeci3\xd5\x1a@'
p2115
tp2116
Rp2117
sg19
I0
sg20
g21
(S'\x07\xdd\t\x1d\x13\x0e\x00\x042\xf7'
p2118
tp2119
Rp2120
sg25
I0
sg26
g27
(g28
(I0
tp2121
g30
tp2122
Rp2123
(I1
(I2
tp2124
g36
I00
S'p\x00\x00\x00H\x00\x00\x00'
p2125
tp2126
bsba(i__main__
FrameData
p2127
(dp2128
g6
g2072
sg8
g9
(g13
S'\xa2\xa3\xb3\r\xe5R\x17@'
p2129
tp2130
Rp2131
sg19
I0
sg20
g21
(S'\x07\xdd\t\x1d\x13\x0e\x00\x04u~'
p2132
tp2133
Rp2134
sg25
I0
sg26
g27
(g28
(I0
tp2135
g30
tp2136
Rp2137
(I1
(I2
tp2138
g36
I00
S'o\x00\x00\x00H\x00\x00\x00'
p2139
tp2140
bsba(i__main__
FrameData
p2141
(dp2142
g6
g2072
sg8
g9
(g13
S'\xd9l\xdf\xccv\xf8\x10@'
p2143
tp2144
Rp2145
sg19
I0
sg20
g21
(S'\x07\xdd\t\x1d\x13\x0e\x00\x04\xcef'
p2146
tp2147
Rp2148
sg25
I0
sg26
g27
(g28
(I0
tp2149
g30
tp2150
Rp2151
(I1
(I2
tp2152
g36
I00
S'm\x00\x00\x00H\x00\x00\x00'
p2153
tp2154
bsba(i__main__
FrameData
p2155
(dp2156
g6
g2072
sg8
g9
(g13
S'\x00\x00\x00\x00\x00\x00\x08@'
p2157
tp2158
Rp2159
sg19
I0
sg20
g21
(S'\x07\xdd\t\x1d\x13\x0e\x00\x04\xf5q'
p2160
tp2161
Rp2162
sg25
I0
sg26
g27
(g28
(I0
tp2163
g30
tp2164
Rp2165
(I1
(I2
tp2166
g36
I00
S'j\x00\x00\x00H\x00\x00\x00'
p2167
tp2168
bsba(i__main__
FrameData
p2169
(dp2170
g6
g2072
sg8
g9
(g13
S'\xf3YaD+\xd8\x0c@'
p2171
tp2172
Rp2173
sg19
I0
sg20
g21
(S'\x07\xdd\t\x1d\x13\x0e\x00\x05."'
p2174
tp2175
Rp2176
sg25
I0
sg26
g27
(g28
(I0
tp2177
g30
tp2178
Rp2179
(I1
(I2
tp2180
g36
I00
S'h\x00\x00\x00H\x00\x00\x00'
p2181
tp2182
bsba(i__main__
FrameData
p2183
(dp2184
g6
g2072
sg8
g9
(g13
S'\x00\x00\x00\x00\x00\x00\x14@'
p2185
tp2186
Rp2187
sg19
I0
sg20
g21
(S'\x07\xdd\t\x1d\x13\x0e\x00\x05\x82\\'
p2188
tp2189
Rp2190
sg25
I0
sg26
g27
(g28
(I0
tp2191
g30
tp2192
Rp2193
(I1
(I2
tp2194
g36
I00
S'f\x00\x00\x00H\x00\x00\x00'
p2195
tp2196
bsba(i__main__
FrameData
p2197
(dp2198
g6
g2072
sg8
g9
(g13
S'\xfc\xeeci3\xd5\x1a@'
p2199
tp2200
Rp2201
sg19
I0
sg20
g21
(S'\x07\xdd\t\x1d\x13\x0e\x00\x05\xba\x8d'
p2202
tp2203
Rp2204
sg25
I0
sg26
g27
(g28
(I0
tp2205
g30
tp2206
Rp2207
(I1
(I2
tp2208
g36
I00
S'd\x00\x00\x00H\x00\x00\x00'
p2209
tp2210
bsba(i__main__
FrameData
p2211
(dp2212
g6
g2072
sg8
g9
(g13
S'\xa3\x14\xae\xa8\x87\x16!@'
p2213
tp2214
Rp2215
sg19
I0
sg20
g21
(S'\x07\xdd\t\x1d\x13\x0e\x00\x05\xf1\xc6'
p2216
tp2217
Rp2218
sg25
I0
sg26
g27
(g28
(I0
tp2219
g30
tp2220
Rp2221
(I1
(I2
tp2222
g36
I00
S'b\x00\x00\x00H\x00\x00\x00'
p2223
tp2224
bsba(i__main__
FrameData
p2225
(dp2226
g6
g2072
sg8
g9
(g13
S'7\xf9\xcf\xdao\xe1$@'
p2227
tp2228
Rp2229
sg19
I0
sg20
g21
(S'\x07\xdd\t\x1d\x13\x0e\x00\x06U\x18'
p2230
tp2231
Rp2232
sg25
I0
sg26
g27
(g28
(I0
tp2233
g30
tp2234
Rp2235
(I1
(I2
tp2236
g36
I00
S'`\x00\x00\x00H\x00\x00\x00'
p2237
tp2238
bsba(i__main__
FrameData
p2239
(dp2240
g6
g2072
sg8
g9
(g13
S'\xeb\x12\xb2\xbb\xb2\xcd&@'
p2241
tp2242
Rp2243
sg19
I0
sg20
g21
(S'\x07\xdd\t\x1d\x13\x0e\x00\x06{\xfe'
p2244
tp2245
Rp2246
sg25
I0
sg26
g27
(g28
(I0
tp2247
g30
tp2248
Rp2249
(I1
(I2
tp2250
g36
I00
S'_\x00\x00\x00H\x00\x00\x00'
p2251
tp2252
bsba(i__main__
FrameData
p2253
(dp2254
g6
S'r'
p2255
sg8
g9
(g13
S'\xeb\x12\xb2\xbb\xb2\xcd&@'
p2256
tp2257
Rp2258
sg19
I0
sg20
g21
(S'\x07\xdd\t\x1d\x13\x0e\x00\x06\xcat'
p2259
tp2260
Rp2261
sg25
I0
sg26
g27
(g28
(I0
tp2262
g30
tp2263
Rp2264
(I1
(I2
tp2265
g36
I00
S']\x00\x00\x00H\x00\x00\x00'
p2266
tp2267
bsba(i__main__
FrameData
p2268
(dp2269
g6
g2255
sg8
g9
(g13
S'~\xc4#,B\xf9"@'
p2270
tp2271
Rp2272
sg19
I0
sg20
g21
(S'\x07\xdd\t\x1d\x13\x0e\x00\x07\x16\x84'
p2273
tp2274
Rp2275
sg25
I0
sg26
g27
(g28
(I0
tp2276
g30
tp2277
Rp2278
(I1
(I2
tp2279
g36
I00
S'[\x00\x00\x00H\x00\x00\x00'
p2280
tp2281
bsba(i__main__
FrameData
p2282
(dp2283
g6
g2255
sg8
g9
(g13
S'\xa3\x14\xae\xa8\x87\x16!@'
p2284
tp2285
Rp2286
sg19
I0
sg20
g21
(S'\x07\xdd\t\x1d\x13\x0e\x00\x07>p'
p2287
tp2288
Rp2289
sg25
I0
sg26
g27
(g28
(I0
tp2290
g30
tp2291
Rp2292
(I1
(I2
tp2293
g36
I00
S'Z\x00\x00\x00H\x00\x00\x00'
p2294
tp2295
bsba(i__main__
FrameData
p2296
(dp2297
g6
g2255
sg8
g9
(g13
S'p\xc4\x9d9\x8dv\x1e@'
p2298
tp2299
Rp2300
sg19
I0
sg20
g21
(S'\x07\xdd\t\x1d\x13\x0e\x00\x07\x8d_'
p2301
tp2302
Rp2303
sg25
I0
sg26
g27
(g28
(I0
tp2304
g30
tp2305
Rp2306
(I1
(I2
tp2307
g36
I00
S'Y\x00\x00\x00H\x00\x00\x00'
p2308
tp2309
bsba(i__main__
FrameData
p2310
(dp2311
g6
g2255
sg8
g9
(g13
S'\xfc\xeeci3\xd5\x1a@'
p2312
tp2313
Rp2314
sg19
I0
sg20
g21
(S'\x07\xdd\t\x1d\x13\x0e\x00\x07\xdb\xb7'
p2315
tp2316
Rp2317
sg25
I0
sg26
g27
(g28
(I0
tp2318
g30
tp2319
Rp2320
(I1
(I2
tp2321
g36
I00
S'X\x00\x00\x00H\x00\x00\x00'
p2322
tp2323
bsba(i__main__
FrameData
p2324
(dp2325
g6
g2255
sg8
g9
(g13
S'\x00\x00\x00\x00\x00\x00\x14@'
p2326
tp2327
Rp2328
sg19
I0
sg20
g21
(S'\x07\xdd\t\x1d\x13\x0e\x00\x08\x01\x8a'
p2329
tp2330
Rp2331
sg25
I0
sg26
g27
(g28
(I0
tp2332
g30
tp2333
Rp2334
(I1
(I2
tp2335
g36
I00
S'V\x00\x00\x00H\x00\x00\x00'
p2336
tp2337
bsba(i__main__
FrameData
p2338
(dp2339
g6
g2255
sg8
g9
(g13
S'\xd9l\xdf\xccv\xf8\x10@'
p2340
tp2341
Rp2342
sg19
I0
sg20
g21
(S'\x07\xdd\t\x1d\x13\x0e\x00\x08O\xe9'
p2343
tp2344
Rp2345
sg25
I0
sg26
g27
(g28
(I0
tp2346
g30
tp2347
Rp2348
(I1
(I2
tp2349
g36
I00
S'U\x00\x00\x00H\x00\x00\x00'
p2350
tp2351
bsba(i__main__
FrameData
p2352
(dp2353
g6
g2255
sg8
g9
(g13
S'S[\xda:XL\t@'
p2354
tp2355
Rp2356
sg19
I0
sg20
g21
(S'\x07\xdd\t\x1d\x13\x0e\x00\x08\xa1\x05'
p2357
tp2358
Rp2359
sg25
I0
sg26
g27
(g28
(I0
tp2360
g30
tp2361
Rp2362
(I1
(I2
tp2363
g36
I00
S'S\x00\x00\x00H\x00\x00\x00'
p2364
tp2365
bsba(i__main__
FrameData
p2366
(dp2367
g6
g2255
sg8
g9
(g13
S'S[\xda:XL\t@'
p2368
tp2369
Rp2370
sg19
I0
sg20
g21
(S'\x07\xdd\t\x1d\x13\x0e\x00\x08\xbe\x83'
p2371
tp2372
Rp2373
sg25
I0
sg26
g27
(g28
(I0
tp2374
g30
tp2375
Rp2376
(I1
(I2
tp2377
g36
I00
S'Q\x00\x00\x00H\x00\x00\x00'
p2378
tp2379
bsba(i__main__
FrameData
p2380
(dp2381
g6
g2255
sg8
g9
(g13
S'\xd9l\xdf\xccv\xf8\x10@'
p2382
tp2383
Rp2384
sg19
I0
sg20
g21
(S'\x07\xdd\t\x1d\x13\x0e\x00\t\x140'
p2385
tp2386
Rp2387
sg25
I0
sg26
g27
(g28
(I0
tp2388
g30
tp2389
Rp2390
(I1
(I2
tp2391
g36
I00
S'O\x00\x00\x00H\x00\x00\x00'
p2392
tp2393
bsba(i__main__
FrameData
p2394
(dp2395
g6
g2255
sg8
g9
(g13
S'\x00\x00\x00\x00\x00\x00\x14@'
p2396
tp2397
Rp2398
sg19
I0
sg20
g21
(S'\x07\xdd\t\x1d\x13\x0e\x00\tH\xcc'
p2399
tp2400
Rp2401
sg25
I0
sg26
g27
(g28
(I0
tp2402
g30
tp2403
Rp2404
(I1
(I2
tp2405
g36
I00
S'N\x00\x00\x00H\x00\x00\x00'
p2406
tp2407
bsba(i__main__
FrameData
p2408
(dp2409
g6
g2255
sg8
g9
(g13
S'\xa2\xa3\xb3\r\xe5R\x17@'
p2410
tp2411
Rp2412
sg19
I0
sg20
g21
(S'\x07\xdd\t\x1d\x13\x0e\x00\t\x89t'
p2413
tp2414
Rp2415
sg25
I0
sg26
g27
(g28
(I0
tp2416
g30
tp2417
Rp2418
(I1
(I2
tp2419
g36
I00
S'M\x00\x00\x00H\x00\x00\x00'
p2420
tp2421
bsba(i__main__
FrameData
p2422
(dp2423
g6
g2255
sg8
g9
(g13
S'p\xc4\x9d9\x8dv\x1e@'
p2424
tp2425
Rp2426
sg19
I0
sg20
g21
(S'\x07\xdd\t\x1d\x13\x0e\x00\t\xd7\xdf'
p2427
tp2428
Rp2429
sg25
I0
sg26
g27
(g28
(I0
tp2430
g30
tp2431
Rp2432
(I1
(I2
tp2433
g36
I00
S'K\x00\x00\x00H\x00\x00\x00'
p2434
tp2435
bsba(i__main__
FrameData
p2436
(dp2437
g6
g2255
sg8
g9
(g13
S'\xa3\x14\xae\xa8\x87\x16!@'
p2438
tp2439
Rp2440
sg19
I0
sg20
g21
(S'\x07\xdd\t\x1d\x13\x0e\x00\n%\x97'
p2441
tp2442
Rp2443
sg25
I0
sg26
g27
(g28
(I0
tp2444
g30
tp2445
Rp2446
(I1
(I2
tp2447
g36
I00
S'J\x00\x00\x00H\x00\x00\x00'
p2448
tp2449
bsba(i__main__
FrameData
p2450
(dp2451
g6
g2255
sg8
g9
(g13
S'~\xc4#,B\xf9"@'
p2452
tp2453
Rp2454
sg19
I0
sg20
g21
(S'\x07\xdd\t\x1d\x13\x0e\x00\nK\x98'
p2455
tp2456
Rp2457
sg25
I0
sg26
g27
(g28
(I0
tp2458
g30
tp2459
Rp2460
(I1
(I2
tp2461
g36
I00
S'I\x00\x00\x00H\x00\x00\x00'
p2462
tp2463
bsba(i__main__
FrameData
p2464
(dp2465
g6
g2255
sg8
g9
(g13
S'7\xf9\xcf\xdao\xe1$@'
p2466
tp2467
Rp2468
sg19
I0
sg20
g21
(S'\x07\xdd\t\x1d\x13\x0e\x00\n\x99\xa3'
p2469
tp2470
Rp2471
sg25
I0
sg26
g27
(g28
(I0
tp2472
g30
tp2473
Rp2474
(I1
(I2
tp2475
g36
I00
S'H\x00\x00\x00H\x00\x00\x00'
p2476
tp2477
bsba(i__main__
FrameData
p2478
(dp2479
g6
g2255
sg8
g9
(g13
S'\xeb\x12\xb2\xbb\xb2\xcd&@'
p2480
tp2481
Rp2482
sg19
I0
sg20
g21
(S'\x07\xdd\t\x1d\x13\x0e\x00\n\xdf|'
p2483
tp2484
Rp2485
sg25
I0
sg26
g27
(g28
(I0
tp2486
g30
tp2487
Rp2488
(I1
(I2
tp2489
g36
I00
S'G\x00\x00\x00H\x00\x00\x00'
p2490
tp2491
bsba(i__main__
FrameData
p2492
(dp2493
g6
S'e'
p2494
sg8
g9
(g13
S"\xe0\x11<m\xceh'@"
p2495
tp2496
Rp2497
sg19
I0
sg20
g21
(S'\x07\xdd\t\x1d\x13\x0e\x00\x0b\x10\\'
p2498
tp2499
Rp2500
sg25
I0
sg26
g27
(g28
(I0
tp2501
g30
tp2502
Rp2503
(I1
(I2
tp2504
g36
I00
S'F\x00\x00\x00H\x00\x00\x00'
p2505
tp2506
bsba(i__main__
FrameData
p2507
(dp2508
g6
g2494
sg8
g9
(g13
S'bVc}\x9d\xb2#@'
p2509
tp2510
Rp2511
sg19
I0
sg20
g21
(S'\x07\xdd\t\x1d\x13\x0e\x00\x0b^\xef'
p2512
tp2513
Rp2514
sg25
I0
sg26
g27
(g28
(I0
tp2515
g30
tp2516
Rp2517
(I1
(I2
tp2518
g36
I00
S'D\x00\x00\x00H\x00\x00\x00'
p2519
tp2520
bsba(i__main__
FrameData
p2521
(dp2522
g6
g2494
sg8
g9
(g13
S'\xa8\xf4\x97\x9bw\xe3!@'
p2523
tp2524
Rp2525
sg19
I0
sg20
g21
(S'\x07\xdd\t\x1d\x13\x0e\x00\x0b\xd3A'
p2526
tp2527
Rp2528
sg25
I0
sg26
g27
(g28
(I0
tp2529
g30
tp2530
Rp2531
(I1
(I2
tp2532
g36
I00
S'C\x00\x00\x00H\x00\x00\x00'
p2533
tp2534
bsba(i__main__
FrameData
p2535
(dp2536
g6
g2494
sg8
g9
(g13
S'\xa3\x14\xae\xa8\x87\x16!@'
p2537
tp2538
Rp2539
sg19
I0
sg20
g21
(S'\x07\xdd\t\x1d\x13\x0e\x00\x0c!Q'
p2540
tp2541
Rp2542
sg25
I0
sg26
g27
(g28
(I0
tp2543
g30
tp2544
Rp2545
(I1
(I2
tp2546
g36
I00
S'C\x00\x00\x00I\x00\x00\x00'
p2547
tp2548
bsba(i__main__
FrameData
p2549
(dp2550
g6
g2494
sg8
g9
(g13
S'\xfc\xeeci3\xd5\x1a@'
p2551
tp2552
Rp2553
sg19
I0
sg20
g21
(S'\x07\xdd\t\x1d\x13\x0e\x00\x0c\x97\x02'
p2554
tp2555
Rp2556
sg25
I0
sg26
g27
(g28
(I0
tp2557
g30
tp2558
Rp2559
(I1
(I2
tp2560
g36
I00
S'A\x00\x00\x00I\x00\x00\x00'
p2561
tp2562
bsba(i__main__
FrameData
p2563
(dp2564
g6
g2494
sg8
g9
(g13
S'\xa2\xa3\xb3\r\xe5R\x17@'
p2565
tp2566
Rp2567
sg19
I0
sg20
g21
(S'\x07\xdd\t\x1d\x13\x0e\x00\x0c\xd4Z'
p2568
tp2569
Rp2570
sg25
I0
sg26
g27
(g28
(I0
tp2571
g30
tp2572
Rp2573
(I1
(I2
tp2574
g36
I00
S'@\x00\x00\x00I\x00\x00\x00'
p2575
tp2576
bsbasS'_fileName'
p2577
S'training/trajectory2013-09-29_19:13:52.406845'
p2578
sS'word'
p2579
S'apple'
p2580
sb.