(i__main__
SwypeTrajectory
p0
(dp1
S'_frameDataList'
p2
(lp3
(i__main__
FrameData
p4
(dp5
S'closestLetter'
p6
S't'
p7
sS'letterDistance'
p8
cnumpy.core.multiarray
scalar
p9
(cnumpy
dtype
p10
(S'f8'
p11
I0
I1
tp12
Rp13
(I3
S'<'
p14
NNNI-1
I-1
I0
tp15
bS'\x00\x00\x00\x00\x00\x00\xf0?'
p16
tp17
Rp18
sS'accel'
p19
I0
sS'time'
p20
cdatetime
datetime
p21
(S"\x07\xdd\t\x12\x11\x1d'\x0ba\x89"
p22
tp23
Rp24
sS'velocity'
p25
I0
sS'position'
p26
cnumpy.core.multiarray
_reconstruct
p27
(cnumpy
ndarray
p28
(I0
tp29
S'b'
p30
tp31
Rp32
(I1
(I2
tp33
g10
(S'i4'
p34
I0
I1
tp35
Rp36
(I3
S'<'
p37
NNNI-1
I-1
I0
tp38
bI00
S'j\x00\x00\x00L\x00\x00\x00'
p39
tp40
bsba(i__main__
FrameData
p41
(dp42
g6
g7
sg8
g9
(g13
S'\xa8\xf4\x97\x9bw\xe3\x01@'
p43
tp44
Rp45
sg19
I0
sg20
g21
(S"\x07\xdd\t\x12\x11\x1d'\x0b\xa4|"
p46
tp47
Rp48
sg25
I0
sg26
g27
(g28
(I0
tp49
g30
tp50
Rp51
(I1
(I2
tp52
g36
I00
S'l\x00\x00\x00L\x00\x00\x00'
p53
tp54
bsba(i__main__
FrameData
p55
(dp56
g6
g7
sg8
g9
(g13
S'\xf0)#L\x89\x19$@'
p57
tp58
Rp59
sg19
I0
sg20
g21
(S"\x07\xdd\t\x12\x11\x1d'\x0b\xd4\xd4"
p60
tp61
Rp62
sg25
I0
sg26
g27
(g28
(I0
tp63
g30
tp64
Rp65
(I1
(I2
tp66
g36
I00
S't\x00\x00\x00L\x00\x00\x00'
p67
tp68
bsba(i__main__
FrameData
p69
(dp70
g6
S'y'
p71
sg8
g9
(g13
S'\x00\x00\x00\x00\x00\x00$@'
p72
tp73
Rp74
sg19
I0
sg20
g21
(S"\x07\xdd\t\x12\x11\x1d'\x0c#o"
p75
tp76
Rp77
sg25
I0
sg26
g27
(g28
(I0
tp78
g30
tp79
Rp80
(I1
(I2
tp81
g36
I00
S'x\x00\x00\x00M\x00\x00\x00'
p82
tp83
bsba(i__main__
FrameData
p84
(dp85
g6
g71
sg8
g9
(g13
S'\xf3YaD+\xd8\x1c@'
p86
tp87
Rp88
sg19
I0
sg20
g21
(S"\x07\xdd\t\x12\x11\x1d'\x0ci\x93"
p89
tp90
Rp91
sg25
I0
sg26
g27
(g28
(I0
tp92
g30
tp93
Rp94
(I1
(I2
tp95
g36
I00
S'|\x00\x00\x00Q\x00\x00\x00'
p96
tp97
bsba(i__main__
FrameData
p98
(dp99
g6
g71
sg8
g9
(g13
S'p\xc4\x9d9\x8dv\x1e@'
p100
tp101
Rp102
sg19
I0
sg20
g21
(S"\x07\xdd\t\x12\x11\x1d'\x0c\x97\x88"
p103
tp104
Rp105
sg25
I0
sg26
g27
(g28
(I0
tp106
g30
tp107
Rp108
(I1
(I2
tp109
g36
I00
S'\x7f\x00\x00\x00T\x00\x00\x00'
p110
tp111
bsba(i__main__
FrameData
p112
(dp113
g6
g71
sg8
g9
(g13
S'\x00\x00\x00\x00\x00\x00$@'
p114
tp115
Rp116
sg19
I0
sg20
g21
(S"\x07\xdd\t\x12\x11\x1d'\x0c\xddr"
p117
tp118
Rp119
sg25
I0
sg26
g27
(g28
(I0
tp120
g30
tp121
Rp122
(I1
(I2
tp123
g36
I00
S'\x82\x00\x00\x00W\x00\x00\x00'
p124
tp125
bsba(i__main__
FrameData
p126
(dp127
g6
g71
sg8
g9
(g13
S'\xc0\n\x1f\x00\xc6H,@'
p128
tp129
Rp130
sg19
I0
sg20
g21
(S"\x07\xdd\t\x12\x11\x1d'\r3\x08"
p131
tp132
Rp133
sg25
I0
sg26
g27
(g28
(I0
tp134
g30
tp135
Rp136
(I1
(I2
tp137
g36
I00
S'\x84\x00\x00\x00[\x00\x00\x00'
p138
tp139
bsba(i__main__
FrameData
p140
(dp141
g6
g71
sg8
g9
(g13
S'\x10\xb3]\xc9`G0@'
p142
tp143
Rp144
sg19
I0
sg20
g21
(S"\x07\xdd\t\x12\x11\x1d'\rX\x9e"
p145
tp146
Rp147
sg25
I0
sg26
g27
(g28
(I0
tp148
g30
tp149
Rp150
(I1
(I2
tp151
g36
I00
S'\x85\x00\x00\x00]\x00\x00\x00'
p152
tp153
bsba(i__main__
FrameData
p154
(dp155
g6
g71
sg8
g9
(g13
S'\x9a.\x90!hp2@'
p156
tp157
Rp158
sg19
I0
sg20
g21
(S"\x07\xdd\t\x12\x11\x1d'\r\xa6F"
p159
tp160
Rp161
sg25
I0
sg26
g27
(g28
(I0
tp162
g30
tp163
Rp164
(I1
(I2
tp165
g36
I00
S'\x86\x00\x00\x00_\x00\x00\x00'
p166
tp167
bsba(i__main__
FrameData
p168
(dp169
g6
S'h'
p170
sg8
g9
(g13
S'\xc9\xe0>!B<3@'
p171
tp172
Rp173
sg19
I0
sg20
g21
(S"\x07\xdd\t\x12\x11\x1d'\r\xe2\xab"
p174
tp175
Rp176
sg25
I0
sg26
g27
(g28
(I0
tp177
g30
tp178
Rp179
(I1
(I2
tp180
g36
I00
S'\x87\x00\x00\x00a\x00\x00\x00'
p181
tp182
bsba(i__main__
FrameData
p183
(dp184
g6
g170
sg8
g9
(g13
S'\xbf\x8f+\t\x89[2@'
p185
tp186
Rp187
sg19
I0
sg20
g21
(S"\x07\xdd\t\x12\x11\x1d'\x0e\x17\x18"
p188
tp189
Rp190
sg25
I0
sg26
g27
(g28
(I0
tp191
g30
tp192
Rp193
(I1
(I2
tp194
g36
I00
S'\x87\x00\x00\x00b\x00\x00\x00'
p195
tp196
bsba(i__main__
FrameData
p197
(dp198
g6
g170
sg8
g9
(g13
S'\xa8y\x0c\t\xd9v1@'
p199
tp200
Rp201
sg19
I0
sg20
g21
(S"\x07\xdd\t\x12\x11\x1d'\x0ec2"
p202
tp203
Rp204
sg25
I0
sg26
g27
(g28
(I0
tp205
g30
tp206
Rp207
(I1
(I2
tp208
g36
I00
S'\x89\x00\x00\x00b\x00\x00\x00'
p209
tp210
bsba(i__main__
FrameData
p211
(dp212
g6
g170
sg8
g9
(g13
S"v\xa3~{\xce'0@"
p213
tp214
Rp215
sg19
I0
sg20
g21
(S"\x07\xdd\t\x12\x11\x1d'\x0e\x97\x86"
p216
tp217
Rp218
sg25
I0
sg26
g27
(g28
(I0
tp219
g30
tp220
Rp221
(I1
(I2
tp222
g36
I00
S'\x8a\x00\x00\x00c\x00\x00\x00'
p223
tp224
bsba(i__main__
FrameData
p225
(dp226
g6
g170
sg8
g9
(g13
S'/\xa4\xe3\\m\xbb-@'
p227
tp228
Rp229
sg19
I0
sg20
g21
(S"\x07\xdd\t\x12\x11\x1d'\x0e\xd8\x01"
p230
tp231
Rp232
sg25
I0
sg26
g27
(g28
(I0
tp233
g30
tp234
Rp235
(I1
(I2
tp236
g36
I00
S'\x8b\x00\x00\x00d\x00\x00\x00'
p237
tp238
bsba(i__main__
FrameData
p239
(dp240
g6
g170
sg8
g9
(g13
S'S[\xda:XL)@'
p241
tp242
Rp243
sg19
I0
sg20
g21
(S"\x07\xdd\t\x12\x11\x1d'\x0f&\xe8"
p244
tp245
Rp246
sg25
I0
sg26
g27
(g28
(I0
tp247
g30
tp248
Rp249
(I1
(I2
tp250
g36
I00
S'\x8c\x00\x00\x00f\x00\x00\x00'
p251
tp252
bsba(i__main__
FrameData
p253
(dp254
g6
g170
sg8
g9
(g13
S'\xeb\x12\xb2\xbb\xb2\xcd&@'
p255
tp256
Rp257
sg19
I0
sg20
g21
(S'\x07\xdd\t\x12\x11\x1d(\x00\x17\x93'
p258
tp259
Rp260
sg25
I0
sg26
g27
(g28
(I0
tp261
g30
tp262
Rp263
(I1
(I2
tp264
g36
I00
S'\x8d\x00\x00\x00g\x00\x00\x00'
p265
tp266
bsba(i__main__
FrameData
p267
(dp268
g6
g170
sg8
g9
(g13
S'\xf6/\x12_ee$@'
p269
tp270
Rp271
sg19
I0
sg20
g21
(S'\x07\xdd\t\x12\x11\x1d(\x00_|'
p272
tp273
Rp274
sg25
I0
sg26
g27
(g28
(I0
tp275
g30
tp276
Rp277
(I1
(I2
tp278
g36
I00
S'\x8e\x00\x00\x00h\x00\x00\x00'
p279
tp280
bsba(i__main__
FrameData
p281
(dp282
g6
g170
sg8
g9
(g13
S'$\xf8\xd9p[\x1c"@'
p283
tp284
Rp285
sg19
I0
sg20
g21
(S'\x07\xdd\t\x12\x11\x1d(\x00\x9c\x99'
p286
tp287
Rp288
sg25
I0
sg26
g27
(g28
(I0
tp289
g30
tp290
Rp291
(I1
(I2
tp292
g36
I00
S'\x8f\x00\x00\x00i\x00\x00\x00'
p293
tp294
bsba(i__main__
FrameData
p295
(dp296
g6
g170
sg8
g9
(g13
S'\xd0\xbaa?\xe0\x1f @'
p297
tp298
Rp299
sg19
I0
sg20
g21
(S'\x07\xdd\t\x12\x11\x1d(\x00\xd9\x13'
p300
tp301
Rp302
sg25
I0
sg26
g27
(g28
(I0
tp303
g30
tp304
Rp305
(I1
(I2
tp306
g36
I00
S'\x8f\x00\x00\x00j\x00\x00\x00'
p307
tp308
bsba(i__main__
FrameData
p309
(dp310
g6
g170
sg8
g9
(g13
S'\xc0\n\x1f\x00\xc6H\x1c@'
p311
tp312
Rp313
sg19
I0
sg20
g21
(S'\x07\xdd\t\x12\x11\x1d(\x01\\\xe9'
p314
tp315
Rp316
sg25
I0
sg26
g27
(g28
(I0
tp317
g30
tp318
Rp319
(I1
(I2
tp320
g36
I00
S'\x8f\x00\x00\x00k\x00\x00\x00'
p321
tp322
bsba(i__main__
FrameData
p323
(dp324
g6
g170
sg8
g9
(g13
S'9\xdcc\xb3\xbfT\x18@'
p325
tp326
Rp327
sg19
I0
sg20
g21
(S'\x07\xdd\t\x12\x11\x1d(\x04%K'
p328
tp329
Rp330
sg25
I0
sg26
g27
(g28
(I0
tp331
g30
tp332
Rp333
(I1
(I2
tp334
g36
I00
S'\x8f\x00\x00\x00l\x00\x00\x00'
p335
tp336
bsba(i__main__
FrameData
p337
(dp338
g6
g170
sg8
g9
(g13
S'\xf6/\x12_ee\x14@'
p339
tp340
Rp341
sg19
I0
sg20
g21
(S'\x07\xdd\t\x12\x11\x1d(\x04f\xb0'
p342
tp343
Rp344
sg25
I0
sg26
g27
(g28
(I0
tp345
g30
tp346
Rp347
(I1
(I2
tp348
g36
I00
S'\x8f\x00\x00\x00m\x00\x00\x00'
p349
tp350
bsba(i__main__
FrameData
p351
(dp352
g6
g170
sg8
g9
(g13
S'\x07\xed\xaff\x0f~\x10@'
p353
tp354
Rp355
sg19
I0
sg20
g21
(S'\x07\xdd\t\x12\x11\x1d(\x04\xc1\xec'
p356
tp357
Rp358
sg25
I0
sg26
g27
(g28
(I0
tp359
g30
tp360
Rp361
(I1
(I2
tp362
g36
I00
S'\x8f\x00\x00\x00n\x00\x00\x00'
p363
tp364
bsba(i__main__
FrameData
p365
(dp366
g6
g170
sg8
g9
(g13
S'S[\xda:XL\t@'
p367
tp368
Rp369
sg19
I0
sg20
g21
(S'\x07\xdd\t\x12\x11\x1d(\x05\xfa\xb4'
p370
tp371
Rp372
sg25
I0
sg26
g27
(g28
(I0
tp373
g30
tp374
Rp375
(I1
(I2
tp376
g36
I00
S'\x8f\x00\x00\x00o\x00\x00\x00'
p377
tp378
bsba(i__main__
FrameData
p379
(dp380
g6
g170
sg8
g9
(g13
S'\xa8\xf4\x97\x9bw\xe3\x01@'
p381
tp382
Rp383
sg19
I0
sg20
g21
(S'\x07\xdd\t\x12\x11\x1d(\x065\x07'
p384
tp385
Rp386
sg25
I0
sg26
g27
(g28
(I0
tp387
g30
tp388
Rp389
(I1
(I2
tp390
g36
I00
S'\x8f\x00\x00\x00p\x00\x00\x00'
p391
tp392
bsba(i__main__
FrameData
p393
(dp394
g6
g170
sg8
g9
(g13
S'\xcd;\x7ff\x9e\xa0\x06@'
p395
tp396
Rp397
sg19
I0
sg20
g21
(S'\x07\xdd\t\x12\x11\x1d(\n|\x9d'
p398
tp399
Rp400
sg25
I0
sg26
g27
(g28
(I0
tp401
g30
tp402
Rp403
(I1
(I2
tp404
g36
I00
S'\x8e\x00\x00\x00p\x00\x00\x00'
p405
tp406
bsba(i__main__
FrameData
p407
(dp408
g6
g170
sg8
g9
(g13
S'\xf3\xd9\xa8\xa4h\x8a\x15@'
p409
tp410
Rp411
sg19
I0
sg20
g21
(S'\x07\xdd\t\x12\x11\x1d(\n\xca\xcf'
p412
tp413
Rp414
sg25
I0
sg26
g27
(g28
(I0
tp415
g30
tp416
Rp417
(I1
(I2
tp418
g36
I00
S'\x8b\x00\x00\x00p\x00\x00\x00'
p419
tp420
bsba(i__main__
FrameData
p421
(dp422
g6
S'g'
p423
sg8
g9
(g13
S'S[\xda:XL)@'
p424
tp425
Rp426
sg19
I0
sg20
g21
(S'\x07\xdd\t\x12\x11\x1d(\n\xfe\x8a'
p427
tp428
Rp429
sg25
I0
sg26
g27
(g28
(I0
tp430
g30
tp431
Rp432
(I1
(I2
tp433
g36
I00
S'\x84\x00\x00\x00n\x00\x00\x00'
p434
tp435
bsba(i__main__
FrameData
p436
(dp437
g6
g423
sg8
g9
(g13
S'\xa8\xf4\x97\x9bw\xe3!@'
p438
tp439
Rp440
sg19
I0
sg20
g21
(S'\x07\xdd\t\x12\x11\x1d(\x0bL\xbe'
p441
tp442
Rp443
sg25
I0
sg26
g27
(g28
(I0
tp444
g30
tp445
Rp446
(I1
(I2
tp447
g36
I00
S'|\x00\x00\x00j\x00\x00\x00'
p448
tp449
bsba(i__main__
FrameData
p450
(dp451
g6
g423
sg8
g9
(g13
S'S[\xda:XL)@'
p452
tp453
Rp454
sg19
I0
sg20
g21
(S'\x07\xdd\t\x12\x11\x1d(\x0b\x9a\xde'
p455
tp456
Rp457
sg25
I0
sg26
g27
(g28
(I0
tp458
g30
tp459
Rp460
(I1
(I2
tp461
g36
I00
S't\x00\x00\x00f\x00\x00\x00'
p462
tp463
bsba(i__main__
FrameData
p464
(dp465
g6
g423
sg8
g9
(g13
S'\xb9\x93\xe1k\xb0\xa40@'
p466
tp467
Rp468
sg19
I0
sg20
g21
(S'\x07\xdd\t\x12\x11\x1d(\x0b\xc5P'
p469
tp470
Rp471
sg25
I0
sg26
g27
(g28
(I0
tp472
g30
tp473
Rp474
(I1
(I2
tp475
g36
I00
S'o\x00\x00\x00d\x00\x00\x00'
p476
tp477
bsba(i__main__
FrameData
p478
(dp479
g6
g7
sg8
g9
(g13
S'W\xb2\xdb\x1a\x9a\xa53@'
p480
tp481
Rp482
sg19
I0
sg20
g21
(S'\x07\xdd\t\x12\x11\x1d(\x0c\x0f\xa1'
p483
tp484
Rp485
sg25
I0
sg26
g27
(g28
(I0
tp486
g30
tp487
Rp488
(I1
(I2
tp489
g36
I00
S'e\x00\x00\x00^\x00\x00\x00'
p490
tp491
bsba(i__main__
FrameData
p492
(dp493
g6
g7
sg8
g9
(g13
S'A\x87b\xc62\xde2@'
p494
tp495
Rp496
sg19
I0
sg20
g21
(S'\x07\xdd\t\x12\x11\x1d(\x0c]7'
p497
tp498
Rp499
sg25
I0
sg26
g27
(g28
(I0
tp500
g30
tp501
Rp502
(I1
(I2
tp503
g36
I00
S'`\x00\x00\x00[\x00\x00\x00'
p504
tp505
bsba(i__main__
FrameData
p506
(dp507
g6
S'r'
p508
sg8
g9
(g13
S"'\xf2\x90In\x9f/@"
p509
tp510
Rp511
sg19
I0
sg20
g21
(S'\x07\xdd\t\x12\x11\x1d(\x0c\x87\xa5'
p512
tp513
Rp514
sg25
I0
sg26
g27
(g28
(I0
tp515
g30
tp516
Rp517
(I1
(I2
tp518
g36
I00
S'[\x00\x00\x00X\x00\x00\x00'
p519
tp520
bsba(i__main__
FrameData
p521
(dp522
g6
g508
sg8
g9
(g13
S'\xe4\x10\xe4sW\x0f)@'
p523
tp524
Rp525
sg19
I0
sg20
g21
(S'\x07\xdd\t\x12\x11\x1d(\x0c\xc8\xc6'
p526
tp527
Rp528
sg25
I0
sg26
g27
(g28
(I0
tp529
g30
tp530
Rp531
(I1
(I2
tp532
g36
I00
S'X\x00\x00\x00V\x00\x00\x00'
p533
tp534
bsba(i__main__
FrameData
p535
(dp536
g6
g508
sg8
g9
(g13
S'\xf3\xd9\xa8\xa4h\x8a%@'
p537
tp538
Rp539
sg19
I0
sg20
g21
(S'\x07\xdd\t\x12\x11\x1d(\r\n\xc0'
p540
tp541
Rp542
sg25
I0
sg26
g27
(g28
(I0
tp543
g30
tp544
Rp545
(I1
(I2
tp546
g36
I00
S'V\x00\x00\x00U\x00\x00\x00'
p547
tp548
bsba(i__main__
FrameData
p549
(dp550
g6
g508
sg8
g9
(g13
S'\x9a.\x90!hp"@'
p551
tp552
Rp553
sg19
I0
sg20
g21
(S'\x07\xdd\t\x12\x11\x1d(\rR\x86'
p554
tp555
Rp556
sg25
I0
sg26
g27
(g28
(I0
tp557
g30
tp558
Rp559
(I1
(I2
tp560
g36
I00
S'T\x00\x00\x00T\x00\x00\x00'
p561
tp562
bsba(i__main__
FrameData
p563
(dp564
g6
g508
sg8
g9
(g13
S'$\xf8\xd9p[\x1c"@'
p565
tp566
Rp567
sg19
I0
sg20
g21
(S'\x07\xdd\t\x12\x11\x1d(\r\x89\xa8'
p568
tp569
Rp570
sg25
I0
sg26
g27
(g28
(I0
tp571
g30
tp572
Rp573
(I1
(I2
tp574
g36
I00
S'S\x00\x00\x00T\x00\x00\x00'
p575
tp576
bsba(i__main__
FrameData
p577
(dp578
g6
g508
sg8
g9
(g13
S'\x00\x00\x00\x00\x00\x00 @'
p579
tp580
Rp581
sg19
I0
sg20
g21
(S'\x07\xdd\t\x12\x11\x1d(\x0e\n_'
p582
tp583
Rp584
sg25
I0
sg26
g27
(g28
(I0
tp585
g30
tp586
Rp587
(I1
(I2
tp588
g36
I00
S'R\x00\x00\x00S\x00\x00\x00'
p589
tp590
bsba(i__main__
FrameData
p591
(dp592
g6
g508
sg8
g9
(g13
S'\xc0\n\x1f\x00\xc6H\x1c@'
p593
tp594
Rp595
sg19
I0
sg20
g21
(S'\x07\xdd\t\x12\x11\x1d(\x0eO\xd4'
p596
tp597
Rp598
sg25
I0
sg26
g27
(g28
(I0
tp599
g30
tp600
Rp601
(I1
(I2
tp602
g36
I00
S'Q\x00\x00\x00R\x00\x00\x00'
p603
tp604
bsba(i__main__
FrameData
p605
(dp606
g6
g508
sg8
g9
(g13
S'\xe9\xfbv \xd5\x1e\x1d@'
p607
tp608
Rp609
sg19
I0
sg20
g21
(S'\x07\xdd\t\x12\x11\x1d(\x0e\x8d\x07'
p610
tp611
Rp612
sg25
I0
sg26
g27
(g28
(I0
tp613
g30
tp614
Rp615
(I1
(I2
tp616
g36
I00
S'P\x00\x00\x00R\x00\x00\x00'
p617
tp618
bsba(i__main__
FrameData
p619
(dp620
g6
g508
sg8
g9
(g13
S'\xfc\xeeci3\xd5\x1a@'
p621
tp622
Rp623
sg19
I0
sg20
g21
(S'\x07\xdd\t\x12\x11\x1d(\x0e\xd0\xb6'
p624
tp625
Rp626
sg25
I0
sg26
g27
(g28
(I0
tp627
g30
tp628
Rp629
(I1
(I2
tp630
g36
I00
S'O\x00\x00\x00Q\x00\x00\x00'
p631
tp632
bsba(i__main__
FrameData
p633
(dp634
g6
g508
sg8
g9
(g13
S'\x00\xff\x9f\x99\xcc\x9c\x19@'
p635
tp636
Rp637
sg19
I0
sg20
g21
(S'\x07\xdd\t\x12\x11\x1d(\x0f\x16\x1b'
p638
tp639
Rp640
sg25
I0
sg26
g27
(g28
(I0
tp641
g30
tp642
Rp643
(I1
(I2
tp644
g36
I00
S'N\x00\x00\x00P\x00\x00\x00'
p645
tp646
bsba(i__main__
FrameData
p647
(dp648
g6
g508
sg8
g9
(g13
S'\xf3YaD+\xd8\x1c@'
p649
tp650
Rp651
sg19
I0
sg20
g21
(S'\x07\xdd\t\x12\x11\x1d)\x00\x10i'
p652
tp653
Rp654
sg25
I0
sg26
g27
(g28
(I0
tp655
g30
tp656
Rp657
(I1
(I2
tp658
g36
I00
S'L\x00\x00\x00O\x00\x00\x00'
p659
tp660
bsba(i__main__
FrameData
p661
(dp662
g6
g508
sg8
g9
(g13
S'p\xc4\x9d9\x8dv\x1e@'
p663
tp664
Rp665
sg19
I0
sg20
g21
(S'\x07\xdd\t\x12\x11\x1d)\x00Q\x1a'
p666
tp667
Rp668
sg25
I0
sg26
g27
(g28
(I0
tp669
g30
tp670
Rp671
(I1
(I2
tp672
g36
I00
S'K\x00\x00\x00N\x00\x00\x00'
p673
tp674
bsba(i__main__
FrameData
p675
(dp676
g6
g508
sg8
g9
(g13
S'\x07\xed\xaff\x0f~ @'
p677
tp678
Rp679
sg19
I0
sg20
g21
(S'\x07\xdd\t\x12\x11\x1d)\x00\x92E'
p680
tp681
Rp682
sg25
I0
sg26
g27
(g28
(I0
tp683
g30
tp684
Rp685
(I1
(I2
tp686
g36
I00
S'J\x00\x00\x00M\x00\x00\x00'
p687
tp688
bsba(i__main__
FrameData
p689
(dp690
g6
g508
sg8
g9
(g13
S'$\xf8\xd9p[\x1c"@'
p691
tp692
Rp693
sg19
I0
sg20
g21
(S'\x07\xdd\t\x12\x11\x1d)\x00\xd1\x81'
p694
tp695
Rp696
sg25
I0
sg26
g27
(g28
(I0
tp697
g30
tp698
Rp699
(I1
(I2
tp700
g36
I00
S'I\x00\x00\x00L\x00\x00\x00'
p701
tp702
bsba(i__main__
FrameData
p703
(dp704
g6
g508
sg8
g9
(g13
S'\xf0)#L\x89\x19$@'
p705
tp706
Rp707
sg19
I0
sg20
g21
(S'\x07\xdd\t\x12\x11\x1d)\x01\x113'
p708
tp709
Rp710
sg25
I0
sg26
g27
(g28
(I0
tp711
g30
tp712
Rp713
(I1
(I2
tp714
g36
I00
S'H\x00\x00\x00L\x00\x00\x00'
p715
tp716
bsba(i__main__
FrameData
p717
(dp718
g6
g508
sg8
g9
(g13
S'H\xaa*\x8f9\x17&@'
p719
tp720
Rp721
sg19
I0
sg20
g21
(S'\x07\xdd\t\x12\x11\x1d)\x01X\x08'
p722
tp723
Rp724
sg25
I0
sg26
g27
(g28
(I0
tp725
g30
tp726
Rp727
(I1
(I2
tp728
g36
I00
S'G\x00\x00\x00L\x00\x00\x00'
p729
tp730
bsba(i__main__
FrameData
p731
(dp732
g6
S'e'
p733
sg8
g9
(g13
S'\x00\x00\x00\x00\x00\x00&@'
p734
tp735
Rp736
sg19
I0
sg20
g21
(S'\x07\xdd\t\x12\x11\x1d)\x01\x93r'
p737
tp738
Rp739
sg25
I0
sg26
g27
(g28
(I0
tp740
g30
tp741
Rp742
(I1
(I2
tp743
g36
I00
S'F\x00\x00\x00L\x00\x00\x00'
p744
tp745
bsba(i__main__
FrameData
p746
(dp747
g6
g733
sg8
g9
(g13
S'\xd2\xf1}\x82U\\&@'
p748
tp749
Rp750
sg19
I0
sg20
g21
(S'\x07\xdd\t\x12\x11\x1d)\x01\xd2w'
p751
tp752
Rp753
sg25
I0
sg26
g27
(g28
(I0
tp754
g30
tp755
Rp756
(I1
(I2
tp757
g36
I00
S'F\x00\x00\x00J\x00\x00\x00'
p758
tp759
bsba(i__main__
FrameData
p760
(dp761
g6
g733
sg8
g9
(g13
S'\x9a.\x90!hp"@'
p762
tp763
Rp764
sg19
I0
sg20
g21
(S'\x07\xdd\t\x12\x11\x1d)\x02\x13\x87'
p765
tp766
Rp767
sg25
I0
sg26
g27
(g28
(I0
tp768
g30
tp769
Rp770
(I1
(I2
tp771
g36
I00
S'D\x00\x00\x00J\x00\x00\x00'
p772
tp773
bsba(i__main__
FrameData
p774
(dp775
g6
g733
sg8
g9
(g13
S'\x07\xed\xaff\x0f~ @'
p776
tp777
Rp778
sg19
I0
sg20
g21
(S'\x07\xdd\t\x12\x11\x1d)\x02U\x1c'
p779
tp780
Rp781
sg25
I0
sg26
g27
(g28
(I0
tp782
g30
tp783
Rp784
(I1
(I2
tp785
g36
I00
S'C\x00\x00\x00J\x00\x00\x00'
p786
tp787
bsba(i__main__
FrameData
p788
(dp789
g6
g733
sg8
g9
(g13
S'S[\xda:XL\x19@'
p790
tp791
Rp792
sg19
I0
sg20
g21
(S'\x07\xdd\t\x12\x11\x1d)\x02\x95\x8f'
p793
tp794
Rp795
sg25
I0
sg26
g27
(g28
(I0
tp796
g30
tp797
Rp798
(I1
(I2
tp799
g36
I00
S'A\x00\x00\x00J\x00\x00\x00'
p800
tp801
bsba(i__main__
FrameData
p802
(dp803
g6
g733
sg8
g9
(g13
S'\xf3\xd9\xa8\xa4h\x8a\x15@'
p804
tp805
Rp806
sg19
I0
sg20
g21
(S'\x07\xdd\t\x12\x11\x1d)\x02\xd9m'
p807
tp808
Rp809
sg25
I0
sg26
g27
(g28
(I0
tp810
g30
tp811
Rp812
(I1
(I2
tp813
g36
I00
S'@\x00\x00\x00J\x00\x00\x00'
p814
tp815
bsba(i__main__
FrameData
p816
(dp817
g6
g733
sg8
g9
(g13
S'\xa8\xf4\x97\x9bw\xe3\x11@'
p818
tp819
Rp820
sg19
I0
sg20
g21
(S'\x07\xdd\t\x12\x11\x1d)\x03\x16{'
p821
tp822
Rp823
sg25
I0
sg26
g27
(g28
(I0
tp824
g30
tp825
Rp826
(I1
(I2
tp827
g36
I00
S'?\x00\x00\x00J\x00\x00\x00'
p828
tp829
bsba(i__main__
FrameData
p830
(dp831
g6
g733
sg8
g9
(g13
S'\xf3YaD+\xd8\x0c@'
p832
tp833
Rp834
sg19
I0
sg20
g21
(S'\x07\xdd\t\x12\x11\x1d)\x03X\x8f'
p835
tp836
Rp837
sg25
I0
sg26
g27
(g28
(I0
tp838
g30
tp839
Rp840
(I1
(I2
tp841
g36
I00
S'>\x00\x00\x00J\x00\x00\x00'
p842
tp843
bsba(i__main__
FrameData
p844
(dp845
g6
g733
sg8
g9
(g13
S'\x00\x00\x00\x00\x00\x00\x14@'
p846
tp847
Rp848
sg19
I0
sg20
g21
(S'\x07\xdd\t\x12\x11\x1d)\x03\xa0\x16'
p849
tp850
Rp851
sg25
I0
sg26
g27
(g28
(I0
tp852
g30
tp853
Rp854
(I1
(I2
tp855
g36
I00
S'>\x00\x00\x00H\x00\x00\x00'
p856
tp857
bsba(i__main__
FrameData
p858
(dp859
g6
g733
sg8
g9
(g13
S'\x07\xed\xaff\x0f~\x10@'
p860
tp861
Rp862
sg19
I0
sg20
g21
(S'\x07\xdd\t\x12\x11\x1d)\x04\x1c\xab'
p863
tp864
Rp865
sg25
I0
sg26
g27
(g28
(I0
tp866
g30
tp867
Rp868
(I1
(I2
tp869
g36
I00
S'<\x00\x00\x00H\x00\x00\x00'
p870
tp871
bsbasS'_fileName'
p872
S'training/trajectory2013-09-18_17:29:37.639238'
p873
sS'word'
p874
S'the'
p875
sb.