(i__main__
SwypeTrajectory
p0
(dp1
S'_frameDataList'
p2
(lp3
(i__main__
FrameData
p4
(dp5
S'closestLetter'
p6
S'h'
p7
sS'letterDistance'
p8
cnumpy.core.multiarray
scalar
p9
(cnumpy
dtype
p10
(S'f8'
p11
I0
I1
tp12
Rp13
(I3
S'<'
p14
NNNI-1
I-1
I0
tp15
bS'\x00\x00\x00\x00\x00\x00\xf0?'
p16
tp17
Rp18
sS'accel'
p19
I0
sS'time'
p20
cdatetime
datetime
p21
(S'\x07\xdd\t\x1d\x129\x12\x0415'
p22
tp23
Rp24
sS'velocity'
p25
I0
sS'position'
p26
cnumpy.core.multiarray
_reconstruct
p27
(cnumpy
ndarray
p28
(I0
tp29
S'b'
p30
tp31
Rp32
(I1
(I2
tp33
g10
(S'i4'
p34
I0
I1
tp35
Rp36
(I3
S'<'
p37
NNNI-1
I-1
I0
tp38
bI00
S'\x91\x00\x00\x00r\x00\x00\x00'
p39
tp40
bsba(i__main__
FrameData
p41
(dp42
g6
g7
sg8
g9
(g13
S'\xa8\xf4\x97\x9bw\xe3\x01@'
p43
tp44
Rp45
sg19
I0
sg20
g21
(S'\x07\xdd\t\x1d\x129\x12\x04Oj'
p46
tp47
Rp48
sg25
I0
sg26
g27
(g28
(I0
tp49
g30
tp50
Rp51
(I1
(I2
tp52
g36
I00
S'\x8e\x00\x00\x00s\x00\x00\x00'
p53
tp54
bsba(i__main__
FrameData
p55
(dp56
g6
g7
sg8
g9
(g13
S'\xfc\xeeci3\xd5\x1a@'
p57
tp58
Rp59
sg19
I0
sg20
g21
(S'\x07\xdd\t\x1d\x129\x12\x04\xa66'
p60
tp61
Rp62
sg25
I0
sg26
g27
(g28
(I0
tp63
g30
tp64
Rp65
(I1
(I2
tp66
g36
I00
S'\x8a\x00\x00\x00u\x00\x00\x00'
p67
tp68
bsba(i__main__
FrameData
p69
(dp70
g6
g7
sg8
g9
(g13
S'\xd2\xf1}\x82U\\&@'
p71
tp72
Rp73
sg19
I0
sg20
g21
(S'\x07\xdd\t\x1d\x129\x12\x04\xf4d'
p74
tp75
Rp76
sg25
I0
sg26
g27
(g28
(I0
tp77
g30
tp78
Rp79
(I1
(I2
tp80
g36
I00
S'\x86\x00\x00\x00w\x00\x00\x00'
p81
tp82
bsba(i__main__
FrameData
p83
(dp84
g6
S'g'
p85
sg8
g9
(g13
S'\xe4\x10\xe4sW\x0f)@'
p86
tp87
Rp88
sg19
I0
sg20
g21
(S'\x07\xdd\t\x1d\x129\x12\x05\x1b\xd7'
p89
tp90
Rp91
sg25
I0
sg26
g27
(g28
(I0
tp92
g30
tp93
Rp94
(I1
(I2
tp95
g36
I00
S'\x83\x00\x00\x00x\x00\x00\x00'
p96
tp97
bsba(i__main__
FrameData
p98
(dp99
g6
g85
sg8
g9
(g13
S'6\xd0\xd2x\xa2B%@'
p100
tp101
Rp102
sg19
I0
sg20
g21
(S'\x07\xdd\t\x1d\x129\x12\x05i\xd8'
p103
tp104
Rp105
sg25
I0
sg26
g27
(g28
(I0
tp106
g30
tp107
Rp108
(I1
(I2
tp109
g36
I00
S'\x80\x00\x00\x00y\x00\x00\x00'
p110
tp111
bsba(i__main__
FrameData
p112
(dp113
g6
g85
sg8
g9
(g13
S'\x9a.\x90!hp"@'
p114
tp115
Rp116
sg19
I0
sg20
g21
(S'\x07\xdd\t\x1d\x129\x12\x05\xb7\x9a'
p117
tp118
Rp119
sg25
I0
sg26
g27
(g28
(I0
tp120
g30
tp121
Rp122
(I1
(I2
tp123
g36
I00
S'~\x00\x00\x00y\x00\x00\x00'
p124
tp125
bsba(i__main__
FrameData
p126
(dp127
g6
g85
sg8
g9
(g13
S'N\x017\xfac4!@'
p128
tp129
Rp130
sg19
I0
sg20
g21
(S'\x07\xdd\t\x1d\x129\x12\x05\xde\xeb'
p131
tp132
Rp133
sg25
I0
sg26
g27
(g28
(I0
tp134
g30
tp135
Rp136
(I1
(I2
tp137
g36
I00
S'}\x00\x00\x00y\x00\x00\x00'
p138
tp139
bsba(i__main__
FrameData
p140
(dp141
g6
g85
sg8
g9
(g13
S'p\xc4\x9d9\x8dv\x1e@'
p142
tp143
Rp144
sg19
I0
sg20
g21
(S'\x07\xdd\t\x1d\x129\x12\x06,\xe9'
p145
tp146
Rp147
sg25
I0
sg26
g27
(g28
(I0
tp148
g30
tp149
Rp150
(I1
(I2
tp151
g36
I00
S'{\x00\x00\x00y\x00\x00\x00'
p152
tp153
bsba(i__main__
FrameData
p154
(dp155
g6
g85
sg8
g9
(g13
S'\xe9\xfbv \xd5\x1e\x1d@'
p156
tp157
Rp158
sg19
I0
sg20
g21
(S'\x07\xdd\t\x1d\x129\x12\x06z\xf9'
p159
tp160
Rp161
sg25
I0
sg26
g27
(g28
(I0
tp162
g30
tp163
Rp164
(I1
(I2
tp165
g36
I00
S'z\x00\x00\x00y\x00\x00\x00'
p166
tp167
bsba(i__main__
FrameData
p168
(dp169
g6
g85
sg8
g9
(g13
S'\xc0\n\x1f\x00\xc6H\x1c@'
p170
tp171
Rp172
sg19
I0
sg20
g21
(S'\x07\xdd\t\x1d\x129\x12\x06\xa1('
p173
tp174
Rp175
sg25
I0
sg26
g27
(g28
(I0
tp176
g30
tp177
Rp178
(I1
(I2
tp179
g36
I00
S'y\x00\x00\x00y\x00\x00\x00'
p180
tp181
bsba(i__main__
FrameData
p182
(dp183
g6
g85
sg8
g9
(g13
S'\x00\x00\x00\x00\x00\x00\x18@'
p184
tp185
Rp186
sg19
I0
sg20
g21
(S'\x07\xdd\t\x1d\x129\x12\x06\xf0D'
p187
tp188
Rp189
sg25
I0
sg26
g27
(g28
(I0
tp190
g30
tp191
Rp192
(I1
(I2
tp193
g36
I00
S'x\x00\x00\x00x\x00\x00\x00'
p194
tp195
bsba(i__main__
FrameData
p196
(dp197
g6
g85
sg8
g9
(g13
S'S[\xda:XL\x19@'
p198
tp199
Rp200
sg19
I0
sg20
g21
(S'\x07\xdd\t\x1d\x129\x12\x07\x1c\x9d'
p201
tp202
Rp203
sg25
I0
sg26
g27
(g28
(I0
tp204
g30
tp205
Rp206
(I1
(I2
tp207
g36
I00
S'v\x00\x00\x00x\x00\x00\x00'
p208
tp209
bsba(i__main__
FrameData
p210
(dp211
g6
g85
sg8
g9
(g13
S'\xa2\xa3\xb3\r\xe5R\x17@'
p212
tp213
Rp214
sg19
I0
sg20
g21
(S'\x07\xdd\t\x1d\x129\x12\x07dS'
p215
tp216
Rp217
sg25
I0
sg26
g27
(g28
(I0
tp218
g30
tp219
Rp220
(I1
(I2
tp221
g36
I00
S'u\x00\x00\x00w\x00\x00\x00'
p222
tp223
bsba(i__main__
FrameData
p224
(dp225
g6
g85
sg8
g9
(g13
S'\xfc\xeeci3\xd5\x1a@'
p226
tp227
Rp228
sg19
I0
sg20
g21
(S'\x07\xdd\t\x1d\x129\x12\x07\xa8\xb1'
p229
tp230
Rp231
sg25
I0
sg26
g27
(g28
(I0
tp232
g30
tp233
Rp234
(I1
(I2
tp235
g36
I00
S'r\x00\x00\x00u\x00\x00\x00'
p236
tp237
bsba(i__main__
FrameData
p238
(dp239
g6
g85
sg8
g9
(g13
S'\xe9\xfbv \xd5\x1e\x1d@'
p240
tp241
Rp242
sg19
I0
sg20
g21
(S'\x07\xdd\t\x1d\x129\x12\x08\x01\xff'
p243
tp244
Rp245
sg25
I0
sg26
g27
(g28
(I0
tp246
g30
tp247
Rp248
(I1
(I2
tp249
g36
I00
S'q\x00\x00\x00t\x00\x00\x00'
p250
tp251
bsba(i__main__
FrameData
p252
(dp253
g6
g85
sg8
g9
(g13
S'$\xf8\xd9p[\x1c"@'
p254
tp255
Rp256
sg19
I0
sg20
g21
(S'\x07\xdd\t\x1d\x129\x12\x08)\x8d'
p257
tp258
Rp259
sg25
I0
sg26
g27
(g28
(I0
tp260
g30
tp261
Rp262
(I1
(I2
tp263
g36
I00
S'o\x00\x00\x00s\x00\x00\x00'
p264
tp265
bsba(i__main__
FrameData
p266
(dp267
g6
g85
sg8
g9
(g13
S'\x00\x00\x00\x00\x00\x00$@'
p268
tp269
Rp270
sg19
I0
sg20
g21
(S'\x07\xdd\t\x1d\x129\x12\x08v\xd0'
p271
tp272
Rp273
sg25
I0
sg26
g27
(g28
(I0
tp274
g30
tp275
Rp276
(I1
(I2
tp277
g36
I00
S'n\x00\x00\x00r\x00\x00\x00'
p278
tp279
bsba(i__main__
FrameData
p280
(dp281
g6
g85
sg8
g9
(g13
S'\x00\x00\x00\x00\x00\x00&@'
p282
tp283
Rp284
sg19
I0
sg20
g21
(S'\x07\xdd\t\x1d\x129\x12\x08\xc5#'
p285
tp286
Rp287
sg25
I0
sg26
g27
(g28
(I0
tp288
g30
tp289
Rp290
(I1
(I2
tp291
g36
I00
S'm\x00\x00\x00r\x00\x00\x00'
p292
tp293
bsba(i__main__
FrameData
p294
(dp295
g6
S'f'
p296
sg8
g9
(g13
S'\xd2\xf1}\x82U\\&@'
p297
tp298
Rp299
sg19
I0
sg20
g21
(S'\x07\xdd\t\x1d\x129\x12\x08\xe6^'
p300
tp301
Rp302
sg25
I0
sg26
g27
(g28
(I0
tp303
g30
tp304
Rp305
(I1
(I2
tp306
g36
I00
S'k\x00\x00\x00p\x00\x00\x00'
p307
tp308
bsba(i__main__
FrameData
p309
(dp310
g6
g296
sg8
g9
(g13
S'~\xc4#,B\xf9"@'
p311
tp312
Rp313
sg19
I0
sg20
g21
(S'\x07\xdd\t\x1d\x129\x12\t:\x13'
p314
tp315
Rp316
sg25
I0
sg26
g27
(g28
(I0
tp317
g30
tp318
Rp319
(I1
(I2
tp320
g36
I00
S'i\x00\x00\x00o\x00\x00\x00'
p321
tp322
bsba(i__main__
FrameData
p323
(dp324
g6
g296
sg8
g9
(g13
S'\xa8\xf4\x97\x9bw\xe3!@'
p325
tp326
Rp327
sg19
I0
sg20
g21
(S'\x07\xdd\t\x1d\x129\x12\t\x88\xe4'
p328
tp329
Rp330
sg25
I0
sg26
g27
(g28
(I0
tp331
g30
tp332
Rp333
(I1
(I2
tp334
g36
I00
S'h\x00\x00\x00n\x00\x00\x00'
p335
tp336
bsba(i__main__
FrameData
p337
(dp338
g6
g296
sg8
g9
(g13
S'\xd0\xbaa?\xe0\x1f @'
p339
tp340
Rp341
sg19
I0
sg20
g21
(S'\x07\xdd\t\x1d\x129\x12\t\xafi'
p342
tp343
Rp344
sg25
I0
sg26
g27
(g28
(I0
tp345
g30
tp346
Rp347
(I1
(I2
tp348
g36
I00
S'g\x00\x00\x00n\x00\x00\x00'
p349
tp350
bsba(i__main__
FrameData
p351
(dp352
g6
g296
sg8
g9
(g13
S'\x9a.\x90!hp"@'
p353
tp354
Rp355
sg19
I0
sg20
g21
(S'\x07\xdd\t\x1d\x129\x12\t\xfd-'
p356
tp357
Rp358
sg25
I0
sg26
g27
(g28
(I0
tp359
g30
tp360
Rp361
(I1
(I2
tp362
g36
I00
S'g\x00\x00\x00l\x00\x00\x00'
p363
tp364
bsba(i__main__
FrameData
p365
(dp366
g6
g296
sg8
g9
(g13
S'\x9a.\x90!hp"@'
p367
tp368
Rp369
sg19
I0
sg20
g21
(S'\x07\xdd\t\x1d\x129\x12\nKt'
p370
tp371
Rp372
sg25
I0
sg26
g27
(g28
(I0
tp373
g30
tp374
Rp375
(I1
(I2
tp376
g36
I00
S'f\x00\x00\x00k\x00\x00\x00'
p377
tp378
bsba(i__main__
FrameData
p379
(dp380
g6
g296
sg8
g9
(g13
S'A\x87b\xc62\xde"@'
p381
tp382
Rp383
sg19
I0
sg20
g21
(S'\x07\xdd\t\x1d\x129\x12\nq|'
p384
tp385
Rp386
sg25
I0
sg26
g27
(g28
(I0
tp387
g30
tp388
Rp389
(I1
(I2
tp390
g36
I00
S'e\x00\x00\x00j\x00\x00\x00'
p391
tp392
bsba(i__main__
FrameData
p393
(dp394
g6
g296
sg8
g9
(g13
S'bVc}\x9d\xb2#@'
p395
tp396
Rp397
sg19
I0
sg20
g21
(S'\x07\xdd\t\x1d\x129\x12\n\xaf\xf3'
p398
tp399
Rp400
sg25
I0
sg26
g27
(g28
(I0
tp401
g30
tp402
Rp403
(I1
(I2
tp404
g36
I00
S'd\x00\x00\x00i\x00\x00\x00'
p405
tp406
bsba(i__main__
FrameData
p407
(dp408
g6
g296
sg8
g9
(g13
S'7\xf9\xcf\xdao\xe1$@'
p409
tp410
Rp411
sg19
I0
sg20
g21
(S'\x07\xdd\t\x1d\x129\x12\x0b\x0f\xad'
p412
tp413
Rp414
sg25
I0
sg26
g27
(g28
(I0
tp415
g30
tp416
Rp417
(I1
(I2
tp418
g36
I00
S'c\x00\x00\x00h\x00\x00\x00'
p419
tp420
bsba(i__main__
FrameData
p421
(dp422
g6
g296
sg8
g9
(g13
S'\xd2\xf1}\x82U\\&@'
p423
tp424
Rp425
sg19
I0
sg20
g21
(S'\x07\xdd\t\x1d\x129\x12\x0b<\xe6'
p426
tp427
Rp428
sg25
I0
sg26
g27
(g28
(I0
tp429
g30
tp430
Rp431
(I1
(I2
tp432
g36
I00
S'b\x00\x00\x00g\x00\x00\x00'
p433
tp434
bsba(i__main__
FrameData
p435
(dp436
g6
g296
sg8
g9
(g13
S'&5w\xe2K\x15(@'
p437
tp438
Rp439
sg19
I0
sg20
g21
(S'\x07\xdd\t\x1d\x129\x12\x0bux'
p440
tp441
Rp442
sg25
I0
sg26
g27
(g28
(I0
tp443
g30
tp444
Rp445
(I1
(I2
tp446
g36
I00
S'_\x00\x00\x00f\x00\x00\x00'
p447
tp448
bsba(i__main__
FrameData
p449
(dp450
g6
g296
sg8
g9
(g13
S'8H\x9b\x97\xee\xae*@'
p451
tp452
Rp453
sg19
I0
sg20
g21
(S'\x07\xdd\t\x1d\x129\x12\x0b\xd9;'
p454
tp455
Rp456
sg25
I0
sg26
g27
(g28
(I0
tp457
g30
tp458
Rp459
(I1
(I2
tp460
g36
I00
S']\x00\x00\x00e\x00\x00\x00'
p461
tp462
bsba(i__main__
FrameData
p463
(dp464
g6
g296
sg8
g9
(g13
S'\xaa\xd9\xb1\xd3\x8d\x8d0@'
p465
tp466
Rp467
sg19
I0
sg20
g21
(S'\x07\xdd\t\x1d\x129\x12\x0b\xf9U'
p468
tp469
Rp470
sg25
I0
sg26
g27
(g28
(I0
tp471
g30
tp472
Rp473
(I1
(I2
tp474
g36
I00
S'Y\x00\x00\x00c\x00\x00\x00'
p475
tp476
bsba(i__main__
FrameData
p477
(dp478
g6
g296
sg8
g9
(g13
S'\xbf\x8f+\t\x89[2@'
p479
tp480
Rp481
sg19
I0
sg20
g21
(S'\x07\xdd\t\x1d\x129\x12\x0cK\xcb'
p482
tp483
Rp484
sg25
I0
sg26
g27
(g28
(I0
tp485
g30
tp486
Rp487
(I1
(I2
tp488
g36
I00
S'W\x00\x00\x00b\x00\x00\x00'
p489
tp490
bsba(i__main__
FrameData
p491
(dp492
g6
g296
sg8
g9
(g13
S':\xf0c\xf6\x1b\xb93@'
p493
tp494
Rp495
sg19
I0
sg20
g21
(S'\x07\xdd\t\x1d\x129\x12\x0cv\xc4'
p496
tp497
Rp498
sg25
I0
sg26
g27
(g28
(I0
tp499
g30
tp500
Rp501
(I1
(I2
tp502
g36
I00
S'V\x00\x00\x00a\x00\x00\x00'
p503
tp504
bsba(i__main__
FrameData
p505
(dp506
g6
S'd'
p507
sg8
g9
(g13
S'\xd0Z\x0e\xd2\x03\xcf4@'
p508
tp509
Rp510
sg19
I0
sg20
g21
(S'\x07\xdd\t\x1d\x129\x12\x0c\xc3\xaf'
p511
tp512
Rp513
sg25
I0
sg26
g27
(g28
(I0
tp514
g30
tp515
Rp516
(I1
(I2
tp517
g36
I00
S'U\x00\x00\x00`\x00\x00\x00'
p518
tp519
bsba(i__main__
FrameData
p520
(dp521
g6
g507
sg8
g9
(g13
S':\xf0c\xf6\x1b\xb93@'
p522
tp523
Rp524
sg19
I0
sg20
g21
(S'\x07\xdd\t\x1d\x129\x12\r\x0f\xb0'
p525
tp526
Rp527
sg25
I0
sg26
g27
(g28
(I0
tp528
g30
tp529
Rp530
(I1
(I2
tp531
g36
I00
S'S\x00\x00\x00`\x00\x00\x00'
p532
tp533
bsba(i__main__
FrameData
p534
(dp535
g6
S'r'
p536
sg8
g9
(g13
S'\x00\x00\x00\x00\x00\x004@'
p537
tp538
Rp539
sg19
I0
sg20
g21
(S'\x07\xdd\t\x1d\x129\x12\ra\xdf'
p540
tp541
Rp542
sg25
I0
sg26
g27
(g28
(I0
tp543
g30
tp544
Rp545
(I1
(I2
tp546
g36
I00
S'R\x00\x00\x00_\x00\x00\x00'
p547
tp548
bsba(i__main__
FrameData
p549
(dp550
g6
g536
sg8
g9
(g13
S'\xc3\xe7Zp\xbb\x063@'
p551
tp552
Rp553
sg19
I0
sg20
g21
(S'\x07\xdd\t\x1d\x129\x12\r\x89\x15'
p554
tp555
Rp556
sg25
I0
sg26
g27
(g28
(I0
tp557
g30
tp558
Rp559
(I1
(I2
tp560
g36
I00
S'Q\x00\x00\x00^\x00\x00\x00'
p561
tp562
bsba(i__main__
FrameData
p563
(dp564
g6
g536
sg8
g9
(g13
S'$\xf8\xd9p[\x1c2@'
p565
tp566
Rp567
sg19
I0
sg20
g21
(S'\x07\xdd\t\x1d\x129\x12\r\xc3x'
p568
tp569
Rp570
sg25
I0
sg26
g27
(g28
(I0
tp571
g30
tp572
Rp573
(I1
(I2
tp574
g36
I00
S'P\x00\x00\x00]\x00\x00\x00'
p575
tp576
bsba(i__main__
FrameData
p577
(dp578
g6
g536
sg8
g9
(g13
S'f\xee@\x9f\x03\x1e1@'
p579
tp580
Rp581
sg19
I0
sg20
g21
(S'\x07\xdd\t\x1d\x129\x12\x0e$\x13'
p582
tp583
Rp584
sg25
I0
sg26
g27
(g28
(I0
tp585
g30
tp586
Rp587
(I1
(I2
tp588
g36
I00
S'P\x00\x00\x00\\\x00\x00\x00'
p589
tp590
bsba(i__main__
FrameData
p591
(dp592
g6
g536
sg8
g9
(g13
S'\x10\xb3]\xc9`G0@'
p593
tp594
Rp595
sg19
I0
sg20
g21
(S'\x07\xdd\t\x1d\x129\x12\x0eM\x06'
p596
tp597
Rp598
sg25
I0
sg26
g27
(g28
(I0
tp599
g30
tp600
Rp601
(I1
(I2
tp602
g36
I00
S'O\x00\x00\x00[\x00\x00\x00'
p603
tp604
bsba(i__main__
FrameData
p605
(dp606
g6
g536
sg8
g9
(g13
S'\xf7\x80Aq\xb9\xa2,@'
p607
tp608
Rp609
sg19
I0
sg20
g21
(S'\x07\xdd\t\x1d\x129\x12\x0e\x9aS'
p610
tp611
Rp612
sg25
I0
sg26
g27
(g28
(I0
tp613
g30
tp614
Rp615
(I1
(I2
tp616
g36
I00
S'O\x00\x00\x00Y\x00\x00\x00'
p617
tp618
bsba(i__main__
FrameData
p619
(dp620
g6
g536
sg8
g9
(g13
S'\xfc\xeeci3\xd5*@'
p621
tp622
Rp623
sg19
I0
sg20
g21
(S'\x07\xdd\t\x1d\x129\x12\x0e\xc2$'
p624
tp625
Rp626
sg25
I0
sg26
g27
(g28
(I0
tp627
g30
tp628
Rp629
(I1
(I2
tp630
g36
I00
S'L\x00\x00\x00W\x00\x00\x00'
p631
tp632
bsba(i__main__
FrameData
p633
(dp634
g6
g536
sg8
g9
(g13
S'\x00\xff\x9f\x99\xcc\x9c)@'
p635
tp636
Rp637
sg19
I0
sg20
g21
(S'\x07\xdd\t\x1d\x129\x12\x0f\x0e\x81'
p638
tp639
Rp640
sg25
I0
sg26
g27
(g28
(I0
tp641
g30
tp642
Rp643
(I1
(I2
tp644
g36
I00
S'J\x00\x00\x00U\x00\x00\x00'
p645
tp646
bsba(i__main__
FrameData
p647
(dp648
g6
g536
sg8
g9
(g13
S'&5w\xe2K\x15(@'
p649
tp650
Rp651
sg19
I0
sg20
g21
(S'\x07\xdd\t\x1d\x129\x13\x00\x18\xcf'
p652
tp653
Rp654
sg25
I0
sg26
g27
(g28
(I0
tp655
g30
tp656
Rp657
(I1
(I2
tp658
g36
I00
S'I\x00\x00\x00S\x00\x00\x00'
p659
tp660
bsba(i__main__
FrameData
p661
(dp662
g6
g536
sg8
g9
(g13
S'F\xc3\\\xa8\xc1i(@'
p663
tp664
Rp665
sg19
I0
sg20
g21
(S'\x07\xdd\t\x1d\x129\x13\x00B\xf6'
p666
tp667
Rp668
sg25
I0
sg26
g27
(g28
(I0
tp669
g30
tp670
Rp671
(I1
(I2
tp672
g36
I00
S'H\x00\x00\x00R\x00\x00\x00'
p673
tp674
bsba(i__main__
FrameData
p675
(dp676
g6
g536
sg8
g9
(g13
S"\xa2\xa3\xb3\r\xe5R'@"
p677
tp678
Rp679
sg19
I0
sg20
g21
(S'\x07\xdd\t\x1d\x129\x13\x00\x90\xbe'
p680
tp681
Rp682
sg25
I0
sg26
g27
(g28
(I0
tp683
g30
tp684
Rp685
(I1
(I2
tp686
g36
I00
S'H\x00\x00\x00Q\x00\x00\x00'
p687
tp688
bsba(i__main__
FrameData
p689
(dp690
g6
S'e'
p691
sg8
g9
(g13
S'\xeb\x12\xb2\xbb\xb2\xcd&@'
p692
tp693
Rp694
sg19
I0
sg20
g21
(S'\x07\xdd\t\x1d\x129\x13\x00\xde\xab'
p695
tp696
Rp697
sg25
I0
sg26
g27
(g28
(I0
tp698
g30
tp699
Rp700
(I1
(I2
tp701
g36
I00
S'F\x00\x00\x00O\x00\x00\x00'
p702
tp703
bsba(i__main__
FrameData
p704
(dp705
g6
g691
sg8
g9
(g13
S'\xd2\xf1}\x82U\\&@'
p706
tp707
Rp708
sg19
I0
sg20
g21
(S'\x07\xdd\t\x1d\x129\x13\x01*\x84'
p709
tp710
Rp711
sg25
I0
sg26
g27
(g28
(I0
tp712
g30
tp713
Rp714
(I1
(I2
tp715
g36
I00
S'F\x00\x00\x00N\x00\x00\x00'
p716
tp717
bsba(i__main__
FrameData
p718
(dp719
g6
g691
sg8
g9
(g13
S'\xf6/\x12_ee$@'
p720
tp721
Rp722
sg19
I0
sg20
g21
(S'\x07\xdd\t\x1d\x129\x13\x01\xef\xfd'
p723
tp724
Rp725
sg25
I0
sg26
g27
(g28
(I0
tp726
g30
tp727
Rp728
(I1
(I2
tp729
g36
I00
S'E\x00\x00\x00N\x00\x00\x00'
p730
tp731
bsba(i__main__
FrameData
p732
(dp733
g6
g691
sg8
g9
(g13
S'\x00\x00\x00\x00\x00\x00"@'
p734
tp735
Rp736
sg19
I0
sg20
g21
(S'\x07\xdd\t\x1d\x129\x13\x02en'
p737
tp738
Rp739
sg25
I0
sg26
g27
(g28
(I0
tp740
g30
tp741
Rp742
(I1
(I2
tp743
g36
I00
S'D\x00\x00\x00L\x00\x00\x00'
p744
tp745
bsba(i__main__
FrameData
p746
(dp747
g6
g691
sg8
g9
(g13
S'\xd0\xbaa?\xe0\x1f @'
p748
tp749
Rp750
sg19
I0
sg20
g21
(S'\x07\xdd\t\x1d\x129\x13\x02\xb4\x03'
p751
tp752
Rp753
sg25
I0
sg26
g27
(g28
(I0
tp754
g30
tp755
Rp756
(I1
(I2
tp757
g36
I00
S'C\x00\x00\x00K\x00\x00\x00'
p758
tp759
bsba(i__main__
FrameData
p760
(dp761
g6
g691
sg8
g9
(g13
S'\xe9\xfbv \xd5\x1e\x1d@'
p762
tp763
Rp764
sg19
I0
sg20
g21
(S'\x07\xdd\t\x1d\x129\x13\x02\xdc1'
p765
tp766
Rp767
sg25
I0
sg26
g27
(g28
(I0
tp768
g30
tp769
Rp770
(I1
(I2
tp771
g36
I00
S'B\x00\x00\x00J\x00\x00\x00'
p772
tp773
bsba(i__main__
FrameData
p774
(dp775
g6
g691
sg8
g9
(g13
S'\xfc\xeeci3\xd5\x1a@'
p776
tp777
Rp778
sg19
I0
sg20
g21
(S'\x07\xdd\t\x1d\x129\x13\x03v\xef'
p779
tp780
Rp781
sg25
I0
sg26
g27
(g28
(I0
tp782
g30
tp783
Rp784
(I1
(I2
tp785
g36
I00
S'A\x00\x00\x00I\x00\x00\x00'
p786
tp787
bsba(i__main__
FrameData
p788
(dp789
g6
g691
sg8
g9
(g13
S'\xa2\xa3\xb3\r\xe5R\x17@'
p790
tp791
Rp792
sg19
I0
sg20
g21
(S'\x07\xdd\t\x1d\x129\x13\x03\x9d\xfe'
p793
tp794
Rp795
sg25
I0
sg26
g27
(g28
(I0
tp796
g30
tp797
Rp798
(I1
(I2
tp799
g36
I00
S'@\x00\x00\x00I\x00\x00\x00'
p800
tp801
bsba(i__main__
FrameData
p802
(dp803
g6
g691
sg8
g9
(g13
S'\x00\x00\x00\x00\x00\x00\x14@'
p804
tp805
Rp806
sg19
I0
sg20
g21
(S'\x07\xdd\t\x1d\x129\x13\x03\xec\x0c'
p807
tp808
Rp809
sg25
I0
sg26
g27
(g28
(I0
tp810
g30
tp811
Rp812
(I1
(I2
tp813
g36
I00
S'?\x00\x00\x00I\x00\x00\x00'
p814
tp815
bsba(i__main__
FrameData
p816
(dp817
g6
g691
sg8
g9
(g13
S'\xd9l\xdf\xccv\xf8\x10@'
p818
tp819
Rp820
sg19
I0
sg20
g21
(S'\x07\xdd\t\x1d\x129\x13\x05\xe7\xca'
p821
tp822
Rp823
sg25
I0
sg26
g27
(g28
(I0
tp824
g30
tp825
Rp826
(I1
(I2
tp827
g36
I00
S'>\x00\x00\x00I\x00\x00\x00'
p828
tp829
bsba(i__main__
FrameData
p830
(dp831
g6
g691
sg8
g9
(g13
S'\xf3YaD+\xd8\x0c@'
p832
tp833
Rp834
sg19
I0
sg20
g21
(S'\x07\xdd\t\x1d\x129\x13\x064\xcc'
p835
tp836
Rp837
sg25
I0
sg26
g27
(g28
(I0
tp838
g30
tp839
Rp840
(I1
(I2
tp841
g36
I00
S'=\x00\x00\x00I\x00\x00\x00'
p842
tp843
bsba(i__main__
FrameData
p844
(dp845
g6
g691
sg8
g9
(g13
S'S[\xda:XL\t@'
p846
tp847
Rp848
sg19
I0
sg20
g21
(S'\x07\xdd\t\x1d\x129\x13\x06\xaaG'
p849
tp850
Rp851
sg25
I0
sg26
g27
(g28
(I0
tp852
g30
tp853
Rp854
(I1
(I2
tp855
g36
I00
S'<\x00\x00\x00I\x00\x00\x00'
p856
tp857
bsba(i__main__
FrameData
p858
(dp859
g6
g691
sg8
g9
(g13
S'\x07\xed\xaff\x0f~\x10@'
p860
tp861
Rp862
sg19
I0
sg20
g21
(S'\x07\xdd\t\x1d\x129\x13\x07\x00\x18'
p863
tp864
Rp865
sg25
I0
sg26
g27
(g28
(I0
tp866
g30
tp867
Rp868
(I1
(I2
tp869
g36
I00
S'<\x00\x00\x00H\x00\x00\x00'
p870
tp871
bsba(i__main__
FrameData
p872
(dp873
g6
g691
sg8
g9
(g13
S'\x07\xed\xaff\x0f~\x10@'
p874
tp875
Rp876
sg19
I0
sg20
g21
(S'\x07\xdd\t\x1d\x129\x13\x07\xaa+'
p877
tp878
Rp879
sg25
I0
sg26
g27
(g28
(I0
tp880
g30
tp881
Rp882
(I1
(I2
tp883
g36
I00
S':\x00\x00\x00H\x00\x00\x00'
p884
tp885
bsba(i__main__
FrameData
p886
(dp887
g6
g691
sg8
g9
(g13
S'S[\xda:XL\t@'
p888
tp889
Rp890
sg19
I0
sg20
g21
(S'\x07\xdd\t\x1d\x129\x13\t0\x97'
p891
tp892
Rp893
sg25
I0
sg26
g27
(g28
(I0
tp894
g30
tp895
Rp896
(I1
(I2
tp897
g36
I00
S':\x00\x00\x00I\x00\x00\x00'
p898
tp899
bsba(i__main__
FrameData
p900
(dp901
g6
g691
sg8
g9
(g13
S'\xcd;\x7ff\x9e\xa0\xf6?'
p902
tp903
Rp904
sg19
I0
sg20
g21
(S'\x07\xdd\t\x1d\x129\x13\t|.'
p905
tp906
Rp907
sg25
I0
sg26
g27
(g28
(I0
tp908
g30
tp909
Rp910
(I1
(I2
tp911
g36
I00
S':\x00\x00\x00K\x00\x00\x00'
p912
tp913
bsba(i__main__
FrameData
p914
(dp915
g6
g691
sg8
g9
(g13
S'\x00\x00\x00\x00\x00\x00\xf0?'
p916
tp917
Rp918
sg19
I0
sg20
g21
(S'\x07\xdd\t\x1d\x129\x13\t\xbd\xbb'
p919
tp920
Rp921
sg25
I0
sg26
g27
(g28
(I0
tp922
g30
tp923
Rp924
(I1
(I2
tp925
g36
I00
S':\x00\x00\x00L\x00\x00\x00'
p926
tp927
bsba(i__main__
FrameData
p928
(dp929
g6
g691
sg8
g9
(g13
S'\x00\x00\x00\x00\x00\x00\xf0?'
p930
tp931
Rp932
sg19
I0
sg20
g21
(S'\x07\xdd\t\x1d\x129\x13\t\xf5,'
p933
tp934
Rp935
sg25
I0
sg26
g27
(g28
(I0
tp936
g30
tp937
Rp938
(I1
(I2
tp939
g36
I00
S';\x00\x00\x00M\x00\x00\x00'
p940
tp941
bsba(i__main__
FrameData
p942
(dp943
g6
g691
sg8
g9
(g13
S'\x07\xed\xaff\x0f~\x10@'
p944
tp945
Rp946
sg19
I0
sg20
g21
(S'\x07\xdd\t\x1d\x129\x13\nB\x12'
p947
tp948
Rp949
sg25
I0
sg26
g27
(g28
(I0
tp950
g30
tp951
Rp952
(I1
(I2
tp953
g36
I00
S'<\x00\x00\x00P\x00\x00\x00'
p954
tp955
bsba(i__main__
FrameData
p956
(dp957
g6
g691
sg8
g9
(g13
S'N\x017\xfac4!@'
p958
tp959
Rp960
sg19
I0
sg20
g21
(S'\x07\xdd\t\x1d\x129\x13\nt\xaf'
p961
tp962
Rp963
sg25
I0
sg26
g27
(g28
(I0
tp964
g30
tp965
Rp966
(I1
(I2
tp967
g36
I00
S'@\x00\x00\x00S\x00\x00\x00'
p968
tp969
bsba(i__main__
FrameData
p970
(dp971
g6
g691
sg8
g9
(g13
S'\x00\xff\x9f\x99\xcc\x9c)@'
p972
tp973
Rp974
sg19
I0
sg20
g21
(S'\x07\xdd\t\x1d\x129\x13\n\xb7\xb4'
p975
tp976
Rp977
sg25
I0
sg26
g27
(g28
(I0
tp978
g30
tp979
Rp980
(I1
(I2
tp981
g36
I00
S'C\x00\x00\x00V\x00\x00\x00'
p982
tp983
bsba(i__main__
FrameData
p984
(dp985
g6
g691
sg8
g9
(g13
S'\x10\xb3]\xc9`G0@'
p986
tp987
Rp988
sg19
I0
sg20
g21
(S'\x07\xdd\t\x1d\x129\x13\n\xfa\xee'
p989
tp990
Rp991
sg25
I0
sg26
g27
(g28
(I0
tp992
g30
tp993
Rp994
(I1
(I2
tp995
g36
I00
S'F\x00\x00\x00X\x00\x00\x00'
p996
tp997
bsba(i__main__
FrameData
p998
(dp999
g6
g536
sg8
g9
(g13
S'\x0f\xab\xa8Q\xb6f0@'
p1000
tp1001
Rp1002
sg19
I0
sg20
g21
(S'\x07\xdd\t\x1d\x129\x13\x0bT/'
p1003
tp1004
Rp1005
sg25
I0
sg26
g27
(g28
(I0
tp1006
g30
tp1007
Rp1008
(I1
(I2
tp1009
g36
I00
S'H\x00\x00\x00X\x00\x00\x00'
p1010
tp1011
bsba(i__main__
FrameData
p1012
(dp1013
g6
g536
sg8
g9
(g13
S'\x00\x00\x00\x00\x00\x001@'
p1014
tp1015
Rp1016
sg19
I0
sg20
g21
(S'\x07\xdd\t\x1d\x129\x13\x0b{&'
p1017
tp1018
Rp1019
sg25
I0
sg26
g27
(g28
(I0
tp1020
g30
tp1021
Rp1022
(I1
(I2
tp1023
g36
I00
S'J\x00\x00\x00Z\x00\x00\x00'
p1024
tp1025
bsba(i__main__
FrameData
p1026
(dp1027
g6
g536
sg8
g9
(g13
S'\xa8y\x0c\t\xd9v1@'
p1028
tp1029
Rp1030
sg19
I0
sg20
g21
(S'\x07\xdd\t\x1d\x129\x13\x0b\xba\xff'
p1031
tp1032
Rp1033
sg25
I0
sg26
g27
(g28
(I0
tp1034
g30
tp1035
Rp1036
(I1
(I2
tp1037
g36
I00
S'K\x00\x00\x00[\x00\x00\x00'
p1038
tp1039
bsba(i__main__
FrameData
p1040
(dp1041
g6
g536
sg8
g9
(g13
S'\xa3\x14\xae\xa8\x87\x161@'
p1042
tp1043
Rp1044
sg19
I0
sg20
g21
(S'\x07\xdd\t\x1d\x129\x13\x0b\xfe\x9d'
p1045
tp1046
Rp1047
sg25
I0
sg26
g27
(g28
(I0
tp1048
g30
tp1049
Rp1050
(I1
(I2
tp1051
g36
I00
S'L\x00\x00\x00[\x00\x00\x00'
p1052
tp1053
bsba(i__main__
FrameData
p1054
(dp1055
g6
g536
sg8
g9
(g13
S'\xa8y\x0c\t\xd9v1@'
p1056
tp1057
Rp1058
sg19
I0
sg20
g21
(S'\x07\xdd\t\x1d\x129\x13\x0cFC'
p1059
tp1060
Rp1061
sg25
I0
sg26
g27
(g28
(I0
tp1062
g30
tp1063
Rp1064
(I1
(I2
tp1065
g36
I00
S'N\x00\x00\x00\\\x00\x00\x00'
p1066
tp1067
bsba(i__main__
FrameData
p1068
(dp1069
g6
g536
sg8
g9
(g13
S'^\x9e\x9f\x85\xdf\x1a3@'
p1070
tp1071
Rp1072
sg19
I0
sg20
g21
(S'\x07\xdd\t\x1d\x129\x13\x0c~\xc9'
p1073
tp1074
Rp1075
sg25
I0
sg26
g27
(g28
(I0
tp1076
g30
tp1077
Rp1078
(I1
(I2
tp1079
g36
I00
S'P\x00\x00\x00^\x00\x00\x00'
p1080
tp1081
bsba(i__main__
FrameData
p1082
(dp1083
g6
g536
sg8
g9
(g13
S'\x00\x00\x00\x00\x00\x004@'
p1084
tp1085
Rp1086
sg19
I0
sg20
g21
(S'\x07\xdd\t\x1d\x129\x13\x0c\xc5\x05'
p1087
tp1088
Rp1089
sg25
I0
sg26
g27
(g28
(I0
tp1090
g30
tp1091
Rp1092
(I1
(I2
tp1093
g36
I00
S'R\x00\x00\x00_\x00\x00\x00'
p1094
tp1095
bsba(i__main__
FrameData
p1096
(dp1097
g6
g507
sg8
g9
(g13
S'\xcey?\xdc\x9a?4@'
p1098
tp1099
Rp1100
sg19
I0
sg20
g21
(S'\x07\xdd\t\x1d\x129\x13\r\x03\xca'
p1101
tp1102
Rp1103
sg25
I0
sg26
g27
(g28
(I0
tp1104
g30
tp1105
Rp1106
(I1
(I2
tp1107
g36
I00
S'T\x00\x00\x00`\x00\x00\x00'
p1108
tp1109
bsba(i__main__
FrameData
p1110
(dp1111
g6
g296
sg8
g9
(g13
S'5 \x89\xa6\xcd\xc92@'
p1112
tp1113
Rp1114
sg19
I0
sg20
g21
(S'\x07\xdd\t\x1d\x129\x13\rM\x1b'
p1115
tp1116
Rp1117
sg25
I0
sg26
g27
(g28
(I0
tp1118
g30
tp1119
Rp1120
(I1
(I2
tp1121
g36
I00
S'X\x00\x00\x00a\x00\x00\x00'
p1122
tp1123
bsba(i__main__
FrameData
p1124
(dp1125
g6
g296
sg8
g9
(g13
S'\x07\xed\xaff\x0f~0@'
p1126
tp1127
Rp1128
sg19
I0
sg20
g21
(S'\x07\xdd\t\x1d\x129\x13\r\x83\x7f'
p1129
tp1130
Rp1131
sg25
I0
sg26
g27
(g28
(I0
tp1132
g30
tp1133
Rp1134
(I1
(I2
tp1135
g36
I00
S'\\\x00\x00\x00b\x00\x00\x00'
p1136
tp1137
bsba(i__main__
FrameData
p1138
(dp1139
g6
g296
sg8
g9
(g13
S')\x03\xec/C\x12,@'
p1140
tp1141
Rp1142
sg19
I0
sg20
g21
(S'\x07\xdd\t\x1d\x129\x13\r\xcbk'
p1143
tp1144
Rp1145
sg25
I0
sg26
g27
(g28
(I0
tp1146
g30
tp1147
Rp1148
(I1
(I2
tp1149
g36
I00
S'a\x00\x00\x00d\x00\x00\x00'
p1150
tp1151
bsba(i__main__
FrameData
p1152
(dp1153
g6
g296
sg8
g9
(g13
S'\xbc\xfdP\xb5U\xdb+@'
p1154
tp1155
Rp1156
sg19
I0
sg20
g21
(S'\x07\xdd\t\x1d\x129\x13\x0e\t\xaa'
p1157
tp1158
Rp1159
sg25
I0
sg26
g27
(g28
(I0
tp1160
g30
tp1161
Rp1162
(I1
(I2
tp1163
g36
I00
S'e\x00\x00\x00e\x00\x00\x00'
p1164
tp1165
bsba(i__main__
FrameData
p1166
(dp1167
g6
g296
sg8
g9
(g13
S'9\xf2\xee\xcc\xd9\x1c/@'
p1168
tp1169
Rp1170
sg19
I0
sg20
g21
(S'\x07\xdd\t\x1d\x129\x13\x0eI\x12'
p1171
tp1172
Rp1173
sg25
I0
sg26
g27
(g28
(I0
tp1174
g30
tp1175
Rp1176
(I1
(I2
tp1177
g36
I00
S'k\x00\x00\x00g\x00\x00\x00'
p1178
tp1179
bsba(i__main__
FrameData
p1180
(dp1181
g6
g85
sg8
g9
(g13
S'&5w\xe2K\x15(@'
p1182
tp1183
Rp1184
sg19
I0
sg20
g21
(S'\x07\xdd\t\x1d\x129\x13\x0e\x8b\xc2'
p1185
tp1186
Rp1187
sg25
I0
sg26
g27
(g28
(I0
tp1188
g30
tp1189
Rp1190
(I1
(I2
tp1191
g36
I00
S'p\x00\x00\x00i\x00\x00\x00'
p1192
tp1193
bsba(i__main__
FrameData
p1194
(dp1195
g6
g85
sg8
g9
(g13
S'A\x87b\xc62\xde"@'
p1196
tp1197
Rp1198
sg19
I0
sg20
g21
(S'\x07\xdd\t\x1d\x129\x13\x0e\xcb}'
p1199
tp1200
Rp1201
sg25
I0
sg26
g27
(g28
(I0
tp1202
g30
tp1203
Rp1204
(I1
(I2
tp1205
g36
I00
S's\x00\x00\x00j\x00\x00\x00'
p1206
tp1207
bsba(i__main__
FrameData
p1208
(dp1209
g6
g85
sg8
g9
(g13
S'\xe9\xfbv \xd5\x1e\x1d@'
p1210
tp1211
Rp1212
sg19
I0
sg20
g21
(S'\x07\xdd\t\x1d\x129\x13\x0f\x1b\x01'
p1213
tp1214
Rp1215
sg25
I0
sg26
g27
(g28
(I0
tp1216
g30
tp1217
Rp1218
(I1
(I2
tp1219
g36
I00
S'v\x00\x00\x00k\x00\x00\x00'
p1220
tp1221
bsba(i__main__
FrameData
p1222
(dp1223
g6
g85
sg8
g9
(g13
S'\xf6/\x12_ee\x14@'
p1224
tp1225
Rp1226
sg19
I0
sg20
g21
(S'\x07\xdd\t\x1d\x129\x14\x00\x19\xae'
p1227
tp1228
Rp1229
sg25
I0
sg26
g27
(g28
(I0
tp1230
g30
tp1231
Rp1232
(I1
(I2
tp1233
g36
I00
S'y\x00\x00\x00m\x00\x00\x00'
p1234
tp1235
bsba(i__main__
FrameData
p1236
(dp1237
g6
g85
sg8
g9
(g13
S'\xa2\xa3\xb3\r\xe5R\x17@'
p1238
tp1239
Rp1240
sg19
I0
sg20
g21
(S'\x07\xdd\t\x1d\x129\x14\x00Sy'
p1241
tp1242
Rp1243
sg25
I0
sg26
g27
(g28
(I0
tp1244
g30
tp1245
Rp1246
(I1
(I2
tp1247
g36
I00
S'{\x00\x00\x00m\x00\x00\x00'
p1248
tp1249
bsba(i__main__
FrameData
p1250
(dp1251
g6
g85
sg8
g9
(g13
S'N\x017\xfac4!@'
p1252
tp1253
Rp1254
sg19
I0
sg20
g21
(S'\x07\xdd\t\x1d\x129\x14\x00\x8d\xca'
p1255
tp1256
Rp1257
sg25
I0
sg26
g27
(g28
(I0
tp1258
g30
tp1259
Rp1260
(I1
(I2
tp1261
g36
I00
S'\x7f\x00\x00\x00m\x00\x00\x00'
p1262
tp1263
bsba(i__main__
FrameData
p1264
(dp1265
g6
g85
sg8
g9
(g13
S"\xe0\x11<m\xceh'@"
p1266
tp1267
Rp1268
sg19
I0
sg20
g21
(S'\x07\xdd\t\x1d\x129\x14\x00\xd3$'
p1269
tp1270
Rp1271
sg25
I0
sg26
g27
(g28
(I0
tp1272
g30
tp1273
Rp1274
(I1
(I2
tp1275
g36
I00
S'\x83\x00\x00\x00n\x00\x00\x00'
p1276
tp1277
bsba(i__main__
FrameData
p1278
(dp1279
g6
g7
sg8
g9
(g13
S'p\xc4\x9d9\x8dv\x1e@'
p1280
tp1281
Rp1282
sg19
I0
sg20
g21
(S'\x07\xdd\t\x1d\x129\x14\x01 K'
p1283
tp1284
Rp1285
sg25
I0
sg26
g27
(g28
(I0
tp1286
g30
tp1287
Rp1288
(I1
(I2
tp1289
g36
I00
S'\x89\x00\x00\x00o\x00\x00\x00'
p1290
tp1291
bsba(i__main__
FrameData
p1292
(dp1293
g6
g7
sg8
g9
(g13
S'S[\xda:XL\t@'
p1294
tp1295
Rp1296
sg19
I0
sg20
g21
(S'\x07\xdd\t\x1d\x129\x14\x01j\xbb'
p1297
tp1298
Rp1299
sg25
I0
sg26
g27
(g28
(I0
tp1300
g30
tp1301
Rp1302
(I1
(I2
tp1303
g36
I00
S'\x8d\x00\x00\x00q\x00\x00\x00'
p1304
tp1305
bsba(i__main__
FrameData
p1306
(dp1307
g6
g7
sg8
g9
(g13
S'\xcd;\x7ff\x9e\xa0\xf6?'
p1308
tp1309
Rp1310
sg19
I0
sg20
g21
(S'\x07\xdd\t\x1d\x129\x14\x01\x97\x0f'
p1311
tp1312
Rp1313
sg25
I0
sg26
g27
(g28
(I0
tp1314
g30
tp1315
Rp1316
(I1
(I2
tp1317
g36
I00
S'\x91\x00\x00\x00q\x00\x00\x00'
p1318
tp1319
bsba(i__main__
FrameData
p1320
(dp1321
g6
g7
sg8
g9
(g13
S'\x00\x00\x00\x00\x00\x00\x14@'
p1322
tp1323
Rp1324
sg19
I0
sg20
g21
(S'\x07\xdd\t\x1d\x129\x14\x01\xe4\xb7'
p1325
tp1326
Rp1327
sg25
I0
sg26
g27
(g28
(I0
tp1328
g30
tp1329
Rp1330
(I1
(I2
tp1331
g36
I00
S'\x95\x00\x00\x00r\x00\x00\x00'
p1332
tp1333
bsba(i__main__
FrameData
p1334
(dp1335
g6
g7
sg8
g9
(g13
S'\x00\x00\x00\x00\x00\x00 @'
p1336
tp1337
Rp1338
sg19
I0
sg20
g21
(S'\x07\xdd\t\x1d\x129\x14\x02\x18D'
p1339
tp1340
Rp1341
sg25
I0
sg26
g27
(g28
(I0
tp1342
g30
tp1343
Rp1344
(I1
(I2
tp1345
g36
I00
S'\x98\x00\x00\x00r\x00\x00\x00'
p1346
tp1347
bsba(i__main__
FrameData
p1348
(dp1349
g6
g7
sg8
g9
(g13
S'\xf0)#L\x89\x19$@'
p1350
tp1351
Rp1352
sg19
I0
sg20
g21
(S'\x07\xdd\t\x1d\x129\x14\x02_\x07'
p1353
tp1354
Rp1355
sg25
I0
sg26
g27
(g28
(I0
tp1356
g30
tp1357
Rp1358
(I1
(I2
tp1359
g36
I00
S'\x9a\x00\x00\x00s\x00\x00\x00'
p1360
tp1361
bsba(i__main__
FrameData
p1362
(dp1363
g6
S'j'
p1364
sg8
g9
(g13
S'H\xaa*\x8f9\x17&@'
p1365
tp1366
Rp1367
sg19
I0
sg20
g21
(S'\x07\xdd\t\x1d\x129\x14\x02\xa7\xfe'
p1368
tp1369
Rp1370
sg25
I0
sg26
g27
(g28
(I0
tp1371
g30
tp1372
Rp1373
(I1
(I2
tp1374
g36
I00
S'\x9c\x00\x00\x00s\x00\x00\x00'
p1375
tp1376
bsba(i__main__
FrameData
p1377
(dp1378
g6
g1364
sg8
g9
(g13
S'$\xf8\xd9p[\x1c"@'
p1379
tp1380
Rp1381
sg19
I0
sg20
g21
(S'\x07\xdd\t\x1d\x129\x14\x02\xd7u'
p1382
tp1383
Rp1384
sg25
I0
sg26
g27
(g28
(I0
tp1385
g30
tp1386
Rp1387
(I1
(I2
tp1388
g36
I00
S'\x9e\x00\x00\x00s\x00\x00\x00'
p1389
tp1390
bsba(i__main__
FrameData
p1391
(dp1392
g6
g1364
sg8
g9
(g13
S'\xd0\xbaa?\xe0\x1f @'
p1393
tp1394
Rp1395
sg19
I0
sg20
g21
(S'\x07\xdd\t\x1d\x129\x14\x03!\x0b'
p1396
tp1397
Rp1398
sg25
I0
sg26
g27
(g28
(I0
tp1399
g30
tp1400
Rp1401
(I1
(I2
tp1402
g36
I00
S'\x9f\x00\x00\x00s\x00\x00\x00'
p1403
tp1404
bsba(i__main__
FrameData
p1405
(dp1406
g6
g1364
sg8
g9
(g13
S'\xc0\n\x1f\x00\xc6H\x1c@'
p1407
tp1408
Rp1409
sg19
I0
sg20
g21
(S'\x07\xdd\t\x1d\x129\x14\x03lf'
p1410
tp1411
Rp1412
sg25
I0
sg26
g27
(g28
(I0
tp1413
g30
tp1414
Rp1415
(I1
(I2
tp1416
g36
I00
S'\xa0\x00\x00\x00s\x00\x00\x00'
p1417
tp1418
bsba(i__main__
FrameData
p1419
(dp1420
g6
g1364
sg8
g9
(g13
S'\xf6/\x12_ee\x14@'
p1421
tp1422
Rp1423
sg19
I0
sg20
g21
(S'\x07\xdd\t\x1d\x129\x14\x03\x9cS'
p1424
tp1425
Rp1426
sg25
I0
sg26
g27
(g28
(I0
tp1427
g30
tp1428
Rp1429
(I1
(I2
tp1430
g36
I00
S'\xa2\x00\x00\x00s\x00\x00\x00'
p1431
tp1432
bsba(i__main__
FrameData
p1433
(dp1434
g6
g1364
sg8
g9
(g13
S'S[\xda:XL\t@'
p1435
tp1436
Rp1437
sg19
I0
sg20
g21
(S'\x07\xdd\t\x1d\x129\x14\x03\xe8('
p1438
tp1439
Rp1440
sg25
I0
sg26
g27
(g28
(I0
tp1441
g30
tp1442
Rp1443
(I1
(I2
tp1444
g36
I00
S'\xa4\x00\x00\x00s\x00\x00\x00'
p1445
tp1446
bsba(i__main__
FrameData
p1447
(dp1448
g6
g1364
sg8
g9
(g13
S'\xcd;\x7ff\x9e\xa0\xf6?'
p1449
tp1450
Rp1451
sg19
I0
sg20
g21
(S'\x07\xdd\t\x1d\x129\x14\x04%x'
p1452
tp1453
Rp1454
sg25
I0
sg26
g27
(g28
(I0
tp1455
g30
tp1456
Rp1457
(I1
(I2
tp1458
g36
I00
S'\xa8\x00\x00\x00s\x00\x00\x00'
p1459
tp1460
bsba(i__main__
FrameData
p1461
(dp1462
g6
g1364
sg8
g9
(g13
S'\x07\xed\xaff\x0f~\x10@'
p1463
tp1464
Rp1465
sg19
I0
sg20
g21
(S'\x07\xdd\t\x1d\x129\x14\x04nh'
p1466
tp1467
Rp1468
sg25
I0
sg26
g27
(g28
(I0
tp1469
g30
tp1470
Rp1471
(I1
(I2
tp1472
g36
I00
S'\xab\x00\x00\x00s\x00\x00\x00'
p1473
tp1474
bsba(i__main__
FrameData
p1475
(dp1476
g6
g1364
sg8
g9
(g13
S'$\xf8\xd9p[\x1c"@'
p1477
tp1478
Rp1479
sg19
I0
sg20
g21
(S'\x07\xdd\t\x1d\x129\x14\x04\xab\xa0'
p1480
tp1481
Rp1482
sg25
I0
sg26
g27
(g28
(I0
tp1483
g30
tp1484
Rp1485
(I1
(I2
tp1486
g36
I00
S'\xb0\x00\x00\x00s\x00\x00\x00'
p1487
tp1488
bsba(i__main__
FrameData
p1489
(dp1490
g6
S'k'
p1491
sg8
g9
(g13
S'$\xf8\xd9p[\x1c"@'
p1492
tp1493
Rp1494
sg19
I0
sg20
g21
(S'\x07\xdd\t\x1d\x129\x14\x04\xeb\x1e'
p1495
tp1496
Rp1497
sg25
I0
sg26
g27
(g28
(I0
tp1498
g30
tp1499
Rp1500
(I1
(I2
tp1501
g36
I00
S'\xb5\x00\x00\x00s\x00\x00\x00'
p1502
tp1503
bsba(i__main__
FrameData
p1504
(dp1505
g6
g1491
sg8
g9
(g13
S'\x07\xed\xaff\x0f~\x10@'
p1506
tp1507
Rp1508
sg19
I0
sg20
g21
(S'\x07\xdd\t\x1d\x129\x14\x05(t'
p1509
tp1510
Rp1511
sg25
I0
sg26
g27
(g28
(I0
tp1512
g30
tp1513
Rp1514
(I1
(I2
tp1515
g36
I00
S'\xba\x00\x00\x00s\x00\x00\x00'
p1516
tp1517
bsba(i__main__
FrameData
p1518
(dp1519
g6
g1491
sg8
g9
(g13
S'\xcd;\x7ff\x9e\xa0\xf6?'
p1520
tp1521
Rp1522
sg19
I0
sg20
g21
(S'\x07\xdd\t\x1d\x129\x14\x05f\x98'
p1523
tp1524
Rp1525
sg25
I0
sg26
g27
(g28
(I0
tp1526
g30
tp1527
Rp1528
(I1
(I2
tp1529
g36
I00
S'\xbf\x00\x00\x00s\x00\x00\x00'
p1530
tp1531
bsba(i__main__
FrameData
p1532
(dp1533
g6
g1491
sg8
g9
(g13
S'\x07\xed\xaff\x0f~\x10@'
p1534
tp1535
Rp1536
sg19
I0
sg20
g21
(S'\x07\xdd\t\x1d\x129\x14\x05\xa76'
p1537
tp1538
Rp1539
sg25
I0
sg26
g27
(g28
(I0
tp1540
g30
tp1541
Rp1542
(I1
(I2
tp1543
g36
I00
S'\xc2\x00\x00\x00s\x00\x00\x00'
p1544
tp1545
bsba(i__main__
FrameData
p1546
(dp1547
g6
g1491
sg8
g9
(g13
S'9\xdcc\xb3\xbfT\x18@'
p1548
tp1549
Rp1550
sg19
I0
sg20
g21
(S'\x07\xdd\t\x1d\x129\x14\x05\xe9\xc9'
p1551
tp1552
Rp1553
sg25
I0
sg26
g27
(g28
(I0
tp1554
g30
tp1555
Rp1556
(I1
(I2
tp1557
g36
I00
S'\xc4\x00\x00\x00s\x00\x00\x00'
p1558
tp1559
bsba(i__main__
FrameData
p1560
(dp1561
g6
g1491
sg8
g9
(g13
S'\xd0\xbaa?\xe0\x1f @'
p1562
tp1563
Rp1564
sg19
I0
sg20
g21
(S'\x07\xdd\t\x1d\x129\x14\x062\xd8'
p1565
tp1566
Rp1567
sg25
I0
sg26
g27
(g28
(I0
tp1568
g30
tp1569
Rp1570
(I1
(I2
tp1571
g36
I00
S'\xc6\x00\x00\x00s\x00\x00\x00'
p1572
tp1573
bsba(i__main__
FrameData
p1574
(dp1575
g6
g1491
sg8
g9
(g13
S'$\xf8\xd9p[\x1c"@'
p1576
tp1577
Rp1578
sg19
I0
sg20
g21
(S'\x07\xdd\t\x1d\x129\x14\x06q\xff'
p1579
tp1580
Rp1581
sg25
I0
sg26
g27
(g28
(I0
tp1582
g30
tp1583
Rp1584
(I1
(I2
tp1585
g36
I00
S'\xc7\x00\x00\x00s\x00\x00\x00'
p1586
tp1587
bsba(i__main__
FrameData
p1588
(dp1589
g6
g1491
sg8
g9
(g13
S'\xf0)#L\x89\x19$@'
p1590
tp1591
Rp1592
sg19
I0
sg20
g21
(S'\x07\xdd\t\x1d\x129\x14\x06\xbf\xc6'
p1593
tp1594
Rp1595
sg25
I0
sg26
g27
(g28
(I0
tp1596
g30
tp1597
Rp1598
(I1
(I2
tp1599
g36
I00
S'\xc8\x00\x00\x00s\x00\x00\x00'
p1600
tp1601
bsba(i__main__
FrameData
p1602
(dp1603
g6
g1491
sg8
g9
(g13
S'H\xaa*\x8f9\x17&@'
p1604
tp1605
Rp1606
sg19
I0
sg20
g21
(S'\x07\xdd\t\x1d\x129\x14\x06\xf6\x90'
p1607
tp1608
Rp1609
sg25
I0
sg26
g27
(g28
(I0
tp1610
g30
tp1611
Rp1612
(I1
(I2
tp1613
g36
I00
S'\xc9\x00\x00\x00s\x00\x00\x00'
p1614
tp1615
bsba(i__main__
FrameData
p1616
(dp1617
g6
g1491
sg8
g9
(g13
S'&5w\xe2K\x15(@'
p1618
tp1619
Rp1620
sg19
I0
sg20
g21
(S'\x07\xdd\t\x1d\x129\x14\x07<\xff'
p1621
tp1622
Rp1623
sg25
I0
sg26
g27
(g28
(I0
tp1624
g30
tp1625
Rp1626
(I1
(I2
tp1627
g36
I00
S'\xca\x00\x00\x00s\x00\x00\x00'
p1628
tp1629
bsba(i__main__
FrameData
p1630
(dp1631
g6
S'l'
p1632
sg8
g9
(g13
S'H\xaa*\x8f9\x17&@'
p1633
tp1634
Rp1635
sg19
I0
sg20
g21
(S'\x07\xdd\t\x1d\x129\x14\x07\xb8\xae'
p1636
tp1637
Rp1638
sg25
I0
sg26
g27
(g28
(I0
tp1639
g30
tp1640
Rp1641
(I1
(I2
tp1642
g36
I00
S'\xcb\x00\x00\x00s\x00\x00\x00'
p1643
tp1644
bsba(i__main__
FrameData
p1645
(dp1646
g6
g1632
sg8
g9
(g13
S'\xf0)#L\x89\x19$@'
p1647
tp1648
Rp1649
sg19
I0
sg20
g21
(S'\x07\xdd\t\x1d\x129\x14\x07\xf2\xfa'
p1650
tp1651
Rp1652
sg25
I0
sg26
g27
(g28
(I0
tp1653
g30
tp1654
Rp1655
(I1
(I2
tp1656
g36
I00
S'\xcc\x00\x00\x00s\x00\x00\x00'
p1657
tp1658
bsba(i__main__
FrameData
p1659
(dp1660
g6
g1632
sg8
g9
(g13
S'$\xf8\xd9p[\x1c"@'
p1661
tp1662
Rp1663
sg19
I0
sg20
g21
(S'\x07\xdd\t\x1d\x129\x14\x085\xe2'
p1664
tp1665
Rp1666
sg25
I0
sg26
g27
(g28
(I0
tp1667
g30
tp1668
Rp1669
(I1
(I2
tp1670
g36
I00
S'\xcd\x00\x00\x00s\x00\x00\x00'
p1671
tp1672
bsba(i__main__
FrameData
p1673
(dp1674
g6
g1632
sg8
g9
(g13
S'\xc0\n\x1f\x00\xc6H\x1c@'
p1675
tp1676
Rp1677
sg19
I0
sg20
g21
(S'\x07\xdd\t\x1d\x129\x14\x08t,'
p1678
tp1679
Rp1680
sg25
I0
sg26
g27
(g28
(I0
tp1681
g30
tp1682
Rp1683
(I1
(I2
tp1684
g36
I00
S'\xcf\x00\x00\x00s\x00\x00\x00'
p1685
tp1686
bsba(i__main__
FrameData
p1687
(dp1688
g6
g1632
sg8
g9
(g13
S'9\xdcc\xb3\xbfT\x18@'
p1689
tp1690
Rp1691
sg19
I0
sg20
g21
(S'\x07\xdd\t\x1d\x129\x14\x08\xbfT'
p1692
tp1693
Rp1694
sg25
I0
sg26
g27
(g28
(I0
tp1695
g30
tp1696
Rp1697
(I1
(I2
tp1698
g36
I00
S'\xd0\x00\x00\x00s\x00\x00\x00'
p1699
tp1700
bsba(i__main__
FrameData
p1701
(dp1702
g6
g1632
sg8
g9
(g13
S'\x07\xed\xaff\x0f~\x10@'
p1703
tp1704
Rp1705
sg19
I0
sg20
g21
(S'\x07\xdd\t\x1d\x129\x14\x08\xf9\x0c'
p1706
tp1707
Rp1708
sg25
I0
sg26
g27
(g28
(I0
tp1709
g30
tp1710
Rp1711
(I1
(I2
tp1712
g36
I00
S'\xd2\x00\x00\x00s\x00\x00\x00'
p1713
tp1714
bsba(i__main__
FrameData
p1715
(dp1716
g6
g1632
sg8
g9
(g13
S'S[\xda:XL\t@'
p1717
tp1718
Rp1719
sg19
I0
sg20
g21
(S'\x07\xdd\t\x1d\x129\x14\t:\xc4'
p1720
tp1721
Rp1722
sg25
I0
sg26
g27
(g28
(I0
tp1723
g30
tp1724
Rp1725
(I1
(I2
tp1726
g36
I00
S'\xd3\x00\x00\x00s\x00\x00\x00'
p1727
tp1728
bsba(i__main__
FrameData
p1729
(dp1730
g6
g1632
sg8
g9
(g13
S'\xcd;\x7ff\x9e\xa0\xf6?'
p1731
tp1732
Rp1733
sg19
I0
sg20
g21
(S'\x07\xdd\t\x1d\x129\x14\t\x96w'
p1734
tp1735
Rp1736
sg25
I0
sg26
g27
(g28
(I0
tp1737
g30
tp1738
Rp1739
(I1
(I2
tp1740
g36
I00
S'\xd5\x00\x00\x00s\x00\x00\x00'
p1741
tp1742
bsba(i__main__
FrameData
p1743
(dp1744
g6
g1632
sg8
g9
(g13
S'\x00\x00\x00\x00\x00\x00\xf0?'
p1745
tp1746
Rp1747
sg19
I0
sg20
g21
(S'\x07\xdd\t\x1d\x129\x14\n\x04\x98'
p1748
tp1749
Rp1750
sg25
I0
sg26
g27
(g28
(I0
tp1751
g30
tp1752
Rp1753
(I1
(I2
tp1754
g36
I00
S'\xd6\x00\x00\x00s\x00\x00\x00'
p1755
tp1756
bsba(i__main__
FrameData
p1757
(dp1758
g6
g1632
sg8
g9
(g13
S'\xcd;\x7ff\x9e\xa0\xf6?'
p1759
tp1760
Rp1761
sg19
I0
sg20
g21
(S'\x07\xdd\t\x1d\x129\x14\n\x7f\xa2'
p1762
tp1763
Rp1764
sg25
I0
sg26
g27
(g28
(I0
tp1765
g30
tp1766
Rp1767
(I1
(I2
tp1768
g36
I00
S'\xd7\x00\x00\x00s\x00\x00\x00'
p1769
tp1770
bsba(i__main__
FrameData
p1771
(dp1772
g6
g1632
sg8
g9
(g13
S'\x00\x00\x00\x00\x00\x00\x00@'
p1773
tp1774
Rp1775
sg19
I0
sg20
g21
(S'\x07\xdd\t\x1d\x129\x14\x0c\x1d\xee'
p1776
tp1777
Rp1778
sg25
I0
sg26
g27
(g28
(I0
tp1779
g30
tp1780
Rp1781
(I1
(I2
tp1782
g36
I00
S'\xd8\x00\x00\x00r\x00\x00\x00'
p1783
tp1784
bsba(i__main__
FrameData
p1785
(dp1786
g6
g1632
sg8
g9
(g13
S'\xa8\xf4\x97\x9bw\xe3\x01@'
p1787
tp1788
Rp1789
sg19
I0
sg20
g21
(S'\x07\xdd\t\x1d\x129\x14\x0c\x9a\xd5'
p1790
tp1791
Rp1792
sg25
I0
sg26
g27
(g28
(I0
tp1793
g30
tp1794
Rp1795
(I1
(I2
tp1796
g36
I00
S'\xd8\x00\x00\x00q\x00\x00\x00'
p1797
tp1798
bsba(i__main__
FrameData
p1799
(dp1800
g6
g1632
sg8
g9
(g13
S'\xcd;\x7ff\x9e\xa0\x06@'
p1801
tp1802
Rp1803
sg19
I0
sg20
g21
(S'\x07\xdd\t\x1d\x129\x14\r\x14\xc0'
p1804
tp1805
Rp1806
sg25
I0
sg26
g27
(g28
(I0
tp1807
g30
tp1808
Rp1809
(I1
(I2
tp1810
g36
I00
S'\xd8\x00\x00\x00p\x00\x00\x00'
p1811
tp1812
bsba(i__main__
FrameData
p1813
(dp1814
g6
g1632
sg8
g9
(g13
S'\xf3YaD+\xd8\x0c@'
p1815
tp1816
Rp1817
sg19
I0
sg20
g21
(S'\x07\xdd\t\x1d\x129\x14\r_0'
p1818
tp1819
Rp1820
sg25
I0
sg26
g27
(g28
(I0
tp1821
g30
tp1822
Rp1823
(I1
(I2
tp1824
g36
I00
S'\xd8\x00\x00\x00o\x00\x00\x00'
p1825
tp1826
bsba(i__main__
FrameData
p1827
(dp1828
g6
g1632
sg8
g9
(g13
S'\xa8\xf4\x97\x9bw\xe3\x11@'
p1829
tp1830
Rp1831
sg19
I0
sg20
g21
(S'\x07\xdd\t\x1d\x129\x14\r\x9c~'
p1832
tp1833
Rp1834
sg25
I0
sg26
g27
(g28
(I0
tp1835
g30
tp1836
Rp1837
(I1
(I2
tp1838
g36
I00
S'\xd8\x00\x00\x00n\x00\x00\x00'
p1839
tp1840
bsba(i__main__
FrameData
p1841
(dp1842
g6
g1632
sg8
g9
(g13
S'\x07\xed\xaff\x0f~\x10@'
p1843
tp1844
Rp1845
sg19
I0
sg20
g21
(S'\x07\xdd\t\x1d\x129\x14\x0f\x13\xc1'
p1846
tp1847
Rp1848
sg25
I0
sg26
g27
(g28
(I0
tp1849
g30
tp1850
Rp1851
(I1
(I2
tp1852
g36
I00
S'\xd7\x00\x00\x00n\x00\x00\x00'
p1853
tp1854
bsba(i__main__
FrameData
p1855
(dp1856
g6
g1632
sg8
g9
(g13
S'\xf6/\x12_ee\x14@'
p1857
tp1858
Rp1859
sg19
I0
sg20
g21
(S'\x07\xdd\t\x1d\x129\x15\x00\x94\xdb'
p1860
tp1861
Rp1862
sg25
I0
sg26
g27
(g28
(I0
tp1863
g30
tp1864
Rp1865
(I1
(I2
tp1866
g36
I00
S'\xd7\x00\x00\x00m\x00\x00\x00'
p1867
tp1868
bsba(i__main__
FrameData
p1869
(dp1870
g6
g1632
sg8
g9
(g13
S'9\xdcc\xb3\xbfT\x18@'
p1871
tp1872
Rp1873
sg19
I0
sg20
g21
(S'\x07\xdd\t\x1d\x129\x15\x011\x9f'
p1874
tp1875
Rp1876
sg25
I0
sg26
g27
(g28
(I0
tp1877
g30
tp1878
Rp1879
(I1
(I2
tp1880
g36
I00
S'\xd5\x00\x00\x00l\x00\x00\x00'
p1881
tp1882
bsba(i__main__
FrameData
p1883
(dp1884
g6
g1632
sg8
g9
(g13
S'\xe9\xfbv \xd5\x1e\x1d@'
p1885
tp1886
Rp1887
sg19
I0
sg20
g21
(S'\x07\xdd\t\x1d\x129\x15\x01X\x8b'
p1888
tp1889
Rp1890
sg25
I0
sg26
g27
(g28
(I0
tp1891
g30
tp1892
Rp1893
(I1
(I2
tp1894
g36
I00
S'\xd4\x00\x00\x00k\x00\x00\x00'
p1895
tp1896
bsba(i__main__
FrameData
p1897
(dp1898
g6
g1632
sg8
g9
(g13
S'p\xc4\x9d9\x8dv\x1e@'
p1899
tp1900
Rp1901
sg19
I0
sg20
g21
(S'\x07\xdd\t\x1d\x129\x15\x01\xf6\x02'
p1902
tp1903
Rp1904
sg25
I0
sg26
g27
(g28
(I0
tp1905
g30
tp1906
Rp1907
(I1
(I2
tp1908
g36
I00
S'\xd3\x00\x00\x00k\x00\x00\x00'
p1909
tp1910
bsba(i__main__
FrameData
p1911
(dp1912
g6
g1632
sg8
g9
(g13
S'\xd0\xbaa?\xe0\x1f @'
p1913
tp1914
Rp1915
sg19
I0
sg20
g21
(S'\x07\xdd\t\x1d\x129\x15\x02j\xce'
p1916
tp1917
Rp1918
sg25
I0
sg26
g27
(g28
(I0
tp1919
g30
tp1920
Rp1921
(I1
(I2
tp1922
g36
I00
S'\xd2\x00\x00\x00k\x00\x00\x00'
p1923
tp1924
bsba(i__main__
FrameData
p1925
(dp1926
g6
g1632
sg8
g9
(g13
S'N\x017\xfac4!@'
p1927
tp1928
Rp1929
sg19
I0
sg20
g21
(S'\x07\xdd\t\x1d\x129\x15\x02\xe0g'
p1930
tp1931
Rp1932
sg25
I0
sg26
g27
(g28
(I0
tp1933
g30
tp1934
Rp1935
(I1
(I2
tp1936
g36
I00
S'\xd1\x00\x00\x00k\x00\x00\x00'
p1937
tp1938
bsba(i__main__
FrameData
p1939
(dp1940
g6
g1632
sg8
g9
(g13
S'\x9a.\x90!hp"@'
p1941
tp1942
Rp1943
sg19
I0
sg20
g21
(S'\x07\xdd\t\x1d\x129\x15\x03.S'
p1944
tp1945
Rp1946
sg25
I0
sg26
g27
(g28
(I0
tp1947
g30
tp1948
Rp1949
(I1
(I2
tp1950
g36
I00
S'\xd0\x00\x00\x00k\x00\x00\x00'
p1951
tp1952
bsba(i__main__
FrameData
p1953
(dp1954
g6
g1632
sg8
g9
(g13
S'\xd9l\xdf\xccv\xf8 @'
p1955
tp1956
Rp1957
sg19
I0
sg20
g21
(S'\x07\xdd\t\x1d\x129\x15\x03\xb0\xe8'
p1958
tp1959
Rp1960
sg25
I0
sg26
g27
(g28
(I0
tp1961
g30
tp1962
Rp1963
(I1
(I2
tp1964
g36
I00
S'\xd0\x00\x00\x00l\x00\x00\x00'
p1965
tp1966
bsba(i__main__
FrameData
p1967
(dp1968
g6
g1632
sg8
g9
(g13
S'htN\x17\xb2=\x1f@'
p1969
tp1970
Rp1971
sg19
I0
sg20
g21
(S'\x07\xdd\t\x1d\x129\x15\x04&;'
p1972
tp1973
Rp1974
sg25
I0
sg26
g27
(g28
(I0
tp1975
g30
tp1976
Rp1977
(I1
(I2
tp1978
g36
I00
S'\xd0\x00\x00\x00m\x00\x00\x00'
p1979
tp1980
bsba(i__main__
FrameData
p1981
(dp1982
g6
g1632
sg8
g9
(g13
S'\xf3YaD+\xd8\x1c@'
p1983
tp1984
Rp1985
sg19
I0
sg20
g21
(S'\x07\xdd\t\x1d\x129\x15\x04l\xea'
p1986
tp1987
Rp1988
sg25
I0
sg26
g27
(g28
(I0
tp1989
g30
tp1990
Rp1991
(I1
(I2
tp1992
g36
I00
S'\xd0\x00\x00\x00n\x00\x00\x00'
p1993
tp1994
bsba(i__main__
FrameData
p1995
(dp1996
g6
g1632
sg8
g9
(g13
S'\xfc\xeeci3\xd5\x1a@'
p1997
tp1998
Rp1999
sg19
I0
sg20
g21
(S'\x07\xdd\t\x1d\x129\x15\x04\xa9\xbb'
p2000
tp2001
Rp2002
sg25
I0
sg26
g27
(g28
(I0
tp2003
g30
tp2004
Rp2005
(I1
(I2
tp2006
g36
I00
S'\xd0\x00\x00\x00o\x00\x00\x00'
p2007
tp2008
bsba(i__main__
FrameData
p2009
(dp2010
g6
g1632
sg8
g9
(g13
S'S[\xda:XL\x19@'
p2011
tp2012
Rp2013
sg19
I0
sg20
g21
(S'\x07\xdd\t\x1d\x129\x15\x04\xf9A'
p2014
tp2015
Rp2016
sg25
I0
sg26
g27
(g28
(I0
tp2017
g30
tp2018
Rp2019
(I1
(I2
tp2020
g36
I00
S'\xd0\x00\x00\x00p\x00\x00\x00'
p2021
tp2022
bsba(i__main__
FrameData
p2023
(dp2024
g6
g1632
sg8
g9
(g13
S'\xf6/\x12_ee\x14@'
p2025
tp2026
Rp2027
sg19
I0
sg20
g21
(S'\x07\xdd\t\x1d\x129\x15\x05v.'
p2028
tp2029
Rp2030
sg25
I0
sg26
g27
(g28
(I0
tp2031
g30
tp2032
Rp2033
(I1
(I2
tp2034
g36
I00
S'\xd1\x00\x00\x00q\x00\x00\x00'
p2035
tp2036
bsba(i__main__
FrameData
p2037
(dp2038
g6
g1632
sg8
g9
(g13
S'\x07\xed\xaff\x0f~\x10@'
p2039
tp2040
Rp2041
sg19
I0
sg20
g21
(S'\x07\xdd\t\x1d\x129\x15\x061\xc7'
p2042
tp2043
Rp2044
sg25
I0
sg26
g27
(g28
(I0
tp2045
g30
tp2046
Rp2047
(I1
(I2
tp2048
g36
I00
S'\xd2\x00\x00\x00q\x00\x00\x00'
p2049
tp2050
bsba(i__main__
FrameData
p2051
(dp2052
g6
g1632
sg8
g9
(g13
S'\x00\x00\x00\x00\x00\x00\x10@'
p2053
tp2054
Rp2055
sg19
I0
sg20
g21
(S'\x07\xdd\t\x1d\x129\x15\x06\x8f\x9b'
p2056
tp2057
Rp2058
sg25
I0
sg26
g27
(g28
(I0
tp2059
g30
tp2060
Rp2061
(I1
(I2
tp2062
g36
I00
S'\xd2\x00\x00\x00r\x00\x00\x00'
p2063
tp2064
bsba(i__main__
FrameData
p2065
(dp2066
g6
g1632
sg8
g9
(g13
S'\x00\x00\x00\x00\x00\x00\x00@'
p2067
tp2068
Rp2069
sg19
I0
sg20
g21
(S'\x07\xdd\t\x1d\x129\x15\x06\xc1\x83'
p2070
tp2071
Rp2072
sg25
I0
sg26
g27
(g28
(I0
tp2073
g30
tp2074
Rp2075
(I1
(I2
tp2076
g36
I00
S'\xd4\x00\x00\x00r\x00\x00\x00'
p2077
tp2078
bsba(i__main__
FrameData
p2079
(dp2080
g6
g1632
sg8
g9
(g13
S'\x00\x00\x00\x00\x00\x00\xf0?'
p2081
tp2082
Rp2083
sg19
I0
sg20
g21
(S'\x07\xdd\t\x1d\x129\x15\x075\xb7'
p2084
tp2085
Rp2086
sg25
I0
sg26
g27
(g28
(I0
tp2087
g30
tp2088
Rp2089
(I1
(I2
tp2090
g36
I00
S'\xd5\x00\x00\x00r\x00\x00\x00'
p2091
tp2092
bsba(i__main__
FrameData
p2093
(dp2094
g6
g1632
sg8
g9
(g13
S'\x00\x00\x00\x00\x00\x00\x00\x00'
p2095
tp2096
Rp2097
sg19
I0
sg20
g21
(S'\x07\xdd\t\x1d\x129\x15\x07w`'
p2098
tp2099
Rp2100
sg25
I0
sg26
g27
(g28
(I0
tp2101
g30
tp2102
Rp2103
(I1
(I2
tp2104
g36
I00
S'\xd6\x00\x00\x00r\x00\x00\x00'
p2105
tp2106
bsba(i__main__
FrameData
p2107
(dp2108
g6
g1632
sg8
g9
(g13
S'\x00\x00\x00\x00\x00\x00\xf0?'
p2109
tp2110
Rp2111
sg19
I0
sg20
g21
(S'\x07\xdd\t\x1d\x129\x15\x07\xc8\n'
p2112
tp2113
Rp2114
sg25
I0
sg26
g27
(g28
(I0
tp2115
g30
tp2116
Rp2117
(I1
(I2
tp2118
g36
I00
S'\xd7\x00\x00\x00r\x00\x00\x00'
p2119
tp2120
bsba(i__main__
FrameData
p2121
(dp2122
g6
g1632
sg8
g9
(g13
S'\x00\x00\x00\x00\x00\x00\x00@'
p2123
tp2124
Rp2125
sg19
I0
sg20
g21
(S'\x07\xdd\t\x1d\x129\x15\x07\xf8\xf8'
p2126
tp2127
Rp2128
sg25
I0
sg26
g27
(g28
(I0
tp2129
g30
tp2130
Rp2131
(I1
(I2
tp2132
g36
I00
S'\xd8\x00\x00\x00r\x00\x00\x00'
p2133
tp2134
bsba(i__main__
FrameData
p2135
(dp2136
g6
g1632
sg8
g9
(g13
S'\x00\x00\x00\x00\x00\x00\x08@'
p2137
tp2138
Rp2139
sg19
I0
sg20
g21
(S'\x07\xdd\t\x1d\x129\x15\x08\x83{'
p2140
tp2141
Rp2142
sg25
I0
sg26
g27
(g28
(I0
tp2143
g30
tp2144
Rp2145
(I1
(I2
tp2146
g36
I00
S'\xd9\x00\x00\x00r\x00\x00\x00'
p2147
tp2148
bsba(i__main__
FrameData
p2149
(dp2150
g6
g1632
sg8
g9
(g13
S'\x00\x00\x00\x00\x00\x00\x10@'
p2151
tp2152
Rp2153
sg19
I0
sg20
g21
(S'\x07\xdd\t\x1d\x129\x15\x08\xc2)'
p2154
tp2155
Rp2156
sg25
I0
sg26
g27
(g28
(I0
tp2157
g30
tp2158
Rp2159
(I1
(I2
tp2160
g36
I00
S'\xda\x00\x00\x00r\x00\x00\x00'
p2161
tp2162
bsba(i__main__
FrameData
p2163
(dp2164
g6
g1632
sg8
g9
(g13
S'\x00\x00\x00\x00\x00\x00\x14@'
p2165
tp2166
Rp2167
sg19
I0
sg20
g21
(S'\x07\xdd\t\x1d\x129\x15\t?*'
p2168
tp2169
Rp2170
sg25
I0
sg26
g27
(g28
(I0
tp2171
g30
tp2172
Rp2173
(I1
(I2
tp2174
g36
I00
S'\xdb\x00\x00\x00r\x00\x00\x00'
p2175
tp2176
bsba(i__main__
FrameData
p2177
(dp2178
g6
g1632
sg8
g9
(g13
S'\xf6/\x12_ee\x14@'
p2179
tp2180
Rp2181
sg19
I0
sg20
g21
(S'\x07\xdd\t\x1d\x129\x15\t\x9d\x92'
p2182
tp2183
Rp2184
sg25
I0
sg26
g27
(g28
(I0
tp2185
g30
tp2186
Rp2187
(I1
(I2
tp2188
g36
I00
S'\xdb\x00\x00\x00q\x00\x00\x00'
p2189
tp2190
bsba(i__main__
FrameData
p2191
(dp2192
g6
g1632
sg8
g9
(g13
S'\xf3\xd9\xa8\xa4h\x8a\x15@'
p2193
tp2194
Rp2195
sg19
I0
sg20
g21
(S'\x07\xdd\t\x1d\x129\x15\n\x12\xd7'
p2196
tp2197
Rp2198
sg25
I0
sg26
g27
(g28
(I0
tp2199
g30
tp2200
Rp2201
(I1
(I2
tp2202
g36
I00
S'\xdb\x00\x00\x00p\x00\x00\x00'
p2203
tp2204
bsba(i__main__
FrameData
p2205
(dp2206
g6
g1632
sg8
g9
(g13
S'\xa2\xa3\xb3\r\xe5R\x17@'
p2207
tp2208
Rp2209
sg19
I0
sg20
g21
(S'\x07\xdd\t\x1d\x129\x15\nDT'
p2210
tp2211
Rp2212
sg25
I0
sg26
g27
(g28
(I0
tp2213
g30
tp2214
Rp2215
(I1
(I2
tp2216
g36
I00
S'\xdb\x00\x00\x00o\x00\x00\x00'
p2217
tp2218
bsba(i__main__
FrameData
p2219
(dp2220
g6
g1632
sg8
g9
(g13
S'\x00\xff\x9f\x99\xcc\x9c\x19@'
p2221
tp2222
Rp2223
sg19
I0
sg20
g21
(S'\x07\xdd\t\x1d\x129\x15\n\xd5M'
p2224
tp2225
Rp2226
sg25
I0
sg26
g27
(g28
(I0
tp2227
g30
tp2228
Rp2229
(I1
(I2
tp2230
g36
I00
S'\xdb\x00\x00\x00n\x00\x00\x00'
p2231
tp2232
bsba(i__main__
FrameData
p2233
(dp2234
g6
g1632
sg8
g9
(g13
S'\xc0\n\x1f\x00\xc6H\x1c@'
p2235
tp2236
Rp2237
sg19
I0
sg20
g21
(S'\x07\xdd\t\x1d\x129\x15\x0bh\x9f'
p2238
tp2239
Rp2240
sg25
I0
sg26
g27
(g28
(I0
tp2241
g30
tp2242
Rp2243
(I1
(I2
tp2244
g36
I00
S'\xdb\x00\x00\x00m\x00\x00\x00'
p2245
tp2246
bsba(i__main__
FrameData
p2247
(dp2248
g6
g1632
sg8
g9
(g13
S'\x00\xff\x9f\x99\xcc\x9c\x19@'
p2249
tp2250
Rp2251
sg19
I0
sg20
g21
(S'\x07\xdd\t\x1d\x129\x15\x0cN\x02'
p2252
tp2253
Rp2254
sg25
I0
sg26
g27
(g28
(I0
tp2255
g30
tp2256
Rp2257
(I1
(I2
tp2258
g36
I00
S'\xda\x00\x00\x00m\x00\x00\x00'
p2259
tp2260
bsba(i__main__
FrameData
p2261
(dp2262
g6
g1632
sg8
g9
(g13
S'\xa2\xa3\xb3\r\xe5R\x17@'
p2263
tp2264
Rp2265
sg19
I0
sg20
g21
(S'\x07\xdd\t\x1d\x129\x15\x0c\xe2S'
p2266
tp2267
Rp2268
sg25
I0
sg26
g27
(g28
(I0
tp2269
g30
tp2270
Rp2271
(I1
(I2
tp2272
g36
I00
S'\xd9\x00\x00\x00m\x00\x00\x00'
p2273
tp2274
bsba(i__main__
FrameData
p2275
(dp2276
g6
g1632
sg8
g9
(g13
S'\x00\x00\x00\x00\x00\x00\x14@'
p2277
tp2278
Rp2279
sg19
I0
sg20
g21
(S'\x07\xdd\t\x1d\x129\x15\rVY'
p2280
tp2281
Rp2282
sg25
I0
sg26
g27
(g28
(I0
tp2283
g30
tp2284
Rp2285
(I1
(I2
tp2286
g36
I00
S'\xd9\x00\x00\x00n\x00\x00\x00'
p2287
tp2288
bsba(i__main__
FrameData
p2289
(dp2290
g6
g1632
sg8
g9
(g13
S'\xf3YaD+\xd8\x0c@'
p2291
tp2292
Rp2293
sg19
I0
sg20
g21
(S'\x07\xdd\t\x1d\x129\x15\r\xa5\x81'
p2294
tp2295
Rp2296
sg25
I0
sg26
g27
(g28
(I0
tp2297
g30
tp2298
Rp2299
(I1
(I2
tp2300
g36
I00
S'\xd8\x00\x00\x00o\x00\x00\x00'
p2301
tp2302
bsba(i__main__
FrameData
p2303
(dp2304
g6
g1632
sg8
g9
(g13
S'\xcd;\x7ff\x9e\xa0\x06@'
p2305
tp2306
Rp2307
sg19
I0
sg20
g21
(S'\x07\xdd\t\x1d\x129\x15\r\xd6U'
p2308
tp2309
Rp2310
sg25
I0
sg26
g27
(g28
(I0
tp2311
g30
tp2312
Rp2313
(I1
(I2
tp2314
g36
I00
S'\xd8\x00\x00\x00p\x00\x00\x00'
p2315
tp2316
bsba(i__main__
FrameData
p2317
(dp2318
g6
g1632
sg8
g9
(g13
S'\xa8\xf4\x97\x9bw\xe3\x01@'
p2319
tp2320
Rp2321
sg19
I0
sg20
g21
(S'\x07\xdd\t\x1d\x129\x15\x0edQ'
p2322
tp2323
Rp2324
sg25
I0
sg26
g27
(g28
(I0
tp2325
g30
tp2326
Rp2327
(I1
(I2
tp2328
g36
I00
S'\xd8\x00\x00\x00q\x00\x00\x00'
p2329
tp2330
bsba(i__main__
FrameData
p2331
(dp2332
g6
g1632
sg8
g9
(g13
S'\x00\x00\x00\x00\x00\x00\xf0?'
p2333
tp2334
Rp2335
sg19
I0
sg20
g21
(S'\x07\xdd\t\x1d\x129\x15\x0f\x1c\xcb'
p2336
tp2337
Rp2338
sg25
I0
sg26
g27
(g28
(I0
tp2339
g30
tp2340
Rp2341
(I1
(I2
tp2342
g36
I00
S'\xd6\x00\x00\x00q\x00\x00\x00'
p2343
tp2344
bsba(i__main__
FrameData
p2345
(dp2346
g6
g1632
sg8
g9
(g13
S'\xcd;\x7ff\x9e\xa0\xf6?'
p2347
tp2348
Rp2349
sg19
I0
sg20
g21
(S'\x07\xdd\t\x1d\x129\x16\x00i\xd7'
p2350
tp2351
Rp2352
sg25
I0
sg26
g27
(g28
(I0
tp2353
g30
tp2354
Rp2355
(I1
(I2
tp2356
g36
I00
S'\xd5\x00\x00\x00q\x00\x00\x00'
p2357
tp2358
bsba(i__main__
FrameData
p2359
(dp2360
g6
g1632
sg8
g9
(g13
S'\xa8\xf4\x97\x9bw\xe3\x01@'
p2361
tp2362
Rp2363
sg19
I0
sg20
g21
(S'\x07\xdd\t\x1d\x129\x16\x01-\x1d'
p2364
tp2365
Rp2366
sg25
I0
sg26
g27
(g28
(I0
tp2367
g30
tp2368
Rp2369
(I1
(I2
tp2370
g36
I00
S'\xd4\x00\x00\x00q\x00\x00\x00'
p2371
tp2372
bsba(i__main__
FrameData
p2373
(dp2374
g6
g1632
sg8
g9
(g13
S'\xcd;\x7ff\x9e\xa0\x06@'
p2375
tp2376
Rp2377
sg19
I0
sg20
g21
(S'\x07\xdd\t\x1d\x129\x16\x01{\x92'
p2378
tp2379
Rp2380
sg25
I0
sg26
g27
(g28
(I0
tp2381
g30
tp2382
Rp2383
(I1
(I2
tp2384
g36
I00
S'\xd4\x00\x00\x00p\x00\x00\x00'
p2385
tp2386
bsba(i__main__
FrameData
p2387
(dp2388
g6
g1632
sg8
g9
(g13
S'\xf3YaD+\xd8\x0c@'
p2389
tp2390
Rp2391
sg19
I0
sg20
g21
(S'\x07\xdd\t\x1d\x129\x16\x01\xc9\x8c'
p2392
tp2393
Rp2394
sg25
I0
sg26
g27
(g28
(I0
tp2395
g30
tp2396
Rp2397
(I1
(I2
tp2398
g36
I00
S'\xd4\x00\x00\x00o\x00\x00\x00'
p2399
tp2400
bsba(i__main__
FrameData
p2401
(dp2402
g6
g1632
sg8
g9
(g13
S'\xf3\xd9\xa8\xa4h\x8a\x15@'
p2403
tp2404
Rp2405
sg19
I0
sg20
g21
(S'\x07\xdd\t\x1d\x129\x16\x01\xf0\x9c'
p2406
tp2407
Rp2408
sg25
I0
sg26
g27
(g28
(I0
tp2409
g30
tp2410
Rp2411
(I1
(I2
tp2412
g36
I00
S'\xd4\x00\x00\x00m\x00\x00\x00'
p2413
tp2414
bsba(i__main__
FrameData
p2415
(dp2416
g6
g1632
sg8
g9
(g13
S'\xe9\xfbv \xd5\x1e\x1d@'
p2417
tp2418
Rp2419
sg19
I0
sg20
g21
(S'\x07\xdd\t\x1d\x129\x16\x02&<'
p2420
tp2421
Rp2422
sg25
I0
sg26
g27
(g28
(I0
tp2423
g30
tp2424
Rp2425
(I1
(I2
tp2426
g36
I00
S'\xd4\x00\x00\x00k\x00\x00\x00'
p2427
tp2428
bsba(i__main__
FrameData
p2429
(dp2430
g6
g1632
sg8
g9
(g13
S'\x07\xed\xaff\x0f~ @'
p2431
tp2432
Rp2433
sg19
I0
sg20
g21
(S'\x07\xdd\t\x1d\x129\x16\x02\x85\x04'
p2434
tp2435
Rp2436
sg25
I0
sg26
g27
(g28
(I0
tp2437
g30
tp2438
Rp2439
(I1
(I2
tp2440
g36
I00
S'\xd4\x00\x00\x00j\x00\x00\x00'
p2441
tp2442
bsba(i__main__
FrameData
p2443
(dp2444
g6
g1632
sg8
g9
(g13
S'~\xc4#,B\xf9"@'
p2445
tp2446
Rp2447
sg19
I0
sg20
g21
(S'\x07\xdd\t\x1d\x129\x16\x02\xb3\xdc'
p2448
tp2449
Rp2450
sg25
I0
sg26
g27
(g28
(I0
tp2451
g30
tp2452
Rp2453
(I1
(I2
tp2454
g36
I00
S'\xd3\x00\x00\x00i\x00\x00\x00'
p2455
tp2456
bsba(i__main__
FrameData
p2457
(dp2458
g6
g1632
sg8
g9
(g13
S'\xeb\x12\xb2\xbb\xb2\xcd&@'
p2459
tp2460
Rp2461
sg19
I0
sg20
g21
(S'\x07\xdd\t\x1d\x129\x16\x03\x02\x13'
p2462
tp2463
Rp2464
sg25
I0
sg26
g27
(g28
(I0
tp2465
g30
tp2466
Rp2467
(I1
(I2
tp2468
g36
I00
S'\xd3\x00\x00\x00g\x00\x00\x00'
p2469
tp2470
bsba(i__main__
FrameData
p2471
(dp2472
g6
g1632
sg8
g9
(g13
S'S[\xda:XL)@'
p2473
tp2474
Rp2475
sg19
I0
sg20
g21
(S'\x07\xdd\t\x1d\x129\x16\x03)A'
p2476
tp2477
Rp2478
sg25
I0
sg26
g27
(g28
(I0
tp2479
g30
tp2480
Rp2481
(I1
(I2
tp2482
g36
I00
S'\xd2\x00\x00\x00f\x00\x00\x00'
p2483
tp2484
bsba(i__main__
FrameData
p2485
(dp2486
g6
g1632
sg8
g9
(g13
S'\xe9\xfbv \xd5\x1e-@'
p2487
tp2488
Rp2489
sg19
I0
sg20
g21
(S'\x07\xdd\t\x1d\x129\x16\x03l\x05'
p2490
tp2491
Rp2492
sg25
I0
sg26
g27
(g28
(I0
tp2493
g30
tp2494
Rp2495
(I1
(I2
tp2496
g36
I00
S'\xd2\x00\x00\x00d\x00\x00\x00'
p2497
tp2498
bsba(i__main__
FrameData
p2499
(dp2500
g6
g1632
sg8
g9
(g13
S'\x07\xed\xaff\x0f~0@'
p2501
tp2502
Rp2503
sg19
I0
sg20
g21
(S'\x07\xdd\t\x1d\x129\x16\x03\xb5('
p2504
tp2505
Rp2506
sg25
I0
sg26
g27
(g28
(I0
tp2507
g30
tp2508
Rp2509
(I1
(I2
tp2510
g36
I00
S'\xd2\x00\x00\x00b\x00\x00\x00'
p2511
tp2512
bsba(i__main__
FrameData
p2513
(dp2514
g6
g1632
sg8
g9
(g13
S'W\xb2\xdb\x1a\x9a\xa53@'
p2515
tp2516
Rp2517
sg19
I0
sg20
g21
(S'\x07\xdd\t\x1d\x129\x16\x03\xed\x10'
p2518
tp2519
Rp2520
sg25
I0
sg26
g27
(g28
(I0
tp2521
g30
tp2522
Rp2523
(I1
(I2
tp2524
g36
I00
S'\xd1\x00\x00\x00_\x00\x00\x00'
p2525
tp2526
bsba(i__main__
FrameData
p2527
(dp2528
g6
S'o'
p2529
sg8
g9
(g13
S'\xaa\xd9\xb1\xd3\x8d\x8d0@'
p2530
tp2531
Rp2532
sg19
I0
sg20
g21
(S'\x07\xdd\t\x1d\x129\x16\x04:R'
p2533
tp2534
Rp2535
sg25
I0
sg26
g27
(g28
(I0
tp2536
g30
tp2537
Rp2538
(I1
(I2
tp2539
g36
I00
S'\xd1\x00\x00\x00Z\x00\x00\x00'
p2540
tp2541
bsba(i__main__
FrameData
p2542
(dp2543
g6
g2529
sg8
g9
(g13
S'\xf7\x80Aq\xb9\xa2,@'
p2544
tp2545
Rp2546
sg19
I0
sg20
g21
(S'\x07\xdd\t\x1d\x129\x16\x04s\xab'
p2547
tp2548
Rp2549
sg25
I0
sg26
g27
(g28
(I0
tp2550
g30
tp2551
Rp2552
(I1
(I2
tp2553
g36
I00
S'\xd0\x00\x00\x00X\x00\x00\x00'
p2554
tp2555
bsba(i__main__
FrameData
p2556
(dp2557
g6
g2529
sg8
g9
(g13
S'\xfc\xeeci3\xd5*@'
p2558
tp2559
Rp2560
sg19
I0
sg20
g21
(S'\x07\xdd\t\x1d\x129\x16\x04\xc3\x95'
p2561
tp2562
Rp2563
sg25
I0
sg26
g27
(g28
(I0
tp2564
g30
tp2565
Rp2566
(I1
(I2
tp2567
g36
I00
S'\xd0\x00\x00\x00W\x00\x00\x00'
p2568
tp2569
bsba(i__main__
FrameData
p2570
(dp2571
g6
g2529
sg8
g9
(g13
S'w\x03Is \xa2%@'
p2572
tp2573
Rp2574
sg19
I0
sg20
g21
(S'\x07\xdd\t\x1d\x129\x16\x04\xfa\xbf'
p2575
tp2576
Rp2577
sg25
I0
sg26
g27
(g28
(I0
tp2578
g30
tp2579
Rp2580
(I1
(I2
tp2581
g36
I00
S'\xd0\x00\x00\x00T\x00\x00\x00'
p2582
tp2583
bsba(i__main__
FrameData
p2584
(dp2585
g6
g2529
sg8
g9
(g13
S'\x00\x00\x00\x00\x00\x00$@'
p2586
tp2587
Rp2588
sg19
I0
sg20
g21
(S'\x07\xdd\t\x1d\x129\x16\x05H\xd9'
p2589
tp2590
Rp2591
sg25
I0
sg26
g27
(g28
(I0
tp2592
g30
tp2593
Rp2594
(I1
(I2
tp2595
g36
I00
S'\xd0\x00\x00\x00S\x00\x00\x00'
p2596
tp2597
bsba(i__main__
FrameData
p2598
(dp2599
g6
g2529
sg8
g9
(g13
S'htN\x17\xb2=\x1f@'
p2600
tp2601
Rp2602
sg19
I0
sg20
g21
(S'\x07\xdd\t\x1d\x129\x16\x05\x86\x9e'
p2603
tp2604
Rp2605
sg25
I0
sg26
g27
(g28
(I0
tp2606
g30
tp2607
Rp2608
(I1
(I2
tp2609
g36
I00
S'\xd0\x00\x00\x00P\x00\x00\x00'
p2610
tp2611
bsba(i__main__
FrameData
p2612
(dp2613
g6
g2529
sg8
g9
(g13
S'\x00\xff\x9f\x99\xcc\x9c\x19@'
p2614
tp2615
Rp2616
sg19
I0
sg20
g21
(S'\x07\xdd\t\x1d\x129\x16\x05\xc0\xed'
p2617
tp2618
Rp2619
sg25
I0
sg26
g27
(g28
(I0
tp2620
g30
tp2621
Rp2622
(I1
(I2
tp2623
g36
I00
S'\xcf\x00\x00\x00O\x00\x00\x00'
p2624
tp2625
bsba(i__main__
FrameData
p2626
(dp2627
g6
g2529
sg8
g9
(g13
S'\xa2\xa3\xb3\r\xe5R\x17@'
p2628
tp2629
Rp2630
sg19
I0
sg20
g21
(S'\x07\xdd\t\x1d\x129\x16\x06\x03\xc2'
p2631
tp2632
Rp2633
sg25
I0
sg26
g27
(g28
(I0
tp2634
g30
tp2635
Rp2636
(I1
(I2
tp2637
g36
I00
S'\xcf\x00\x00\x00N\x00\x00\x00'
p2638
tp2639
bsba(i__main__
FrameData
p2640
(dp2641
g6
g2529
sg8
g9
(g13
S'\xf3\xd9\xa8\xa4h\x8a\x15@'
p2642
tp2643
Rp2644
sg19
I0
sg20
g21
(S'\x07\xdd\t\x1d\x129\x16\x06\x7f\x94'
p2645
tp2646
Rp2647
sg25
I0
sg26
g27
(g28
(I0
tp2648
g30
tp2649
Rp2650
(I1
(I2
tp2651
g36
I00
S'\xcf\x00\x00\x00M\x00\x00\x00'
p2652
tp2653
bsba(i__main__
FrameData
p2654
(dp2655
g6
g2529
sg8
g9
(g13
S'\xa8\xf4\x97\x9bw\xe3\x11@'
p2656
tp2657
Rp2658
sg19
I0
sg20
g21
(S'\x07\xdd\t\x1d\x129\x16\x06\xbfF'
p2659
tp2660
Rp2661
sg25
I0
sg26
g27
(g28
(I0
tp2662
g30
tp2663
Rp2664
(I1
(I2
tp2665
g36
I00
S'\xce\x00\x00\x00M\x00\x00\x00'
p2666
tp2667
bsba(i__main__
FrameData
p2668
(dp2669
g6
g2529
sg8
g9
(g13
S'\x07\xed\xaff\x0f~\x10@'
p2670
tp2671
Rp2672
sg19
I0
sg20
g21
(S'\x07\xdd\t\x1d\x129\x16\x07G\xbb'
p2673
tp2674
Rp2675
sg25
I0
sg26
g27
(g28
(I0
tp2676
g30
tp2677
Rp2678
(I1
(I2
tp2679
g36
I00
S'\xce\x00\x00\x00L\x00\x00\x00'
p2680
tp2681
bsba(i__main__
FrameData
p2682
(dp2683
g6
g2529
sg8
g9
(g13
S'S[\xda:XL\t@'
p2684
tp2685
Rp2686
sg19
I0
sg20
g21
(S'\x07\xdd\t\x1d\x129\x16\x07\xc1\x8d'
p2687
tp2688
Rp2689
sg25
I0
sg26
g27
(g28
(I0
tp2690
g30
tp2691
Rp2692
(I1
(I2
tp2693
g36
I00
S'\xcd\x00\x00\x00L\x00\x00\x00'
p2694
tp2695
bsba(i__main__
FrameData
p2696
(dp2697
g6
g2529
sg8
g9
(g13
S'\x00\x00\x00\x00\x00\x00\x08@'
p2698
tp2699
Rp2700
sg19
I0
sg20
g21
(S'\x07\xdd\t\x1d\x129\x16\x08\n\xee'
p2701
tp2702
Rp2703
sg25
I0
sg26
g27
(g28
(I0
tp2704
g30
tp2705
Rp2706
(I1
(I2
tp2707
g36
I00
S'\xcd\x00\x00\x00K\x00\x00\x00'
p2708
tp2709
bsbasS'_fileName'
p2710
S'training/trajectory2013-09-29_18:57:11.101699'
p2711
sS'word'
p2712
S'hello'
p2713
sb.