(i__main__
SwypeTrajectory
p0
(dp1
S'_frameDataList'
p2
(lp3
(i__main__
FrameData
p4
(dp5
S'closestLetter'
p6
S't'
p7
sS'letterDistance'
p8
cnumpy.core.multiarray
scalar
p9
(cnumpy
dtype
p10
(S'f8'
p11
I0
I1
tp12
Rp13
(I3
S'<'
p14
NNNI-1
I-1
I0
tp15
bS'\xc0\n\x1f\x00\xc6H\x1c@'
p16
tp17
Rp18
sS'accel'
p19
I0
sS'time'
p20
cdatetime
datetime
p21
(S'\x07\xdd\t\x12\n-0\x0e\x16\xdd'
p22
tp23
Rp24
sS'velocity'
p25
I0
sS'position'
p26
cnumpy.core.multiarray
_reconstruct
p27
(cnumpy
ndarray
p28
(I0
tp29
S'b'
p30
tp31
Rp32
(I1
(I2
tp33
g10
(S'i4'
p34
I0
I1
tp35
Rp36
(I3
S'<'
p37
NNNI-1
I-1
I0
tp38
bI00
S'q\x00\x00\x00L\x00\x00\x00'
p39
tp40
bsba(i__main__
FrameData
p41
(dp42
g6
g7
sg8
g9
(g13
S'$\xf8\xd9p[\x1c"@'
p43
tp44
Rp45
sg19
I0
sg20
g21
(S'\x07\xdd\t\x12\n-0\x0ed\x18'
p46
tp47
Rp48
sg25
I0
sg26
g27
(g28
(I0
tp49
g30
tp50
Rp51
(I1
(I2
tp52
g36
I00
S's\x00\x00\x00L\x00\x00\x00'
p53
tp54
bsba(i__main__
FrameData
p55
(dp56
g6
g7
sg8
g9
(g13
S'H\xaa*\x8f9\x17&@'
p57
tp58
Rp59
sg19
I0
sg20
g21
(S'\x07\xdd\t\x12\n-0\x0e\xa9>'
p60
tp61
Rp62
sg25
I0
sg26
g27
(g28
(I0
tp63
g30
tp64
Rp65
(I1
(I2
tp66
g36
I00
S'u\x00\x00\x00L\x00\x00\x00'
p67
tp68
bsba(i__main__
FrameData
p69
(dp70
g6
S'y'
p71
sg8
g9
(g13
S'\x9a.\x90!hp"@'
p72
tp73
Rp74
sg19
I0
sg20
g21
(S'\x07\xdd\t\x12\n-0\x0e\xda\x06'
p75
tp76
Rp77
sg25
I0
sg26
g27
(g28
(I0
tp78
g30
tp79
Rp80
(I1
(I2
tp81
g36
I00
S'y\x00\x00\x00O\x00\x00\x00'
p82
tp83
bsba(i__main__
FrameData
p84
(dp85
g6
g71
sg8
g9
(g13
S'\xd9l\xdf\xccv\xf8 @'
p86
tp87
Rp88
sg19
I0
sg20
g21
(S'\x07\xdd\t\x12\n-0\x0f&\xd0'
p89
tp90
Rp91
sg25
I0
sg26
g27
(g28
(I0
tp92
g30
tp93
Rp94
(I1
(I2
tp95
g36
I00
S'|\x00\x00\x00S\x00\x00\x00'
p96
tp97
bsba(i__main__
FrameData
p98
(dp99
g6
g71
sg8
g9
(g13
S'~\xc4#,B\xf9"@'
p100
tp101
Rp102
sg19
I0
sg20
g21
(S'\x07\xdd\t\x12\n-1\x004='
p103
tp104
Rp105
sg25
I0
sg26
g27
(g28
(I0
tp106
g30
tp107
Rp108
(I1
(I2
tp109
g36
I00
S'\x7f\x00\x00\x00V\x00\x00\x00'
p110
tp111
bsba(i__main__
FrameData
p112
(dp113
g6
g71
sg8
g9
(g13
S'&5w\xe2K\x15(@'
p114
tp115
Rp116
sg19
I0
sg20
g21
(S'\x07\xdd\t\x12\n-1\x00\x81\x8a'
p117
tp118
Rp119
sg25
I0
sg26
g27
(g28
(I0
tp120
g30
tp121
Rp122
(I1
(I2
tp123
g36
I00
S'\x83\x00\x00\x00Y\x00\x00\x00'
p124
tp125
bsba(i__main__
FrameData
p126
(dp127
g6
g71
sg8
g9
(g13
S"'\xf2\x90In\x9f/@"
p128
tp129
Rp130
sg19
I0
sg20
g21
(S'\x07\xdd\t\x12\n-1\x00\xa1\x7f'
p131
tp132
Rp133
sg25
I0
sg26
g27
(g28
(I0
tp134
g30
tp135
Rp136
(I1
(I2
tp137
g36
I00
S'\x87\x00\x00\x00\\\x00\x00\x00'
p138
tp139
bsba(i__main__
FrameData
p140
(dp141
g6
S'h'
p142
sg8
g9
(g13
S'\xc9\xe0>!B<3@'
p143
tp144
Rp145
sg19
I0
sg20
g21
(S'\x07\xdd\t\x12\n-1\x00\xe4\xed'
p146
tp147
Rp148
sg25
I0
sg26
g27
(g28
(I0
tp149
g30
tp150
Rp151
(I1
(I2
tp152
g36
I00
S'\x8d\x00\x00\x00_\x00\x00\x00'
p153
tp154
bsba(i__main__
FrameData
p155
(dp156
g6
g142
sg8
g9
(g13
S')\x9ah\xdd\x85\x071@'
p157
tp158
Rp159
sg19
I0
sg20
g21
(S'\x07\xdd\t\x12\n-1\x01 ,'
p160
tp161
Rp162
sg25
I0
sg26
g27
(g28
(I0
tp163
g30
tp164
Rp165
(I1
(I2
tp166
g36
I00
S'\x8f\x00\x00\x00a\x00\x00\x00'
p167
tp168
bsba(i__main__
FrameData
p169
(dp170
g6
g142
sg8
g9
(g13
S'[y\xf7F\xf7C.@'
p171
tp172
Rp173
sg19
I0
sg20
g21
(S'\x07\xdd\t\x12\n-1\x01a\x19'
p174
tp175
Rp176
sg25
I0
sg26
g27
(g28
(I0
tp177
g30
tp178
Rp179
(I1
(I2
tp180
g36
I00
S'\x92\x00\x00\x00c\x00\x00\x00'
p181
tp182
bsba(i__main__
FrameData
p183
(dp184
g6
g142
sg8
g9
(g13
S'/\xa4\xe3\\m\xbb-@'
p185
tp186
Rp187
sg19
I0
sg20
g21
(S'\x07\xdd\t\x12\n-1\x01\xa9['
p188
tp189
Rp190
sg25
I0
sg26
g27
(g28
(I0
tp191
g30
tp192
Rp193
(I1
(I2
tp194
g36
I00
S'\x95\x00\x00\x00d\x00\x00\x00'
p195
tp196
bsba(i__main__
FrameData
p197
(dp198
g6
g142
sg8
g9
(g13
S'\xb2\xdb]\xe3\x96\x87-@'
p199
tp200
Rp201
sg19
I0
sg20
g21
(S'\x07\xdd\t\x12\n-1\x01\xfcJ'
p202
tp203
Rp204
sg25
I0
sg26
g27
(g28
(I0
tp205
g30
tp206
Rp207
(I1
(I2
tp208
g36
I00
S'\x97\x00\x00\x00e\x00\x00\x00'
p209
tp210
bsba(i__main__
FrameData
p211
(dp212
g6
g142
sg8
g9
(g13
S'\xf3YaD+\xd8,@'
p213
tp214
Rp215
sg19
I0
sg20
g21
(S'\x07\xdd\t\x12\n-1\x02$\xc1'
p216
tp217
Rp218
sg25
I0
sg26
g27
(g28
(I0
tp219
g30
tp220
Rp221
(I1
(I2
tp222
g36
I00
S'\x98\x00\x00\x00f\x00\x00\x00'
p223
tp224
bsba(i__main__
FrameData
p225
(dp226
g6
g142
sg8
g9
(g13
S'?*\x98"\xe3l,@'
p227
tp228
Rp229
sg19
I0
sg20
g21
(S'\x07\xdd\t\x12\n-1\x02d\xb5'
p230
tp231
Rp232
sg25
I0
sg26
g27
(g28
(I0
tp233
g30
tp234
Rp235
(I1
(I2
tp236
g36
I00
S'\x99\x00\x00\x00g\x00\x00\x00'
p237
tp238
bsba(i__main__
FrameData
p239
(dp240
g6
g142
sg8
g9
(g13
S'/\xa4\xe3\\m\xbb-@'
p241
tp242
Rp243
sg19
I0
sg20
g21
(S'\x07\xdd\t\x12\n-1\x02\xc0\xaf'
p244
tp245
Rp246
sg25
I0
sg26
g27
(g28
(I0
tp247
g30
tp248
Rp249
(I1
(I2
tp250
g36
I00
S'\x9a\x00\x00\x00g\x00\x00\x00'
p251
tp252
bsba(i__main__
FrameData
p253
(dp254
g6
g142
sg8
g9
(g13
S'/\xa4\xe3\\m\xbb-@'
p255
tp256
Rp257
sg19
I0
sg20
g21
(S'\x07\xdd\t\x12\n-1\x02\xe8K'
p258
tp259
Rp260
sg25
I0
sg26
g27
(g28
(I0
tp261
g30
tp262
Rp263
(I1
(I2
tp264
g36
I00
S'\x9b\x00\x00\x00h\x00\x00\x00'
p265
tp266
bsba(i__main__
FrameData
p267
(dp268
g6
S'j'
p269
sg8
g9
(g13
S'?*\x98"\xe3l,@'
p270
tp271
Rp272
sg19
I0
sg20
g21
(S'\x07\xdd\t\x12\n-1\x035\xfa'
p273
tp274
Rp275
sg25
I0
sg26
g27
(g28
(I0
tp276
g30
tp277
Rp278
(I1
(I2
tp279
g36
I00
S'\x9c\x00\x00\x00i\x00\x00\x00'
p280
tp281
bsba(i__main__
FrameData
p282
(dp283
g6
g269
sg8
g9
(g13
S'Qf\x99\xcb\xa9\x13*@'
p284
tp285
Rp286
sg19
I0
sg20
g21
(S'\x07\xdd\t\x12\n-1\x03\xb6\xeb'
p287
tp288
Rp289
sg25
I0
sg26
g27
(g28
(I0
tp290
g30
tp291
Rp292
(I1
(I2
tp293
g36
I00
S'\x9c\x00\x00\x00k\x00\x00\x00'
p294
tp295
bsba(i__main__
FrameData
p296
(dp297
g6
g269
sg8
g9
(g13
S"\xa2\xa3\xb3\r\xe5R'@"
p298
tp299
Rp300
sg19
I0
sg20
g21
(S'\x07\xdd\t\x12\n-1\x04o\xef'
p301
tp302
Rp303
sg25
I0
sg26
g27
(g28
(I0
tp304
g30
tp305
Rp306
(I1
(I2
tp307
g36
I00
S'\x9d\x00\x00\x00l\x00\x00\x00'
p308
tp309
bsba(i__main__
FrameData
p310
(dp311
g6
g269
sg8
g9
(g13
S'\xd2\xf1}\x82U\\&@'
p312
tp313
Rp314
sg19
I0
sg20
g21
(S'\x07\xdd\t\x12\n-1\x04\xc85'
p315
tp316
Rp317
sg25
I0
sg26
g27
(g28
(I0
tp318
g30
tp319
Rp320
(I1
(I2
tp321
g36
I00
S'\x9d\x00\x00\x00m\x00\x00\x00'
p322
tp323
bsba(i__main__
FrameData
p324
(dp325
g6
g269
sg8
g9
(g13
S'\x88\x80v\xd5\\\x97$@'
p326
tp327
Rp328
sg19
I0
sg20
g21
(S'\x07\xdd\t\x12\n-1\x05\x05\xe4'
p329
tp330
Rp331
sg25
I0
sg26
g27
(g28
(I0
tp332
g30
tp333
Rp334
(I1
(I2
tp335
g36
I00
S'\x9e\x00\x00\x00m\x00\x00\x00'
p336
tp337
bsba(i__main__
FrameData
p338
(dp339
g6
g269
sg8
g9
(g13
S'~\xc4#,B\xf9"@'
p340
tp341
Rp342
sg19
I0
sg20
g21
(S'\x07\xdd\t\x12\n-1\x05:\x87'
p343
tp344
Rp345
sg25
I0
sg26
g27
(g28
(I0
tp346
g30
tp347
Rp348
(I1
(I2
tp349
g36
I00
S'\x9e\x00\x00\x00o\x00\x00\x00'
p350
tp351
bsba(i__main__
FrameData
p352
(dp353
g6
g269
sg8
g9
(g13
S'\x9a.\x90!hp"@'
p354
tp355
Rp356
sg19
I0
sg20
g21
(S'\x07\xdd\t\x12\n-1\x05y\xda'
p357
tp358
Rp359
sg25
I0
sg26
g27
(g28
(I0
tp360
g30
tp361
Rp362
(I1
(I2
tp363
g36
I00
S'\x9e\x00\x00\x00p\x00\x00\x00'
p364
tp365
bsba(i__main__
FrameData
p366
(dp367
g6
g269
sg8
g9
(g13
S'\xd0\xbaa?\xe0\x1f @'
p368
tp369
Rp370
sg19
I0
sg20
g21
(S'\x07\xdd\t\x12\n-1\x05\xbby'
p371
tp372
Rp373
sg25
I0
sg26
g27
(g28
(I0
tp374
g30
tp375
Rp376
(I1
(I2
tp377
g36
I00
S'\x9f\x00\x00\x00q\x00\x00\x00'
p378
tp379
bsba(i__main__
FrameData
p380
(dp381
g6
g269
sg8
g9
(g13
S'\xd0\xbaa?\xe0\x1f @'
p382
tp383
Rp384
sg19
I0
sg20
g21
(S'\x07\xdd\t\x12\n-1\x05\xf7\xf4'
p385
tp386
Rp387
sg25
I0
sg26
g27
(g28
(I0
tp388
g30
tp389
Rp390
(I1
(I2
tp391
g36
I00
S'\x9f\x00\x00\x00s\x00\x00\x00'
p392
tp393
bsba(i__main__
FrameData
p394
(dp395
g6
g269
sg8
g9
(g13
S'\x07\xed\xaff\x0f~ @'
p396
tp397
Rp398
sg19
I0
sg20
g21
(S'\x07\xdd\t\x12\n-1\x069\x10'
p399
tp400
Rp401
sg25
I0
sg26
g27
(g28
(I0
tp402
g30
tp403
Rp404
(I1
(I2
tp405
g36
I00
S'\x9f\x00\x00\x00t\x00\x00\x00'
p406
tp407
bsba(i__main__
FrameData
p408
(dp409
g6
g269
sg8
g9
(g13
S'\xe9\xfbv \xd5\x1e\x1d@'
p410
tp411
Rp412
sg19
I0
sg20
g21
(S'\x07\xdd\t\x12\n-1\x06\x80\x1b'
p413
tp414
Rp415
sg25
I0
sg26
g27
(g28
(I0
tp416
g30
tp417
Rp418
(I1
(I2
tp419
g36
I00
S'\xa0\x00\x00\x00t\x00\x00\x00'
p420
tp421
bsba(i__main__
FrameData
p422
(dp423
g6
g269
sg8
g9
(g13
S'\xd0\xbaa?\xe0\x1f @'
p424
tp425
Rp426
sg19
I0
sg20
g21
(S'\x07\xdd\t\x12\n-1\x07N\x9b'
p427
tp428
Rp429
sg25
I0
sg26
g27
(g28
(I0
tp430
g30
tp431
Rp432
(I1
(I2
tp433
g36
I00
S'\xa0\x00\x00\x00v\x00\x00\x00'
p434
tp435
bsba(i__main__
FrameData
p436
(dp437
g6
g269
sg8
g9
(g13
S'N\x017\xfac4!@'
p438
tp439
Rp440
sg19
I0
sg20
g21
(S'\x07\xdd\t\x12\n-1\x07\xc3\x9d'
p441
tp442
Rp443
sg25
I0
sg26
g27
(g28
(I0
tp444
g30
tp445
Rp446
(I1
(I2
tp447
g36
I00
S'\xa0\x00\x00\x00w\x00\x00\x00'
p448
tp449
bsba(i__main__
FrameData
p450
(dp451
g6
g269
sg8
g9
(g13
S'\x9a.\x90!hp"@'
p452
tp453
Rp454
sg19
I0
sg20
g21
(S'\x07\xdd\t\x12\n-1\x08\x08\x9c'
p455
tp456
Rp457
sg25
I0
sg26
g27
(g28
(I0
tp458
g30
tp459
Rp460
(I1
(I2
tp461
g36
I00
S'\xa0\x00\x00\x00x\x00\x00\x00'
p462
tp463
bsba(i__main__
FrameData
p464
(dp465
g6
g269
sg8
g9
(g13
S'ST\xaf\x99\x8a\xcc#@'
p466
tp467
Rp468
sg19
I0
sg20
g21
(S'\x07\xdd\t\x12\n-1\x08d\xb6'
p469
tp470
Rp471
sg25
I0
sg26
g27
(g28
(I0
tp472
g30
tp473
Rp474
(I1
(I2
tp475
g36
I00
S'\xa0\x00\x00\x00y\x00\x00\x00'
p476
tp477
bsba(i__main__
FrameData
p478
(dp479
g6
g269
sg8
g9
(g13
S'6\xd0\xd2x\xa2B%@'
p480
tp481
Rp482
sg19
I0
sg20
g21
(S'\x07\xdd\t\x12\n-1\x08\x89\xed'
p483
tp484
Rp485
sg25
I0
sg26
g27
(g28
(I0
tp486
g30
tp487
Rp488
(I1
(I2
tp489
g36
I00
S'\xa0\x00\x00\x00z\x00\x00\x00'
p490
tp491
bsba(i__main__
FrameData
p492
(dp493
g6
g269
sg8
g9
(g13
S'\xcd;\x7ff\x9e\xa0&@'
p494
tp495
Rp496
sg19
I0
sg20
g21
(S'\x07\xdd\t\x12\n-1\t\x8dw'
p497
tp498
Rp499
sg25
I0
sg26
g27
(g28
(I0
tp500
g30
tp501
Rp502
(I1
(I2
tp503
g36
I00
S'\x9f\x00\x00\x00z\x00\x00\x00'
p504
tp505
bsba(i__main__
FrameData
p506
(dp507
g6
g269
sg8
g9
(g13
S'&5w\xe2K\x15(@'
p508
tp509
Rp510
sg19
I0
sg20
g21
(S'\x07\xdd\t\x12\n-1\t\xcc\xe3'
p511
tp512
Rp513
sg25
I0
sg26
g27
(g28
(I0
tp514
g30
tp515
Rp516
(I1
(I2
tp517
g36
I00
S'\x9e\x00\x00\x00z\x00\x00\x00'
p518
tp519
bsba(i__main__
FrameData
p520
(dp521
g6
g269
sg8
g9
(g13
S'\x00\xff\x9f\x99\xcc\x9c)@'
p522
tp523
Rp524
sg19
I0
sg20
g21
(S'\x07\xdd\t\x12\n-1\n*<'
p525
tp526
Rp527
sg25
I0
sg26
g27
(g28
(I0
tp528
g30
tp529
Rp530
(I1
(I2
tp531
g36
I00
S'\x9d\x00\x00\x00z\x00\x00\x00'
p532
tp533
bsba(i__main__
FrameData
p534
(dp535
g6
g269
sg8
g9
(g13
S'\xef\rI\xf1\xf33+@'
p536
tp537
Rp538
sg19
I0
sg20
g21
(S'\x07\xdd\t\x12\n-1\nM\xda'
p539
tp540
Rp541
sg25
I0
sg26
g27
(g28
(I0
tp542
g30
tp543
Rp544
(I1
(I2
tp545
g36
I00
S'\x9c\x00\x00\x00z\x00\x00\x00'
p546
tp547
bsba(i__main__
FrameData
p548
(dp549
g6
g142
sg8
g9
(g13
S'\xef\rI\xf1\xf33+@'
p550
tp551
Rp552
sg19
I0
sg20
g21
(S'\x07\xdd\t\x12\n-1\n\x8e\xb7'
p553
tp554
Rp555
sg25
I0
sg26
g27
(g28
(I0
tp556
g30
tp557
Rp558
(I1
(I2
tp559
g36
I00
S'\x9b\x00\x00\x00z\x00\x00\x00'
p560
tp561
bsba(i__main__
FrameData
p562
(dp563
g6
g142
sg8
g9
(g13
S'F\xc3\\\xa8\xc1i(@'
p564
tp565
Rp566
sg19
I0
sg20
g21
(S'\x07\xdd\t\x12\n-1\n\xe6\x7f'
p567
tp568
Rp569
sg25
I0
sg26
g27
(g28
(I0
tp570
g30
tp571
Rp572
(I1
(I2
tp573
g36
I00
S'\x9a\x00\x00\x00y\x00\x00\x00'
p574
tp575
bsba(i__main__
FrameData
p576
(dp577
g6
g142
sg8
g9
(g13
S'w\x03Is \xa2%@'
p578
tp579
Rp580
sg19
I0
sg20
g21
(S'\x07\xdd\t\x12\n-1\x0b\x12\xd1'
p581
tp582
Rp583
sg25
I0
sg26
g27
(g28
(I0
tp584
g30
tp585
Rp586
(I1
(I2
tp587
g36
I00
S'\x99\x00\x00\x00x\x00\x00\x00'
p588
tp589
bsba(i__main__
FrameData
p590
(dp591
g6
g142
sg8
g9
(g13
S'A\x87b\xc62\xde"@'
p592
tp593
Rp594
sg19
I0
sg20
g21
(S'\x07\xdd\t\x12\n-1\x0b\xb0\x1d'
p595
tp596
Rp597
sg25
I0
sg26
g27
(g28
(I0
tp598
g30
tp599
Rp600
(I1
(I2
tp601
g36
I00
S'\x98\x00\x00\x00w\x00\x00\x00'
p602
tp603
bsba(i__main__
FrameData
p604
(dp605
g6
g142
sg8
g9
(g13
S'\xfc\xeeci3\xd5\x1a@'
p606
tp607
Rp608
sg19
I0
sg20
g21
(S'\x07\xdd\t\x12\n-1\x0b\xd7\x90'
p609
tp610
Rp611
sg25
I0
sg26
g27
(g28
(I0
tp612
g30
tp613
Rp614
(I1
(I2
tp615
g36
I00
S'\x96\x00\x00\x00u\x00\x00\x00'
p616
tp617
bsba(i__main__
FrameData
p618
(dp619
g6
g142
sg8
g9
(g13
S'\xa8\xf4\x97\x9bw\xe3\x11@'
p620
tp621
Rp622
sg19
I0
sg20
g21
(S'\x07\xdd\t\x12\n-1\x0c\x1b\xad'
p623
tp624
Rp625
sg25
I0
sg26
g27
(g28
(I0
tp626
g30
tp627
Rp628
(I1
(I2
tp629
g36
I00
S'\x94\x00\x00\x00t\x00\x00\x00'
p630
tp631
bsba(i__main__
FrameData
p632
(dp633
g6
g142
sg8
g9
(g13
S'\x00\x00\x00\x00\x00\x00\x00@'
p634
tp635
Rp636
sg19
I0
sg20
g21
(S"\x07\xdd\t\x12\n-1\x0c]'"
p637
tp638
Rp639
sg25
I0
sg26
g27
(g28
(I0
tp640
g30
tp641
Rp642
(I1
(I2
tp643
g36
I00
S'\x92\x00\x00\x00r\x00\x00\x00'
p644
tp645
bsba(i__main__
FrameData
p646
(dp647
g6
g142
sg8
g9
(g13
S'\xcd;\x7ff\x9e\xa0\x06@'
p648
tp649
Rp650
sg19
I0
sg20
g21
(S'\x07\xdd\t\x12\n-1\x0c\x9a\x96'
p651
tp652
Rp653
sg25
I0
sg26
g27
(g28
(I0
tp654
g30
tp655
Rp656
(I1
(I2
tp657
g36
I00
S'\x8e\x00\x00\x00p\x00\x00\x00'
p658
tp659
bsba(i__main__
FrameData
p660
(dp661
g6
g142
sg8
g9
(g13
S'\x88\x80v\xd5\\\x97$@'
p662
tp663
Rp664
sg19
I0
sg20
g21
(S'\x07\xdd\t\x12\n-1\x0c\xd9\x86'
p665
tp666
Rp667
sg25
I0
sg26
g27
(g28
(I0
tp668
g30
tp669
Rp670
(I1
(I2
tp671
g36
I00
S'\x87\x00\x00\x00m\x00\x00\x00'
p672
tp673
bsba(i__main__
FrameData
p674
(dp675
g6
S'g'
p676
sg8
g9
(g13
S'6\xd0\xd2x\xa2B%@'
p677
tp678
Rp679
sg19
I0
sg20
g21
(S'\x07\xdd\t\x12\n-1\r\x1a\xae'
p680
tp681
Rp682
sg25
I0
sg26
g27
(g28
(I0
tp683
g30
tp684
Rp685
(I1
(I2
tp686
g36
I00
S'\x7f\x00\x00\x00j\x00\x00\x00'
p687
tp688
bsba(i__main__
FrameData
p689
(dp690
g6
g676
sg8
g9
(g13
S'7\xf9\xcf\xdao\xe1$@'
p691
tp692
Rp693
sg19
I0
sg20
g21
(S'\x07\xdd\t\x12\n-1\rZ\x99'
p694
tp695
Rp696
sg25
I0
sg26
g27
(g28
(I0
tp697
g30
tp698
Rp699
(I1
(I2
tp700
g36
I00
S'{\x00\x00\x00h\x00\x00\x00'
p701
tp702
bsba(i__main__
FrameData
p703
(dp704
g6
g676
sg8
g9
(g13
S'\xf7\x80Aq\xb9\xa2,@'
p705
tp706
Rp707
sg19
I0
sg20
g21
(S'\x07\xdd\t\x12\n-1\r\xa3\x1e'
p708
tp709
Rp710
sg25
I0
sg26
g27
(g28
(I0
tp711
g30
tp712
Rp713
(I1
(I2
tp714
g36
I00
S'r\x00\x00\x00e\x00\x00\x00'
p715
tp716
bsba(i__main__
FrameData
p717
(dp718
g6
S'f'
p719
sg8
g9
(g13
S'\xc9\xe0>!B<3@'
p720
tp721
Rp722
sg19
I0
sg20
g21
(S'\x07\xdd\t\x12\n-1\r\xdc\xf4'
p723
tp724
Rp725
sg25
I0
sg26
g27
(g28
(I0
tp726
g30
tp727
Rp728
(I1
(I2
tp729
g36
I00
S'i\x00\x00\x00a\x00\x00\x00'
p730
tp731
bsba(i__main__
FrameData
p732
(dp733
g6
g7
sg8
g9
(g13
S'~\xc4#,B\xf92@'
p734
tp735
Rp736
sg19
I0
sg20
g21
(S'\x07\xdd\t\x12\n-1\x0e+\xed'
p737
tp738
Rp739
sg25
I0
sg26
g27
(g28
(I0
tp740
g30
tp741
Rp742
(I1
(I2
tp743
g36
I00
S'd\x00\x00\x00]\x00\x00\x00'
p744
tp745
bsba(i__main__
FrameData
p746
(dp747
g6
g7
sg8
g9
(g13
S'A\x87b\xc62\xde2@'
p748
tp749
Rp750
sg19
I0
sg20
g21
(S'\x07\xdd\t\x12\n-1\x0ei3'
p751
tp752
Rp753
sg25
I0
sg26
g27
(g28
(I0
tp754
g30
tp755
Rp756
(I1
(I2
tp757
g36
I00
S'`\x00\x00\x00[\x00\x00\x00'
p758
tp759
bsba(i__main__
FrameData
p760
(dp761
g6
S'r'
p762
sg8
g9
(g13
S'\x0f\xab\xa8Q\xb6f0@'
p763
tp764
Rp765
sg19
I0
sg20
g21
(S'\x07\xdd\t\x12\n-1\x0e\xa0\xf3'
p766
tp767
Rp768
sg25
I0
sg26
g27
(g28
(I0
tp769
g30
tp770
Rp771
(I1
(I2
tp772
g36
I00
S'\\\x00\x00\x00X\x00\x00\x00'
p773
tp774
bsba(i__main__
FrameData
p775
(dp776
g6
g762
sg8
g9
(g13
S'\xd2\xf1}\x82U\\&@'
p777
tp778
Rp779
sg19
I0
sg20
g21
(S'\x07\xdd\t\x12\n-1\x0e\xe8\x8c'
p780
tp781
Rp782
sg25
I0
sg26
g27
(g28
(I0
tp783
g30
tp784
Rp785
(I1
(I2
tp786
g36
I00
S'W\x00\x00\x00U\x00\x00\x00'
p787
tp788
bsba(i__main__
FrameData
p789
(dp790
g6
g762
sg8
g9
(g13
S'\xd0\xbaa?\xe0\x1f @'
p791
tp792
Rp793
sg19
I0
sg20
g21
(S'\x07\xdd\t\x12\n-1\x0f4\xc8'
p794
tp795
Rp796
sg25
I0
sg26
g27
(g28
(I0
tp797
g30
tp798
Rp799
(I1
(I2
tp800
g36
I00
S'S\x00\x00\x00S\x00\x00\x00'
p801
tp802
bsba(i__main__
FrameData
p803
(dp804
g6
g762
sg8
g9
(g13
S'\xa2\xa3\xb3\r\xe5R\x17@'
p805
tp806
Rp807
sg19
I0
sg20
g21
(S'\x07\xdd\t\x12\n-2\x00#\x82'
p808
tp809
Rp810
sg25
I0
sg26
g27
(g28
(I0
tp811
g30
tp812
Rp813
(I1
(I2
tp814
g36
I00
S'O\x00\x00\x00P\x00\x00\x00'
p815
tp816
bsba(i__main__
FrameData
p817
(dp818
g6
g762
sg8
g9
(g13
S'\xa8\xf4\x97\x9bw\xe3!@'
p819
tp820
Rp821
sg19
I0
sg20
g21
(S'\x07\xdd\t\x12\n-2\x00p\x85'
p822
tp823
Rp824
sg25
I0
sg26
g27
(g28
(I0
tp825
g30
tp826
Rp827
(I1
(I2
tp828
g36
I00
S'J\x00\x00\x00O\x00\x00\x00'
p829
tp830
bsba(i__main__
FrameData
p831
(dp832
g6
g762
sg8
g9
(g13
S'\xd2\xf1}\x82U\\&@'
p833
tp834
Rp835
sg19
I0
sg20
g21
(S'\x07\xdd\t\x12\n-2\x00\xa6\xb7'
p836
tp837
Rp838
sg25
I0
sg26
g27
(g28
(I0
tp839
g30
tp840
Rp841
(I1
(I2
tp842
g36
I00
S'G\x00\x00\x00M\x00\x00\x00'
p843
tp844
bsba(i__main__
FrameData
p845
(dp846
g6
S'e'
p847
sg8
g9
(g13
S'\x00\x00\x00\x00\x00\x00$@'
p848
tp849
Rp850
sg19
I0
sg20
g21
(S'\x07\xdd\t\x12\n-2\x00\xec~'
p851
tp852
Rp853
sg25
I0
sg26
g27
(g28
(I0
tp854
g30
tp855
Rp856
(I1
(I2
tp857
g36
I00
S'E\x00\x00\x00L\x00\x00\x00'
p858
tp859
bsba(i__main__
FrameData
p860
(dp861
g6
g847
sg8
g9
(g13
S'\x00\x00\x00\x00\x00\x00 @'
p862
tp863
Rp864
sg19
I0
sg20
g21
(S'\x07\xdd\t\x12\n-2\x01:\xf2'
p865
tp866
Rp867
sg25
I0
sg26
g27
(g28
(I0
tp868
g30
tp869
Rp870
(I1
(I2
tp871
g36
I00
S'C\x00\x00\x00L\x00\x00\x00'
p872
tp873
bsba(i__main__
FrameData
p874
(dp875
g6
g847
sg8
g9
(g13
S'9\xdcc\xb3\xbfT\x18@'
p876
tp877
Rp878
sg19
I0
sg20
g21
(S'\x07\xdd\t\x12\n-2\x01\xa9\x92'
p879
tp880
Rp881
sg25
I0
sg26
g27
(g28
(I0
tp882
g30
tp883
Rp884
(I1
(I2
tp885
g36
I00
S'A\x00\x00\x00K\x00\x00\x00'
p886
tp887
bsba(i__main__
FrameData
p888
(dp889
g6
g847
sg8
g9
(g13
S'S[\xda:XL\x19@'
p890
tp891
Rp892
sg19
I0
sg20
g21
(S'\x07\xdd\t\x12\n-2\x01\xf0Q'
p893
tp894
Rp895
sg25
I0
sg26
g27
(g28
(I0
tp896
g30
tp897
Rp898
(I1
(I2
tp899
g36
I00
S'A\x00\x00\x00J\x00\x00\x00'
p900
tp901
bsba(i__main__
FrameData
p902
(dp903
g6
g847
sg8
g9
(g13
S'\xf3\xd9\xa8\xa4h\x8a\x15@'
p904
tp905
Rp906
sg19
I0
sg20
g21
(S'\x07\xdd\t\x12\n-2\x02/,'
p907
tp908
Rp909
sg25
I0
sg26
g27
(g28
(I0
tp910
g30
tp911
Rp912
(I1
(I2
tp913
g36
I00
S'@\x00\x00\x00J\x00\x00\x00'
p914
tp915
bsbasS'_fileName'
p916
S'training/trajectory2013-09-18_10:15:24.660982'
p917
sS'word'
p918
S'the'
p919
sb.