(i__main__
SwypeTrajectory
p0
(dp1
S'_frameDataList'
p2
(lp3
(i__main__
FrameData
p4
(dp5
S'closestLetter'
p6
S'c'
p7
sS'letterDistance'
p8
cnumpy.core.multiarray
scalar
p9
(cnumpy
dtype
p10
(S'f8'
p11
I0
I1
tp12
Rp13
(I3
S'<'
p14
NNNI-1
I-1
I0
tp15
bS'\xcd;\x7ff\x9e\xa0\x06@'
p16
tp17
Rp18
sS'accel'
p19
I0
sS'time'
p20
cdatetime
datetime
p21
(S'\x07\xdd\t\x12\x108\x05\x02\xd4\xe5'
p22
tp23
Rp24
sS'velocity'
p25
I0
sS'position'
p26
cnumpy.core.multiarray
_reconstruct
p27
(cnumpy
ndarray
p28
(I0
tp29
S'b'
p30
tp31
Rp32
(I1
(I2
tp33
g10
(S'i4'
p34
I0
I1
tp35
Rp36
(I3
S'<'
p37
NNNI-1
I-1
I0
tp38
bI00
S'X\x00\x00\x00\x9a\x00\x00\x00'
p39
tp40
bsba(i__main__
FrameData
p41
(dp42
g6
g7
sg8
g9
(g13
S'\xa8\xf4\x97\x9bw\xe3\x11@'
p43
tp44
Rp45
sg19
I0
sg20
g21
(S'\x07\xdd\t\x12\x108\x05\x03\x15:'
p46
tp47
Rp48
sg25
I0
sg26
g27
(g28
(I0
tp49
g30
tp50
Rp51
(I1
(I2
tp52
g36
I00
S'X\x00\x00\x00\x98\x00\x00\x00'
p53
tp54
bsba(i__main__
FrameData
p55
(dp56
g6
g7
sg8
g9
(g13
S'\x07\xed\xaff\x0f~ @'
p57
tp58
Rp59
sg19
I0
sg20
g21
(S'\x07\xdd\t\x12\x108\x05\x03V\x08'
p60
tp61
Rp62
sg25
I0
sg26
g27
(g28
(I0
tp63
g30
tp64
Rp65
(I1
(I2
tp66
g36
I00
S'X\x00\x00\x00\x94\x00\x00\x00'
p67
tp68
bsba(i__main__
FrameData
p69
(dp70
g6
g7
sg8
g9
(g13
S'7\xf9\xcf\xdao\xe1$@'
p71
tp72
Rp73
sg19
I0
sg20
g21
(S'\x07\xdd\t\x12\x108\x05\x03\x9e\xc5'
p74
tp75
Rp76
sg25
I0
sg26
g27
(g28
(I0
tp77
g30
tp78
Rp79
(I1
(I2
tp80
g36
I00
S'W\x00\x00\x00\x92\x00\x00\x00'
p81
tp82
bsba(i__main__
FrameData
p83
(dp84
g6
g7
sg8
g9
(g13
S'\x8a\xe3\x07\x1a\x17\xbd(@'
p85
tp86
Rp87
sg19
I0
sg20
g21
(S'\x07\xdd\t\x12\x108\x05\x03\xd7\\'
p88
tp89
Rp90
sg25
I0
sg26
g27
(g28
(I0
tp91
g30
tp92
Rp93
(I1
(I2
tp94
g36
I00
S'W\x00\x00\x00\x90\x00\x00\x00'
p95
tp96
bsba(i__main__
FrameData
p97
(dp98
g6
g7
sg8
g9
(g13
S'\xe9\xfbv \xd5\x1e-@'
p99
tp100
Rp101
sg19
I0
sg20
g21
(S'\x07\xdd\t\x12\x108\x05\x04\x17\xb2'
p102
tp103
Rp104
sg25
I0
sg26
g27
(g28
(I0
tp105
g30
tp106
Rp107
(I1
(I2
tp108
g36
I00
S'V\x00\x00\x00\x8e\x00\x00\x00'
p109
tp110
bsba(i__main__
FrameData
p111
(dp112
g6
g7
sg8
g9
(g13
S'\xb3\xa73\xa0`\x0c/@'
p113
tp114
Rp115
sg19
I0
sg20
g21
(S'\x07\xdd\t\x12\x108\x05\x04X\x95'
p116
tp117
Rp118
sg25
I0
sg26
g27
(g28
(I0
tp119
g30
tp120
Rp121
(I1
(I2
tp122
g36
I00
S'V\x00\x00\x00\x8d\x00\x00\x00'
p123
tp124
bsba(i__main__
FrameData
p125
(dp126
g6
g7
sg8
g9
(g13
S'\xa8y\x0c\t\xd9v1@'
p127
tp128
Rp129
sg19
I0
sg20
g21
(S'\x07\xdd\t\x12\x108\x05\x04\x99j'
p130
tp131
Rp132
sg25
I0
sg26
g27
(g28
(I0
tp133
g30
tp134
Rp135
(I1
(I2
tp136
g36
I00
S'V\x00\x00\x00\x8b\x00\x00\x00'
p137
tp138
bsba(i__main__
FrameData
p139
(dp140
g6
g7
sg8
g9
(g13
S'Mm\x9d\x8c\xc3\xec3@'
p141
tp142
Rp143
sg19
I0
sg20
g21
(S'\x07\xdd\t\x12\x108\x05\x04\xde\xfc'
p144
tp145
Rp146
sg25
I0
sg26
g27
(g28
(I0
tp147
g30
tp148
Rp149
(I1
(I2
tp150
g36
I00
S'T\x00\x00\x00\x89\x00\x00\x00'
p151
tp152
bsba(i__main__
FrameData
p153
(dp154
g6
g7
sg8
g9
(g13
S'\xe8\x0f\x7f3\xcd"6@'
p155
tp156
Rp157
sg19
I0
sg20
g21
(S'\x07\xdd\t\x12\x108\x05\x05&='
p158
tp159
Rp160
sg25
I0
sg26
g27
(g28
(I0
tp161
g30
tp162
Rp163
(I1
(I2
tp164
g36
I00
S'S\x00\x00\x00\x87\x00\x00\x00'
p165
tp166
bsba(i__main__
FrameData
p167
(dp168
g6
S'd'
p169
sg8
g9
(g13
S'TS6\xeb\xe9\xd86@'
p170
tp171
Rp172
sg19
I0
sg20
g21
(S'\x07\xdd\t\x12\x108\x05\x05^\x8e'
p173
tp174
Rp175
sg25
I0
sg26
g27
(g28
(I0
tp176
g30
tp177
Rp178
(I1
(I2
tp179
g36
I00
S'R\x00\x00\x00\x86\x00\x00\x00'
p180
tp181
bsba(i__main__
FrameData
p182
(dp183
g6
g169
sg8
g9
(g13
S'\x96`G\xb3\x80b2@'
p184
tp185
Rp186
sg19
I0
sg20
g21
(S'\x07\xdd\t\x12\x108\x05\x05\x9c\x12'
p187
tp188
Rp189
sg25
I0
sg26
g27
(g28
(I0
tp190
g30
tp191
Rp192
(I1
(I2
tp193
g36
I00
S'P\x00\x00\x00\x82\x00\x00\x00'
p194
tp195
bsba(i__main__
FrameData
p196
(dp197
g6
g169
sg8
g9
(g13
S"'\xf2\x90In\x9f/@"
p198
tp199
Rp200
sg19
I0
sg20
g21
(S'\x07\xdd\t\x12\x108\x05\x05\xde\xc0'
p201
tp202
Rp203
sg25
I0
sg26
g27
(g28
(I0
tp204
g30
tp205
Rp206
(I1
(I2
tp207
g36
I00
S'N\x00\x00\x00\x80\x00\x00\x00'
p208
tp209
bsba(i__main__
FrameData
p210
(dp211
g6
g169
sg8
g9
(g13
S'9\xdcc\xb3\xbfT(@'
p212
tp213
Rp214
sg19
I0
sg20
g21
(S"\x07\xdd\t\x12\x108\x05\x06'\xcf"
p215
tp216
Rp217
sg25
I0
sg26
g27
(g28
(I0
tp218
g30
tp219
Rp220
(I1
(I2
tp221
g36
I00
S'K\x00\x00\x00}\x00\x00\x00'
p222
tp223
bsba(i__main__
FrameData
p224
(dp225
g6
g169
sg8
g9
(g13
S'$\xf8\xd9p[\x1c"@'
p226
tp227
Rp228
sg19
I0
sg20
g21
(S'\x07\xdd\t\x12\x108\x05\x06e\xd2'
p229
tp230
Rp231
sg25
I0
sg26
g27
(g28
(I0
tp232
g30
tp233
Rp234
(I1
(I2
tp235
g36
I00
S'H\x00\x00\x00z\x00\x00\x00'
p236
tp237
bsba(i__main__
FrameData
p238
(dp239
g6
g169
sg8
g9
(g13
S'htN\x17\xb2=\x1f@'
p240
tp241
Rp242
sg19
I0
sg20
g21
(S'\x07\xdd\t\x12\x108\x05\x06\xa1\xcf'
p243
tp244
Rp245
sg25
I0
sg26
g27
(g28
(I0
tp246
g30
tp247
Rp248
(I1
(I2
tp249
g36
I00
S'C\x00\x00\x00v\x00\x00\x00'
p250
tp251
bsba(i__main__
FrameData
p252
(dp253
g6
g169
sg8
g9
(g13
S'\xd0\xbaa?\xe0\x1f @'
p254
tp255
Rp256
sg19
I0
sg20
g21
(S'\x07\xdd\t\x12\x108\x05\x06\xea\xc6'
p257
tp258
Rp259
sg25
I0
sg26
g27
(g28
(I0
tp260
g30
tp261
Rp262
(I1
(I2
tp263
g36
I00
S'B\x00\x00\x00u\x00\x00\x00'
p264
tp265
bsba(i__main__
FrameData
p266
(dp267
g6
g169
sg8
g9
(g13
S'H\xaa*\x8f9\x17&@'
p268
tp269
Rp270
sg19
I0
sg20
g21
(S'\x07\xdd\t\x12\x108\x05\x07(\x06'
p271
tp272
Rp273
sg25
I0
sg26
g27
(g28
(I0
tp274
g30
tp275
Rp276
(I1
(I2
tp277
g36
I00
S'>\x00\x00\x00r\x00\x00\x00'
p278
tp279
bsba(i__main__
FrameData
p280
(dp281
g6
S's'
p282
sg8
g9
(g13
S'\x9a.\x90!hp"@'
p283
tp284
Rp285
sg19
I0
sg20
g21
(S'\x07\xdd\t\x12\x108\x05\x07f\x1a'
p286
tp287
Rp288
sg25
I0
sg26
g27
(g28
(I0
tp289
g30
tp290
Rp291
(I1
(I2
tp292
g36
I00
S':\x00\x00\x00o\x00\x00\x00'
p293
tp294
bsba(i__main__
FrameData
p295
(dp296
g6
g282
sg8
g9
(g13
S'\x00\xff\x9f\x99\xcc\x9c\x19@'
p297
tp298
Rp299
sg19
I0
sg20
g21
(S'\x07\xdd\t\x12\x108\x05\x07\xa5L'
p300
tp301
Rp302
sg25
I0
sg26
g27
(g28
(I0
tp303
g30
tp304
Rp305
(I1
(I2
tp306
g36
I00
S'6\x00\x00\x00m\x00\x00\x00'
p307
tp308
bsba(i__main__
FrameData
p309
(dp310
g6
g282
sg8
g9
(g13
S'\xa2\xa3\xb3\r\xe5R\x17@'
p311
tp312
Rp313
sg19
I0
sg20
g21
(S'\x07\xdd\t\x12\x108\x05\x07\xeb\xc4'
p314
tp315
Rp316
sg25
I0
sg26
g27
(g28
(I0
tp317
g30
tp318
Rp319
(I1
(I2
tp320
g36
I00
S'4\x00\x00\x00l\x00\x00\x00'
p321
tp322
bsba(i__main__
FrameData
p323
(dp324
g6
g282
sg8
g9
(g13
S'\xc0\n\x1f\x00\xc6H\x1c@'
p325
tp326
Rp327
sg19
I0
sg20
g21
(S'\x07\xdd\t\x12\x108\x05\x08#\x10'
p328
tp329
Rp330
sg25
I0
sg26
g27
(g28
(I0
tp331
g30
tp332
Rp333
(I1
(I2
tp334
g36
I00
S'0\x00\x00\x00j\x00\x00\x00'
p335
tp336
bsba(i__main__
FrameData
p337
(dp338
g6
g282
sg8
g9
(g13
S'\x07\xed\xaff\x0f~ @'
p339
tp340
Rp341
sg19
I0
sg20
g21
(S'\x07\xdd\t\x12\x108\x05\x08e\xe9'
p342
tp343
Rp344
sg25
I0
sg26
g27
(g28
(I0
tp345
g30
tp346
Rp347
(I1
(I2
tp348
g36
I00
S'/\x00\x00\x00i\x00\x00\x00'
p349
tp350
bsba(i__main__
FrameData
p351
(dp352
g6
g282
sg8
g9
(g13
S'~\xc4#,B\xf9"@'
p353
tp354
Rp355
sg19
I0
sg20
g21
(S'\x07\xdd\t\x12\x108\x05\x08\xaf_'
p356
tp357
Rp358
sg25
I0
sg26
g27
(g28
(I0
tp359
g30
tp360
Rp361
(I1
(I2
tp362
g36
I00
S'.\x00\x00\x00h\x00\x00\x00'
p363
tp364
bsba(i__main__
FrameData
p365
(dp366
g6
g282
sg8
g9
(g13
S'\x88\x80v\xd5\\\x97$@'
p367
tp368
Rp369
sg19
I0
sg20
g21
(S'\x07\xdd\t\x12\x108\x05\x08\xea\x8e'
p370
tp371
Rp372
sg25
I0
sg26
g27
(g28
(I0
tp373
g30
tp374
Rp375
(I1
(I2
tp376
g36
I00
S',\x00\x00\x00h\x00\x00\x00'
p377
tp378
bsba(i__main__
FrameData
p379
(dp380
g6
g282
sg8
g9
(g13
S'F\xc3\\\xa8\xc1i(@'
p381
tp382
Rp383
sg19
I0
sg20
g21
(S'\x07\xdd\t\x12\x108\x05\t(\xaf'
p384
tp385
Rp386
sg25
I0
sg26
g27
(g28
(I0
tp387
g30
tp388
Rp389
(I1
(I2
tp390
g36
I00
S'*\x00\x00\x00g\x00\x00\x00'
p391
tp392
bsba(i__main__
FrameData
p393
(dp394
g6
g282
sg8
g9
(g13
S'\x00\xff\x9f\x99\xcc\x9c)@'
p395
tp396
Rp397
sg19
I0
sg20
g21
(S'\x07\xdd\t\x12\x108\x05\tq\xf3'
p398
tp399
Rp400
sg25
I0
sg26
g27
(g28
(I0
tp401
g30
tp402
Rp403
(I1
(I2
tp404
g36
I00
S')\x00\x00\x00g\x00\x00\x00'
p405
tp406
bsba(i__main__
FrameData
p407
(dp408
g6
g282
sg8
g9
(g13
S'\xb4\xb8=iA\xe8*@'
p409
tp410
Rp411
sg19
I0
sg20
g21
(S'\x07\xdd\t\x12\x108\x05\t\xad\xc7'
p412
tp413
Rp414
sg25
I0
sg26
g27
(g28
(I0
tp415
g30
tp416
Rp417
(I1
(I2
tp418
g36
I00
S'(\x00\x00\x00g\x00\x00\x00'
p419
tp420
bsba(i__main__
FrameData
p421
(dp422
g6
g282
sg8
g9
(g13
S'\xc0\n\x1f\x00\xc6H,@'
p423
tp424
Rp425
sg19
I0
sg20
g21
(S'\x07\xdd\t\x12\x108\x05\t\xeb\xeb'
p426
tp427
Rp428
sg25
I0
sg26
g27
(g28
(I0
tp429
g30
tp430
Rp431
(I1
(I2
tp432
g36
I00
S"'\x00\x00\x00g\x00\x00\x00"
p433
tp434
bsba(i__main__
FrameData
p435
(dp436
g6
g282
sg8
g9
(g13
S'/\xa4\xe3\\m\xbb-@'
p437
tp438
Rp439
sg19
I0
sg20
g21
(S'\x07\xdd\t\x12\x108\x05\nj\xc6'
p440
tp441
Rp442
sg25
I0
sg26
g27
(g28
(I0
tp443
g30
tp444
Rp445
(I1
(I2
tp446
g36
I00
S'&\x00\x00\x00g\x00\x00\x00'
p447
tp448
bsba(i__main__
FrameData
p449
(dp450
g6
g282
sg8
g9
(g13
S'htN\x17\xb2=/@'
p451
tp452
Rp453
sg19
I0
sg20
g21
(S'\x07\xdd\t\x12\x108\x05\n\xae\xcf'
p454
tp455
Rp456
sg25
I0
sg26
g27
(g28
(I0
tp457
g30
tp458
Rp459
(I1
(I2
tp460
g36
I00
S'%\x00\x00\x00g\x00\x00\x00'
p461
tp462
bsba(i__main__
FrameData
p463
(dp464
g6
S'a'
p465
sg8
g9
(g13
S'\x0f\xab\xa8Q\xb6f0@'
p466
tp467
Rp468
sg19
I0
sg20
g21
(S'\x07\xdd\t\x12\x108\x05\n\xeb\xa9'
p469
tp470
Rp471
sg25
I0
sg26
g27
(g28
(I0
tp472
g30
tp473
Rp474
(I1
(I2
tp475
g36
I00
S'$\x00\x00\x00g\x00\x00\x00'
p476
tp477
bsba(i__main__
FrameData
p478
(dp479
g6
g465
sg8
g9
(g13
S'\x00\x00\x00\x00\x00\x00.@'
p480
tp481
Rp482
sg19
I0
sg20
g21
(S'\x07\xdd\t\x12\x108\x05\x0b3\xed'
p483
tp484
Rp485
sg25
I0
sg26
g27
(g28
(I0
tp486
g30
tp487
Rp488
(I1
(I2
tp489
g36
I00
S'#\x00\x00\x00h\x00\x00\x00'
p490
tp491
bsba(i__main__
FrameData
p492
(dp493
g6
g465
sg8
g9
(g13
S'\xb4\xb8=iA\xe8*@'
p494
tp495
Rp496
sg19
I0
sg20
g21
(S'\x07\xdd\t\x12\x108\x05\x0bn\x10'
p497
tp498
Rp499
sg25
I0
sg26
g27
(g28
(I0
tp500
g30
tp501
Rp502
(I1
(I2
tp503
g36
I00
S'!\x00\x00\x00h\x00\x00\x00'
p504
tp505
bsba(i__main__
FrameData
p506
(dp507
g6
g465
sg8
g9
(g13
S'F#O3\xb2t)@'
p508
tp509
Rp510
sg19
I0
sg20
g21
(S'\x07\xdd\t\x12\x108\x05\x0b\xf1\x8d'
p511
tp512
Rp513
sg25
I0
sg26
g27
(g28
(I0
tp514
g30
tp515
Rp516
(I1
(I2
tp517
g36
I00
S' \x00\x00\x00h\x00\x00\x00'
p518
tp519
bsba(i__main__
FrameData
p520
(dp521
g6
g465
sg8
g9
(g13
S'&5w\xe2K\x15(@'
p522
tp523
Rp524
sg19
I0
sg20
g21
(S'\x07\xdd\t\x12\x108\x05\x0c.\xbe'
p525
tp526
Rp527
sg25
I0
sg26
g27
(g28
(I0
tp528
g30
tp529
Rp530
(I1
(I2
tp531
g36
I00
S'\x1f\x00\x00\x00h\x00\x00\x00'
p532
tp533
bsba(i__main__
FrameData
p534
(dp535
g6
g465
sg8
g9
(g13
S'\xeb\x12\xb2\xbb\xb2\xcd&@'
p536
tp537
Rp538
sg19
I0
sg20
g21
(S'\x07\xdd\t\x12\x108\x05\x0cp\xa2'
p539
tp540
Rp541
sg25
I0
sg26
g27
(g28
(I0
tp542
g30
tp543
Rp544
(I1
(I2
tp545
g36
I00
S'\x1e\x00\x00\x00h\x00\x00\x00'
p546
tp547
bsba(i__main__
FrameData
p548
(dp549
g6
g465
sg8
g9
(g13
S'\x00\x00\x00\x00\x00\x00$@'
p550
tp551
Rp552
sg19
I0
sg20
g21
(S'\x07\xdd\t\x12\x108\x05\x0c\xb0\xa3'
p553
tp554
Rp555
sg25
I0
sg26
g27
(g28
(I0
tp556
g30
tp557
Rp558
(I1
(I2
tp559
g36
I00
S'\x1d\x00\x00\x00i\x00\x00\x00'
p560
tp561
bsba(i__main__
FrameData
p562
(dp563
g6
g465
sg8
g9
(g13
S'\xa8\xf4\x97\x9bw\xe3!@'
p564
tp565
Rp566
sg19
I0
sg20
g21
(S'\x07\xdd\t\x12\x108\x05\x0c\xf1\x9c'
p567
tp568
Rp569
sg25
I0
sg26
g27
(g28
(I0
tp570
g30
tp571
Rp572
(I1
(I2
tp573
g36
I00
S'\x1b\x00\x00\x00i\x00\x00\x00'
p574
tp575
bsba(i__main__
FrameData
p576
(dp577
g6
g465
sg8
g9
(g13
S'p\xc4\x9d9\x8dv\x1e@'
p578
tp579
Rp580
sg19
I0
sg20
g21
(S'\x07\xdd\t\x12\x108\x05\r3\x83'
p581
tp582
Rp583
sg25
I0
sg26
g27
(g28
(I0
tp584
g30
tp585
Rp586
(I1
(I2
tp587
g36
I00
S'\x1a\x00\x00\x00j\x00\x00\x00'
p588
tp589
bsba(i__main__
FrameData
p590
(dp591
g6
g465
sg8
g9
(g13
S'\xc0\n\x1f\x00\xc6H\x1c@'
p592
tp593
Rp594
sg19
I0
sg20
g21
(S'\x07\xdd\t\x12\x108\x05\r\xba\x7f'
p595
tp596
Rp597
sg25
I0
sg26
g27
(g28
(I0
tp598
g30
tp599
Rp600
(I1
(I2
tp601
g36
I00
S'\x18\x00\x00\x00j\x00\x00\x00'
p602
tp603
bsba(i__main__
FrameData
p604
(dp605
g6
g465
sg8
g9
(g13
S'9\xdcc\xb3\xbfT\x18@'
p606
tp607
Rp608
sg19
I0
sg20
g21
(S'\x07\xdd\t\x12\x108\x05\x0e5\t'
p609
tp610
Rp611
sg25
I0
sg26
g27
(g28
(I0
tp612
g30
tp613
Rp614
(I1
(I2
tp615
g36
I00
S'\x18\x00\x00\x00k\x00\x00\x00'
p616
tp617
bsba(i__main__
FrameData
p618
(dp619
g6
g465
sg8
g9
(g13
S'S[\xda:XL\x19@'
p620
tp621
Rp622
sg19
I0
sg20
g21
(S'\x07\xdd\t\x12\x108\x06\x02H\xcb'
p623
tp624
Rp625
sg25
I0
sg26
g27
(g28
(I0
tp626
g30
tp627
Rp628
(I1
(I2
tp629
g36
I00
S'\x19\x00\x00\x00k\x00\x00\x00'
p630
tp631
bsba(i__main__
FrameData
p632
(dp633
g6
g465
sg8
g9
(g13
S'\x00\x00\x00\x00\x00\x00$@'
p634
tp635
Rp636
sg19
I0
sg20
g21
(S'\x07\xdd\t\x12\x108\x06\x02~\xea'
p637
tp638
Rp639
sg25
I0
sg26
g27
(g28
(I0
tp640
g30
tp641
Rp642
(I1
(I2
tp643
g36
I00
S'\x1f\x00\x00\x00k\x00\x00\x00'
p644
tp645
bsba(i__main__
FrameData
p646
(dp647
g6
g465
sg8
g9
(g13
S'\xfc\xeeci3\xd5*@'
p648
tp649
Rp650
sg19
I0
sg20
g21
(S'\x07\xdd\t\x12\x108\x06\x02\xcb\x94'
p651
tp652
Rp653
sg25
I0
sg26
g27
(g28
(I0
tp654
g30
tp655
Rp656
(I1
(I2
tp657
g36
I00
S'#\x00\x00\x00k\x00\x00\x00'
p658
tp659
bsba(i__main__
FrameData
p660
(dp661
g6
g282
sg8
g9
(g13
S'\xe4\x10\xe4sW\x0f)@'
p662
tp663
Rp664
sg19
I0
sg20
g21
(S'\x07\xdd\t\x12\x108\x06\x02\xff\xb5'
p665
tp666
Rp667
sg25
I0
sg26
g27
(g28
(I0
tp668
g30
tp669
Rp670
(I1
(I2
tp671
g36
I00
S'&\x00\x00\x00k\x00\x00\x00'
p672
tp673
bsba(i__main__
FrameData
p674
(dp675
g6
g282
sg8
g9
(g13
S'\x9a.\x90!hp"@'
p676
tp677
Rp678
sg19
I0
sg20
g21
(S'\x07\xdd\t\x12\x108\x06\x03@V'
p679
tp680
Rp681
sg25
I0
sg26
g27
(g28
(I0
tp682
g30
tp683
Rp684
(I1
(I2
tp685
g36
I00
S'*\x00\x00\x00k\x00\x00\x00'
p686
tp687
bsba(i__main__
FrameData
p688
(dp689
g6
g282
sg8
g9
(g13
S'htN\x17\xb2=\x1f@'
p690
tp691
Rp692
sg19
I0
sg20
g21
(S'\x07\xdd\t\x12\x108\x06\x03\x7f\x9e'
p693
tp694
Rp695
sg25
I0
sg26
g27
(g28
(I0
tp696
g30
tp697
Rp698
(I1
(I2
tp699
g36
I00
S',\x00\x00\x00k\x00\x00\x00'
p700
tp701
bsba(i__main__
FrameData
p702
(dp703
g6
g282
sg8
g9
(g13
S'\xfc\xeeci3\xd5\x1a@'
p704
tp705
Rp706
sg19
I0
sg20
g21
(S'\x07\xdd\t\x12\x108\x06\x03\xc5\xb8'
p707
tp708
Rp709
sg25
I0
sg26
g27
(g28
(I0
tp710
g30
tp711
Rp712
(I1
(I2
tp713
g36
I00
S'.\x00\x00\x00k\x00\x00\x00'
p714
tp715
bsba(i__main__
FrameData
p716
(dp717
g6
g282
sg8
g9
(g13
S'\xc0\n\x1f\x00\xc6H\x1c@'
p718
tp719
Rp720
sg19
I0
sg20
g21
(S'\x07\xdd\t\x12\x108\x06\x04\x02#'
p721
tp722
Rp723
sg25
I0
sg26
g27
(g28
(I0
tp724
g30
tp725
Rp726
(I1
(I2
tp727
g36
I00
S'0\x00\x00\x00j\x00\x00\x00'
p728
tp729
bsba(i__main__
FrameData
p730
(dp731
g6
g282
sg8
g9
(g13
S'\xc0\n\x1f\x00\xc6H\x1c@'
p732
tp733
Rp734
sg19
I0
sg20
g21
(S'\x07\xdd\t\x12\x108\x06\x04GD'
p735
tp736
Rp737
sg25
I0
sg26
g27
(g28
(I0
tp738
g30
tp739
Rp740
(I1
(I2
tp741
g36
I00
S'2\x00\x00\x00j\x00\x00\x00'
p742
tp743
bsba(i__main__
FrameData
p744
(dp745
g6
g282
sg8
g9
(g13
S'\x00\x00\x00\x00\x00\x00$@'
p746
tp747
Rp748
sg19
I0
sg20
g21
(S'\x07\xdd\t\x12\x108\x06\x04\x86Y'
p749
tp750
Rp751
sg25
I0
sg26
g27
(g28
(I0
tp752
g30
tp753
Rp754
(I1
(I2
tp755
g36
I00
S'7\x00\x00\x00i\x00\x00\x00'
p756
tp757
bsba(i__main__
FrameData
p758
(dp759
g6
g282
sg8
g9
(g13
S'&5w\xe2K\x15(@'
p760
tp761
Rp762
sg19
I0
sg20
g21
(S'\x07\xdd\t\x12\x108\x06\x04\xc4\xbf'
p763
tp764
Rp765
sg25
I0
sg26
g27
(g28
(I0
tp766
g30
tp767
Rp768
(I1
(I2
tp769
g36
I00
S'9\x00\x00\x00h\x00\x00\x00'
p770
tp771
bsba(i__main__
FrameData
p772
(dp773
g6
g282
sg8
g9
(g13
S'\xb4\xb8=iA\xe8*@'
p774
tp775
Rp776
sg19
I0
sg20
g21
(S'\x07\xdd\t\x12\x108\x06\x05\x0fI'
p777
tp778
Rp779
sg25
I0
sg26
g27
(g28
(I0
tp780
g30
tp781
Rp782
(I1
(I2
tp783
g36
I00
S';\x00\x00\x00h\x00\x00\x00'
p784
tp785
bsba(i__main__
FrameData
p786
(dp787
g6
g282
sg8
g9
(g13
S'htN\x17\xb2=/@'
p788
tp789
Rp790
sg19
I0
sg20
g21
(S'\x07\xdd\t\x12\x108\x06\x05U\xae'
p791
tp792
Rp793
sg25
I0
sg26
g27
(g28
(I0
tp794
g30
tp795
Rp796
(I1
(I2
tp797
g36
I00
S'=\x00\x00\x00g\x00\x00\x00'
p798
tp799
bsba(i__main__
FrameData
p800
(dp801
g6
g169
sg8
g9
(g13
S'/\xa4\xe3\\m\xbb-@'
p802
tp803
Rp804
sg19
I0
sg20
g21
(S'\x07\xdd\t\x12\x108\x06\x05\x8ct'
p805
tp806
Rp807
sg25
I0
sg26
g27
(g28
(I0
tp808
g30
tp809
Rp810
(I1
(I2
tp811
g36
I00
S'?\x00\x00\x00f\x00\x00\x00'
p812
tp813
bsba(i__main__
FrameData
p814
(dp815
g6
g169
sg8
g9
(g13
S'\xef\rI\xf1\xf33+@'
p816
tp817
Rp818
sg19
I0
sg20
g21
(S'\x07\xdd\t\x12\x108\x06\x05\xc9!'
p819
tp820
Rp821
sg25
I0
sg26
g27
(g28
(I0
tp822
g30
tp823
Rp824
(I1
(I2
tp825
g36
I00
S'A\x00\x00\x00f\x00\x00\x00'
p826
tp827
bsba(i__main__
FrameData
p828
(dp829
g6
g169
sg8
g9
(g13
S'8H\x9b\x97\xee\xae*@'
p830
tp831
Rp832
sg19
I0
sg20
g21
(S'\x07\xdd\t\x12\x108\x06\x06\x16s'
p833
tp834
Rp835
sg25
I0
sg26
g27
(g28
(I0
tp836
g30
tp837
Rp838
(I1
(I2
tp839
g36
I00
S'F\x00\x00\x00d\x00\x00\x00'
p840
tp841
bsba(i__main__
FrameData
p842
(dp843
g6
g169
sg8
g9
(g13
S'\xaf_\x109\x0c\x11.@'
p844
tp845
Rp846
sg19
I0
sg20
g21
(S'\x07\xdd\t\x12\x108\x06\x06Jb'
p847
tp848
Rp849
sg25
I0
sg26
g27
(g28
(I0
tp850
g30
tp851
Rp852
(I1
(I2
tp853
g36
I00
S'J\x00\x00\x00b\x00\x00\x00'
p854
tp855
bsba(i__main__
FrameData
p856
(dp857
g6
g169
sg8
g9
(g13
S'\xfb\xefg\xc4>C1@'
p858
tp859
Rp860
sg19
I0
sg20
g21
(S'\x07\xdd\t\x12\x108\x06\x06\x8a\xe5'
p861
tp862
Rp863
sg25
I0
sg26
g27
(g28
(I0
tp864
g30
tp865
Rp866
(I1
(I2
tp867
g36
I00
S'L\x00\x00\x00`\x00\x00\x00'
p868
tp869
bsba(i__main__
FrameData
p870
(dp871
g6
g169
sg8
g9
(g13
S'X(/\x84y\xae2@'
p872
tp873
Rp874
sg19
I0
sg20
g21
(S'\x07\xdd\t\x12\x108\x06\x06\xd9r'
p875
tp876
Rp877
sg25
I0
sg26
g27
(g28
(I0
tp878
g30
tp879
Rp880
(I1
(I2
tp881
g36
I00
S'N\x00\x00\x00_\x00\x00\x00'
p882
tp883
bsba(i__main__
FrameData
p884
(dp885
g6
S'r'
p886
sg8
g9
(g13
S'^\x9e\x9f\x85\xdf\x1a3@'
p887
tp888
Rp889
sg19
I0
sg20
g21
(S'\x07\xdd\t\x12\x108\x06\x07\x1e\x7f'
p890
tp891
Rp892
sg25
I0
sg26
g27
(g28
(I0
tp893
g30
tp894
Rp895
(I1
(I2
tp896
g36
I00
S'P\x00\x00\x00^\x00\x00\x00'
p897
tp898
bsba(i__main__
FrameData
p899
(dp900
g6
g886
sg8
g9
(g13
S'\xc3\xe7Zp\xbb\x063@'
p901
tp902
Rp903
sg19
I0
sg20
g21
(S'\x07\xdd\t\x12\x108\x06\x07K;'
p904
tp905
Rp906
sg25
I0
sg26
g27
(g28
(I0
tp907
g30
tp908
Rp909
(I1
(I2
tp910
g36
I00
S'Q\x00\x00\x00^\x00\x00\x00'
p911
tp912
bsba(i__main__
FrameData
p913
(dp914
g6
g886
sg8
g9
(g13
S')\x9ah\xdd\x85\x071@'
p915
tp916
Rp917
sg19
I0
sg20
g21
(S'\x07\xdd\t\x12\x108\x06\x07\x97\x08'
p918
tp919
Rp920
sg25
I0
sg26
g27
(g28
(I0
tp921
g30
tp922
Rp923
(I1
(I2
tp924
g36
I00
S'S\x00\x00\x00\\\x00\x00\x00'
p925
tp926
bsba(i__main__
FrameData
p927
(dp928
g6
g886
sg8
g9
(g13
S'\xfb\xefg\xc4>C1@'
p929
tp930
Rp931
sg19
I0
sg20
g21
(S'\x07\xdd\t\x12\x108\x06\x07\xe6\xf3'
p932
tp933
Rp934
sg25
I0
sg26
g27
(g28
(I0
tp935
g30
tp936
Rp937
(I1
(I2
tp938
g36
I00
S'U\x00\x00\x00\\\x00\x00\x00'
p939
tp940
bsba(i__main__
FrameData
p941
(dp942
g6
g886
sg8
g9
(g13
S'>9\x15\x8cW\xc30@'
p943
tp944
Rp945
sg19
I0
sg20
g21
(S'\x07\xdd\t\x12\x108\x06\x08\x0f\xc3'
p946
tp947
Rp948
sg25
I0
sg26
g27
(g28
(I0
tp949
g30
tp950
Rp951
(I1
(I2
tp952
g36
I00
S'W\x00\x00\x00[\x00\x00\x00'
p953
tp954
bsba(i__main__
FrameData
p955
(dp956
g6
g886
sg8
g9
(g13
S'\xa8y\x0c\t\xd9v1@'
p957
tp958
Rp959
sg19
I0
sg20
g21
(S'\x07\xdd\t\x12\x108\x06\x08P\xa3'
p960
tp961
Rp962
sg25
I0
sg26
g27
(g28
(I0
tp963
g30
tp964
Rp965
(I1
(I2
tp966
g36
I00
S'Y\x00\x00\x00[\x00\x00\x00'
p967
tp968
bsba(i__main__
FrameData
p969
(dp970
g6
g886
sg8
g9
(g13
S'\xaa\xd9\xb1\xd3\x8d\x8d0@'
p971
tp972
Rp973
sg19
I0
sg20
g21
(S'\x07\xdd\t\x12\x108\x06\x08\xa5\x98'
p974
tp975
Rp976
sg25
I0
sg26
g27
(g28
(I0
tp977
g30
tp978
Rp979
(I1
(I2
tp980
g36
I00
S'Y\x00\x00\x00Z\x00\x00\x00'
p981
tp982
bsba(i__main__
FrameData
p983
(dp984
g6
g886
sg8
g9
(g13
S'\x00\x00\x00\x00\x00\x001@'
p985
tp986
Rp987
sg19
I0
sg20
g21
(S'\x07\xdd\t\x12\x108\x06\x08\xcf\xda'
p988
tp989
Rp990
sg25
I0
sg26
g27
(g28
(I0
tp991
g30
tp992
Rp993
(I1
(I2
tp994
g36
I00
S'Z\x00\x00\x00Z\x00\x00\x00'
p995
tp996
bsba(i__main__
FrameData
p997
(dp998
g6
g886
sg8
g9
(g13
S'8\xd8\xbc\n\x1b\x072@'
p999
tp1000
Rp1001
sg19
I0
sg20
g21
(S'\x07\xdd\t\x12\x108\x06\t \x10'
p1002
tp1003
Rp1004
sg25
I0
sg26
g27
(g28
(I0
tp1005
g30
tp1006
Rp1007
(I1
(I2
tp1008
g36
I00
S'\\\x00\x00\x00Z\x00\x00\x00'
p1009
tp1010
bsba(i__main__
FrameData
p1011
(dp1012
g6
g886
sg8
g9
(g13
S'\xd5?\x80N\xf3\xcd1@'
p1013
tp1014
Rp1015
sg19
I0
sg20
g21
(S'\x07\xdd\t\x12\x108\x06\t\x9f\x11'
p1016
tp1017
Rp1018
sg25
I0
sg26
g27
(g28
(I0
tp1019
g30
tp1020
Rp1021
(I1
(I2
tp1022
g36
I00
S']\x00\x00\x00Y\x00\x00\x00'
p1023
tp1024
bsba(i__main__
FrameData
p1025
(dp1026
g6
g886
sg8
g9
(g13
S'l\xd0\xe82\x1a\xb11@'
p1027
tp1028
Rp1029
sg19
I0
sg20
g21
(S'\x07\xdd\t\x12\x108\x06\t\xd4\xc2'
p1030
tp1031
Rp1032
sg25
I0
sg26
g27
(g28
(I0
tp1033
g30
tp1034
Rp1035
(I1
(I2
tp1036
g36
I00
S'^\x00\x00\x00X\x00\x00\x00'
p1037
tp1038
bsba(i__main__
FrameData
p1039
(dp1040
g6
S't'
p1041
sg8
g9
(g13
S'htN\x17\xb2=/@'
p1042
tp1043
Rp1044
sg19
I0
sg20
g21
(S'\x07\xdd\t\x12\x108\x06\n\x18\x80'
p1045
tp1046
Rp1047
sg25
I0
sg26
g27
(g28
(I0
tp1048
g30
tp1049
Rp1050
(I1
(I2
tp1051
g36
I00
S'`\x00\x00\x00W\x00\x00\x00'
p1052
tp1053
bsba(i__main__
FrameData
p1054
(dp1055
g6
g1041
sg8
g9
(g13
S'\x00\x00\x00\x00\x00\x00.@'
p1056
tp1057
Rp1058
sg19
I0
sg20
g21
(S'\x07\xdd\t\x12\x108\x06\n_R'
p1059
tp1060
Rp1061
sg25
I0
sg26
g27
(g28
(I0
tp1062
g30
tp1063
Rp1064
(I1
(I2
tp1065
g36
I00
S'a\x00\x00\x00W\x00\x00\x00'
p1066
tp1067
bsba(i__main__
FrameData
p1068
(dp1069
g6
g1041
sg8
g9
(g13
S'\xb4\xb8=iA\xe8*@'
p1070
tp1071
Rp1072
sg19
I0
sg20
g21
(S'\x07\xdd\t\x12\x108\x06\n\x98\xae'
p1073
tp1074
Rp1075
sg25
I0
sg26
g27
(g28
(I0
tp1076
g30
tp1077
Rp1078
(I1
(I2
tp1079
g36
I00
S'a\x00\x00\x00U\x00\x00\x00'
p1080
tp1081
bsba(i__main__
FrameData
p1082
(dp1083
g6
g1041
sg8
g9
(g13
S'&5w\xe2K\x15(@'
p1084
tp1085
Rp1086
sg19
I0
sg20
g21
(S'\x07\xdd\t\x12\x108\x06\n\xd6\xdc'
p1087
tp1088
Rp1089
sg25
I0
sg26
g27
(g28
(I0
tp1090
g30
tp1091
Rp1092
(I1
(I2
tp1093
g36
I00
S'b\x00\x00\x00T\x00\x00\x00'
p1094
tp1095
bsba(i__main__
FrameData
p1096
(dp1097
g6
g1041
sg8
g9
(g13
S'\xcd;\x7ff\x9e\xa0&@'
p1098
tp1099
Rp1100
sg19
I0
sg20
g21
(S'\x07\xdd\t\x12\x108\x06\x0b\x19%'
p1101
tp1102
Rp1103
sg25
I0
sg26
g27
(g28
(I0
tp1104
g30
tp1105
Rp1106
(I1
(I2
tp1107
g36
I00
S'b\x00\x00\x00S\x00\x00\x00'
p1108
tp1109
bsba(i__main__
FrameData
p1110
(dp1111
g6
g1041
sg8
g9
(g13
S'\x9a.\x90!hp"@'
p1112
tp1113
Rp1114
sg19
I0
sg20
g21
(S'\x07\xdd\t\x12\x108\x06\x0bd\x18'
p1115
tp1116
Rp1117
sg25
I0
sg26
g27
(g28
(I0
tp1118
g30
tp1119
Rp1120
(I1
(I2
tp1121
g36
I00
S'd\x00\x00\x00R\x00\x00\x00'
p1122
tp1123
bsba(i__main__
FrameData
p1124
(dp1125
g6
g1041
sg8
g9
(g13
S'htN\x17\xb2=\x1f@'
p1126
tp1127
Rp1128
sg19
I0
sg20
g21
(S'\x07\xdd\t\x12\x108\x06\x0b\x9d\x9a'
p1129
tp1130
Rp1131
sg25
I0
sg26
g27
(g28
(I0
tp1132
g30
tp1133
Rp1134
(I1
(I2
tp1135
g36
I00
S'e\x00\x00\x00Q\x00\x00\x00'
p1136
tp1137
bsba(i__main__
FrameData
p1138
(dp1139
g6
g1041
sg8
g9
(g13
S'\x00\xff\x9f\x99\xcc\x9c\x19@'
p1140
tp1141
Rp1142
sg19
I0
sg20
g21
(S'\x07\xdd\t\x12\x108\x06\x0b\xd8\xfd'
p1143
tp1144
Rp1145
sg25
I0
sg26
g27
(g28
(I0
tp1146
g30
tp1147
Rp1148
(I1
(I2
tp1149
g36
I00
S'f\x00\x00\x00P\x00\x00\x00'
p1150
tp1151
bsba(i__main__
FrameData
p1152
(dp1153
g6
g1041
sg8
g9
(g13
S'\x00\x00\x00\x00\x00\x00\x14@'
p1154
tp1155
Rp1156
sg19
I0
sg20
g21
(S'\x07\xdd\t\x12\x108\x06\x0c$\xb7'
p1157
tp1158
Rp1159
sg25
I0
sg26
g27
(g28
(I0
tp1160
g30
tp1161
Rp1162
(I1
(I2
tp1163
g36
I00
S'f\x00\x00\x00N\x00\x00\x00'
p1164
tp1165
bsba(i__main__
FrameData
p1166
(dp1167
g6
g1041
sg8
g9
(g13
S'\xf3YaD+\xd8\x0c@'
p1168
tp1169
Rp1170
sg19
I0
sg20
g21
(S'\x07\xdd\t\x12\x108\x06\x0csi'
p1171
tp1172
Rp1173
sg25
I0
sg26
g27
(g28
(I0
tp1174
g30
tp1175
Rp1176
(I1
(I2
tp1177
g36
I00
S'g\x00\x00\x00M\x00\x00\x00'
p1178
tp1179
bsba(i__main__
FrameData
p1180
(dp1181
g6
g1041
sg8
g9
(g13
S'\xa8\xf4\x97\x9bw\xe3\x01@'
p1182
tp1183
Rp1184
sg19
I0
sg20
g21
(S'\x07\xdd\t\x12\x108\x06\x0c\xc1\x02'
p1185
tp1186
Rp1187
sg25
I0
sg26
g27
(g28
(I0
tp1188
g30
tp1189
Rp1190
(I1
(I2
tp1191
g36
I00
S'h\x00\x00\x00L\x00\x00\x00'
p1192
tp1193
bsba(i__main__
FrameData
p1194
(dp1195
g6
g1041
sg8
g9
(g13
S'\xcd;\x7ff\x9e\xa0\xf6?'
p1196
tp1197
Rp1198
sg19
I0
sg20
g21
(S'\x07\xdd\t\x12\x108\x06\x0c\xe6\xc7'
p1199
tp1200
Rp1201
sg25
I0
sg26
g27
(g28
(I0
tp1202
g30
tp1203
Rp1204
(I1
(I2
tp1205
g36
I00
S'i\x00\x00\x00J\x00\x00\x00'
p1206
tp1207
bsba(i__main__
FrameData
p1208
(dp1209
g6
g1041
sg8
g9
(g13
S'\x00\x00\x00\x00\x00\x00\xf0?'
p1210
tp1211
Rp1212
sg19
I0
sg20
g21
(S'\x07\xdd\t\x12\x108\x06\r&V'
p1213
tp1214
Rp1215
sg25
I0
sg26
g27
(g28
(I0
tp1216
g30
tp1217
Rp1218
(I1
(I2
tp1219
g36
I00
S'j\x00\x00\x00J\x00\x00\x00'
p1220
tp1221
bsba(i__main__
FrameData
p1222
(dp1223
g6
g1041
sg8
g9
(g13
S'\x00\x00\x00\x00\x00\x00\x00@'
p1224
tp1225
Rp1226
sg19
I0
sg20
g21
(S'\x07\xdd\t\x12\x108\x06\r\xa9\x89'
p1227
tp1228
Rp1229
sg25
I0
sg26
g27
(g28
(I0
tp1230
g30
tp1231
Rp1232
(I1
(I2
tp1233
g36
I00
S'j\x00\x00\x00I\x00\x00\x00'
p1234
tp1235
bsba(i__main__
FrameData
p1236
(dp1237
g6
g1041
sg8
g9
(g13
S'S[\xda:XL\t@'
p1238
tp1239
Rp1240
sg19
I0
sg20
g21
(S'\x07\xdd\t\x12\x108\x06\r\xdf\xfc'
p1241
tp1242
Rp1243
sg25
I0
sg26
g27
(g28
(I0
tp1244
g30
tp1245
Rp1246
(I1
(I2
tp1247
g36
I00
S'k\x00\x00\x00H\x00\x00\x00'
p1248
tp1249
bsba(i__main__
FrameData
p1250
(dp1251
g6
g1041
sg8
g9
(g13
S'\x07\xed\xaff\x0f~\x10@'
p1252
tp1253
Rp1254
sg19
I0
sg20
g21
(S'\x07\xdd\t\x12\x108\x06\x0e_\xa9'
p1255
tp1256
Rp1257
sg25
I0
sg26
g27
(g28
(I0
tp1258
g30
tp1259
Rp1260
(I1
(I2
tp1261
g36
I00
S'k\x00\x00\x00G\x00\x00\x00'
p1262
tp1263
bsba(i__main__
FrameData
p1264
(dp1265
g6
g1041
sg8
g9
(g13
S'\xa8\xf4\x97\x9bw\xe3\x11@'
p1266
tp1267
Rp1268
sg19
I0
sg20
g21
(S'\x07\xdd\t\x12\x108\x06\x0e\xab\xdb'
p1269
tp1270
Rp1271
sg25
I0
sg26
g27
(g28
(I0
tp1272
g30
tp1273
Rp1274
(I1
(I2
tp1275
g36
I00
S'l\x00\x00\x00G\x00\x00\x00'
p1276
tp1277
bsba(i__main__
FrameData
p1278
(dp1279
g6
g1041
sg8
g9
(g13
S'S[\xda:XL\x19@'
p1280
tp1281
Rp1282
sg19
I0
sg20
g21
(S'\x07\xdd\t\x12\x108\x06\x0e\xfc:'
p1283
tp1284
Rp1285
sg25
I0
sg26
g27
(g28
(I0
tp1286
g30
tp1287
Rp1288
(I1
(I2
tp1289
g36
I00
S'l\x00\x00\x00E\x00\x00\x00'
p1290
tp1291
bsba(i__main__
FrameData
p1292
(dp1293
g6
g1041
sg8
g9
(g13
S'9\xdcc\xb3\xbfT\x18@'
p1294
tp1295
Rp1296
sg19
I0
sg20
g21
(S'\x07\xdd\t\x12\x108\x07\x01\xa5\x1b'
p1297
tp1298
Rp1299
sg25
I0
sg26
g27
(g28
(I0
tp1300
g30
tp1301
Rp1302
(I1
(I2
tp1303
g36
I00
S'k\x00\x00\x00E\x00\x00\x00'
p1304
tp1305
bsba(i__main__
FrameData
p1306
(dp1307
g6
g1041
sg8
g9
(g13
S'\x00\x00\x00\x00\x00\x00\x18@'
p1308
tp1309
Rp1310
sg19
I0
sg20
g21
(S'\x07\xdd\t\x12\x108\x07\x01\xe9\xda'
p1311
tp1312
Rp1313
sg25
I0
sg26
g27
(g28
(I0
tp1314
g30
tp1315
Rp1316
(I1
(I2
tp1317
g36
I00
S'j\x00\x00\x00E\x00\x00\x00'
p1318
tp1319
bsba(i__main__
FrameData
p1320
(dp1321
g6
g1041
sg8
g9
(g13
S'9\xdcc\xb3\xbfT\x18@'
p1322
tp1323
Rp1324
sg19
I0
sg20
g21
(S"\x07\xdd\t\x12\x108\x07\x02'&"
p1325
tp1326
Rp1327
sg25
I0
sg26
g27
(g28
(I0
tp1328
g30
tp1329
Rp1330
(I1
(I2
tp1331
g36
I00
S'i\x00\x00\x00E\x00\x00\x00'
p1332
tp1333
bsba(i__main__
FrameData
p1334
(dp1335
g6
g1041
sg8
g9
(g13
S'S[\xda:XL\x19@'
p1336
tp1337
Rp1338
sg19
I0
sg20
g21
(S'\x07\xdd\t\x12\x108\x07\x02\xedi'
p1339
tp1340
Rp1341
sg25
I0
sg26
g27
(g28
(I0
tp1342
g30
tp1343
Rp1344
(I1
(I2
tp1345
g36
I00
S'h\x00\x00\x00E\x00\x00\x00'
p1346
tp1347
bsba(i__main__
FrameData
p1348
(dp1349
g6
g1041
sg8
g9
(g13
S'\xfc\xeeci3\xd5\x1a@'
p1350
tp1351
Rp1352
sg19
I0
sg20
g21
(S'\x07\xdd\t\x12\x108\x07\x037I'
p1353
tp1354
Rp1355
sg25
I0
sg26
g27
(g28
(I0
tp1356
g30
tp1357
Rp1358
(I1
(I2
tp1359
g36
I00
S'g\x00\x00\x00E\x00\x00\x00'
p1360
tp1361
bsba(i__main__
FrameData
p1362
(dp1363
g6
g1041
sg8
g9
(g13
S'\xa2\xa3\xb3\r\xe5R\x17@'
p1364
tp1365
Rp1366
sg19
I0
sg20
g21
(S'\x07\xdd\t\x12\x108\x07\x03l^'
p1367
tp1368
Rp1369
sg25
I0
sg26
g27
(g28
(I0
tp1370
g30
tp1371
Rp1372
(I1
(I2
tp1373
g36
I00
S'g\x00\x00\x00F\x00\x00\x00'
p1374
tp1375
bsba(i__main__
FrameData
p1376
(dp1377
g6
g1041
sg8
g9
(g13
S'\x00\xff\x9f\x99\xcc\x9c\x19@'
p1378
tp1379
Rp1380
sg19
I0
sg20
g21
(S'\x07\xdd\t\x12\x108\x07\x03\xba\x04'
p1381
tp1382
Rp1383
sg25
I0
sg26
g27
(g28
(I0
tp1384
g30
tp1385
Rp1386
(I1
(I2
tp1387
g36
I00
S'f\x00\x00\x00F\x00\x00\x00'
p1388
tp1389
bsba(i__main__
FrameData
p1390
(dp1391
g6
g1041
sg8
g9
(g13
S'htN\x17\xb2=\x1f@'
p1392
tp1393
Rp1394
sg19
I0
sg20
g21
(S'\x07\xdd\t\x12\x108\x07\x03\xee\x8f'
p1395
tp1396
Rp1397
sg25
I0
sg26
g27
(g28
(I0
tp1398
g30
tp1399
Rp1400
(I1
(I2
tp1401
g36
I00
S'd\x00\x00\x00F\x00\x00\x00'
p1402
tp1403
bsba(i__main__
FrameData
p1404
(dp1405
g6
g1041
sg8
g9
(g13
S'N\x017\xfac4!@'
p1406
tp1407
Rp1408
sg19
I0
sg20
g21
(S'\x07\xdd\t\x12\x108\x07\x04.\x17'
p1409
tp1410
Rp1411
sg25
I0
sg26
g27
(g28
(I0
tp1412
g30
tp1413
Rp1414
(I1
(I2
tp1415
g36
I00
S'c\x00\x00\x00F\x00\x00\x00'
p1416
tp1417
bsba(i__main__
FrameData
p1418
(dp1419
g6
g1041
sg8
g9
(g13
S'\xa8\xf4\x97\x9bw\xe3!@'
p1420
tp1421
Rp1422
sg19
I0
sg20
g21
(S'\x07\xdd\t\x12\x108\x07\x04}\x04'
p1423
tp1424
Rp1425
sg25
I0
sg26
g27
(g28
(I0
tp1426
g30
tp1427
Rp1428
(I1
(I2
tp1429
g36
I00
S'b\x00\x00\x00G\x00\x00\x00'
p1430
tp1431
bsba(i__main__
FrameData
p1432
(dp1433
g6
g1041
sg8
g9
(g13
S'bVc}\x9d\xb2#@'
p1434
tp1435
Rp1436
sg19
I0
sg20
g21
(S'\x07\xdd\t\x12\x108\x07\x04\xc9\x97'
p1437
tp1438
Rp1439
sg25
I0
sg26
g27
(g28
(I0
tp1440
g30
tp1441
Rp1442
(I1
(I2
tp1443
g36
I00
S'a\x00\x00\x00G\x00\x00\x00'
p1444
tp1445
bsba(i__main__
FrameData
p1446
(dp1447
g6
g1041
sg8
g9
(g13
S'\xf3\xd9\xa8\xa4h\x8a%@'
p1448
tp1449
Rp1450
sg19
I0
sg20
g21
(S'\x07\xdd\t\x12\x108\x07\x04\xf1\x9f'
p1451
tp1452
Rp1453
sg25
I0
sg26
g27
(g28
(I0
tp1454
g30
tp1455
Rp1456
(I1
(I2
tp1457
g36
I00
S'`\x00\x00\x00G\x00\x00\x00'
p1458
tp1459
bsba(i__main__
FrameData
p1460
(dp1461
g6
g1041
sg8
g9
(g13
S'bVc}\x9d\xb2#@'
p1462
tp1463
Rp1464
sg19
I0
sg20
g21
(S'\x07\xdd\t\x12\x108\x07\x06\xcc\xf2'
p1465
tp1466
Rp1467
sg25
I0
sg26
g27
(g28
(I0
tp1468
g30
tp1469
Rp1470
(I1
(I2
tp1471
g36
I00
S'a\x00\x00\x00G\x00\x00\x00'
p1472
tp1473
bsba(i__main__
FrameData
p1474
(dp1475
g6
g1041
sg8
g9
(g13
S'\xa3\x14\xae\xa8\x87\x16!@'
p1476
tp1477
Rp1478
sg19
I0
sg20
g21
(S'\x07\xdd\t\x12\x108\x07\x06\xf7\xb9'
p1479
tp1480
Rp1481
sg25
I0
sg26
g27
(g28
(I0
tp1482
g30
tp1483
Rp1484
(I1
(I2
tp1485
g36
I00
S'b\x00\x00\x00H\x00\x00\x00'
p1486
tp1487
bsba(i__main__
FrameData
p1488
(dp1489
g6
g1041
sg8
g9
(g13
S'p\xc4\x9d9\x8dv\x1e@'
p1490
tp1491
Rp1492
sg19
I0
sg20
g21
(S'\x07\xdd\t\x12\x108\x07\x07\x80\xa4'
p1493
tp1494
Rp1495
sg25
I0
sg26
g27
(g28
(I0
tp1496
g30
tp1497
Rp1498
(I1
(I2
tp1499
g36
I00
S'c\x00\x00\x00H\x00\x00\x00'
p1500
tp1501
bsba(i__main__
FrameData
p1502
(dp1503
g6
g1041
sg8
g9
(g13
S'\xfc\xeeci3\xd5\x1a@'
p1504
tp1505
Rp1506
sg19
I0
sg20
g21
(S'\x07\xdd\t\x12\x108\x07\x07\xb7\xae'
p1507
tp1508
Rp1509
sg25
I0
sg26
g27
(g28
(I0
tp1510
g30
tp1511
Rp1512
(I1
(I2
tp1513
g36
I00
S'd\x00\x00\x00H\x00\x00\x00'
p1514
tp1515
bsba(i__main__
FrameData
p1516
(dp1517
g6
g1041
sg8
g9
(g13
S'\xa2\xa3\xb3\r\xe5R\x17@'
p1518
tp1519
Rp1520
sg19
I0
sg20
g21
(S'\x07\xdd\t\x12\x108\x07\x08\x05L'
p1521
tp1522
Rp1523
sg25
I0
sg26
g27
(g28
(I0
tp1524
g30
tp1525
Rp1526
(I1
(I2
tp1527
g36
I00
S'e\x00\x00\x00H\x00\x00\x00'
p1528
tp1529
bsba(i__main__
FrameData
p1530
(dp1531
g6
g1041
sg8
g9
(g13
S'\x00\x00\x00\x00\x00\x00\x14@'
p1532
tp1533
Rp1534
sg19
I0
sg20
g21
(S'\x07\xdd\t\x12\x108\x07\x08U\x82'
p1535
tp1536
Rp1537
sg25
I0
sg26
g27
(g28
(I0
tp1538
g30
tp1539
Rp1540
(I1
(I2
tp1541
g36
I00
S'f\x00\x00\x00H\x00\x00\x00'
p1542
tp1543
bsba(i__main__
FrameData
p1544
(dp1545
g6
g1041
sg8
g9
(g13
S'\xd9l\xdf\xccv\xf8\x10@'
p1546
tp1547
Rp1548
sg19
I0
sg20
g21
(S'\x07\xdd\t\x12\x108\x07\x08\xc9\xcc'
p1549
tp1550
Rp1551
sg25
I0
sg26
g27
(g28
(I0
tp1552
g30
tp1553
Rp1554
(I1
(I2
tp1555
g36
I00
S'g\x00\x00\x00H\x00\x00\x00'
p1556
tp1557
bsba(i__main__
FrameData
p1558
(dp1559
g6
g1041
sg8
g9
(g13
S'\xf3YaD+\xd8\x0c@'
p1560
tp1561
Rp1562
sg19
I0
sg20
g21
(S'\x07\xdd\t\x12\x108\x07\x08\xfa_'
p1563
tp1564
Rp1565
sg25
I0
sg26
g27
(g28
(I0
tp1566
g30
tp1567
Rp1568
(I1
(I2
tp1569
g36
I00
S'h\x00\x00\x00H\x00\x00\x00'
p1570
tp1571
bsba(i__main__
FrameData
p1572
(dp1573
g6
g1041
sg8
g9
(g13
S'S[\xda:XL\t@'
p1574
tp1575
Rp1576
sg19
I0
sg20
g21
(S'\x07\xdd\t\x12\x108\x07\t?]'
p1577
tp1578
Rp1579
sg25
I0
sg26
g27
(g28
(I0
tp1580
g30
tp1581
Rp1582
(I1
(I2
tp1583
g36
I00
S'i\x00\x00\x00H\x00\x00\x00'
p1584
tp1585
bsba(i__main__
FrameData
p1586
(dp1587
g6
g1041
sg8
g9
(g13
S'\x00\x00\x00\x00\x00\x00\x08@'
p1588
tp1589
Rp1590
sg19
I0
sg20
g21
(S'\x07\xdd\t\x12\x108\x07\t\xd9['
p1591
tp1592
Rp1593
sg25
I0
sg26
g27
(g28
(I0
tp1594
g30
tp1595
Rp1596
(I1
(I2
tp1597
g36
I00
S'j\x00\x00\x00H\x00\x00\x00'
p1598
tp1599
bsba(i__main__
FrameData
p1600
(dp1601
g6
g1041
sg8
g9
(g13
S'S[\xda:XL\t@'
p1602
tp1603
Rp1604
sg19
I0
sg20
g21
(S'\x07\xdd\t\x12\x108\x07\t\xfe\xd4'
p1605
tp1606
Rp1607
sg25
I0
sg26
g27
(g28
(I0
tp1608
g30
tp1609
Rp1610
(I1
(I2
tp1611
g36
I00
S'k\x00\x00\x00H\x00\x00\x00'
p1612
tp1613
bsba(i__main__
FrameData
p1614
(dp1615
g6
g1041
sg8
g9
(g13
S'\xf3YaD+\xd8\x0c@'
p1616
tp1617
Rp1618
sg19
I0
sg20
g21
(S'\x07\xdd\t\x12\x108\x07\nBK'
p1619
tp1620
Rp1621
sg25
I0
sg26
g27
(g28
(I0
tp1622
g30
tp1623
Rp1624
(I1
(I2
tp1625
g36
I00
S'l\x00\x00\x00H\x00\x00\x00'
p1626
tp1627
bsba(i__main__
FrameData
p1628
(dp1629
g6
g1041
sg8
g9
(g13
S'\xd9l\xdf\xccv\xf8\x10@'
p1630
tp1631
Rp1632
sg19
I0
sg20
g21
(S'\x07\xdd\t\x12\x108\x07\n\x7fN'
p1633
tp1634
Rp1635
sg25
I0
sg26
g27
(g28
(I0
tp1636
g30
tp1637
Rp1638
(I1
(I2
tp1639
g36
I00
S'm\x00\x00\x00H\x00\x00\x00'
p1640
tp1641
bsba(i__main__
FrameData
p1642
(dp1643
g6
g1041
sg8
g9
(g13
S'\x00\x00\x00\x00\x00\x00\x14@'
p1644
tp1645
Rp1646
sg19
I0
sg20
g21
(S'\x07\xdd\t\x12\x108\x07\x0bL\x00'
p1647
tp1648
Rp1649
sg25
I0
sg26
g27
(g28
(I0
tp1650
g30
tp1651
Rp1652
(I1
(I2
tp1653
g36
I00
S'n\x00\x00\x00H\x00\x00\x00'
p1654
tp1655
bsba(i__main__
FrameData
p1656
(dp1657
g6
g1041
sg8
g9
(g13
S'\xcd;\x7ff\x9e\xa0\x16@'
p1658
tp1659
Rp1660
sg19
I0
sg20
g21
(S'\x07\xdd\t\x12\x108\x07\x0cD\x9f'
p1661
tp1662
Rp1663
sg25
I0
sg26
g27
(g28
(I0
tp1664
g30
tp1665
Rp1666
(I1
(I2
tp1667
g36
I00
S'n\x00\x00\x00G\x00\x00\x00'
p1668
tp1669
bsba(i__main__
FrameData
p1670
(dp1671
g6
g1041
sg8
g9
(g13
S'\x00\x00\x00\x00\x00\x00\x14@'
p1672
tp1673
Rp1674
sg19
I0
sg20
g21
(S'\x07\xdd\t\x12\x108\x07\r\xc8\xec'
p1675
tp1676
Rp1677
sg25
I0
sg26
g27
(g28
(I0
tp1678
g30
tp1679
Rp1680
(I1
(I2
tp1681
g36
I00
S'm\x00\x00\x00G\x00\x00\x00'
p1682
tp1683
bsba(i__main__
FrameData
p1684
(dp1685
g6
g1041
sg8
g9
(g13
S'\xa2\xa3\xb3\r\xe5R\x17@'
p1686
tp1687
Rp1688
sg19
I0
sg20
g21
(S'\x07\xdd\t\x12\x108\x07\x0ep\n'
p1689
tp1690
Rp1691
sg25
I0
sg26
g27
(g28
(I0
tp1692
g30
tp1693
Rp1694
(I1
(I2
tp1695
g36
I00
S'm\x00\x00\x00F\x00\x00\x00'
p1696
tp1697
bsba(i__main__
FrameData
p1698
(dp1699
g6
g1041
sg8
g9
(g13
S'\xf6/\x12_ee\x14@'
p1700
tp1701
Rp1702
sg19
I0
sg20
g21
(S'\x07\xdd\t\x12\x108\x07\x0e\x96\xed'
p1703
tp1704
Rp1705
sg25
I0
sg26
g27
(g28
(I0
tp1706
g30
tp1707
Rp1708
(I1
(I2
tp1709
g36
I00
S'k\x00\x00\x00F\x00\x00\x00'
p1710
tp1711
bsba(i__main__
FrameData
p1712
(dp1713
g6
g1041
sg8
g9
(g13
S'\x00\x00\x00\x00\x00\x00\x14@'
p1714
tp1715
Rp1716
sg19
I0
sg20
g21
(S'\x07\xdd\t\x12\x108\x08\x00\x17\x06'
p1717
tp1718
Rp1719
sg25
I0
sg26
g27
(g28
(I0
tp1720
g30
tp1721
Rp1722
(I1
(I2
tp1723
g36
I00
S'j\x00\x00\x00F\x00\x00\x00'
p1724
tp1725
bsba(i__main__
FrameData
p1726
(dp1727
g6
g1041
sg8
g9
(g13
S'\x00\x00\x00\x00\x00\x00\x10@'
p1728
tp1729
Rp1730
sg19
I0
sg20
g21
(S'\x07\xdd\t\x12\x108\x08\x01g\xff'
p1731
tp1732
Rp1733
sg25
I0
sg26
g27
(g28
(I0
tp1734
g30
tp1735
Rp1736
(I1
(I2
tp1737
g36
I00
S'j\x00\x00\x00G\x00\x00\x00'
p1738
tp1739
bsba(i__main__
FrameData
p1740
(dp1741
g6
g1041
sg8
g9
(g13
S'\x00\x00\x00\x00\x00\x00\x08@'
p1742
tp1743
Rp1744
sg19
I0
sg20
g21
(S'\x07\xdd\t\x12\x108\x08\x01\xd5\xcc'
p1745
tp1746
Rp1747
sg25
I0
sg26
g27
(g28
(I0
tp1748
g30
tp1749
Rp1750
(I1
(I2
tp1751
g36
I00
S'j\x00\x00\x00H\x00\x00\x00'
p1752
tp1753
bsba(i__main__
FrameData
p1754
(dp1755
g6
g1041
sg8
g9
(g13
S'\x00\x00\x00\x00\x00\x00\x00@'
p1756
tp1757
Rp1758
sg19
I0
sg20
g21
(S'\x07\xdd\t\x12\x108\x08\x02)Y'
p1759
tp1760
Rp1761
sg25
I0
sg26
g27
(g28
(I0
tp1762
g30
tp1763
Rp1764
(I1
(I2
tp1765
g36
I00
S'j\x00\x00\x00I\x00\x00\x00'
p1766
tp1767
bsba(i__main__
FrameData
p1768
(dp1769
g6
g1041
sg8
g9
(g13
S'\x00\x00\x00\x00\x00\x00\xf0?'
p1770
tp1771
Rp1772
sg19
I0
sg20
g21
(S'\x07\xdd\t\x12\x108\x08\x038\xb2'
p1773
tp1774
Rp1775
sg25
I0
sg26
g27
(g28
(I0
tp1776
g30
tp1777
Rp1778
(I1
(I2
tp1779
g36
I00
S'j\x00\x00\x00J\x00\x00\x00'
p1780
tp1781
bsba(i__main__
FrameData
p1782
(dp1783
g6
g1041
sg8
g9
(g13
S'\x00\x00\x00\x00\x00\x00\xf0?'
p1784
tp1785
Rp1786
sg19
I0
sg20
g21
(S'\x07\xdd\t\x12\x108\x08\x03_\xeb'
p1787
tp1788
Rp1789
sg25
I0
sg26
g27
(g28
(I0
tp1790
g30
tp1791
Rp1792
(I1
(I2
tp1793
g36
I00
S'j\x00\x00\x00L\x00\x00\x00'
p1794
tp1795
bsba(i__main__
FrameData
p1796
(dp1797
g6
g1041
sg8
g9
(g13
S'\x00\x00\x00\x00\x00\x00\x08@'
p1798
tp1799
Rp1800
sg19
I0
sg20
g21
(S'\x07\xdd\t\x12\x108\x08\x03\xadU'
p1801
tp1802
Rp1803
sg25
I0
sg26
g27
(g28
(I0
tp1804
g30
tp1805
Rp1806
(I1
(I2
tp1807
g36
I00
S'j\x00\x00\x00N\x00\x00\x00'
p1808
tp1809
bsba(i__main__
FrameData
p1810
(dp1811
g6
g1041
sg8
g9
(g13
S'S[\xda:XL\x19@'
p1812
tp1813
Rp1814
sg19
I0
sg20
g21
(S'\x07\xdd\t\x12\x108\x08\x03\xd6\x0c'
p1815
tp1816
Rp1817
sg25
I0
sg26
g27
(g28
(I0
tp1818
g30
tp1819
Rp1820
(I1
(I2
tp1821
g36
I00
S'l\x00\x00\x00Q\x00\x00\x00'
p1822
tp1823
bsba(i__main__
FrameData
p1824
(dp1825
g6
g1041
sg8
g9
(g13
S'p\xc4\x9d9\x8dv\x1e@'
p1826
tp1827
Rp1828
sg19
I0
sg20
g21
(S'\x07\xdd\t\x12\x108\x08\x04\x17\x98'
p1829
tp1830
Rp1831
sg25
I0
sg26
g27
(g28
(I0
tp1832
g30
tp1833
Rp1834
(I1
(I2
tp1835
g36
I00
S'm\x00\x00\x00R\x00\x00\x00'
p1836
tp1837
bsba(i__main__
FrameData
p1838
(dp1839
g6
g1041
sg8
g9
(g13
S'N\x017\xfac4!@'
p1840
tp1841
Rp1842
sg19
I0
sg20
g21
(S"\x07\xdd\t\x12\x108\x08\x04_'"
p1843
tp1844
Rp1845
sg25
I0
sg26
g27
(g28
(I0
tp1846
g30
tp1847
Rp1848
(I1
(I2
tp1849
g36
I00
S'o\x00\x00\x00R\x00\x00\x00'
p1850
tp1851
bsba(i__main__
FrameData
p1852
(dp1853
g6
g1041
sg8
g9
(g13
S'F\xc3\\\xa8\xc1i(@'
p1854
tp1855
Rp1856
sg19
I0
sg20
g21
(S'\x07\xdd\t\x12\x108\x08\x04\xa4\x08'
p1857
tp1858
Rp1859
sg25
I0
sg26
g27
(g28
(I0
tp1860
g30
tp1861
Rp1862
(I1
(I2
tp1863
g36
I00
S'q\x00\x00\x00U\x00\x00\x00'
p1864
tp1865
bsba(i__main__
FrameData
p1866
(dp1867
g6
g1041
sg8
g9
(g13
S'/\xa4\xe3\\m\xbb-@'
p1868
tp1869
Rp1870
sg19
I0
sg20
g21
(S'\x07\xdd\t\x12\x108\x08\x04\xe34'
p1871
tp1872
Rp1873
sg25
I0
sg26
g27
(g28
(I0
tp1874
g30
tp1875
Rp1876
(I1
(I2
tp1877
g36
I00
S't\x00\x00\x00V\x00\x00\x00'
p1878
tp1879
bsba(i__main__
FrameData
p1880
(dp1881
g6
S'y'
p1882
sg8
g9
(g13
S'\x00\x00\x00\x00\x00\x00.@'
p1883
tp1884
Rp1885
sg19
I0
sg20
g21
(S'\x07\xdd\t\x12\x108\x08\x05  '
p1886
tp1887
Rp1888
sg25
I0
sg26
g27
(g28
(I0
tp1889
g30
tp1890
Rp1891
(I1
(I2
tp1892
g36
I00
S'y\x00\x00\x00Y\x00\x00\x00'
p1893
tp1894
bsba(i__main__
FrameData
p1895
(dp1896
g6
g1882
sg8
g9
(g13
S'/\xa4\xe3\\m\xbb-@'
p1897
tp1898
Rp1899
sg19
I0
sg20
g21
(S'\x07\xdd\t\x12\x108\x08\x05^1'
p1900
tp1901
Rp1902
sg25
I0
sg26
g27
(g28
(I0
tp1903
g30
tp1904
Rp1905
(I1
(I2
tp1906
g36
I00
S'}\x00\x00\x00[\x00\x00\x00'
p1907
tp1908
bsba(i__main__
FrameData
p1909
(dp1910
g6
g1882
sg8
g9
(g13
S'[y\xf7F\xf7C.@'
p1911
tp1912
Rp1913
sg19
I0
sg20
g21
(S'\x07\xdd\t\x12\x108\x08\x05\xc2S'
p1914
tp1915
Rp1916
sg25
I0
sg26
g27
(g28
(I0
tp1917
g30
tp1918
Rp1919
(I1
(I2
tp1920
g36
I00
S'\x80\x00\x00\x00\\\x00\x00\x00'
p1921
tp1922
bsba(i__main__
FrameData
p1923
(dp1924
g6
g1882
sg8
g9
(g13
S'\xd0\xbaa?\xe0\x1f0@'
p1925
tp1926
Rp1927
sg19
I0
sg20
g21
(S'\x07\xdd\t\x12\x108\x08\x05\xdc\x8c'
p1928
tp1929
Rp1930
sg25
I0
sg26
g27
(g28
(I0
tp1931
g30
tp1932
Rp1933
(I1
(I2
tp1934
g36
I00
S'\x84\x00\x00\x00]\x00\x00\x00'
p1935
tp1936
bsba(i__main__
FrameData
p1937
(dp1938
g6
g1882
sg8
g9
(g13
S'>9\x15\x8cW\xc30@'
p1939
tp1940
Rp1941
sg19
I0
sg20
g21
(S'\x07\xdd\t\x12\x108\x08\x06"\x96'
p1942
tp1943
Rp1944
sg25
I0
sg26
g27
(g28
(I0
tp1945
g30
tp1946
Rp1947
(I1
(I2
tp1948
g36
I00
S'\x87\x00\x00\x00]\x00\x00\x00'
p1949
tp1950
bsba(i__main__
FrameData
p1951
(dp1952
g6
g1882
sg8
g9
(g13
S'\xbf\x8f+\t\x89[2@'
p1953
tp1954
Rp1955
sg19
I0
sg20
g21
(S'\x07\xdd\t\x12\x108\x08\x06]`'
p1956
tp1957
Rp1958
sg25
I0
sg26
g27
(g28
(I0
tp1959
g30
tp1960
Rp1961
(I1
(I2
tp1962
g36
I00
S'\x8b\x00\x00\x00]\x00\x00\x00'
p1963
tp1964
bsba(i__main__
FrameData
p1965
(dp1966
g6
S'u'
p1967
sg8
g9
(g13
S'I\xe8[@\x93\x9d4@'
p1968
tp1969
Rp1970
sg19
I0
sg20
g21
(S'\x07\xdd\t\x12\x108\x08\x06\xab\xcc'
p1971
tp1972
Rp1973
sg25
I0
sg26
g27
(g28
(I0
tp1974
g30
tp1975
Rp1976
(I1
(I2
tp1977
g36
I00
S'\x90\x00\x00\x00]\x00\x00\x00'
p1978
tp1979
bsba(i__main__
FrameData
p1980
(dp1981
g6
g1967
sg8
g9
(g13
S'\xc9\xe0>!B<3@'
p1982
tp1983
Rp1984
sg19
I0
sg20
g21
(S'\x07\xdd\t\x12\x108\x08\x06\xdf\x98'
p1985
tp1986
Rp1987
sg25
I0
sg26
g27
(g28
(I0
tp1988
g30
tp1989
Rp1990
(I1
(I2
tp1991
g36
I00
S'\x95\x00\x00\x00]\x00\x00\x00'
p1992
tp1993
bsba(i__main__
FrameData
p1994
(dp1995
g6
g1967
sg8
g9
(g13
S'\xf0)#L\x89\x194@'
p1996
tp1997
Rp1998
sg19
I0
sg20
g21
(S'\x07\xdd\t\x12\x108\x08\x07 O'
p1999
tp2000
Rp2001
sg25
I0
sg26
g27
(g28
(I0
tp2002
g30
tp2003
Rp2004
(I1
(I2
tp2005
g36
I00
S'\x9a\x00\x00\x00^\x00\x00\x00'
p2006
tp2007
bsba(i__main__
FrameData
p2008
(dp2009
g6
g1967
sg8
g9
(g13
S'\xf6/\x12_ee4@'
p2010
tp2011
Rp2012
sg19
I0
sg20
g21
(S"\x07\xdd\t\x12\x108\x08\x07m'"
p2013
tp2014
Rp2015
sg25
I0
sg26
g27
(g28
(I0
tp2016
g30
tp2017
Rp2018
(I1
(I2
tp2019
g36
I00
S'\x9c\x00\x00\x00^\x00\x00\x00'
p2020
tp2021
bsba(i__main__
FrameData
p2022
(dp2023
g6
g1967
sg8
g9
(g13
S'\xa5\xf4a\xf1\x8a05@'
p2024
tp2025
Rp2026
sg19
I0
sg20
g21
(S'\x07\xdd\t\x12\x108\x08\x07\xba\xc0'
p2027
tp2028
Rp2029
sg25
I0
sg26
g27
(g28
(I0
tp2030
g30
tp2031
Rp2032
(I1
(I2
tp2033
g36
I00
S'\x9f\x00\x00\x00^\x00\x00\x00'
p2034
tp2035
bsba(i__main__
FrameData
p2036
(dp2037
g6
S'j'
p2038
sg8
g9
(g13
S'7\xf9\xcf\xdao\xe14@'
p2039
tp2040
Rp2041
sg19
I0
sg20
g21
(S'\x07\xdd\t\x12\x108\x08\x08\x08s'
p2042
tp2043
Rp2044
sg25
I0
sg26
g27
(g28
(I0
tp2045
g30
tp2046
Rp2047
(I1
(I2
tp2048
g36
I00
S'\xa1\x00\x00\x00^\x00\x00\x00'
p2049
tp2050
bsba(i__main__
FrameData
p2051
(dp2052
g6
g2038
sg8
g9
(g13
S'\xf6/\x12_ee4@'
p2053
tp2054
Rp2055
sg19
I0
sg20
g21
(S'\x07\xdd\t\x12\x108\x08\x08-\xbd'
p2056
tp2057
Rp2058
sg25
I0
sg26
g27
(g28
(I0
tp2059
g30
tp2060
Rp2061
(I1
(I2
tp2062
g36
I00
S'\xa3\x00\x00\x00^\x00\x00\x00'
p2063
tp2064
bsba(i__main__
FrameData
p2065
(dp2066
g6
g2038
sg8
g9
(g13
S'\xf0)#L\x89\x194@'
p2067
tp2068
Rp2069
sg19
I0
sg20
g21
(S'\x07\xdd\t\x12\x108\x08\x08f\xaf'
p2070
tp2071
Rp2072
sg25
I0
sg26
g27
(g28
(I0
tp2073
g30
tp2074
Rp2075
(I1
(I2
tp2076
g36
I00
S'\xa5\x00\x00\x00^\x00\x00\x00'
p2077
tp2078
bsba(i__main__
FrameData
p2079
(dp2080
g6
g2038
sg8
g9
(g13
S'\xc3\xe7Zp\xbb\x063@'
p2081
tp2082
Rp2083
sg19
I0
sg20
g21
(S'\x07\xdd\t\x12\x108\x08\x08\xbd\xb4'
p2084
tp2085
Rp2086
sg25
I0
sg26
g27
(g28
(I0
tp2087
g30
tp2088
Rp2089
(I1
(I2
tp2090
g36
I00
S'\xa6\x00\x00\x00_\x00\x00\x00'
p2091
tp2092
bsba(i__main__
FrameData
p2093
(dp2094
g6
g2038
sg8
g9
(g13
S'^\x9e\x9f\x85\xdf\x1a3@'
p2095
tp2096
Rp2097
sg19
I0
sg20
g21
(S'\x07\xdd\t\x12\x108\x08\x08\xe5\xcf'
p2098
tp2099
Rp2100
sg25
I0
sg26
g27
(g28
(I0
tp2101
g30
tp2102
Rp2103
(I1
(I2
tp2104
g36
I00
S'\xa9\x00\x00\x00_\x00\x00\x00'
p2105
tp2106
bsba(i__main__
FrameData
p2107
(dp2108
g6
g2038
sg8
g9
(g13
S'\xc9\xe0>!B<3@'
p2109
tp2110
Rp2111
sg19
I0
sg20
g21
(S'\x07\xdd\t\x12\x108\x08\t@\xab'
p2112
tp2113
Rp2114
sg25
I0
sg26
g27
(g28
(I0
tp2115
g30
tp2116
Rp2117
(I1
(I2
tp2118
g36
I00
S'\xaa\x00\x00\x00_\x00\x00\x00'
p2119
tp2120
bsba(i__main__
FrameData
p2121
(dp2122
g6
g2038
sg8
g9
(g13
S'W\xb2\xdb\x1a\x9a\xa53@'
p2123
tp2124
Rp2125
sg19
I0
sg20
g21
(S'\x07\xdd\t\x12\x108\x08\tfi'
p2126
tp2127
Rp2128
sg25
I0
sg26
g27
(g28
(I0
tp2129
g30
tp2130
Rp2131
(I1
(I2
tp2132
g36
I00
S'\xac\x00\x00\x00_\x00\x00\x00'
p2133
tp2134
bsba(i__main__
FrameData
p2135
(dp2136
g6
S'i'
p2137
sg8
g9
(g13
S'\xbd\xec\x81\x93G94@'
p2138
tp2139
Rp2140
sg19
I0
sg20
g21
(S'\x07\xdd\t\x12\x108\x08\t\xb3\xfa'
p2141
tp2142
Rp2143
sg25
I0
sg26
g27
(g28
(I0
tp2144
g30
tp2145
Rp2146
(I1
(I2
tp2147
g36
I00
S'\xaf\x00\x00\x00_\x00\x00\x00'
p2148
tp2149
bsba(i__main__
FrameData
p2150
(dp2151
g6
g2137
sg8
g9
(g13
S'\x8fJ\x95`e\x064@'
p2152
tp2153
Rp2154
sg19
I0
sg20
g21
(S'\x07\xdd\t\x12\x108\x08\t\xfa\xa7'
p2155
tp2156
Rp2157
sg25
I0
sg26
g27
(g28
(I0
tp2158
g30
tp2159
Rp2160
(I1
(I2
tp2161
g36
I00
S'\xb1\x00\x00\x00_\x00\x00\x00'
p2162
tp2163
bsba(i__main__
FrameData
p2164
(dp2165
g6
g2137
sg8
g9
(g13
S'\xbb\x91T\x7f\x17\x065@'
p2166
tp2167
Rp2168
sg19
I0
sg20
g21
(S'\x07\xdd\t\x12\x108\x08\nA\xc7'
p2169
tp2170
Rp2171
sg25
I0
sg26
g27
(g28
(I0
tp2172
g30
tp2173
Rp2174
(I1
(I2
tp2175
g36
I00
S'\xb3\x00\x00\x00`\x00\x00\x00'
p2176
tp2177
bsba(i__main__
FrameData
p2178
(dp2179
g6
S'k'
p2180
sg8
g9
(g13
S'=\xf3\n\x8f\xe6\x1f4@'
p2181
tp2182
Rp2183
sg19
I0
sg20
g21
(S'\x07\xdd\t\x12\x108\x08\nk\xd0'
p2184
tp2185
Rp2186
sg25
I0
sg26
g27
(g28
(I0
tp2187
g30
tp2188
Rp2189
(I1
(I2
tp2190
g36
I00
S'\xb5\x00\x00\x00`\x00\x00\x00'
p2191
tp2192
bsba(i__main__
FrameData
p2193
(dp2194
g6
g2180
sg8
g9
(g13
S'VT\xdbd.P3@'
p2195
tp2196
Rp2197
sg19
I0
sg20
g21
(S'\x07\xdd\t\x12\x108\x08\n\xacp'
p2198
tp2199
Rp2200
sg25
I0
sg26
g27
(g28
(I0
tp2201
g30
tp2202
Rp2203
(I1
(I2
tp2204
g36
I00
S'\xb7\x00\x00\x00`\x00\x00\x00'
p2205
tp2206
bsba(i__main__
FrameData
p2207
(dp2208
g6
g2180
sg8
g9
(g13
S'\xa8y\x0c\t\xd9v1@'
p2209
tp2210
Rp2211
sg19
I0
sg20
g21
(S'\x07\xdd\t\x12\x108\x08\n\xfa\xfa'
p2212
tp2213
Rp2214
sg25
I0
sg26
g27
(g28
(I0
tp2215
g30
tp2216
Rp2217
(I1
(I2
tp2218
g36
I00
S'\xba\x00\x00\x00a\x00\x00\x00'
p2219
tp2220
bsba(i__main__
FrameData
p2221
(dp2222
g6
g2180
sg8
g9
(g13
S'f\xee@\x9f\x03\x1e1@'
p2223
tp2224
Rp2225
sg19
I0
sg20
g21
(S'\x07\xdd\t\x12\x108\x08\x0b,\x97'
p2226
tp2227
Rp2228
sg25
I0
sg26
g27
(g28
(I0
tp2229
g30
tp2230
Rp2231
(I1
(I2
tp2232
g36
I00
S'\xbc\x00\x00\x00a\x00\x00\x00'
p2233
tp2234
bsba(i__main__
FrameData
p2235
(dp2236
g6
g2180
sg8
g9
(g13
S'\x00\x00\x00\x00\x00\x001@'
p2237
tp2238
Rp2239
sg19
I0
sg20
g21
(S'\x07\xdd\t\x12\x108\x08\x0bm^'
p2240
tp2241
Rp2242
sg25
I0
sg26
g27
(g28
(I0
tp2243
g30
tp2244
Rp2245
(I1
(I2
tp2246
g36
I00
S'\xbe\x00\x00\x00a\x00\x00\x00'
p2247
tp2248
bsba(i__main__
FrameData
p2249
(dp2250
g6
g2180
sg8
g9
(g13
S'p`\xff\x00\xfe\x070@'
p2251
tp2252
Rp2253
sg19
I0
sg20
g21
(S'\x07\xdd\t\x12\x108\x08\x0b\xb5V'
p2254
tp2255
Rp2256
sg25
I0
sg26
g27
(g28
(I0
tp2257
g30
tp2258
Rp2259
(I1
(I2
tp2260
g36
I00
S'\xbf\x00\x00\x00b\x00\x00\x00'
p2261
tp2262
bsba(i__main__
FrameData
p2263
(dp2264
g6
g2180
sg8
g9
(g13
S'\xf7\x80Aq\xb9\xa2,@'
p2265
tp2266
Rp2267
sg19
I0
sg20
g21
(S'\x07\xdd\t\x12\x108\x08\x0cKI'
p2268
tp2269
Rp2270
sg25
I0
sg26
g27
(g28
(I0
tp2271
g30
tp2272
Rp2273
(I1
(I2
tp2274
g36
I00
S'\xc1\x00\x00\x00d\x00\x00\x00'
p2275
tp2276
bsba(i__main__
FrameData
p2277
(dp2278
g6
g2180
sg8
g9
(g13
S'\xe9\xfbv \xd5\x1e-@'
p2279
tp2280
Rp2281
sg19
I0
sg20
g21
(S'\x07\xdd\t\x12\x108\x08\x0cv\xd2'
p2282
tp2283
Rp2284
sg25
I0
sg26
g27
(g28
(I0
tp2285
g30
tp2286
Rp2287
(I1
(I2
tp2288
g36
I00
S'\xc2\x00\x00\x00d\x00\x00\x00'
p2289
tp2290
bsba(i__main__
FrameData
p2291
(dp2292
g6
g2180
sg8
g9
(g13
S'\xbc\xfdP\xb5U\xdb+@'
p2293
tp2294
Rp2295
sg19
I0
sg20
g21
(S'\x07\xdd\t\x12\x108\x08\x0c\xc4 '
p2296
tp2297
Rp2298
sg25
I0
sg26
g27
(g28
(I0
tp2299
g30
tp2300
Rp2301
(I1
(I2
tp2302
g36
I00
S'\xc3\x00\x00\x00e\x00\x00\x00'
p2303
tp2304
bsba(i__main__
FrameData
p2305
(dp2306
g6
g2180
sg8
g9
(g13
S'\xb9e(k\xee\xc8+@'
p2307
tp2308
Rp2309
sg19
I0
sg20
g21
(S'\x07\xdd\t\x12\x108\x08\r\x11\xd2'
p2310
tp2311
Rp2312
sg25
I0
sg26
g27
(g28
(I0
tp2313
g30
tp2314
Rp2315
(I1
(I2
tp2316
g36
I00
S'\xc5\x00\x00\x00f\x00\x00\x00'
p2317
tp2318
bsba(i__main__
FrameData
p2319
(dp2320
g6
g2180
sg8
g9
(g13
S'\xf3YaD+\xd8,@'
p2321
tp2322
Rp2323
sg19
I0
sg20
g21
(S'\x07\xdd\t\x12\x108\x08\r7\x88'
p2324
tp2325
Rp2326
sg25
I0
sg26
g27
(g28
(I0
tp2327
g30
tp2328
Rp2329
(I1
(I2
tp2330
g36
I00
S'\xc6\x00\x00\x00f\x00\x00\x00'
p2331
tp2332
bsba(i__main__
FrameData
p2333
(dp2334
g6
g2180
sg8
g9
(g13
S'/\xa4\xe3\\m\xbb-@'
p2335
tp2336
Rp2337
sg19
I0
sg20
g21
(S'\x07\xdd\t\x12\x108\x08\r\x859'
p2338
tp2339
Rp2340
sg25
I0
sg26
g27
(g28
(I0
tp2341
g30
tp2342
Rp2343
(I1
(I2
tp2344
g36
I00
S'\xc8\x00\x00\x00g\x00\x00\x00'
p2345
tp2346
bsba(i__main__
FrameData
p2347
(dp2348
g6
g2180
sg8
g9
(g13
S'9\xf2\xee\xcc\xd9\x1c/@'
p2349
tp2350
Rp2351
sg19
I0
sg20
g21
(S'\x07\xdd\t\x12\x108\x08\r\xb5\x84'
p2352
tp2353
Rp2354
sg25
I0
sg26
g27
(g28
(I0
tp2355
g30
tp2356
Rp2357
(I1
(I2
tp2358
g36
I00
S'\xc9\x00\x00\x00g\x00\x00\x00'
p2359
tp2360
bsba(i__main__
FrameData
p2361
(dp2362
g6
g2180
sg8
g9
(g13
S'htN\x17\xb2=/@'
p2363
tp2364
Rp2365
sg19
I0
sg20
g21
(S'\x07\xdd\t\x12\x108\x08\r\xfa\x82'
p2366
tp2367
Rp2368
sg25
I0
sg26
g27
(g28
(I0
tp2369
g30
tp2370
Rp2371
(I1
(I2
tp2372
g36
I00
S'\xca\x00\x00\x00h\x00\x00\x00'
p2373
tp2374
bsba(i__main__
FrameData
p2375
(dp2376
g6
S'l'
p2377
sg8
g9
(g13
S'\xc0\n\x1f\x00\xc6H,@'
p2378
tp2379
Rp2380
sg19
I0
sg20
g21
(S'\x07\xdd\t\x12\x108\x08\x0eG\xd8'
p2381
tp2382
Rp2383
sg25
I0
sg26
g27
(g28
(I0
tp2384
g30
tp2385
Rp2386
(I1
(I2
tp2387
g36
I00
S'\xcc\x00\x00\x00h\x00\x00\x00'
p2388
tp2389
bsba(i__main__
FrameData
p2390
(dp2391
g6
g2377
sg8
g9
(g13
S'&5w\xe2K\x15(@'
p2392
tp2393
Rp2394
sg19
I0
sg20
g21
(S'\x07\xdd\t\x12\x108\x08\x0e\x96\x1e'
p2395
tp2396
Rp2397
sg25
I0
sg26
g27
(g28
(I0
tp2398
g30
tp2399
Rp2400
(I1
(I2
tp2401
g36
I00
S'\xce\x00\x00\x00i\x00\x00\x00'
p2402
tp2403
bsba(i__main__
FrameData
p2404
(dp2405
g6
g2377
sg8
g9
(g13
S'w\x03Is \xa2%@'
p2406
tp2407
Rp2408
sg19
I0
sg20
g21
(S'\x07\xdd\t\x12\x108\x08\x0e\xbc\x81'
p2409
tp2410
Rp2411
sg25
I0
sg26
g27
(g28
(I0
tp2412
g30
tp2413
Rp2414
(I1
(I2
tp2415
g36
I00
S'\xd0\x00\x00\x00i\x00\x00\x00'
p2416
tp2417
bsba(i__main__
FrameData
p2418
(dp2419
g6
g2377
sg8
g9
(g13
S'\x88\x80v\xd5\\\x97$@'
p2420
tp2421
Rp2422
sg19
I0
sg20
g21
(S'\x07\xdd\t\x12\x108\x08\x0e\xf7\xc5'
p2423
tp2424
Rp2425
sg25
I0
sg26
g27
(g28
(I0
tp2426
g30
tp2427
Rp2428
(I1
(I2
tp2429
g36
I00
S'\xd1\x00\x00\x00i\x00\x00\x00'
p2430
tp2431
bsba(i__main__
FrameData
p2432
(dp2433
g6
g2377
sg8
g9
(g13
S'~\xc4#,B\xf9"@'
p2434
tp2435
Rp2436
sg19
I0
sg20
g21
(S'\x07\xdd\t\x12\x108\t\x00<\x1b'
p2437
tp2438
Rp2439
sg25
I0
sg26
g27
(g28
(I0
tp2440
g30
tp2441
Rp2442
(I1
(I2
tp2443
g36
I00
S'\xd3\x00\x00\x00i\x00\x00\x00'
p2444
tp2445
bsba(i__main__
FrameData
p2446
(dp2447
g6
g2377
sg8
g9
(g13
S'\x07\xed\xaff\x0f~ @'
p2448
tp2449
Rp2450
sg19
I0
sg20
g21
(S'\x07\xdd\t\x12\x108\t\x00w\xf0'
p2451
tp2452
Rp2453
sg25
I0
sg26
g27
(g28
(I0
tp2454
g30
tp2455
Rp2456
(I1
(I2
tp2457
g36
I00
S'\xd4\x00\x00\x00j\x00\x00\x00'
p2458
tp2459
bsba(i__main__
FrameData
p2460
(dp2461
g6
g2377
sg8
g9
(g13
S'\xe9\xfbv \xd5\x1e\x1d@'
p2462
tp2463
Rp2464
sg19
I0
sg20
g21
(S'\x07\xdd\t\x12\x108\t\x00\xc2['
p2465
tp2466
Rp2467
sg25
I0
sg26
g27
(g28
(I0
tp2468
g30
tp2469
Rp2470
(I1
(I2
tp2471
g36
I00
S'\xd4\x00\x00\x00k\x00\x00\x00'
p2472
tp2473
bsba(i__main__
FrameData
p2474
(dp2475
g6
g2377
sg8
g9
(g13
S'\xc0\n\x1f\x00\xc6H\x1c@'
p2476
tp2477
Rp2478
sg19
I0
sg20
g21
(S'\x07\xdd\t\x12\x108\t\x01\n\x08'
p2479
tp2480
Rp2481
sg25
I0
sg26
g27
(g28
(I0
tp2482
g30
tp2483
Rp2484
(I1
(I2
tp2485
g36
I00
S'\xd5\x00\x00\x00k\x00\x00\x00'
p2486
tp2487
bsba(i__main__
FrameData
p2488
(dp2489
g6
g2377
sg8
g9
(g13
S'\x00\x00\x00\x00\x00\x00\x1c@'
p2490
tp2491
Rp2492
sg19
I0
sg20
g21
(S'\x07\xdd\t\x12\x108\t\x02\x12Y'
p2493
tp2494
Rp2495
sg25
I0
sg26
g27
(g28
(I0
tp2496
g30
tp2497
Rp2498
(I1
(I2
tp2499
g36
I00
S'\xd6\x00\x00\x00k\x00\x00\x00'
p2500
tp2501
bsba(i__main__
FrameData
p2502
(dp2503
g6
g2377
sg8
g9
(g13
S'\xc0\n\x1f\x00\xc6H\x1c@'
p2504
tp2505
Rp2506
sg19
I0
sg20
g21
(S'\x07\xdd\t\x12\x108\t\x05Q\x1d'
p2507
tp2508
Rp2509
sg25
I0
sg26
g27
(g28
(I0
tp2510
g30
tp2511
Rp2512
(I1
(I2
tp2513
g36
I00
S'\xd5\x00\x00\x00k\x00\x00\x00'
p2514
tp2515
bsba(i__main__
FrameData
p2516
(dp2517
g6
g2377
sg8
g9
(g13
S'\xf6/\x12_ee\x14@'
p2518
tp2519
Rp2520
sg19
I0
sg20
g21
(S'\x07\xdd\t\x12\x108\t\x05\x89\x8c'
p2521
tp2522
Rp2523
sg25
I0
sg26
g27
(g28
(I0
tp2524
g30
tp2525
Rp2526
(I1
(I2
tp2527
g36
I00
S'\xd5\x00\x00\x00m\x00\x00\x00'
p2528
tp2529
bsba(i__main__
FrameData
p2530
(dp2531
g6
g2377
sg8
g9
(g13
S'\xa2\xa3\xb3\r\xe5R\x17@'
p2532
tp2533
Rp2534
sg19
I0
sg20
g21
(S'\x07\xdd\t\x12\x108\t\x05\xd4\xfb'
p2535
tp2536
Rp2537
sg25
I0
sg26
g27
(g28
(I0
tp2538
g30
tp2539
Rp2540
(I1
(I2
tp2541
g36
I00
S'\xd3\x00\x00\x00m\x00\x00\x00'
p2542
tp2543
bsba(i__main__
FrameData
p2544
(dp2545
g6
g2377
sg8
g9
(g13
S'\xc0\n\x1f\x00\xc6H\x1c@'
p2546
tp2547
Rp2548
sg19
I0
sg20
g21
(S'\x07\xdd\t\x12\x108\t\x06\tQ'
p2549
tp2550
Rp2551
sg25
I0
sg26
g27
(g28
(I0
tp2552
g30
tp2553
Rp2554
(I1
(I2
tp2555
g36
I00
S'\xd1\x00\x00\x00m\x00\x00\x00'
p2556
tp2557
bsba(i__main__
FrameData
p2558
(dp2559
g6
g2377
sg8
g9
(g13
S'\xd0\xbaa?\xe0\x1f @'
p2560
tp2561
Rp2562
sg19
I0
sg20
g21
(S'\x07\xdd\t\x12\x108\t\x06I\xf1'
p2563
tp2564
Rp2565
sg25
I0
sg26
g27
(g28
(I0
tp2566
g30
tp2567
Rp2568
(I1
(I2
tp2569
g36
I00
S'\xcf\x00\x00\x00n\x00\x00\x00'
p2570
tp2571
bsba(i__main__
FrameData
p2572
(dp2573
g6
g2377
sg8
g9
(g13
S'7\xf9\xcf\xdao\xe1$@'
p2574
tp2575
Rp2576
sg19
I0
sg20
g21
(S'\x07\xdd\t\x12\x108\t\x06\x8c\n'
p2577
tp2578
Rp2579
sg25
I0
sg26
g27
(g28
(I0
tp2580
g30
tp2581
Rp2582
(I1
(I2
tp2583
g36
I00
S'\xcc\x00\x00\x00o\x00\x00\x00'
p2584
tp2585
bsba(i__main__
FrameData
p2586
(dp2587
g6
g2180
sg8
g9
(g13
S'\xeb\x12\xb2\xbb\xb2\xcd&@'
p2588
tp2589
Rp2590
sg19
I0
sg20
g21
(S'\x07\xdd\t\x12\x108\t\x06\xe5\xb4'
p2591
tp2592
Rp2593
sg25
I0
sg26
g27
(g28
(I0
tp2594
g30
tp2595
Rp2596
(I1
(I2
tp2597
g36
I00
S'\xc9\x00\x00\x00o\x00\x00\x00'
p2598
tp2599
bsba(i__main__
FrameData
p2600
(dp2601
g6
g2180
sg8
g9
(g13
S'\xe9\xfbv \xd5\x1e\x1d@'
p2602
tp2603
Rp2604
sg19
I0
sg20
g21
(S'\x07\xdd\t\x12\x108\t\x07\x0b\x1a'
p2605
tp2606
Rp2607
sg25
I0
sg26
g27
(g28
(I0
tp2608
g30
tp2609
Rp2610
(I1
(I2
tp2611
g36
I00
S'\xc5\x00\x00\x00p\x00\x00\x00'
p2612
tp2613
bsba(i__main__
FrameData
p2614
(dp2615
g6
g2180
sg8
g9
(g13
S'\xa8\xf4\x97\x9bw\xe3\x11@'
p2616
tp2617
Rp2618
sg19
I0
sg20
g21
(S'\x07\xdd\t\x12\x108\t\x07L\xa7'
p2619
tp2620
Rp2621
sg25
I0
sg26
g27
(g28
(I0
tp2622
g30
tp2623
Rp2624
(I1
(I2
tp2625
g36
I00
S'\xc2\x00\x00\x00p\x00\x00\x00'
p2626
tp2627
bsba(i__main__
FrameData
p2628
(dp2629
g6
g2180
sg8
g9
(g13
S'\xcd;\x7ff\x9e\xa0\x06@'
p2630
tp2631
Rp2632
sg19
I0
sg20
g21
(S'\x07\xdd\t\x12\x108\t\x07\x8e\x9f'
p2633
tp2634
Rp2635
sg25
I0
sg26
g27
(g28
(I0
tp2636
g30
tp2637
Rp2638
(I1
(I2
tp2639
g36
I00
S'\xc0\x00\x00\x00p\x00\x00\x00'
p2640
tp2641
bsba(i__main__
FrameData
p2642
(dp2643
g6
g2180
sg8
g9
(g13
S'\xa8\xf4\x97\x9bw\xe3\x01@'
p2644
tp2645
Rp2646
sg19
I0
sg20
g21
(S'\x07\xdd\t\x12\x108\t\x07\xdb\x92'
p2647
tp2648
Rp2649
sg25
I0
sg26
g27
(g28
(I0
tp2650
g30
tp2651
Rp2652
(I1
(I2
tp2653
g36
I00
S'\xbd\x00\x00\x00p\x00\x00\x00'
p2654
tp2655
bsba(i__main__
FrameData
p2656
(dp2657
g6
g2180
sg8
g9
(g13
S'\xa8\xf4\x97\x9bw\xe3\x11@'
p2658
tp2659
Rp2660
sg19
I0
sg20
g21
(S'\x07\xdd\t\x12\x108\t\x08\x1b\x81'
p2661
tp2662
Rp2663
sg25
I0
sg26
g27
(g28
(I0
tp2664
g30
tp2665
Rp2666
(I1
(I2
tp2667
g36
I00
S'\xba\x00\x00\x00p\x00\x00\x00'
p2668
tp2669
bsba(i__main__
FrameData
p2670
(dp2671
g6
g2180
sg8
g9
(g13
S'\x07\xed\xaff\x0f~ @'
p2672
tp2673
Rp2674
sg19
I0
sg20
g21
(S'\x07\xdd\t\x12\x108\t\x08O7'
p2675
tp2676
Rp2677
sg25
I0
sg26
g27
(g28
(I0
tp2678
g30
tp2679
Rp2680
(I1
(I2
tp2681
g36
I00
S'\xb6\x00\x00\x00p\x00\x00\x00'
p2682
tp2683
bsba(i__main__
FrameData
p2684
(dp2685
g6
g2038
sg8
g9
(g13
S'~\xc4#,B\xf9"@'
p2686
tp2687
Rp2688
sg19
I0
sg20
g21
(S'\x07\xdd\t\x12\x108\t\x08\x8f\xa8'
p2689
tp2690
Rp2691
sg25
I0
sg26
g27
(g28
(I0
tp2692
g30
tp2693
Rp2694
(I1
(I2
tp2695
g36
I00
S'\xb0\x00\x00\x00o\x00\x00\x00'
p2696
tp2697
bsba(i__main__
FrameData
p2698
(dp2699
g6
g2038
sg8
g9
(g13
S'\xa8\xf4\x97\x9bw\xe3\x11@'
p2700
tp2701
Rp2702
sg19
I0
sg20
g21
(S'\x07\xdd\t\x12\x108\t\x08\xd5+'
p2703
tp2704
Rp2705
sg25
I0
sg26
g27
(g28
(I0
tp2706
g30
tp2707
Rp2708
(I1
(I2
tp2709
g36
I00
S'\xa9\x00\x00\x00n\x00\x00\x00'
p2710
tp2711
bsba(i__main__
FrameData
p2712
(dp2713
g6
g2038
sg8
g9
(g13
S'\x9a.\x90!hp"@'
p2714
tp2715
Rp2716
sg19
I0
sg20
g21
(S'\x07\xdd\t\x12\x108\t\t\x12z'
p2717
tp2718
Rp2719
sg25
I0
sg26
g27
(g28
(I0
tp2720
g30
tp2721
Rp2722
(I1
(I2
tp2723
g36
I00
S'\xa0\x00\x00\x00l\x00\x00\x00'
p2724
tp2725
bsba(i__main__
FrameData
p2726
(dp2727
g6
g2038
sg8
g9
(g13
S'Qf\x99\xcb\xa9\x13*@'
p2728
tp2729
Rp2730
sg19
I0
sg20
g21
(S'\x07\xdd\t\x12\x108\t\tUb'
p2731
tp2732
Rp2733
sg25
I0
sg26
g27
(g28
(I0
tp2734
g30
tp2735
Rp2736
(I1
(I2
tp2737
g36
I00
S'\x9c\x00\x00\x00k\x00\x00\x00'
p2738
tp2739
bsba(i__main__
FrameData
p2740
(dp2741
g6
S'h'
p2742
sg8
g9
(g13
S'\x88\x80v\xd5\\\x97$@'
p2743
tp2744
Rp2745
sg19
I0
sg20
g21
(S'\x07\xdd\t\x12\x108\t\t\xa1\x15'
p2746
tp2747
Rp2748
sg25
I0
sg26
g27
(g28
(I0
tp2749
g30
tp2750
Rp2751
(I1
(I2
tp2752
g36
I00
S'\x95\x00\x00\x00i\x00\x00\x00'
p2753
tp2754
bsba(i__main__
FrameData
p2755
(dp2756
g6
g2742
sg8
g9
(g13
S'\x00\x00\x00\x00\x00\x00*@'
p2757
tp2758
Rp2759
sg19
I0
sg20
g21
(S'\x07\xdd\t\x12\x108\t\t\xd5i'
p2760
tp2761
Rp2762
sg25
I0
sg26
g27
(g28
(I0
tp2763
g30
tp2764
Rp2765
(I1
(I2
tp2766
g36
I00
S'\x8b\x00\x00\x00f\x00\x00\x00'
p2767
tp2768
bsba(i__main__
FrameData
p2769
(dp2770
g6
g2742
sg8
g9
(g13
S"'\xf2\x90In\x9f/@"
p2771
tp2772
Rp2773
sg19
I0
sg20
g21
(S'\x07\xdd\t\x12\x108\t\n(L'
p2774
tp2775
Rp2776
sg25
I0
sg26
g27
(g28
(I0
tp2777
g30
tp2778
Rp2779
(I1
(I2
tp2780
g36
I00
S'\x87\x00\x00\x00e\x00\x00\x00'
p2781
tp2782
bsba(i__main__
FrameData
p2783
(dp2784
g6
S'g'
p2785
sg8
g9
(g13
S'\xd5?\x80N\xf3\xcd1@'
p2786
tp2787
Rp2788
sg19
I0
sg20
g21
(S'\x07\xdd\t\x12\x108\t\nUX'
p2789
tp2790
Rp2791
sg25
I0
sg26
g27
(g28
(I0
tp2792
g30
tp2793
Rp2794
(I1
(I2
tp2795
g36
I00
S'\x83\x00\x00\x00d\x00\x00\x00'
p2796
tp2797
bsba(i__main__
FrameData
p2798
(dp2799
g6
g2785
sg8
g9
(g13
S'\xd0\xbaa?\xe0\x1f0@'
p2800
tp2801
Rp2802
sg19
I0
sg20
g21
(S'\x07\xdd\t\x12\x108\t\n\xae\x8a'
p2803
tp2804
Rp2805
sg25
I0
sg26
g27
(g28
(I0
tp2806
g30
tp2807
Rp2808
(I1
(I2
tp2809
g36
I00
S'\x80\x00\x00\x00d\x00\x00\x00'
p2810
tp2811
bsba(i__main__
FrameData
p2812
(dp2813
g6
g2785
sg8
g9
(g13
S'\x07\xed\xaff\x0f~0@'
p2814
tp2815
Rp2816
sg19
I0
sg20
g21
(S'\x07\xdd\t\x12\x108\t\n\xfc#'
p2817
tp2818
Rp2819
sg25
I0
sg26
g27
(g28
(I0
tp2820
g30
tp2821
Rp2822
(I1
(I2
tp2823
g36
I00
S'|\x00\x00\x00b\x00\x00\x00'
p2824
tp2825
bsba(i__main__
FrameData
p2826
(dp2827
g6
g2785
sg8
g9
(g13
S'\x00\x00\x00\x00\x00\x002@'
p2828
tp2829
Rp2830
sg19
I0
sg20
g21
(S'\x07\xdd\t\x12\x108\t\x0b\x19\xed'
p2831
tp2832
Rp2833
sg25
I0
sg26
g27
(g28
(I0
tp2834
g30
tp2835
Rp2836
(I1
(I2
tp2837
g36
I00
S'x\x00\x00\x00`\x00\x00\x00'
p2838
tp2839
bsba(i__main__
FrameData
p2840
(dp2841
g6
g2785
sg8
g9
(g13
S'\xcey?\xdc\x9a?4@'
p2842
tp2843
Rp2844
sg19
I0
sg20
g21
(S'\x07\xdd\t\x12\x108\t\x0b_O'
p2845
tp2846
Rp2847
sg25
I0
sg26
g27
(g28
(I0
tp2848
g30
tp2849
Rp2850
(I1
(I2
tp2851
g36
I00
S'q\x00\x00\x00_\x00\x00\x00'
p2852
tp2853
bsba(i__main__
FrameData
p2854
(dp2855
g6
g1041
sg8
g9
(g13
S'/vo\xf2\x9ej3@'
p2856
tp2857
Rp2858
sg19
I0
sg20
g21
(S'\x07\xdd\t\x12\x108\t\x0b\x9dh'
p2859
tp2860
Rp2861
sg25
I0
sg26
g27
(g28
(I0
tp2862
g30
tp2863
Rp2864
(I1
(I2
tp2865
g36
I00
S'n\x00\x00\x00^\x00\x00\x00'
p2866
tp2867
bsba(i__main__
FrameData
p2868
(dp2869
g6
g1041
sg8
g9
(g13
S'8\xd8\xbc\n\x1b\x072@'
p2870
tp2871
Rp2872
sg19
I0
sg20
g21
(S'\x07\xdd\t\x12\x108\t\x0b\xe5\x8a'
p2873
tp2874
Rp2875
sg25
I0
sg26
g27
(g28
(I0
tp2876
g30
tp2877
Rp2878
(I1
(I2
tp2879
g36
I00
S'i\x00\x00\x00]\x00\x00\x00'
p2880
tp2881
bsba(i__main__
FrameData
p2882
(dp2883
g6
g1041
sg8
g9
(g13
S'>9\x15\x8cW\xc30@'
p2884
tp2885
Rp2886
sg19
I0
sg20
g21
(S'\x07\xdd\t\x12\x108\t\x0c\x1b\x02'
p2887
tp2888
Rp2889
sg25
I0
sg26
g27
(g28
(I0
tp2890
g30
tp2891
Rp2892
(I1
(I2
tp2893
g36
I00
S'e\x00\x00\x00[\x00\x00\x00'
p2894
tp2895
bsba(i__main__
FrameData
p2896
(dp2897
g6
g1041
sg8
g9
(g13
S'\x00\x00\x00\x00\x00\x001@'
p2898
tp2899
Rp2900
sg19
I0
sg20
g21
(S'\x07\xdd\t\x12\x108\t\x0cqd'
p2901
tp2902
Rp2903
sg25
I0
sg26
g27
(g28
(I0
tp2904
g30
tp2905
Rp2906
(I1
(I2
tp2907
g36
I00
S'b\x00\x00\x00Z\x00\x00\x00'
p2908
tp2909
bsba(i__main__
FrameData
p2910
(dp2911
g6
g1041
sg8
g9
(g13
S'8\xd8\xbc\n\x1b\x072@'
p2912
tp2913
Rp2914
sg19
I0
sg20
g21
(S'\x07\xdd\t\x12\x108\t\x0c\xa8\x10'
p2915
tp2916
Rp2917
sg25
I0
sg26
g27
(g28
(I0
tp2918
g30
tp2919
Rp2920
(I1
(I2
tp2921
g36
I00
S'`\x00\x00\x00Z\x00\x00\x00'
p2922
tp2923
bsba(i__main__
FrameData
p2924
(dp2925
g6
g1041
sg8
g9
(g13
S'\xd5?\x80N\xf3\xcd1@'
p2926
tp2927
Rp2928
sg19
I0
sg20
g21
(S'\x07\xdd\t\x12\x108\t\x0c\xf3\xd6'
p2929
tp2930
Rp2931
sg25
I0
sg26
g27
(g28
(I0
tp2932
g30
tp2933
Rp2934
(I1
(I2
tp2935
g36
I00
S'_\x00\x00\x00Y\x00\x00\x00'
p2936
tp2937
bsba(i__main__
FrameData
p2938
(dp2939
g6
g886
sg8
g9
(g13
S'l\xd0\xe82\x1a\xb11@'
p2940
tp2941
Rp2942
sg19
I0
sg20
g21
(S"\x07\xdd\t\x12\x108\t\r'`"
p2943
tp2944
Rp2945
sg25
I0
sg26
g27
(g28
(I0
tp2946
g30
tp2947
Rp2948
(I1
(I2
tp2949
g36
I00
S'^\x00\x00\x00X\x00\x00\x00'
p2950
tp2951
bsba(i__main__
FrameData
p2952
(dp2953
g6
g886
sg8
g9
(g13
S')\x9ah\xdd\x85\x071@'
p2954
tp2955
Rp2956
sg19
I0
sg20
g21
(S'\x07\xdd\t\x12\x108\t\r`\xe8'
p2957
tp2958
Rp2959
sg25
I0
sg26
g27
(g28
(I0
tp2960
g30
tp2961
Rp2962
(I1
(I2
tp2963
g36
I00
S']\x00\x00\x00X\x00\x00\x00'
p2964
tp2965
bsba(i__main__
FrameData
p2966
(dp2967
g6
g886
sg8
g9
(g13
S'htN\x17\xb2=/@'
p2968
tp2969
Rp2970
sg19
I0
sg20
g21
(S'\x07\xdd\t\x12\x108\t\r\x9f\xb9'
p2971
tp2972
Rp2973
sg25
I0
sg26
g27
(g28
(I0
tp2974
g30
tp2975
Rp2976
(I1
(I2
tp2977
g36
I00
S'\\\x00\x00\x00W\x00\x00\x00'
p2978
tp2979
bsba(i__main__
FrameData
p2980
(dp2981
g6
g886
sg8
g9
(g13
S'\x00\x00\x00\x00\x00\x00.@'
p2982
tp2983
Rp2984
sg19
I0
sg20
g21
(S'\x07\xdd\t\x12\x108\t\r\xe0\xe6'
p2985
tp2986
Rp2987
sg25
I0
sg26
g27
(g28
(I0
tp2988
g30
tp2989
Rp2990
(I1
(I2
tp2991
g36
I00
S'[\x00\x00\x00W\x00\x00\x00'
p2992
tp2993
bsba(i__main__
FrameData
p2994
(dp2995
g6
g886
sg8
g9
(g13
S'\xf3YaD+\xd8,@'
p2996
tp2997
Rp2998
sg19
I0
sg20
g21
(S"\x07\xdd\t\x12\x108\t\x0e'\t"
p2999
tp3000
Rp3001
sg25
I0
sg26
g27
(g28
(I0
tp3002
g30
tp3003
Rp3004
(I1
(I2
tp3005
g36
I00
S'Z\x00\x00\x00W\x00\x00\x00'
p3006
tp3007
bsba(i__main__
FrameData
p3008
(dp3009
g6
g886
sg8
g9
(g13
S'S[\xda:XL)@'
p3010
tp3011
Rp3012
sg19
I0
sg20
g21
(S'\x07\xdd\t\x12\x108\t\x0eb\x8d'
p3013
tp3014
Rp3015
sg25
I0
sg26
g27
(g28
(I0
tp3016
g30
tp3017
Rp3018
(I1
(I2
tp3019
g36
I00
S'V\x00\x00\x00W\x00\x00\x00'
p3020
tp3021
bsba(i__main__
FrameData
p3022
(dp3023
g6
g886
sg8
g9
(g13
S'\xeb\x12\xb2\xbb\xb2\xcd&@'
p3024
tp3025
Rp3026
sg19
I0
sg20
g21
(S'\x07\xdd\t\x12\x108\t\x0e\xa4\x9c'
p3027
tp3028
Rp3029
sg25
I0
sg26
g27
(g28
(I0
tp3030
g30
tp3031
Rp3032
(I1
(I2
tp3033
g36
I00
S'U\x00\x00\x00V\x00\x00\x00'
p3034
tp3035
bsba(i__main__
FrameData
p3036
(dp3037
g6
g886
sg8
g9
(g13
S'H\xaa*\x8f9\x17&@'
p3038
tp3039
Rp3040
sg19
I0
sg20
g21
(S'\x07\xdd\t\x12\x108\t\x0e\xe8\x19'
p3041
tp3042
Rp3043
sg25
I0
sg26
g27
(g28
(I0
tp3044
g30
tp3045
Rp3046
(I1
(I2
tp3047
g36
I00
S'S\x00\x00\x00V\x00\x00\x00'
p3048
tp3049
bsba(i__main__
FrameData
p3050
(dp3051
g6
g886
sg8
g9
(g13
S'\xf6/\x12_ee$@'
p3052
tp3053
Rp3054
sg19
I0
sg20
g21
(S'\x07\xdd\t\x12\x108\t\x0f#\xa3'
p3055
tp3056
Rp3057
sg25
I0
sg26
g27
(g28
(I0
tp3058
g30
tp3059
Rp3060
(I1
(I2
tp3061
g36
I00
S'P\x00\x00\x00U\x00\x00\x00'
p3062
tp3063
bsba(i__main__
FrameData
p3064
(dp3065
g6
g886
sg8
g9
(g13
S'bVc}\x9d\xb2#@'
p3066
tp3067
Rp3068
sg19
I0
sg20
g21
(S'\x07\xdd\t\x12\x108\n\x00%\xc6'
p3069
tp3070
Rp3071
sg25
I0
sg26
g27
(g28
(I0
tp3072
g30
tp3073
Rp3074
(I1
(I2
tp3075
g36
I00
S'N\x00\x00\x00T\x00\x00\x00'
p3076
tp3077
bsba(i__main__
FrameData
p3078
(dp3079
g6
g886
sg8
g9
(g13
S'\x00\x00\x00\x00\x00\x00$@'
p3080
tp3081
Rp3082
sg19
I0
sg20
g21
(S'\x07\xdd\t\x12\x108\n\x00g\xef'
p3083
tp3084
Rp3085
sg25
I0
sg26
g27
(g28
(I0
tp3086
g30
tp3087
Rp3088
(I1
(I2
tp3089
g36
I00
S'L\x00\x00\x00S\x00\x00\x00'
p3090
tp3091
bsba(i__main__
FrameData
p3092
(dp3093
g6
g886
sg8
g9
(g13
S'6\xd0\xd2x\xa2B%@'
p3094
tp3095
Rp3096
sg19
I0
sg20
g21
(S'\x07\xdd\t\x12\x108\n\x00\xab['
p3097
tp3098
Rp3099
sg25
I0
sg26
g27
(g28
(I0
tp3100
g30
tp3101
Rp3102
(I1
(I2
tp3103
g36
I00
S'J\x00\x00\x00R\x00\x00\x00'
p3104
tp3105
bsba(i__main__
FrameData
p3106
(dp3107
g6
g886
sg8
g9
(g13
S'lNy\x00\x85*(@'
p3108
tp3109
Rp3110
sg19
I0
sg20
g21
(S'\x07\xdd\t\x12\x108\n\x00\xe5F'
p3111
tp3112
Rp3113
sg25
I0
sg26
g27
(g28
(I0
tp3114
g30
tp3115
Rp3116
(I1
(I2
tp3117
g36
I00
S'G\x00\x00\x00P\x00\x00\x00'
p3118
tp3119
bsba(i__main__
FrameData
p3120
(dp3121
g6
S'e'
p3122
sg8
g9
(g13
S'\xeb\x12\xb2\xbb\xb2\xcd&@'
p3123
tp3124
Rp3125
sg19
I0
sg20
g21
(S'\x07\xdd\t\x12\x108\n\x01(\xca'
p3126
tp3127
Rp3128
sg25
I0
sg26
g27
(g28
(I0
tp3129
g30
tp3130
Rp3131
(I1
(I2
tp3132
g36
I00
S'F\x00\x00\x00O\x00\x00\x00'
p3133
tp3134
bsba(i__main__
FrameData
p3135
(dp3136
g6
g3122
sg8
g9
(g13
S'7\xf9\xcf\xdao\xe1$@'
p3137
tp3138
Rp3139
sg19
I0
sg20
g21
(S'\x07\xdd\t\x12\x108\n\x01n\xda'
p3140
tp3141
Rp3142
sg25
I0
sg26
g27
(g28
(I0
tp3143
g30
tp3144
Rp3145
(I1
(I2
tp3146
g36
I00
S'E\x00\x00\x00O\x00\x00\x00'
p3147
tp3148
bsba(i__main__
FrameData
p3149
(dp3150
g6
g3122
sg8
g9
(g13
S'\xa3\x14\xae\xa8\x87\x16!@'
p3151
tp3152
Rp3153
sg19
I0
sg20
g21
(S'\x07\xdd\t\x12\x108\n\x01\xa8\xdb'
p3154
tp3155
Rp3156
sg25
I0
sg26
g27
(g28
(I0
tp3157
g30
tp3158
Rp3159
(I1
(I2
tp3160
g36
I00
S'C\x00\x00\x00O\x00\x00\x00'
p3161
tp3162
bsba(i__main__
FrameData
p3163
(dp3164
g6
g3122
sg8
g9
(g13
S'\x07\xed\xaff\x0f~ @'
p3165
tp3166
Rp3167
sg19
I0
sg20
g21
(S'\x07\xdd\t\x12\x108\n\x01\xef\xbc'
p3168
tp3169
Rp3170
sg25
I0
sg26
g27
(g28
(I0
tp3171
g30
tp3172
Rp3173
(I1
(I2
tp3174
g36
I00
S'C\x00\x00\x00N\x00\x00\x00'
p3175
tp3176
bsba(i__main__
FrameData
p3177
(dp3178
g6
g3122
sg8
g9
(g13
S'S[\xda:XL\x19@'
p3179
tp3180
Rp3181
sg19
I0
sg20
g21
(S'\x07\xdd\t\x12\x108\n\x02q\x9e'
p3182
tp3183
Rp3184
sg25
I0
sg26
g27
(g28
(I0
tp3185
g30
tp3186
Rp3187
(I1
(I2
tp3188
g36
I00
S'A\x00\x00\x00N\x00\x00\x00'
p3189
tp3190
bsba(i__main__
FrameData
p3191
(dp3192
g6
g3122
sg8
g9
(g13
S'9\xdcc\xb3\xbfT\x18@'
p3193
tp3194
Rp3195
sg19
I0
sg20
g21
(S'\x07\xdd\t\x12\x108\n\x02\xab\xc1'
p3196
tp3197
Rp3198
sg25
I0
sg26
g27
(g28
(I0
tp3199
g30
tp3200
Rp3201
(I1
(I2
tp3202
g36
I00
S'A\x00\x00\x00M\x00\x00\x00'
p3203
tp3204
bsba(i__main__
FrameData
p3205
(dp3206
g6
g3122
sg8
g9
(g13
S'\x07\xed\xaff\x0f~\x10@'
p3207
tp3208
Rp3209
sg19
I0
sg20
g21
(S'\x07\xdd\t\x12\x108\n\x033\x17'
p3210
tp3211
Rp3212
sg25
I0
sg26
g27
(g28
(I0
tp3213
g30
tp3214
Rp3215
(I1
(I2
tp3216
g36
I00
S'?\x00\x00\x00M\x00\x00\x00'
p3217
tp3218
bsba(i__main__
FrameData
p3219
(dp3220
g6
g3122
sg8
g9
(g13
S'\x00\x00\x00\x00\x00\x00\x08@'
p3221
tp3222
Rp3223
sg19
I0
sg20
g21
(S'\x07\xdd\t\x12\x108\n\x03m&'
p3224
tp3225
Rp3226
sg25
I0
sg26
g27
(g28
(I0
tp3227
g30
tp3228
Rp3229
(I1
(I2
tp3230
g36
I00
S'>\x00\x00\x00L\x00\x00\x00'
p3231
tp3232
bsba(i__main__
FrameData
p3233
(dp3234
g6
g3122
sg8
g9
(g13
S'S[\xda:XL\t@'
p3235
tp3236
Rp3237
sg19
I0
sg20
g21
(S'\x07\xdd\t\x12\x108\n\x04.\xb5'
p3238
tp3239
Rp3240
sg25
I0
sg26
g27
(g28
(I0
tp3241
g30
tp3242
Rp3243
(I1
(I2
tp3244
g36
I00
S'>\x00\x00\x00K\x00\x00\x00'
p3245
tp3246
bsba(i__main__
FrameData
p3247
(dp3248
g6
g3122
sg8
g9
(g13
S'\xa8\xf4\x97\x9bw\xe3\x01@'
p3249
tp3250
Rp3251
sg19
I0
sg20
g21
(S'\x07\xdd\t\x12\x108\n\x05\xf5\xdf'
p3252
tp3253
Rp3254
sg25
I0
sg26
g27
(g28
(I0
tp3255
g30
tp3256
Rp3257
(I1
(I2
tp3258
g36
I00
S'=\x00\x00\x00K\x00\x00\x00'
p3259
tp3260
bsba(i__main__
FrameData
p3261
(dp3262
g6
g3122
sg8
g9
(g13
S'\xa8\xf4\x97\x9bw\xe3\x01@'
p3263
tp3264
Rp3265
sg19
I0
sg20
g21
(S'\x07\xdd\t\x12\x108\n\x068\xdf'
p3266
tp3267
Rp3268
sg25
I0
sg26
g27
(g28
(I0
tp3269
g30
tp3270
Rp3271
(I1
(I2
tp3272
g36
I00
S'<\x00\x00\x00J\x00\x00\x00'
p3273
tp3274
bsba(i__main__
FrameData
p3275
(dp3276
g6
g3122
sg8
g9
(g13
S'S[\xda:XL\t@'
p3277
tp3278
Rp3279
sg19
I0
sg20
g21
(S'\x07\xdd\t\x12\x108\n\x06|]'
p3280
tp3281
Rp3282
sg25
I0
sg26
g27
(g28
(I0
tp3283
g30
tp3284
Rp3285
(I1
(I2
tp3286
g36
I00
S'<\x00\x00\x00I\x00\x00\x00'
p3287
tp3288
bsba(i__main__
FrameData
p3289
(dp3290
g6
g3122
sg8
g9
(g13
S'S[\xda:XL\t@'
p3291
tp3292
Rp3293
sg19
I0
sg20
g21
(S'\x07\xdd\t\x12\x108\n\x06\xb6\x90'
p3294
tp3295
Rp3296
sg25
I0
sg26
g27
(g28
(I0
tp3297
g30
tp3298
Rp3299
(I1
(I2
tp3300
g36
I00
S':\x00\x00\x00I\x00\x00\x00'
p3301
tp3302
bsba(i__main__
FrameData
p3303
(dp3304
g6
g3122
sg8
g9
(g13
S'\xf3YaD+\xd8\x0c@'
p3305
tp3306
Rp3307
sg19
I0
sg20
g21
(S'\x07\xdd\t\x12\x108\n\x06\xf9\xf7'
p3308
tp3309
Rp3310
sg25
I0
sg26
g27
(g28
(I0
tp3311
g30
tp3312
Rp3313
(I1
(I2
tp3314
g36
I00
S'9\x00\x00\x00I\x00\x00\x00'
p3315
tp3316
bsba(i__main__
FrameData
p3317
(dp3318
g6
g3122
sg8
g9
(g13
S'\xa8\xf4\x97\x9bw\xe3\x11@'
p3319
tp3320
Rp3321
sg19
I0
sg20
g21
(S'\x07\xdd\t\x12\x108\n\x07=\xab'
p3322
tp3323
Rp3324
sg25
I0
sg26
g27
(g28
(I0
tp3325
g30
tp3326
Rp3327
(I1
(I2
tp3328
g36
I00
S'9\x00\x00\x00H\x00\x00\x00'
p3329
tp3330
bsbasS'_fileName'
p3331
S'training/trajectory2013-09-18_16:55:56.558417'
p3332
sS'word'
p3333
S'cattle'
p3334
sb.