(i__main__
SwypeTrajectory
p0
(dp1
S'_frameDataList'
p2
(lp3
(i__main__
FrameData
p4
(dp5
S'closestLetter'
p6
S'c'
p7
sS'letterDistance'
p8
cnumpy.core.multiarray
scalar
p9
(cnumpy
dtype
p10
(S'f8'
p11
I0
I1
tp12
Rp13
(I3
S'<'
p14
NNNI-1
I-1
I0
tp15
bS'\x00\x00\x00\x00\x00\x00\x00@'
p16
tp17
Rp18
sS'accel'
p19
I0
sS'time'
p20
cdatetime
datetime
p21
(S'\x07\xdd\t\x1d\x13\x11:\x04{\xbc'
p22
tp23
Rp24
sS'velocity'
p25
I0
sS'position'
p26
cnumpy.core.multiarray
_reconstruct
p27
(cnumpy
ndarray
p28
(I0
tp29
S'b'
p30
tp31
Rp32
(I1
(I2
tp33
g10
(S'i4'
p34
I0
I1
tp35
Rp36
(I3
S'<'
p37
NNNI-1
I-1
I0
tp38
bI00
S'Z\x00\x00\x00\x9e\x00\x00\x00'
p39
tp40
bsba(i__main__
FrameData
p41
(dp42
g6
g7
sg8
g9
(g13
S'\x00\x00\x00\x00\x00\x00\x00\x00'
p43
tp44
Rp45
sg19
I0
sg20
g21
(S'\x07\xdd\t\x1d\x13\x11:\x04\xbd\x0b'
p46
tp47
Rp48
sg25
I0
sg26
g27
(g28
(I0
tp49
g30
tp50
Rp51
(I1
(I2
tp52
g36
I00
S'Z\x00\x00\x00\x9c\x00\x00\x00'
p53
tp54
bsba(i__main__
FrameData
p55
(dp56
g6
g7
sg8
g9
(g13
S'\x00\x00\x00\x00\x00\x00\x08@'
p57
tp58
Rp59
sg19
I0
sg20
g21
(S'\x07\xdd\t\x1d\x13\x11:\x05\x02"'
p60
tp61
Rp62
sg25
I0
sg26
g27
(g28
(I0
tp63
g30
tp64
Rp65
(I1
(I2
tp66
g36
I00
S'Z\x00\x00\x00\x99\x00\x00\x00'
p67
tp68
bsba(i__main__
FrameData
p69
(dp70
g6
g7
sg8
g9
(g13
S'\xfc\xeeci3\xd5\x1a@'
p71
tp72
Rp73
sg19
I0
sg20
g21
(S'\x07\xdd\t\x1d\x13\x11:\x05C\x10'
p74
tp75
Rp76
sg25
I0
sg26
g27
(g28
(I0
tp77
g30
tp78
Rp79
(I1
(I2
tp80
g36
I00
S'W\x00\x00\x00\x96\x00\x00\x00'
p81
tp82
bsba(i__main__
FrameData
p83
(dp84
g6
g7
sg8
g9
(g13
S'\xf3\xd9\xa8\xa4h\x8a%@'
p85
tp86
Rp87
sg19
I0
sg20
g21
(S'\x07\xdd\t\x1d\x13\x11:\x05\x83\xdb'
p88
tp89
Rp90
sg25
I0
sg26
g27
(g28
(I0
tp91
g30
tp92
Rp93
(I1
(I2
tp94
g36
I00
S'V\x00\x00\x00\x92\x00\x00\x00'
p95
tp96
bsba(i__main__
FrameData
p97
(dp98
g6
g7
sg8
g9
(g13
S'\xf7\x80Aq\xb9\xa2,@'
p99
tp100
Rp101
sg19
I0
sg20
g21
(S'\x07\xdd\t\x1d\x13\x11:\x05\xc4\xc4'
p102
tp103
Rp104
sg25
I0
sg26
g27
(g28
(I0
tp105
g30
tp106
Rp107
(I1
(I2
tp108
g36
I00
S'T\x00\x00\x00\x8f\x00\x00\x00'
p109
tp110
bsba(i__main__
FrameData
p111
(dp112
g6
g7
sg8
g9
(g13
S'5 \x89\xa6\xcd\xc92@'
p113
tp114
Rp115
sg19
I0
sg20
g21
(S'\x07\xdd\t\x1d\x13\x11:\x06\x06\xaf'
p116
tp117
Rp118
sg25
I0
sg26
g27
(g28
(I0
tp119
g30
tp120
Rp121
(I1
(I2
tp122
g36
I00
S'R\x00\x00\x00\x8b\x00\x00\x00'
p123
tp124
bsba(i__main__
FrameData
p125
(dp126
g6
g7
sg8
g9
(g13
S'\xd2\xf1}\x82U\\6@'
p127
tp128
Rp129
sg19
I0
sg20
g21
(S'\x07\xdd\t\x1d\x13\x11:\x06K-'
p130
tp131
Rp132
sg25
I0
sg26
g27
(g28
(I0
tp133
g30
tp134
Rp135
(I1
(I2
tp136
g36
I00
S'P\x00\x00\x00\x88\x00\x00\x00'
p137
tp138
bsba(i__main__
FrameData
p139
(dp140
g6
S'd'
p141
sg8
g9
(g13
S'/vo\xf2\x9ej3@'
p142
tp143
Rp144
sg19
I0
sg20
g21
(S'\x07\xdd\t\x1d\x13\x11:\x06\x87q'
p145
tp146
Rp147
sg25
I0
sg26
g27
(g28
(I0
tp148
g30
tp149
Rp150
(I1
(I2
tp151
g36
I00
S'M\x00\x00\x00\x84\x00\x00\x00'
p152
tp153
bsba(i__main__
FrameData
p154
(dp155
g6
g141
sg8
g9
(g13
S'\xd0\xbaa?\xe0\x1f0@'
p156
tp157
Rp158
sg19
I0
sg20
g21
(S'\x07\xdd\t\x1d\x13\x11:\x06\xc7\x06'
p159
tp160
Rp161
sg25
I0
sg26
g27
(g28
(I0
tp162
g30
tp163
Rp164
(I1
(I2
tp165
g36
I00
S'K\x00\x00\x00\x81\x00\x00\x00'
p166
tp167
bsba(i__main__
FrameData
p168
(dp169
g6
g141
sg8
g9
(g13
S'H\xaa*\x8f9\x17&@'
p170
tp171
Rp172
sg19
I0
sg20
g21
(S'\x07\xdd\t\x1d\x13\x11:\x07\x08n'
p173
tp174
Rp175
sg25
I0
sg26
g27
(g28
(I0
tp176
g30
tp177
Rp178
(I1
(I2
tp179
g36
I00
S'H\x00\x00\x00|\x00\x00\x00'
p180
tp181
bsba(i__main__
FrameData
p182
(dp183
g6
g141
sg8
g9
(g13
S'\xa8\xf4\x97\x9bw\xe3!@'
p184
tp185
Rp186
sg19
I0
sg20
g21
(S'\x07\xdd\t\x1d\x13\x11:\x07J!'
p187
tp188
Rp189
sg25
I0
sg26
g27
(g28
(I0
tp190
g30
tp191
Rp192
(I1
(I2
tp193
g36
I00
S'E\x00\x00\x00y\x00\x00\x00'
p194
tp195
bsba(i__main__
FrameData
p196
(dp197
g6
g141
sg8
g9
(g13
S'\xd9l\xdf\xccv\xf8 @'
p198
tp199
Rp200
sg19
I0
sg20
g21
(S'\x07\xdd\t\x1d\x13\x11:\x07\x8a\xec'
p201
tp202
Rp203
sg25
I0
sg26
g27
(g28
(I0
tp204
g30
tp205
Rp206
(I1
(I2
tp207
g36
I00
S'C\x00\x00\x00w\x00\x00\x00'
p208
tp209
bsba(i__main__
FrameData
p210
(dp211
g6
g141
sg8
g9
(g13
S'~\xc4#,B\xf9"@'
p212
tp213
Rp214
sg19
I0
sg20
g21
(S'\x07\xdd\t\x1d\x13\x11:\x07\xcc\xcf'
p215
tp216
Rp217
sg25
I0
sg26
g27
(g28
(I0
tp218
g30
tp219
Rp220
(I1
(I2
tp221
g36
I00
S'@\x00\x00\x00t\x00\x00\x00'
p222
tp223
bsba(i__main__
FrameData
p224
(dp225
g6
S's'
p226
sg8
g9
(g13
S'H\xaa*\x8f9\x17&@'
p227
tp228
Rp229
sg19
I0
sg20
g21
(S'\x07\xdd\t\x1d\x13\x11:\x08\x11\x17'
p230
tp231
Rp232
sg25
I0
sg26
g27
(g28
(I0
tp233
g30
tp234
Rp235
(I1
(I2
tp236
g36
I00
S'<\x00\x00\x00r\x00\x00\x00'
p237
tp238
bsba(i__main__
FrameData
p239
(dp240
g6
g226
sg8
g9
(g13
S'\x00\x00\x00\x00\x00\x00$@'
p241
tp242
Rp243
sg19
I0
sg20
g21
(S'\x07\xdd\t\x1d\x13\x11:\x08O\xae'
p244
tp245
Rp246
sg25
I0
sg26
g27
(g28
(I0
tp247
g30
tp248
Rp249
(I1
(I2
tp250
g36
I00
S';\x00\x00\x00q\x00\x00\x00'
p251
tp252
bsba(i__main__
FrameData
p253
(dp254
g6
g226
sg8
g9
(g13
S'\x00\x00\x00\x00\x00\x00 @'
p255
tp256
Rp257
sg19
I0
sg20
g21
(S'\x07\xdd\t\x1d\x13\x11:\x08\x8f|'
p258
tp259
Rp260
sg25
I0
sg26
g27
(g28
(I0
tp261
g30
tp262
Rp263
(I1
(I2
tp264
g36
I00
S'9\x00\x00\x00q\x00\x00\x00'
p265
tp266
bsba(i__main__
FrameData
p267
(dp268
g6
g226
sg8
g9
(g13
S'\x00\x00\x00\x00\x00\x00\x18@'
p269
tp270
Rp271
sg19
I0
sg20
g21
(S'\x07\xdd\t\x1d\x13\x11:\x08\xd3\xce'
p272
tp273
Rp274
sg25
I0
sg26
g27
(g28
(I0
tp275
g30
tp276
Rp277
(I1
(I2
tp278
g36
I00
S'7\x00\x00\x00q\x00\x00\x00'
p279
tp280
bsba(i__main__
FrameData
p281
(dp282
g6
g226
sg8
g9
(g13
S'\x00\x00\x00\x00\x00\x00\x14@'
p283
tp284
Rp285
sg19
I0
sg20
g21
(S'\x07\xdd\t\x1d\x13\x11:\t\x14\x8f'
p286
tp287
Rp288
sg25
I0
sg26
g27
(g28
(I0
tp289
g30
tp290
Rp291
(I1
(I2
tp292
g36
I00
S'6\x00\x00\x00q\x00\x00\x00'
p293
tp294
bsba(i__main__
FrameData
p295
(dp296
g6
g226
sg8
g9
(g13
S'S[\xda:XL\t@'
p297
tp298
Rp299
sg19
I0
sg20
g21
(S'\x07\xdd\t\x1d\x13\x11:\tS\xc6'
p300
tp301
Rp302
sg25
I0
sg26
g27
(g28
(I0
tp303
g30
tp304
Rp305
(I1
(I2
tp306
g36
I00
S'4\x00\x00\x00p\x00\x00\x00'
p307
tp308
bsba(i__main__
FrameData
p309
(dp310
g6
g226
sg8
g9
(g13
S'\xa8\xf4\x97\x9bw\xe3\x01@'
p311
tp312
Rp313
sg19
I0
sg20
g21
(S'\x07\xdd\t\x1d\x13\x11:\t\x96M'
p314
tp315
Rp316
sg25
I0
sg26
g27
(g28
(I0
tp317
g30
tp318
Rp319
(I1
(I2
tp320
g36
I00
S'3\x00\x00\x00p\x00\x00\x00'
p321
tp322
bsba(i__main__
FrameData
p323
(dp324
g6
g226
sg8
g9
(g13
S'\x00\x00\x00\x00\x00\x00\xf0?'
p325
tp326
Rp327
sg19
I0
sg20
g21
(S'\x07\xdd\t\x1d\x13\x11:\t\xd70'
p328
tp329
Rp330
sg25
I0
sg26
g27
(g28
(I0
tp331
g30
tp332
Rp333
(I1
(I2
tp334
g36
I00
S'1\x00\x00\x00p\x00\x00\x00'
p335
tp336
bsba(i__main__
FrameData
p337
(dp338
g6
g226
sg8
g9
(g13
S'\xa8\xf4\x97\x9bw\xe3\x01@'
p339
tp340
Rp341
sg19
I0
sg20
g21
(S'\x07\xdd\t\x1d\x13\x11:\n\x16\xcf'
p342
tp343
Rp344
sg25
I0
sg26
g27
(g28
(I0
tp345
g30
tp346
Rp347
(I1
(I2
tp348
g36
I00
S'/\x00\x00\x00p\x00\x00\x00'
p349
tp350
bsba(i__main__
FrameData
p351
(dp352
g6
g226
sg8
g9
(g13
S'S[\xda:XL\t@'
p353
tp354
Rp355
sg19
I0
sg20
g21
(S'\x07\xdd\t\x1d\x13\x11:\nY:'
p356
tp357
Rp358
sg25
I0
sg26
g27
(g28
(I0
tp359
g30
tp360
Rp361
(I1
(I2
tp362
g36
I00
S'.\x00\x00\x00p\x00\x00\x00'
p363
tp364
bsba(i__main__
FrameData
p365
(dp366
g6
g226
sg8
g9
(g13
S'\x07\xed\xaff\x0f~\x10@'
p367
tp368
Rp369
sg19
I0
sg20
g21
(S'\x07\xdd\t\x1d\x13\x11:\n\x99l'
p370
tp371
Rp372
sg25
I0
sg26
g27
(g28
(I0
tp373
g30
tp374
Rp375
(I1
(I2
tp376
g36
I00
S'-\x00\x00\x00p\x00\x00\x00'
p377
tp378
bsba(i__main__
FrameData
p379
(dp380
g6
g226
sg8
g9
(g13
S'9\xdcc\xb3\xbfT\x18@'
p381
tp382
Rp383
sg19
I0
sg20
g21
(S'\x07\xdd\t\x1d\x13\x11:\n\xdc\xe8'
p384
tp385
Rp386
sg25
I0
sg26
g27
(g28
(I0
tp387
g30
tp388
Rp389
(I1
(I2
tp390
g36
I00
S'+\x00\x00\x00p\x00\x00\x00'
p391
tp392
bsba(i__main__
FrameData
p393
(dp394
g6
g226
sg8
g9
(g13
S'\xc0\n\x1f\x00\xc6H\x1c@'
p395
tp396
Rp397
sg19
I0
sg20
g21
(S'\x07\xdd\t\x1d\x13\x11:\x0b\x1d\x9e'
p398
tp399
Rp400
sg25
I0
sg26
g27
(g28
(I0
tp401
g30
tp402
Rp403
(I1
(I2
tp404
g36
I00
S'*\x00\x00\x00p\x00\x00\x00'
p405
tp406
bsba(i__main__
FrameData
p407
(dp408
g6
g226
sg8
g9
(g13
S'\xd0\xbaa?\xe0\x1f @'
p409
tp410
Rp411
sg19
I0
sg20
g21
(S'\x07\xdd\t\x1d\x13\x11:\x0ba1'
p412
tp413
Rp414
sg25
I0
sg26
g27
(g28
(I0
tp415
g30
tp416
Rp417
(I1
(I2
tp418
g36
I00
S')\x00\x00\x00p\x00\x00\x00'
p419
tp420
bsba(i__main__
FrameData
p421
(dp422
g6
g226
sg8
g9
(g13
S'$\xf8\xd9p[\x1c"@'
p423
tp424
Rp425
sg19
I0
sg20
g21
(S'\x07\xdd\t\x1d\x13\x11:\x0b\x9e\x81'
p426
tp427
Rp428
sg25
I0
sg26
g27
(g28
(I0
tp429
g30
tp430
Rp431
(I1
(I2
tp432
g36
I00
S'(\x00\x00\x00p\x00\x00\x00'
p433
tp434
bsba(i__main__
FrameData
p435
(dp436
g6
g226
sg8
g9
(g13
S'\xf0)#L\x89\x19$@'
p437
tp438
Rp439
sg19
I0
sg20
g21
(S'\x07\xdd\t\x1d\x13\x11:\x0b\xdf\xf4'
p440
tp441
Rp442
sg25
I0
sg26
g27
(g28
(I0
tp443
g30
tp444
Rp445
(I1
(I2
tp446
g36
I00
S"'\x00\x00\x00p\x00\x00\x00"
p447
tp448
bsba(i__main__
FrameData
p449
(dp450
g6
g226
sg8
g9
(g13
S'H\xaa*\x8f9\x17&@'
p451
tp452
Rp453
sg19
I0
sg20
g21
(S'\x07\xdd\t\x1d\x13\x11:\x0c#\xae'
p454
tp455
Rp456
sg25
I0
sg26
g27
(g28
(I0
tp457
g30
tp458
Rp459
(I1
(I2
tp460
g36
I00
S'&\x00\x00\x00p\x00\x00\x00'
p461
tp462
bsba(i__main__
FrameData
p463
(dp464
g6
g226
sg8
g9
(g13
S'&5w\xe2K\x15(@'
p465
tp466
Rp467
sg19
I0
sg20
g21
(S'\x07\xdd\t\x1d\x13\x11:\x0ce\x93'
p468
tp469
Rp470
sg25
I0
sg26
g27
(g28
(I0
tp471
g30
tp472
Rp473
(I1
(I2
tp474
g36
I00
S'%\x00\x00\x00p\x00\x00\x00'
p475
tp476
bsba(i__main__
FrameData
p477
(dp478
g6
S'a'
p479
sg8
g9
(g13
S'&5w\xe2K\x15(@'
p480
tp481
Rp482
sg19
I0
sg20
g21
(S'\x07\xdd\t\x1d\x13\x11:\x0c\xa5c'
p483
tp484
Rp485
sg25
I0
sg26
g27
(g28
(I0
tp486
g30
tp487
Rp488
(I1
(I2
tp489
g36
I00
S'#\x00\x00\x00p\x00\x00\x00'
p490
tp491
bsba(i__main__
FrameData
p492
(dp493
g6
g479
sg8
g9
(g13
S'H\xaa*\x8f9\x17&@'
p494
tp495
Rp496
sg19
I0
sg20
g21
(S'\x07\xdd\t\x1d\x13\x11:\x0c\xe6t'
p497
tp498
Rp499
sg25
I0
sg26
g27
(g28
(I0
tp500
g30
tp501
Rp502
(I1
(I2
tp503
g36
I00
S'"\x00\x00\x00p\x00\x00\x00'
p504
tp505
bsba(i__main__
FrameData
p506
(dp507
g6
g479
sg8
g9
(g13
S'\xf0)#L\x89\x19$@'
p508
tp509
Rp510
sg19
I0
sg20
g21
(S'\x07\xdd\t\x1d\x13\x11:\rhC'
p511
tp512
Rp513
sg25
I0
sg26
g27
(g28
(I0
tp514
g30
tp515
Rp516
(I1
(I2
tp517
g36
I00
S'!\x00\x00\x00p\x00\x00\x00'
p518
tp519
bsba(i__main__
FrameData
p520
(dp521
g6
g479
sg8
g9
(g13
S'$\xf8\xd9p[\x1c"@'
p522
tp523
Rp524
sg19
I0
sg20
g21
(S'\x07\xdd\t\x1d\x13\x11:\r\xeb\x90'
p525
tp526
Rp527
sg25
I0
sg26
g27
(g28
(I0
tp528
g30
tp529
Rp530
(I1
(I2
tp531
g36
I00
S' \x00\x00\x00p\x00\x00\x00'
p532
tp533
bsba(i__main__
FrameData
p534
(dp535
g6
g479
sg8
g9
(g13
S'$\xf8\xd9p[\x1c"@'
p536
tp537
Rp538
sg19
I0
sg20
g21
(S'\x07\xdd\t\x1d\x13\x11:\x0e+B'
p539
tp540
Rp541
sg25
I0
sg26
g27
(g28
(I0
tp542
g30
tp543
Rp544
(I1
(I2
tp545
g36
I00
S' \x00\x00\x00r\x00\x00\x00'
p546
tp547
bsba(i__main__
FrameData
p548
(dp549
g6
g479
sg8
g9
(g13
S'\xd0\xbaa?\xe0\x1f @'
p550
tp551
Rp552
sg19
I0
sg20
g21
(S'\x07\xdd\t\x1d\x13\x11:\x0epI'
p553
tp554
Rp555
sg25
I0
sg26
g27
(g28
(I0
tp556
g30
tp557
Rp558
(I1
(I2
tp559
g36
I00
S'\x1f\x00\x00\x00r\x00\x00\x00'
p560
tp561
bsba(i__main__
FrameData
p562
(dp563
g6
g479
sg8
g9
(g13
S'9\xdcc\xb3\xbfT\x18@'
p564
tp565
Rp566
sg19
I0
sg20
g21
(S'\x07\xdd\t\x1d\x13\x11:\x0e\xaf\xfe'
p567
tp568
Rp569
sg25
I0
sg26
g27
(g28
(I0
tp570
g30
tp571
Rp572
(I1
(I2
tp573
g36
I00
S'\x1d\x00\x00\x00r\x00\x00\x00'
p574
tp575
bsba(i__main__
FrameData
p576
(dp577
g6
g479
sg8
g9
(g13
S'\xf6/\x12_ee\x14@'
p578
tp579
Rp580
sg19
I0
sg20
g21
(S'\x07\xdd\t\x1d\x13\x11:\x0e\xf1\xd9'
p581
tp582
Rp583
sg25
I0
sg26
g27
(g28
(I0
tp584
g30
tp585
Rp586
(I1
(I2
tp587
g36
I00
S'\x1c\x00\x00\x00r\x00\x00\x00'
p588
tp589
bsba(i__main__
FrameData
p590
(dp591
g6
g479
sg8
g9
(g13
S'\x07\xed\xaff\x0f~\x10@'
p592
tp593
Rp594
sg19
I0
sg20
g21
(S'\x07\xdd\t\x1d\x13\x11:\x0f2\xe0'
p595
tp596
Rp597
sg25
I0
sg26
g27
(g28
(I0
tp598
g30
tp599
Rp600
(I1
(I2
tp601
g36
I00
S'\x1b\x00\x00\x00r\x00\x00\x00'
p602
tp603
bsba(i__main__
FrameData
p604
(dp605
g6
g479
sg8
g9
(g13
S'S[\xda:XL\t@'
p606
tp607
Rp608
sg19
I0
sg20
g21
(S'\x07\xdd\t\x1d\x13\x11;\x002,'
p609
tp610
Rp611
sg25
I0
sg26
g27
(g28
(I0
tp612
g30
tp613
Rp614
(I1
(I2
tp615
g36
I00
S'\x1a\x00\x00\x00r\x00\x00\x00'
p616
tp617
bsba(i__main__
FrameData
p618
(dp619
g6
g479
sg8
g9
(g13
S'\xa8\xf4\x97\x9bw\xe3\x01@'
p620
tp621
Rp622
sg19
I0
sg20
g21
(S'\x07\xdd\t\x1d\x13\x11;\x00rq'
p623
tp624
Rp625
sg25
I0
sg26
g27
(g28
(I0
tp626
g30
tp627
Rp628
(I1
(I2
tp629
g36
I00
S'\x19\x00\x00\x00r\x00\x00\x00'
p630
tp631
bsba(i__main__
FrameData
p632
(dp633
g6
g479
sg8
g9
(g13
S'\xcd;\x7ff\x9e\xa0\xf6?'
p634
tp635
Rp636
sg19
I0
sg20
g21
(S'\x07\xdd\t\x1d\x13\x11;\x00\xb1\xda'
p637
tp638
Rp639
sg25
I0
sg26
g27
(g28
(I0
tp640
g30
tp641
Rp642
(I1
(I2
tp643
g36
I00
S'\x18\x00\x00\x00r\x00\x00\x00'
p644
tp645
bsba(i__main__
FrameData
p646
(dp647
g6
g479
sg8
g9
(g13
S'\xa8\xf4\x97\x9bw\xe3\x01@'
p648
tp649
Rp650
sg19
I0
sg20
g21
(S'\x07\xdd\t\x1d\x13\x11;\x03\x81z'
p651
tp652
Rp653
sg25
I0
sg26
g27
(g28
(I0
tp654
g30
tp655
Rp656
(I1
(I2
tp657
g36
I00
S'\x19\x00\x00\x00r\x00\x00\x00'
p658
tp659
bsba(i__main__
FrameData
p660
(dp661
g6
g479
sg8
g9
(g13
S'\x07\xed\xaff\x0f~\x10@'
p662
tp663
Rp664
sg19
I0
sg20
g21
(S'\x07\xdd\t\x1d\x13\x11;\x03\xc2>'
p665
tp666
Rp667
sg25
I0
sg26
g27
(g28
(I0
tp668
g30
tp669
Rp670
(I1
(I2
tp671
g36
I00
S'\x1b\x00\x00\x00r\x00\x00\x00'
p672
tp673
bsba(i__main__
FrameData
p674
(dp675
g6
g479
sg8
g9
(g13
S'\xd0\xbaa?\xe0\x1f @'
p676
tp677
Rp678
sg19
I0
sg20
g21
(S'\x07\xdd\t\x1d\x13\x11;\x04\x03+'
p679
tp680
Rp681
sg25
I0
sg26
g27
(g28
(I0
tp682
g30
tp683
Rp684
(I1
(I2
tp685
g36
I00
S'\x1f\x00\x00\x00r\x00\x00\x00'
p686
tp687
bsba(i__main__
FrameData
p688
(dp689
g6
g226
sg8
g9
(g13
S'\xd2\xf1}\x82U\\&@'
p690
tp691
Rp692
sg19
I0
sg20
g21
(S'\x07\xdd\t\x1d\x13\x11;\x04D\x11'
p693
tp694
Rp695
sg25
I0
sg26
g27
(g28
(I0
tp696
g30
tp697
Rp698
(I1
(I2
tp699
g36
I00
S'&\x00\x00\x00o\x00\x00\x00'
p700
tp701
bsba(i__main__
FrameData
p702
(dp703
g6
g226
sg8
g9
(g13
S'\xd0\xbaa?\xe0\x1f @'
p704
tp705
Rp706
sg19
I0
sg20
g21
(S'\x07\xdd\t\x1d\x13\x11;\x04\x85\x11'
p707
tp708
Rp709
sg25
I0
sg26
g27
(g28
(I0
tp710
g30
tp711
Rp712
(I1
(I2
tp713
g36
I00
S'2\x00\x00\x00i\x00\x00\x00'
p714
tp715
bsba(i__main__
FrameData
p716
(dp717
g6
g141
sg8
g9
(g13
S'\xef\rI\xf1\xf33+@'
p718
tp719
Rp720
sg19
I0
sg20
g21
(S'\x07\xdd\t\x1d\x13\x11;\x04\xc5\xdd'
p721
tp722
Rp723
sg25
I0
sg26
g27
(g28
(I0
tp724
g30
tp725
Rp726
(I1
(I2
tp727
g36
I00
S'E\x00\x00\x00d\x00\x00\x00'
p728
tp729
bsba(i__main__
FrameData
p730
(dp731
g6
S'r'
p732
sg8
g9
(g13
S'Mm\x9d\x8c\xc3\xec3@'
p733
tp734
Rp735
sg19
I0
sg20
g21
(S'\x07\xdd\t\x1d\x13\x11;\x05\x06\x9c'
p736
tp737
Rp738
sg25
I0
sg26
g27
(g28
(I0
tp739
g30
tp740
Rp741
(I1
(I2
tp742
g36
I00
S'X\x00\x00\x00^\x00\x00\x00'
p743
tp744
bsba(i__main__
FrameData
p745
(dp746
g6
S't'
p747
sg8
g9
(g13
S'=\xf3\n\x8f\xe6\x1f4@'
p748
tp749
Rp750
sg19
I0
sg20
g21
(S'\x07\xdd\t\x1d\x13\x11;\x05G\xa8'
p751
tp752
Rp753
sg25
I0
sg26
g27
(g28
(I0
tp754
g30
tp755
Rp756
(I1
(I2
tp757
g36
I00
S'a\x00\x00\x00]\x00\x00\x00'
p758
tp759
bsba(i__main__
FrameData
p760
(dp761
g6
g747
sg8
g9
(g13
S'\xd0\xbaa?\xe0\x1f0@'
p762
tp763
Rp764
sg19
I0
sg20
g21
(S'\x07\xdd\t\x1d\x13\x11;\x05\x8e\xfc'
p765
tp766
Rp767
sg25
I0
sg26
g27
(g28
(I0
tp768
g30
tp769
Rp770
(I1
(I2
tp771
g36
I00
S'h\x00\x00\x00[\x00\x00\x00'
p772
tp773
bsba(i__main__
FrameData
p774
(dp775
g6
g747
sg8
g9
(g13
S'[y\xf7F\xf7C.@'
p776
tp777
Rp778
sg19
I0
sg20
g21
(S'\x07\xdd\t\x1d\x13\x11;\x05\xcd\xe1'
p779
tp780
Rp781
sg25
I0
sg26
g27
(g28
(I0
tp782
g30
tp783
Rp784
(I1
(I2
tp785
g36
I00
S'l\x00\x00\x00Z\x00\x00\x00'
p786
tp787
bsba(i__main__
FrameData
p788
(dp789
g6
g747
sg8
g9
(g13
S'\xb3\xa73\xa0`\x0c/@'
p790
tp791
Rp792
sg19
I0
sg20
g21
(S'\x07\xdd\t\x1d\x13\x11;\x06\x0e\xc8'
p793
tp794
Rp795
sg25
I0
sg26
g27
(g28
(I0
tp796
g30
tp797
Rp798
(I1
(I2
tp799
g36
I00
S'n\x00\x00\x00Z\x00\x00\x00'
p800
tp801
bsba(i__main__
FrameData
p802
(dp803
g6
g747
sg8
g9
(g13
S"v\xa3~{\xce'0@"
p804
tp805
Rp806
sg19
I0
sg20
g21
(S'\x07\xdd\t\x1d\x13\x11;\x06P\xd5'
p807
tp808
Rp809
sg25
I0
sg26
g27
(g28
(I0
tp810
g30
tp811
Rp812
(I1
(I2
tp813
g36
I00
S'p\x00\x00\x00Z\x00\x00\x00'
p814
tp815
bsba(i__main__
FrameData
p816
(dp817
g6
g747
sg8
g9
(g13
S'\xb9\x93\xe1k\xb0\xa40@'
p818
tp819
Rp820
sg19
I0
sg20
g21
(S'\x07\xdd\t\x1d\x13\x11;\x06\x90v'
p821
tp822
Rp823
sg25
I0
sg26
g27
(g28
(I0
tp824
g30
tp825
Rp826
(I1
(I2
tp827
g36
I00
S's\x00\x00\x00Y\x00\x00\x00'
p828
tp829
bsba(i__main__
FrameData
p830
(dp831
g6
S'y'
p832
sg8
g9
(g13
S'l\xd0\xe82\x1a\xb11@'
p833
tp834
Rp835
sg19
I0
sg20
g21
(S'\x07\xdd\t\x1d\x13\x11;\x06\xd1]'
p836
tp837
Rp838
sg25
I0
sg26
g27
(g28
(I0
tp839
g30
tp840
Rp841
(I1
(I2
tp842
g36
I00
S'u\x00\x00\x00Y\x00\x00\x00'
p843
tp844
bsba(i__main__
FrameData
p845
(dp846
g6
g832
sg8
g9
(g13
S'/\xa4\xe3\\m\xbb-@'
p847
tp848
Rp849
sg19
I0
sg20
g21
(S'\x07\xdd\t\x1d\x13\x11;\x07\x13\x8e'
p850
tp851
Rp852
sg25
I0
sg26
g27
(g28
(I0
tp853
g30
tp854
Rp855
(I1
(I2
tp856
g36
I00
S'x\x00\x00\x00X\x00\x00\x00'
p857
tp858
bsba(i__main__
FrameData
p859
(dp860
g6
g832
sg8
g9
(g13
S'?*\x98"\xe3l,@'
p861
tp862
Rp863
sg19
I0
sg20
g21
(S'\x07\xdd\t\x1d\x13\x11;\x07S:'
p864
tp865
Rp866
sg25
I0
sg26
g27
(g28
(I0
tp867
g30
tp868
Rp869
(I1
(I2
tp870
g36
I00
S'y\x00\x00\x00X\x00\x00\x00'
p871
tp872
bsba(i__main__
FrameData
p873
(dp874
g6
g832
sg8
g9
(g13
S"\xa2\xa3\xb3\r\xe5R'@"
p875
tp876
Rp877
sg19
I0
sg20
g21
(S'\x07\xdd\t\x1d\x13\x11;\x07\x93\x8d'
p878
tp879
Rp880
sg25
I0
sg26
g27
(g28
(I0
tp881
g30
tp882
Rp883
(I1
(I2
tp884
g36
I00
S'|\x00\x00\x00W\x00\x00\x00'
p885
tp886
bsba(i__main__
FrameData
p887
(dp888
g6
g832
sg8
g9
(g13
S'\x9a.\x90!hp"@'
p889
tp890
Rp891
sg19
I0
sg20
g21
(S'\x07\xdd\t\x1d\x13\x11;\x07\xd4\xd8'
p892
tp893
Rp894
sg25
I0
sg26
g27
(g28
(I0
tp895
g30
tp896
Rp897
(I1
(I2
tp898
g36
I00
S'\x80\x00\x00\x00V\x00\x00\x00'
p899
tp900
bsba(i__main__
FrameData
p901
(dp902
g6
g832
sg8
g9
(g13
S'\xa8\xf4\x97\x9bw\xe3!@'
p903
tp904
Rp905
sg19
I0
sg20
g21
(S'\x07\xdd\t\x1d\x13\x11;\x08\x1aP'
p906
tp907
Rp908
sg25
I0
sg26
g27
(g28
(I0
tp909
g30
tp910
Rp911
(I1
(I2
tp912
g36
I00
S'\x86\x00\x00\x00U\x00\x00\x00'
p913
tp914
bsba(i__main__
FrameData
p915
(dp916
g6
g832
sg8
g9
(g13
S'\xe4\x10\xe4sW\x0f)@'
p917
tp918
Rp919
sg19
I0
sg20
g21
(S'\x07\xdd\t\x1d\x13\x11;\x08[4'
p920
tp921
Rp922
sg25
I0
sg26
g27
(g28
(I0
tp923
g30
tp924
Rp925
(I1
(I2
tp926
g36
I00
S'\x8d\x00\x00\x00S\x00\x00\x00'
p927
tp928
bsba(i__main__
FrameData
p929
(dp930
g6
S'u'
p931
sg8
g9
(g13
S'bVc}\x9d\xb2#@'
p932
tp933
Rp934
sg19
I0
sg20
g21
(S'\x07\xdd\t\x1d\x13\x11;\x08\x98\xa8'
p935
tp936
Rp937
sg25
I0
sg26
g27
(g28
(I0
tp938
g30
tp939
Rp940
(I1
(I2
tp941
g36
I00
S'\x94\x00\x00\x00S\x00\x00\x00'
p942
tp943
bsba(i__main__
FrameData
p944
(dp945
g6
g931
sg8
g9
(g13
S'\x9a.\x90!hp"@'
p946
tp947
Rp948
sg19
I0
sg20
g21
(S'\x07\xdd\t\x1d\x13\x11;\x08\xdc\xe4'
p949
tp950
Rp951
sg25
I0
sg26
g27
(g28
(I0
tp952
g30
tp953
Rp954
(I1
(I2
tp955
g36
I00
S'\x9a\x00\x00\x00S\x00\x00\x00'
p956
tp957
bsba(i__main__
FrameData
p958
(dp959
g6
g931
sg8
g9
(g13
S'\xeb\x12\xb2\xbb\xb2\xcd&@'
p960
tp961
Rp962
sg19
I0
sg20
g21
(S'\x07\xdd\t\x1d\x13\x11;\t\x1d\xcf'
p963
tp964
Rp965
sg25
I0
sg26
g27
(g28
(I0
tp966
g30
tp967
Rp968
(I1
(I2
tp969
g36
I00
S'\x9f\x00\x00\x00S\x00\x00\x00'
p970
tp971
bsba(i__main__
FrameData
p972
(dp973
g6
S'i'
p974
sg8
g9
(g13
S'\xc5Bl?W\x87.@'
p975
tp976
Rp977
sg19
I0
sg20
g21
(S'\x07\xdd\t\x1d\x13\x11;\t^\xba'
p978
tp979
Rp980
sg25
I0
sg26
g27
(g28
(I0
tp981
g30
tp982
Rp983
(I1
(I2
tp984
g36
I00
S'\xa5\x00\x00\x00S\x00\x00\x00'
p985
tp986
bsba(i__main__
FrameData
p987
(dp988
g6
g974
sg8
g9
(g13
S'ST\xaf\x99\x8a\xcc#@'
p989
tp990
Rp991
sg19
I0
sg20
g21
(S'\x07\xdd\t\x1d\x13\x11;\t\x9f~'
p992
tp993
Rp994
sg25
I0
sg26
g27
(g28
(I0
tp995
g30
tp996
Rp997
(I1
(I2
tp998
g36
I00
S'\xab\x00\x00\x00R\x00\x00\x00'
p999
tp1000
bsba(i__main__
FrameData
p1001
(dp1002
g6
g974
sg8
g9
(g13
S'\xc0\n\x1f\x00\xc6H\x1c@'
p1003
tp1004
Rp1005
sg19
I0
sg20
g21
(S'\x07\xdd\t\x1d\x13\x11;\t\xe0|'
p1006
tp1007
Rp1008
sg25
I0
sg26
g27
(g28
(I0
tp1009
g30
tp1010
Rp1011
(I1
(I2
tp1012
g36
I00
S'\xb1\x00\x00\x00R\x00\x00\x00'
p1013
tp1014
bsba(i__main__
FrameData
p1015
(dp1016
g6
g974
sg8
g9
(g13
S'p\xc4\x9d9\x8dv\x1e@'
p1017
tp1018
Rp1019
sg19
I0
sg20
g21
(S'\x07\xdd\t\x1d\x13\x11;\n!Q'
p1020
tp1021
Rp1022
sg25
I0
sg26
g27
(g28
(I0
tp1023
g30
tp1024
Rp1025
(I1
(I2
tp1026
g36
I00
S'\xb5\x00\x00\x00R\x00\x00\x00'
p1027
tp1028
bsba(i__main__
FrameData
p1029
(dp1030
g6
g974
sg8
g9
(g13
S'\x9a.\x90!hp"@'
p1031
tp1032
Rp1033
sg19
I0
sg20
g21
(S'\x07\xdd\t\x1d\x13\x11;\nb\x83'
p1034
tp1035
Rp1036
sg25
I0
sg26
g27
(g28
(I0
tp1037
g30
tp1038
Rp1039
(I1
(I2
tp1040
g36
I00
S'\xb8\x00\x00\x00R\x00\x00\x00'
p1041
tp1042
bsba(i__main__
FrameData
p1043
(dp1044
g6
g974
sg8
g9
(g13
S'\xeb\x12\xb2\xbb\xb2\xcd&@'
p1045
tp1046
Rp1047
sg19
I0
sg20
g21
(S'\x07\xdd\t\x1d\x13\x11;\n\xa7\x9f'
p1048
tp1049
Rp1050
sg25
I0
sg26
g27
(g28
(I0
tp1051
g30
tp1052
Rp1053
(I1
(I2
tp1054
g36
I00
S'\xbb\x00\x00\x00R\x00\x00\x00'
p1055
tp1056
bsba(i__main__
FrameData
p1057
(dp1058
g6
g974
sg8
g9
(g13
S'\xb9e(k\xee\xc8+@'
p1059
tp1060
Rp1061
sg19
I0
sg20
g21
(S'\x07\xdd\t\x1d\x13\x11;\n\xe5!'
p1062
tp1063
Rp1064
sg25
I0
sg26
g27
(g28
(I0
tp1065
g30
tp1066
Rp1067
(I1
(I2
tp1068
g36
I00
S'\xbe\x00\x00\x00R\x00\x00\x00'
p1069
tp1070
bsba(i__main__
FrameData
p1071
(dp1072
g6
S'o'
p1073
sg8
g9
(g13
S'\x00\x00\x00\x00\x00\x00$@'
p1074
tp1075
Rp1076
sg19
I0
sg20
g21
(S'\x07\xdd\t\x1d\x13\x11;\x0b$\x8a'
p1077
tp1078
Rp1079
sg25
I0
sg26
g27
(g28
(I0
tp1080
g30
tp1081
Rp1082
(I1
(I2
tp1083
g36
I00
S'\xc2\x00\x00\x00Q\x00\x00\x00'
p1084
tp1085
bsba(i__main__
FrameData
p1086
(dp1087
g6
g1073
sg8
g9
(g13
S'\x00\xff\x9f\x99\xcc\x9c\x19@'
p1088
tp1089
Rp1090
sg19
I0
sg20
g21
(S'\x07\xdd\t\x1d\x13\x11;\x0be\x97'
p1091
tp1092
Rp1093
sg25
I0
sg26
g27
(g28
(I0
tp1094
g30
tp1095
Rp1096
(I1
(I2
tp1097
g36
I00
S'\xc6\x00\x00\x00P\x00\x00\x00'
p1098
tp1099
bsba(i__main__
FrameData
p1100
(dp1101
g6
g1073
sg8
g9
(g13
S'\xf3\xd9\xa8\xa4h\x8a\x15@'
p1102
tp1103
Rp1104
sg19
I0
sg20
g21
(S'\x07\xdd\t\x1d\x13\x11;\x0b\xa6\x84'
p1105
tp1106
Rp1107
sg25
I0
sg26
g27
(g28
(I0
tp1108
g30
tp1109
Rp1110
(I1
(I2
tp1111
g36
I00
S'\xc8\x00\x00\x00P\x00\x00\x00'
p1112
tp1113
bsba(i__main__
FrameData
p1114
(dp1115
g6
g1073
sg8
g9
(g13
S'\x00\x00\x00\x00\x00\x00\x14@'
p1116
tp1117
Rp1118
sg19
I0
sg20
g21
(S'\x07\xdd\t\x1d\x13\x11;\x0b\xe8\xa4'
p1119
tp1120
Rp1121
sg25
I0
sg26
g27
(g28
(I0
tp1122
g30
tp1123
Rp1124
(I1
(I2
tp1125
g36
I00
S'\xca\x00\x00\x00P\x00\x00\x00'
p1126
tp1127
bsba(i__main__
FrameData
p1128
(dp1129
g6
g1073
sg8
g9
(g13
S'\xa8\xf4\x97\x9bw\xe3\x11@'
p1130
tp1131
Rp1132
sg19
I0
sg20
g21
(S'\x07\xdd\t\x1d\x13\x11;\x0c,\xd2'
p1133
tp1134
Rp1135
sg25
I0
sg26
g27
(g28
(I0
tp1136
g30
tp1137
Rp1138
(I1
(I2
tp1139
g36
I00
S'\xcc\x00\x00\x00O\x00\x00\x00'
p1140
tp1141
bsba(i__main__
FrameData
p1142
(dp1143
g6
g1073
sg8
g9
(g13
S'\x00\x00\x00\x00\x00\x00\x14@'
p1144
tp1145
Rp1146
sg19
I0
sg20
g21
(S'\x07\xdd\t\x1d\x13\x11;\x0cm\xc5'
p1147
tp1148
Rp1149
sg25
I0
sg26
g27
(g28
(I0
tp1150
g30
tp1151
Rp1152
(I1
(I2
tp1153
g36
I00
S'\xcd\x00\x00\x00O\x00\x00\x00'
p1154
tp1155
bsba(i__main__
FrameData
p1156
(dp1157
g6
g1073
sg8
g9
(g13
S'\x00\xff\x9f\x99\xcc\x9c\x19@'
p1158
tp1159
Rp1160
sg19
I0
sg20
g21
(S"\x07\xdd\t\x1d\x13\x11;\x0c\xac'"
p1161
tp1162
Rp1163
sg25
I0
sg26
g27
(g28
(I0
tp1164
g30
tp1165
Rp1166
(I1
(I2
tp1167
g36
I00
S'\xcf\x00\x00\x00O\x00\x00\x00'
p1168
tp1169
bsba(i__main__
FrameData
p1170
(dp1171
g6
g1073
sg8
g9
(g13
S'\xf3YaD+\xd8\x1c@'
p1172
tp1173
Rp1174
sg19
I0
sg20
g21
(S'\x07\xdd\t\x1d\x13\x11;\x0c\xef\x81'
p1175
tp1176
Rp1177
sg25
I0
sg26
g27
(g28
(I0
tp1178
g30
tp1179
Rp1180
(I1
(I2
tp1181
g36
I00
S'\xd0\x00\x00\x00O\x00\x00\x00'
p1182
tp1183
bsba(i__main__
FrameData
p1184
(dp1185
g6
g1073
sg8
g9
(g13
S'\xa8\xf4\x97\x9bw\xe3!@'
p1186
tp1187
Rp1188
sg19
I0
sg20
g21
(S'\x07\xdd\t\x1d\x13\x11;\r1\xa9'
p1189
tp1190
Rp1191
sg25
I0
sg26
g27
(g28
(I0
tp1192
g30
tp1193
Rp1194
(I1
(I2
tp1195
g36
I00
S'\xd2\x00\x00\x00O\x00\x00\x00'
p1196
tp1197
bsba(i__main__
FrameData
p1198
(dp1199
g6
g1073
sg8
g9
(g13
S'bVc}\x9d\xb2#@'
p1200
tp1201
Rp1202
sg19
I0
sg20
g21
(S'\x07\xdd\t\x1d\x13\x11;\ro\x92'
p1203
tp1204
Rp1205
sg25
I0
sg26
g27
(g28
(I0
tp1206
g30
tp1207
Rp1208
(I1
(I2
tp1209
g36
I00
S'\xd3\x00\x00\x00O\x00\x00\x00'
p1210
tp1211
bsba(i__main__
FrameData
p1212
(dp1213
g6
g1073
sg8
g9
(g13
S'7\xf9\xcf\xdao\xe1$@'
p1214
tp1215
Rp1216
sg19
I0
sg20
g21
(S'\x07\xdd\t\x1d\x13\x11;\r\xb2"'
p1217
tp1218
Rp1219
sg25
I0
sg26
g27
(g28
(I0
tp1220
g30
tp1221
Rp1222
(I1
(I2
tp1223
g36
I00
S'\xd4\x00\x00\x00N\x00\x00\x00'
p1224
tp1225
bsba(i__main__
FrameData
p1226
(dp1227
g6
g1073
sg8
g9
(g13
S'\xeb\x12\xb2\xbb\xb2\xcd&@'
p1228
tp1229
Rp1230
sg19
I0
sg20
g21
(S'\x07\xdd\t\x1d\x13\x11;\r\xf2\xfd'
p1231
tp1232
Rp1233
sg25
I0
sg26
g27
(g28
(I0
tp1234
g30
tp1235
Rp1236
(I1
(I2
tp1237
g36
I00
S'\xd5\x00\x00\x00N\x00\x00\x00'
p1238
tp1239
bsba(i__main__
FrameData
p1240
(dp1241
g6
g1073
sg8
g9
(g13
S'H\xaa*\x8f9\x17&@'
p1242
tp1243
Rp1244
sg19
I0
sg20
g21
(S'\x07\xdd\t\x1d\x13\x11;\x0e8t'
p1245
tp1246
Rp1247
sg25
I0
sg26
g27
(g28
(I0
tp1248
g30
tp1249
Rp1250
(I1
(I2
tp1251
g36
I00
S'\xd5\x00\x00\x00L\x00\x00\x00'
p1252
tp1253
bsba(i__main__
FrameData
p1254
(dp1255
g6
S'p'
p1256
sg8
g9
(g13
S'\xf0)#L\x89\x19$@'
p1257
tp1258
Rp1259
sg19
I0
sg20
g21
(S'\x07\xdd\t\x1d\x13\x11;\x0et\xb5'
p1260
tp1261
Rp1262
sg25
I0
sg26
g27
(g28
(I0
tp1263
g30
tp1264
Rp1265
(I1
(I2
tp1266
g36
I00
S'\xd7\x00\x00\x00L\x00\x00\x00'
p1267
tp1268
bsba(i__main__
FrameData
p1269
(dp1270
g6
g1256
sg8
g9
(g13
S'$\xf8\xd9p[\x1c"@'
p1271
tp1272
Rp1273
sg19
I0
sg20
g21
(S'\x07\xdd\t\x1d\x13\x11;\x0e\xf7\xcf'
p1274
tp1275
Rp1276
sg25
I0
sg26
g27
(g28
(I0
tp1277
g30
tp1278
Rp1279
(I1
(I2
tp1280
g36
I00
S'\xd8\x00\x00\x00L\x00\x00\x00'
p1281
tp1282
bsba(i__main__
FrameData
p1283
(dp1284
g6
g1256
sg8
g9
(g13
S'\xd0\xbaa?\xe0\x1f @'
p1285
tp1286
Rp1287
sg19
I0
sg20
g21
(S'\x07\xdd\t\x1d\x13\x12\x00\x00:\xaf'
p1288
tp1289
Rp1290
sg25
I0
sg26
g27
(g28
(I0
tp1291
g30
tp1292
Rp1293
(I1
(I2
tp1294
g36
I00
S'\xd9\x00\x00\x00L\x00\x00\x00'
p1295
tp1296
bsba(i__main__
FrameData
p1297
(dp1298
g6
g1256
sg8
g9
(g13
S'\x00\x00\x00\x00\x00\x00 @'
p1299
tp1300
Rp1301
sg19
I0
sg20
g21
(S'\x07\xdd\t\x1d\x13\x12\x00\x00{\x8c'
p1302
tp1303
Rp1304
sg25
I0
sg26
g27
(g28
(I0
tp1305
g30
tp1306
Rp1307
(I1
(I2
tp1308
g36
I00
S'\xd9\x00\x00\x00K\x00\x00\x00'
p1309
tp1310
bsba(i__main__
FrameData
p1311
(dp1312
g6
g1256
sg8
g9
(g13
S'\xc0\n\x1f\x00\xc6H\x1c@'
p1313
tp1314
Rp1315
sg19
I0
sg20
g21
(S'\x07\xdd\t\x1d\x13\x12\x00\x02A\xc0'
p1316
tp1317
Rp1318
sg25
I0
sg26
g27
(g28
(I0
tp1319
g30
tp1320
Rp1321
(I1
(I2
tp1322
g36
I00
S'\xda\x00\x00\x00J\x00\x00\x00'
p1323
tp1324
bsba(i__main__
FrameData
p1325
(dp1326
g6
g1256
sg8
g9
(g13
S'9\xdcc\xb3\xbfT\x18@'
p1327
tp1328
Rp1329
sg19
I0
sg20
g21
(S'\x07\xdd\t\x1d\x13\x12\x00\x02\x82m'
p1330
tp1331
Rp1332
sg25
I0
sg26
g27
(g28
(I0
tp1333
g30
tp1334
Rp1335
(I1
(I2
tp1336
g36
I00
S'\xdb\x00\x00\x00J\x00\x00\x00'
p1337
tp1338
bsba(i__main__
FrameData
p1339
(dp1340
g6
g1256
sg8
g9
(g13
S'\xa8\xf4\x97\x9bw\xe3\x11@'
p1341
tp1342
Rp1343
sg19
I0
sg20
g21
(S'\x07\xdd\t\x1d\x13\x12\x00\x02\xc3g'
p1344
tp1345
Rp1346
sg25
I0
sg26
g27
(g28
(I0
tp1347
g30
tp1348
Rp1349
(I1
(I2
tp1350
g36
I00
S'\xdd\x00\x00\x00I\x00\x00\x00'
p1351
tp1352
bsba(i__main__
FrameData
p1353
(dp1354
g6
g1256
sg8
g9
(g13
S'\xcd;\x7ff\x9e\xa0\x06@'
p1355
tp1356
Rp1357
sg19
I0
sg20
g21
(S'\x07\xdd\t\x1d\x13\x12\x00\x03\x08\xb1'
p1358
tp1359
Rp1360
sg25
I0
sg26
g27
(g28
(I0
tp1361
g30
tp1362
Rp1363
(I1
(I2
tp1364
g36
I00
S'\xdf\x00\x00\x00I\x00\x00\x00'
p1365
tp1366
bsba(i__main__
FrameData
p1367
(dp1368
g6
g1256
sg8
g9
(g13
S'S[\xda:XL\t@'
p1369
tp1370
Rp1371
sg19
I0
sg20
g21
(S'\x07\xdd\t\x1d\x13\x12\x00\x03I\x8e'
p1372
tp1373
Rp1374
sg25
I0
sg26
g27
(g28
(I0
tp1375
g30
tp1376
Rp1377
(I1
(I2
tp1378
g36
I00
S'\xe0\x00\x00\x00H\x00\x00\x00'
p1379
tp1380
bsba(i__main__
FrameData
p1381
(dp1382
g6
g1256
sg8
g9
(g13
S'\x00\x00\x00\x00\x00\x00\x10@'
p1383
tp1384
Rp1385
sg19
I0
sg20
g21
(S'\x07\xdd\t\x1d\x13\x12\x00\x03\x87\x19'
p1386
tp1387
Rp1388
sg25
I0
sg26
g27
(g28
(I0
tp1389
g30
tp1390
Rp1391
(I1
(I2
tp1392
g36
I00
S'\xe1\x00\x00\x00G\x00\x00\x00'
p1393
tp1394
bsba(i__main__
FrameData
p1395
(dp1396
g6
g1256
sg8
g9
(g13
S'\x07\xed\xaff\x0f~\x10@'
p1397
tp1398
Rp1399
sg19
I0
sg20
g21
(S'\x07\xdd\t\x1d\x13\x12\x00\x03\xcb|'
p1400
tp1401
Rp1402
sg25
I0
sg26
g27
(g28
(I0
tp1403
g30
tp1404
Rp1405
(I1
(I2
tp1406
g36
I00
S'\xe2\x00\x00\x00G\x00\x00\x00'
p1407
tp1408
bsba(i__main__
FrameData
p1409
(dp1410
g6
g1256
sg8
g9
(g13
S'\xf6/\x12_ee\x14@'
p1411
tp1412
Rp1413
sg19
I0
sg20
g21
(S'\x07\xdd\t\x1d\x13\x12\x00\x04\rM'
p1414
tp1415
Rp1416
sg25
I0
sg26
g27
(g28
(I0
tp1417
g30
tp1418
Rp1419
(I1
(I2
tp1420
g36
I00
S'\xe2\x00\x00\x00F\x00\x00\x00'
p1421
tp1422
bsba(i__main__
FrameData
p1423
(dp1424
g6
g1256
sg8
g9
(g13
S'\xa8\xf4\x97\x9bw\xe3\x11@'
p1425
tp1426
Rp1427
sg19
I0
sg20
g21
(S'\x07\xdd\t\x1d\x13\x12\x00\r8\x84'
p1428
tp1429
Rp1430
sg25
I0
sg26
g27
(g28
(I0
tp1431
g30
tp1432
Rp1433
(I1
(I2
tp1434
g36
I00
S'\xe3\x00\x00\x00G\x00\x00\x00'
p1435
tp1436
bsba(i__main__
FrameData
p1437
(dp1438
g6
g1256
sg8
g9
(g13
S'\x00\x00\x00\x00\x00\x00\x10@'
p1439
tp1440
Rp1441
sg19
I0
sg20
g21
(S'\x07\xdd\t\x1d\x13\x12\x00\r\x7fK'
p1442
tp1443
Rp1444
sg25
I0
sg26
g27
(g28
(I0
tp1445
g30
tp1446
Rp1447
(I1
(I2
tp1448
g36
I00
S'\xe1\x00\x00\x00G\x00\x00\x00'
p1449
tp1450
bsba(i__main__
FrameData
p1451
(dp1452
g6
g1256
sg8
g9
(g13
S'\x07\xed\xaff\x0f~\x10@'
p1453
tp1454
Rp1455
sg19
I0
sg20
g21
(S'\x07\xdd\t\x1d\x13\x12\x00\r\xba\xb3'
p1456
tp1457
Rp1458
sg25
I0
sg26
g27
(g28
(I0
tp1459
g30
tp1460
Rp1461
(I1
(I2
tp1462
g36
I00
S'\xe0\x00\x00\x00G\x00\x00\x00'
p1463
tp1464
bsba(i__main__
FrameData
p1465
(dp1466
g6
g1256
sg8
g9
(g13
S'\xa8\xf4\x97\x9bw\xe3\x11@'
p1467
tp1468
Rp1469
sg19
I0
sg20
g21
(S'\x07\xdd\t\x1d\x13\x12\x00\x0eAd'
p1470
tp1471
Rp1472
sg25
I0
sg26
g27
(g28
(I0
tp1473
g30
tp1474
Rp1475
(I1
(I2
tp1476
g36
I00
S'\xdf\x00\x00\x00G\x00\x00\x00'
p1477
tp1478
bsba(i__main__
FrameData
p1479
(dp1480
g6
g1256
sg8
g9
(g13
S'\xf3YaD+\xd8\x0c@'
p1481
tp1482
Rp1483
sg19
I0
sg20
g21
(S'\x07\xdd\t\x1d\x13\x12\x00\x0e}\xcd'
p1484
tp1485
Rp1486
sg25
I0
sg26
g27
(g28
(I0
tp1487
g30
tp1488
Rp1489
(I1
(I2
tp1490
g36
I00
S'\xdf\x00\x00\x00H\x00\x00\x00'
p1491
tp1492
bsba(i__main__
FrameData
p1493
(dp1494
g6
g1256
sg8
g9
(g13
S'\xd9l\xdf\xccv\xf8\x10@'
p1495
tp1496
Rp1497
sg19
I0
sg20
g21
(S'\x07\xdd\t\x1d\x13\x12\x00\x0e\xc3A'
p1498
tp1499
Rp1500
sg25
I0
sg26
g27
(g28
(I0
tp1501
g30
tp1502
Rp1503
(I1
(I2
tp1504
g36
I00
S'\xde\x00\x00\x00H\x00\x00\x00'
p1505
tp1506
bsba(i__main__
FrameData
p1507
(dp1508
g6
g1256
sg8
g9
(g13
S'\xf3YaD+\xd8\x0c@'
p1509
tp1510
Rp1511
sg19
I0
sg20
g21
(S'\x07\xdd\t\x1d\x13\x12\x01\x00\x01p'
p1512
tp1513
Rp1514
sg25
I0
sg26
g27
(g28
(I0
tp1515
g30
tp1516
Rp1517
(I1
(I2
tp1518
g36
I00
S'\xde\x00\x00\x00I\x00\x00\x00'
p1519
tp1520
bsba(i__main__
FrameData
p1521
(dp1522
g6
g1256
sg8
g9
(g13
S'\xa8\xf4\x97\x9bw\xe3\x11@'
p1523
tp1524
Rp1525
sg19
I0
sg20
g21
(S'\x07\xdd\t\x1d\x13\x12\x01\x02\x8b\x90'
p1526
tp1527
Rp1528
sg25
I0
sg26
g27
(g28
(I0
tp1529
g30
tp1530
Rp1531
(I1
(I2
tp1532
g36
I00
S'\xdd\x00\x00\x00I\x00\x00\x00'
p1533
tp1534
bsba(i__main__
FrameData
p1535
(dp1536
g6
g1256
sg8
g9
(g13
S'\xf3\xd9\xa8\xa4h\x8a\x15@'
p1537
tp1538
Rp1539
sg19
I0
sg20
g21
(S'\x07\xdd\t\x1d\x13\x12\x01\x03NW'
p1540
tp1541
Rp1542
sg25
I0
sg26
g27
(g28
(I0
tp1543
g30
tp1544
Rp1545
(I1
(I2
tp1546
g36
I00
S'\xdc\x00\x00\x00I\x00\x00\x00'
p1547
tp1548
bsba(i__main__
FrameData
p1549
(dp1550
g6
g1256
sg8
g9
(g13
S'9\xdcc\xb3\xbfT\x18@'
p1551
tp1552
Rp1553
sg19
I0
sg20
g21
(S'\x07\xdd\t\x1d\x13\x12\x01\x04\x162'
p1554
tp1555
Rp1556
sg25
I0
sg26
g27
(g28
(I0
tp1557
g30
tp1558
Rp1559
(I1
(I2
tp1560
g36
I00
S'\xdb\x00\x00\x00J\x00\x00\x00'
p1561
tp1562
bsba(i__main__
FrameData
p1563
(dp1564
g6
g1256
sg8
g9
(g13
S'\xc0\n\x1f\x00\xc6H\x1c@'
p1565
tp1566
Rp1567
sg19
I0
sg20
g21
(S'\x07\xdd\t\x1d\x13\x12\x01\x04\xd8\x02'
p1568
tp1569
Rp1570
sg25
I0
sg26
g27
(g28
(I0
tp1571
g30
tp1572
Rp1573
(I1
(I2
tp1574
g36
I00
S'\xda\x00\x00\x00J\x00\x00\x00'
p1575
tp1576
bsba(i__main__
FrameData
p1577
(dp1578
g6
g1256
sg8
g9
(g13
S'\x00\x00\x00\x00\x00\x00\x1c@'
p1579
tp1580
Rp1581
sg19
I0
sg20
g21
(S'\x07\xdd\t\x1d\x13\x12\x01\x05\x18\xe6'
p1582
tp1583
Rp1584
sg25
I0
sg26
g27
(g28
(I0
tp1585
g30
tp1586
Rp1587
(I1
(I2
tp1588
g36
I00
S'\xda\x00\x00\x00K\x00\x00\x00'
p1589
tp1590
bsba(i__main__
FrameData
p1591
(dp1592
g6
g1256
sg8
g9
(g13
S'\x00\x00\x00\x00\x00\x00"@'
p1593
tp1594
Rp1595
sg19
I0
sg20
g21
(S'\x07\xdd\t\x1d\x13\x12\x01\x05Y\xc5'
p1596
tp1597
Rp1598
sg25
I0
sg26
g27
(g28
(I0
tp1599
g30
tp1600
Rp1601
(I1
(I2
tp1602
g36
I00
S'\xd8\x00\x00\x00K\x00\x00\x00'
p1603
tp1604
bsba(i__main__
FrameData
p1605
(dp1606
g6
g1256
sg8
g9
(g13
S'\x00\x00\x00\x00\x00\x00&@'
p1607
tp1608
Rp1609
sg19
I0
sg20
g21
(S'\x07\xdd\t\x1d\x13\x12\x01\x05\x99\xc8'
p1610
tp1611
Rp1612
sg25
I0
sg26
g27
(g28
(I0
tp1613
g30
tp1614
Rp1615
(I1
(I2
tp1616
g36
I00
S'\xd6\x00\x00\x00K\x00\x00\x00'
p1617
tp1618
bsba(i__main__
FrameData
p1619
(dp1620
g6
g1073
sg8
g9
(g13
S'H\xaa*\x8f9\x17&@'
p1621
tp1622
Rp1623
sg19
I0
sg20
g21
(S'\x07\xdd\t\x1d\x13\x12\x01\x05\xdc\xb7'
p1624
tp1625
Rp1626
sg25
I0
sg26
g27
(g28
(I0
tp1627
g30
tp1628
Rp1629
(I1
(I2
tp1630
g36
I00
S'\xd5\x00\x00\x00L\x00\x00\x00'
p1631
tp1632
bsba(i__main__
FrameData
p1633
(dp1634
g6
g1073
sg8
g9
(g13
S'\x07\xed\xaff\x0f~ @'
p1635
tp1636
Rp1637
sg19
I0
sg20
g21
(S'\x07\xdd\t\x1d\x13\x12\x01\x06\x1cS'
p1638
tp1639
Rp1640
sg25
I0
sg26
g27
(g28
(I0
tp1641
g30
tp1642
Rp1643
(I1
(I2
tp1644
g36
I00
S'\xd2\x00\x00\x00M\x00\x00\x00'
p1645
tp1646
bsba(i__main__
FrameData
p1647
(dp1648
g6
g1073
sg8
g9
(g13
S'\xd9l\xdf\xccv\xf8\x10@'
p1649
tp1650
Rp1651
sg19
I0
sg20
g21
(S'\x07\xdd\t\x1d\x13\x12\x01\x06]|'
p1652
tp1653
Rp1654
sg25
I0
sg26
g27
(g28
(I0
tp1655
g30
tp1656
Rp1657
(I1
(I2
tp1658
g36
I00
S'\xcd\x00\x00\x00N\x00\x00\x00'
p1659
tp1660
bsba(i__main__
FrameData
p1661
(dp1662
g6
g1073
sg8
g9
(g13
S'\xa8\xf4\x97\x9bw\xe3\x11@'
p1663
tp1664
Rp1665
sg19
I0
sg20
g21
(S'\x07\xdd\t\x1d\x13\x12\x01\x06\x9fj'
p1666
tp1667
Rp1668
sg25
I0
sg26
g27
(g28
(I0
tp1669
g30
tp1670
Rp1671
(I1
(I2
tp1672
g36
I00
S'\xc8\x00\x00\x00O\x00\x00\x00'
p1673
tp1674
bsba(i__main__
FrameData
p1675
(dp1676
g6
g1073
sg8
g9
(g13
S'bVc}\x9d\xb2#@'
p1677
tp1678
Rp1679
sg19
I0
sg20
g21
(S'\x07\xdd\t\x1d\x13\x12\x01\x06\xe3\x9b'
p1680
tp1681
Rp1682
sg25
I0
sg26
g27
(g28
(I0
tp1683
g30
tp1684
Rp1685
(I1
(I2
tp1686
g36
I00
S'\xc1\x00\x00\x00O\x00\x00\x00'
p1687
tp1688
bsba(i__main__
FrameData
p1689
(dp1690
g6
g974
sg8
g9
(g13
S'\xa3\x14\xae\xa8\x87\x16!@'
p1691
tp1692
Rp1693
sg19
I0
sg20
g21
(S'\x07\xdd\t\x1d\x13\x12\x01\x07$*'
p1694
tp1695
Rp1696
sg25
I0
sg26
g27
(g28
(I0
tp1697
g30
tp1698
Rp1699
(I1
(I2
tp1700
g36
I00
S'\xaf\x00\x00\x00S\x00\x00\x00'
p1701
tp1702
bsba(i__main__
FrameData
p1703
(dp1704
g6
g974
sg8
g9
(g13
S'\xcd;\x7ff\x9e\xa0&@'
p1705
tp1706
Rp1707
sg19
I0
sg20
g21
(S'\x07\xdd\t\x1d\x13\x12\x01\x07bR'
p1708
tp1709
Rp1710
sg25
I0
sg26
g27
(g28
(I0
tp1711
g30
tp1712
Rp1713
(I1
(I2
tp1714
g36
I00
S'\xaa\x00\x00\x00S\x00\x00\x00'
p1715
tp1716
bsba(i__main__
FrameData
p1717
(dp1718
g6
g931
sg8
g9
(g13
S'\xb4\xb8=iA\xe8*@'
p1719
tp1720
Rp1721
sg19
I0
sg20
g21
(S'\x07\xdd\t\x1d\x13\x12\x01\x07\xa6.'
p1722
tp1723
Rp1724
sg25
I0
sg26
g27
(g28
(I0
tp1725
g30
tp1726
Rp1727
(I1
(I2
tp1728
g36
I00
S'\xa2\x00\x00\x00S\x00\x00\x00'
p1729
tp1730
bsba(i__main__
FrameData
p1731
(dp1732
g6
g931
sg8
g9
(g13
S'bVc}\x9d\xb2#@'
p1733
tp1734
Rp1735
sg19
I0
sg20
g21
(S'\x07\xdd\t\x1d\x13\x12\x01\x07\xe8='
p1736
tp1737
Rp1738
sg25
I0
sg26
g27
(g28
(I0
tp1739
g30
tp1740
Rp1741
(I1
(I2
tp1742
g36
I00
S'\x9c\x00\x00\x00S\x00\x00\x00'
p1743
tp1744
bsba(i__main__
FrameData
p1745
(dp1746
g6
g931
sg8
g9
(g13
S'\x00\x00\x00\x00\x00\x00"@'
p1747
tp1748
Rp1749
sg19
I0
sg20
g21
(S"\x07\xdd\t\x1d\x13\x12\x01\x08'\xea"
p1750
tp1751
Rp1752
sg25
I0
sg26
g27
(g28
(I0
tp1753
g30
tp1754
Rp1755
(I1
(I2
tp1756
g36
I00
S'\x98\x00\x00\x00S\x00\x00\x00'
p1757
tp1758
bsba(i__main__
FrameData
p1759
(dp1760
g6
g931
sg8
g9
(g13
S'bVc}\x9d\xb2#@'
p1761
tp1762
Rp1763
sg19
I0
sg20
g21
(S'\x07\xdd\t\x1d\x13\x12\x01\x08h\xcf'
p1764
tp1765
Rp1766
sg25
I0
sg26
g27
(g28
(I0
tp1767
g30
tp1768
Rp1769
(I1
(I2
tp1770
g36
I00
S'\x94\x00\x00\x00S\x00\x00\x00'
p1771
tp1772
bsba(i__main__
FrameData
p1773
(dp1774
g6
g931
sg8
g9
(g13
S'w\x03Is \xa2%@'
p1775
tp1776
Rp1777
sg19
I0
sg20
g21
(S'\x07\xdd\t\x1d\x13\x12\x01\x08\xa9\xc6'
p1778
tp1779
Rp1780
sg25
I0
sg26
g27
(g28
(I0
tp1781
g30
tp1782
Rp1783
(I1
(I2
tp1784
g36
I00
S'\x92\x00\x00\x00S\x00\x00\x00'
p1785
tp1786
bsba(i__main__
FrameData
p1787
(dp1788
g6
g931
sg8
g9
(g13
S'&5w\xe2K\x15(@'
p1789
tp1790
Rp1791
sg19
I0
sg20
g21
(S'\x07\xdd\t\x1d\x13\x12\x01\x08\xec\x07'
p1792
tp1793
Rp1794
sg25
I0
sg26
g27
(g28
(I0
tp1795
g30
tp1796
Rp1797
(I1
(I2
tp1798
g36
I00
S'\x90\x00\x00\x00S\x00\x00\x00'
p1799
tp1800
bsba(i__main__
FrameData
p1801
(dp1802
g6
g931
sg8
g9
(g13
S'F#O3\xb2t)@'
p1803
tp1804
Rp1805
sg19
I0
sg20
g21
(S'\x07\xdd\t\x1d\x13\x12\x01\t+x'
p1806
tp1807
Rp1808
sg25
I0
sg26
g27
(g28
(I0
tp1809
g30
tp1810
Rp1811
(I1
(I2
tp1812
g36
I00
S'\x8f\x00\x00\x00S\x00\x00\x00'
p1813
tp1814
bsba(i__main__
FrameData
p1815
(dp1816
g6
g832
sg8
g9
(g13
S'\xe4\x10\xe4sW\x0f)@'
p1817
tp1818
Rp1819
sg19
I0
sg20
g21
(S'\x07\xdd\t\x1d\x13\x12\x01\tla'
p1820
tp1821
Rp1822
sg25
I0
sg26
g27
(g28
(I0
tp1823
g30
tp1824
Rp1825
(I1
(I2
tp1826
g36
I00
S'\x8d\x00\x00\x00S\x00\x00\x00'
p1827
tp1828
bsba(i__main__
FrameData
p1829
(dp1830
g6
g832
sg8
g9
(g13
S'w\x03Is \xa2%@'
p1831
tp1832
Rp1833
sg19
I0
sg20
g21
(S'\x07\xdd\t\x1d\x13\x12\x01\t\xad\xbd'
p1834
tp1835
Rp1836
sg25
I0
sg26
g27
(g28
(I0
tp1837
g30
tp1838
Rp1839
(I1
(I2
tp1840
g36
I00
S'\x8b\x00\x00\x00S\x00\x00\x00'
p1841
tp1842
bsba(i__main__
FrameData
p1843
(dp1844
g6
g832
sg8
g9
(g13
S'\x9a.\x90!hp"@'
p1845
tp1846
Rp1847
sg19
I0
sg20
g21
(S'\x07\xdd\t\x1d\x13\x12\x01\t\xf2\x8e'
p1848
tp1849
Rp1850
sg25
I0
sg26
g27
(g28
(I0
tp1851
g30
tp1852
Rp1853
(I1
(I2
tp1854
g36
I00
S'\x89\x00\x00\x00S\x00\x00\x00'
p1855
tp1856
bsba(i__main__
FrameData
p1857
(dp1858
g6
g832
sg8
g9
(g13
S'htN\x17\xb2=\x1f@'
p1859
tp1860
Rp1861
sg19
I0
sg20
g21
(S'\x07\xdd\t\x1d\x13\x12\x01\n4\xdc'
p1862
tp1863
Rp1864
sg25
I0
sg26
g27
(g28
(I0
tp1865
g30
tp1866
Rp1867
(I1
(I2
tp1868
g36
I00
S'\x87\x00\x00\x00S\x00\x00\x00'
p1869
tp1870
bsba(i__main__
FrameData
p1871
(dp1872
g6
g832
sg8
g9
(g13
S'S[\xda:XL\x19@'
p1873
tp1874
Rp1875
sg19
I0
sg20
g21
(S'\x07\xdd\t\x1d\x13\x12\x01\nt\x97'
p1876
tp1877
Rp1878
sg25
I0
sg26
g27
(g28
(I0
tp1879
g30
tp1880
Rp1881
(I1
(I2
tp1882
g36
I00
S'\x84\x00\x00\x00S\x00\x00\x00'
p1883
tp1884
bsba(i__main__
FrameData
p1885
(dp1886
g6
g832
sg8
g9
(g13
S'\x00\x00\x00\x00\x00\x00\x18@'
p1887
tp1888
Rp1889
sg19
I0
sg20
g21
(S'\x07\xdd\t\x1d\x13\x12\x01\n\xb5"'
p1890
tp1891
Rp1892
sg25
I0
sg26
g27
(g28
(I0
tp1893
g30
tp1894
Rp1895
(I1
(I2
tp1896
g36
I00
S'\x82\x00\x00\x00S\x00\x00\x00'
p1897
tp1898
bsba(i__main__
FrameData
p1899
(dp1900
g6
g832
sg8
g9
(g13
S'S[\xda:XL\x19@'
p1901
tp1902
Rp1903
sg19
I0
sg20
g21
(S'\x07\xdd\t\x1d\x13\x12\x01\n\xf6\x02'
p1904
tp1905
Rp1906
sg25
I0
sg26
g27
(g28
(I0
tp1907
g30
tp1908
Rp1909
(I1
(I2
tp1910
g36
I00
S'\x80\x00\x00\x00S\x00\x00\x00'
p1911
tp1912
bsba(i__main__
FrameData
p1913
(dp1914
g6
g832
sg8
g9
(g13
S'\xfc\xeeci3\xd5\x1a@'
p1915
tp1916
Rp1917
sg19
I0
sg20
g21
(S'\x07\xdd\t\x1d\x13\x12\x01\x0b6\xeb'
p1918
tp1919
Rp1920
sg25
I0
sg26
g27
(g28
(I0
tp1921
g30
tp1922
Rp1923
(I1
(I2
tp1924
g36
I00
S'\x7f\x00\x00\x00S\x00\x00\x00'
p1925
tp1926
bsba(i__main__
FrameData
p1927
(dp1928
g6
g832
sg8
g9
(g13
S'htN\x17\xb2=\x1f@'
p1929
tp1930
Rp1931
sg19
I0
sg20
g21
(S'\x07\xdd\t\x1d\x13\x12\x01\x0bw\xd4'
p1932
tp1933
Rp1934
sg25
I0
sg26
g27
(g28
(I0
tp1935
g30
tp1936
Rp1937
(I1
(I2
tp1938
g36
I00
S'}\x00\x00\x00S\x00\x00\x00'
p1939
tp1940
bsba(i__main__
FrameData
p1941
(dp1942
g6
g832
sg8
g9
(g13
S'\xd9l\xdf\xccv\xf8 @'
p1943
tp1944
Rp1945
sg19
I0
sg20
g21
(S'\x07\xdd\t\x1d\x13\x12\x01\x0b\xb8\xae'
p1946
tp1947
Rp1948
sg25
I0
sg26
g27
(g28
(I0
tp1949
g30
tp1950
Rp1951
(I1
(I2
tp1952
g36
I00
S'|\x00\x00\x00S\x00\x00\x00'
p1953
tp1954
bsba(i__main__
FrameData
p1955
(dp1956
g6
g832
sg8
g9
(g13
S'\x9a.\x90!hp"@'
p1957
tp1958
Rp1959
sg19
I0
sg20
g21
(S'\x07\xdd\t\x1d\x13\x12\x01\x0b\xfb\x1c'
p1960
tp1961
Rp1962
sg25
I0
sg26
g27
(g28
(I0
tp1963
g30
tp1964
Rp1965
(I1
(I2
tp1966
g36
I00
S'{\x00\x00\x00S\x00\x00\x00'
p1967
tp1968
bsba(i__main__
FrameData
p1969
(dp1970
g6
g832
sg8
g9
(g13
S'w\x03Is \xa2%@'
p1971
tp1972
Rp1973
sg19
I0
sg20
g21
(S'\x07\xdd\t\x1d\x13\x12\x01\x0c>j'
p1974
tp1975
Rp1976
sg25
I0
sg26
g27
(g28
(I0
tp1977
g30
tp1978
Rp1979
(I1
(I2
tp1980
g36
I00
S'y\x00\x00\x00S\x00\x00\x00'
p1981
tp1982
bsba(i__main__
FrameData
p1983
(dp1984
g6
g832
sg8
g9
(g13
S'\xd2\xf1}\x82U\\&@'
p1985
tp1986
Rp1987
sg19
I0
sg20
g21
(S'\x07\xdd\t\x1d\x13\x12\x01\x0c|0'
p1988
tp1989
Rp1990
sg25
I0
sg26
g27
(g28
(I0
tp1991
g30
tp1992
Rp1993
(I1
(I2
tp1994
g36
I00
S'x\x00\x00\x00R\x00\x00\x00'
p1995
tp1996
bsba(i__main__
FrameData
p1997
(dp1998
g6
g832
sg8
g9
(g13
S'lNy\x00\x85*(@'
p1999
tp2000
Rp2001
sg19
I0
sg20
g21
(S'\x07\xdd\t\x1d\x13\x12\x01\x0c\xbc\xdd'
p2002
tp2003
Rp2004
sg25
I0
sg26
g27
(g28
(I0
tp2005
g30
tp2006
Rp2007
(I1
(I2
tp2008
g36
I00
S'w\x00\x00\x00R\x00\x00\x00'
p2009
tp2010
bsba(i__main__
FrameData
p2011
(dp2012
g6
g832
sg8
g9
(g13
S'\x00\x00\x00\x00\x00\x00*@'
p2013
tp2014
Rp2015
sg19
I0
sg20
g21
(S'\x07\xdd\t\x1d\x13\x12\x01\x0c\xfe^'
p2016
tp2017
Rp2018
sg25
I0
sg26
g27
(g28
(I0
tp2019
g30
tp2020
Rp2021
(I1
(I2
tp2022
g36
I00
S'v\x00\x00\x00R\x00\x00\x00'
p2023
tp2024
bsba(i__main__
FrameData
p2025
(dp2026
g6
g747
sg8
g9
(g13
S'Qf\x99\xcb\xa9\x13*@'
p2027
tp2028
Rp2029
sg19
I0
sg20
g21
(S'\x07\xdd\t\x1d\x13\x12\x01\r?\x87'
p2030
tp2031
Rp2032
sg25
I0
sg26
g27
(g28
(I0
tp2033
g30
tp2034
Rp2035
(I1
(I2
tp2036
g36
I00
S'u\x00\x00\x00R\x00\x00\x00'
p2037
tp2038
bsba(i__main__
FrameData
p2039
(dp2040
g6
g747
sg8
g9
(g13
S'\xeb\x12\xb2\xbb\xb2\xcd&@'
p2041
tp2042
Rp2043
sg19
I0
sg20
g21
(S'\x07\xdd\t\x1d\x13\x12\x01\r\x80\x8b'
p2044
tp2045
Rp2046
sg25
I0
sg26
g27
(g28
(I0
tp2047
g30
tp2048
Rp2049
(I1
(I2
tp2050
g36
I00
S's\x00\x00\x00R\x00\x00\x00'
p2051
tp2052
bsba(i__main__
FrameData
p2053
(dp2054
g6
g747
sg8
g9
(g13
S'\x00\x00\x00\x00\x00\x00$@'
p2055
tp2056
Rp2057
sg19
I0
sg20
g21
(S'\x07\xdd\t\x1d\x13\x12\x01\r\xc19'
p2058
tp2059
Rp2060
sg25
I0
sg26
g27
(g28
(I0
tp2061
g30
tp2062
Rp2063
(I1
(I2
tp2064
g36
I00
S'r\x00\x00\x00Q\x00\x00\x00'
p2065
tp2066
bsba(i__main__
FrameData
p2067
(dp2068
g6
g747
sg8
g9
(g13
S'\x9a.\x90!hp"@'
p2069
tp2070
Rp2071
sg19
I0
sg20
g21
(S'\x07\xdd\t\x1d\x13\x12\x01\x0e\x02\xc1'
p2072
tp2073
Rp2074
sg25
I0
sg26
g27
(g28
(I0
tp2075
g30
tp2076
Rp2077
(I1
(I2
tp2078
g36
I00
S'q\x00\x00\x00Q\x00\x00\x00'
p2079
tp2080
bsba(i__main__
FrameData
p2081
(dp2082
g6
g747
sg8
g9
(g13
S'\xd9l\xdf\xccv\xf8 @'
p2083
tp2084
Rp2085
sg19
I0
sg20
g21
(S'\x07\xdd\t\x1d\x13\x12\x01\x0eD\x00'
p2086
tp2087
Rp2088
sg25
I0
sg26
g27
(g28
(I0
tp2089
g30
tp2090
Rp2091
(I1
(I2
tp2092
g36
I00
S'p\x00\x00\x00Q\x00\x00\x00'
p2093
tp2094
bsba(i__main__
FrameData
p2095
(dp2096
g6
g747
sg8
g9
(g13
S'htN\x17\xb2=\x1f@'
p2097
tp2098
Rp2099
sg19
I0
sg20
g21
(S'\x07\xdd\t\x1d\x13\x12\x01\x0e\x84\xec'
p2100
tp2101
Rp2102
sg25
I0
sg26
g27
(g28
(I0
tp2103
g30
tp2104
Rp2105
(I1
(I2
tp2106
g36
I00
S'o\x00\x00\x00Q\x00\x00\x00'
p2107
tp2108
bsba(i__main__
FrameData
p2109
(dp2110
g6
g747
sg8
g9
(g13
S'\x00\x00\x00\x00\x00\x00\x14@'
p2111
tp2112
Rp2113
sg19
I0
sg20
g21
(S'\x07\xdd\t\x1d\x13\x12\x01\x0e\xc6\x13'
p2114
tp2115
Rp2116
sg25
I0
sg26
g27
(g28
(I0
tp2117
g30
tp2118
Rp2119
(I1
(I2
tp2120
g36
I00
S'm\x00\x00\x00O\x00\x00\x00'
p2121
tp2122
bsba(i__main__
FrameData
p2123
(dp2124
g6
g747
sg8
g9
(g13
S'\xa8\xf4\x97\x9bw\xe3\x11@'
p2125
tp2126
Rp2127
sg19
I0
sg20
g21
(S'\x07\xdd\t\x1d\x13\x12\x01\x0f\x07K'
p2128
tp2129
Rp2130
sg25
I0
sg26
g27
(g28
(I0
tp2131
g30
tp2132
Rp2133
(I1
(I2
tp2134
g36
I00
S'l\x00\x00\x00O\x00\x00\x00'
p2135
tp2136
bsba(i__main__
FrameData
p2137
(dp2138
g6
g747
sg8
g9
(g13
S'\x07\xed\xaff\x0f~\x10@'
p2139
tp2140
Rp2141
sg19
I0
sg20
g21
(S'\x07\xdd\t\x1d\x13\x12\x02\x00\x06"'
p2142
tp2143
Rp2144
sg25
I0
sg26
g27
(g28
(I0
tp2145
g30
tp2146
Rp2147
(I1
(I2
tp2148
g36
I00
S'k\x00\x00\x00O\x00\x00\x00'
p2149
tp2150
bsba(i__main__
FrameData
p2151
(dp2152
g6
g747
sg8
g9
(g13
S'S[\xda:XL\t@'
p2153
tp2154
Rp2155
sg19
I0
sg20
g21
(S'\x07\xdd\t\x1d\x13\x12\x02\x00H*'
p2156
tp2157
Rp2158
sg25
I0
sg26
g27
(g28
(I0
tp2159
g30
tp2160
Rp2161
(I1
(I2
tp2162
g36
I00
S'k\x00\x00\x00N\x00\x00\x00'
p2163
tp2164
bsba(i__main__
FrameData
p2165
(dp2166
g6
g747
sg8
g9
(g13
S'S[\xda:XL\t@'
p2167
tp2168
Rp2169
sg19
I0
sg20
g21
(S'\x07\xdd\t\x1d\x13\x12\x02\x00\x8e\xb6'
p2170
tp2171
Rp2172
sg25
I0
sg26
g27
(g28
(I0
tp2173
g30
tp2174
Rp2175
(I1
(I2
tp2176
g36
I00
S'i\x00\x00\x00N\x00\x00\x00'
p2177
tp2178
bsba(i__main__
FrameData
p2179
(dp2180
g6
g747
sg8
g9
(g13
S'\xf3YaD+\xd8\x0c@'
p2181
tp2182
Rp2183
sg19
I0
sg20
g21
(S'\x07\xdd\t\x1d\x13\x12\x02\x00\xcc\xbe'
p2184
tp2185
Rp2186
sg25
I0
sg26
g27
(g28
(I0
tp2187
g30
tp2188
Rp2189
(I1
(I2
tp2190
g36
I00
S'h\x00\x00\x00N\x00\x00\x00'
p2191
tp2192
bsba(i__main__
FrameData
p2193
(dp2194
g6
g747
sg8
g9
(g13
S'\xf3YaD+\xd8\x0c@'
p2195
tp2196
Rp2197
sg19
I0
sg20
g21
(S'\x07\xdd\t\x1d\x13\x12\x02\x01\x8f\xe3'
p2198
tp2199
Rp2200
sg25
I0
sg26
g27
(g28
(I0
tp2201
g30
tp2202
Rp2203
(I1
(I2
tp2204
g36
I00
S'g\x00\x00\x00M\x00\x00\x00'
p2205
tp2206
bsba(i__main__
FrameData
p2207
(dp2208
g6
g747
sg8
g9
(g13
S'S[\xda:XL\t@'
p2209
tp2210
Rp2211
sg19
I0
sg20
g21
(S"\x07\xdd\t\x1d\x13\x12\x02\x02\x12'"
p2212
tp2213
Rp2214
sg25
I0
sg26
g27
(g28
(I0
tp2215
g30
tp2216
Rp2217
(I1
(I2
tp2218
g36
I00
S'g\x00\x00\x00L\x00\x00\x00'
p2219
tp2220
bsba(i__main__
FrameData
p2221
(dp2222
g6
g747
sg8
g9
(g13
S'\xf3YaD+\xd8\x0c@'
p2223
tp2224
Rp2225
sg19
I0
sg20
g21
(S'\x07\xdd\t\x1d\x13\x12\x02\x04\x9d\x13'
p2226
tp2227
Rp2228
sg25
I0
sg26
g27
(g28
(I0
tp2229
g30
tp2230
Rp2231
(I1
(I2
tp2232
g36
I00
S'g\x00\x00\x00M\x00\x00\x00'
p2233
tp2234
bsba(i__main__
FrameData
p2235
(dp2236
g6
g747
sg8
g9
(g13
S'\xcd;\x7ff\x9e\xa0\x06@'
p2237
tp2238
Rp2239
sg19
I0
sg20
g21
(S'\x07\xdd\t\x1d\x13\x12\x02\x04\xdd\xf5'
p2240
tp2241
Rp2242
sg25
I0
sg26
g27
(g28
(I0
tp2243
g30
tp2244
Rp2245
(I1
(I2
tp2246
g36
I00
S'h\x00\x00\x00M\x00\x00\x00'
p2247
tp2248
bsba(i__main__
FrameData
p2249
(dp2250
g6
g747
sg8
g9
(g13
S'\xa8\xf4\x97\x9bw\xe3\x01@'
p2251
tp2252
Rp2253
sg19
I0
sg20
g21
(S'\x07\xdd\t\x1d\x13\x12\x02\x05`L'
p2254
tp2255
Rp2256
sg25
I0
sg26
g27
(g28
(I0
tp2257
g30
tp2258
Rp2259
(I1
(I2
tp2260
g36
I00
S'i\x00\x00\x00M\x00\x00\x00'
p2261
tp2262
bsba(i__main__
FrameData
p2263
(dp2264
g6
g747
sg8
g9
(g13
S'\x00\x00\x00\x00\x00\x00\x08@'
p2265
tp2266
Rp2267
sg19
I0
sg20
g21
(S'\x07\xdd\t\x1d\x13\x12\x02\x05\xa8\x91'
p2268
tp2269
Rp2270
sg25
I0
sg26
g27
(g28
(I0
tp2271
g30
tp2272
Rp2273
(I1
(I2
tp2274
g36
I00
S'j\x00\x00\x00N\x00\x00\x00'
p2275
tp2276
bsba(i__main__
FrameData
p2277
(dp2278
g6
g747
sg8
g9
(g13
S'S[\xda:XL\t@'
p2279
tp2280
Rp2281
sg19
I0
sg20
g21
(S'\x07\xdd\t\x1d\x13\x12\x02\x05\xe3\x12'
p2282
tp2283
Rp2284
sg25
I0
sg26
g27
(g28
(I0
tp2285
g30
tp2286
Rp2287
(I1
(I2
tp2288
g36
I00
S'k\x00\x00\x00N\x00\x00\x00'
p2289
tp2290
bsba(i__main__
FrameData
p2291
(dp2292
g6
g747
sg8
g9
(g13
S'\xf3YaD+\xd8\x0c@'
p2293
tp2294
Rp2295
sg19
I0
sg20
g21
(S'\x07\xdd\t\x1d\x13\x12\x02\x06$\xd2'
p2296
tp2297
Rp2298
sg25
I0
sg26
g27
(g28
(I0
tp2299
g30
tp2300
Rp2301
(I1
(I2
tp2302
g36
I00
S'l\x00\x00\x00N\x00\x00\x00'
p2303
tp2304
bsba(i__main__
FrameData
p2305
(dp2306
g6
g747
sg8
g9
(g13
S'\xd9l\xdf\xccv\xf8\x10@'
p2307
tp2308
Rp2309
sg19
I0
sg20
g21
(S'\x07\xdd\t\x1d\x13\x12\x02\x06h+'
p2310
tp2311
Rp2312
sg25
I0
sg26
g27
(g28
(I0
tp2313
g30
tp2314
Rp2315
(I1
(I2
tp2316
g36
I00
S'm\x00\x00\x00N\x00\x00\x00'
p2317
tp2318
bsba(i__main__
FrameData
p2319
(dp2320
g6
g747
sg8
g9
(g13
S'\xa2\xa3\xb3\r\xe5R\x17@'
p2321
tp2322
Rp2323
sg19
I0
sg20
g21
(S'\x07\xdd\t\x1d\x13\x12\x02\x06\xabK'
p2324
tp2325
Rp2326
sg25
I0
sg26
g27
(g28
(I0
tp2327
g30
tp2328
Rp2329
(I1
(I2
tp2330
g36
I00
S'o\x00\x00\x00N\x00\x00\x00'
p2331
tp2332
bsba(i__main__
FrameData
p2333
(dp2334
g6
g747
sg8
g9
(g13
S'\xa3\x14\xae\xa8\x87\x16!@'
p2335
tp2336
Rp2337
sg19
I0
sg20
g21
(S'\x07\xdd\t\x1d\x13\x12\x02\x06\xe8`'
p2338
tp2339
Rp2340
sg25
I0
sg26
g27
(g28
(I0
tp2341
g30
tp2342
Rp2343
(I1
(I2
tp2344
g36
I00
S'r\x00\x00\x00N\x00\x00\x00'
p2345
tp2346
bsba(i__main__
FrameData
p2347
(dp2348
g6
g832
sg8
g9
(g13
S'&5w\xe2K\x15(@'
p2349
tp2350
Rp2351
sg19
I0
sg20
g21
(S'\x07\xdd\t\x1d\x13\x12\x02\x07+x'
p2352
tp2353
Rp2354
sg25
I0
sg26
g27
(g28
(I0
tp2355
g30
tp2356
Rp2357
(I1
(I2
tp2358
g36
I00
S'v\x00\x00\x00N\x00\x00\x00'
p2359
tp2360
bsba(i__main__
FrameData
p2361
(dp2362
g6
g832
sg8
g9
(g13
S'\xe9\xfbv \xd5\x1e\x1d@'
p2363
tp2364
Rp2365
sg19
I0
sg20
g21
(S'\x07\xdd\t\x1d\x13\x12\x02\x07o\xb6'
p2366
tp2367
Rp2368
sg25
I0
sg26
g27
(g28
(I0
tp2369
g30
tp2370
Rp2371
(I1
(I2
tp2372
g36
I00
S'{\x00\x00\x00O\x00\x00\x00'
p2373
tp2374
bsba(i__main__
FrameData
p2375
(dp2376
g6
g832
sg8
g9
(g13
S'\xd9l\xdf\xccv\xf8\x10@'
p2377
tp2378
Rp2379
sg19
I0
sg20
g21
(S'\x07\xdd\t\x1d\x13\x12\x02\x07\xad\x8d'
p2380
tp2381
Rp2382
sg25
I0
sg26
g27
(g28
(I0
tp2383
g30
tp2384
Rp2385
(I1
(I2
tp2386
g36
I00
S'\x7f\x00\x00\x00P\x00\x00\x00'
p2387
tp2388
bsba(i__main__
FrameData
p2389
(dp2390
g6
g832
sg8
g9
(g13
S'\x00\x00\x00\x00\x00\x00\x08@'
p2391
tp2392
Rp2393
sg19
I0
sg20
g21
(S'\x07\xdd\t\x1d\x13\x12\x02\x07\xf3\xbf'
p2394
tp2395
Rp2396
sg25
I0
sg26
g27
(g28
(I0
tp2397
g30
tp2398
Rp2399
(I1
(I2
tp2400
g36
I00
S'\x82\x00\x00\x00P\x00\x00\x00'
p2401
tp2402
bsba(i__main__
FrameData
p2403
(dp2404
g6
g832
sg8
g9
(g13
S'S[\xda:XL\t@'
p2405
tp2406
Rp2407
sg19
I0
sg20
g21
(S'\x07\xdd\t\x1d\x13\x12\x02\x08/\xb9'
p2408
tp2409
Rp2410
sg25
I0
sg26
g27
(g28
(I0
tp2411
g30
tp2412
Rp2413
(I1
(I2
tp2414
g36
I00
S'\x83\x00\x00\x00P\x00\x00\x00'
p2415
tp2416
bsba(i__main__
FrameData
p2417
(dp2418
g6
g832
sg8
g9
(g13
S'\xd9l\xdf\xccv\xf8\x10@'
p2419
tp2420
Rp2421
sg19
I0
sg20
g21
(S'\x07\xdd\t\x1d\x13\x12\x02\x08p\xd8'
p2422
tp2423
Rp2424
sg25
I0
sg26
g27
(g28
(I0
tp2425
g30
tp2426
Rp2427
(I1
(I2
tp2428
g36
I00
S'\x85\x00\x00\x00P\x00\x00\x00'
p2429
tp2430
bsba(i__main__
FrameData
p2431
(dp2432
g6
g832
sg8
g9
(g13
S'\xa2\xa3\xb3\r\xe5R\x17@'
p2433
tp2434
Rp2435
sg19
I0
sg20
g21
(S'\x07\xdd\t\x1d\x13\x12\x02\x08\xb5;'
p2436
tp2437
Rp2438
sg25
I0
sg26
g27
(g28
(I0
tp2439
g30
tp2440
Rp2441
(I1
(I2
tp2442
g36
I00
S'\x87\x00\x00\x00P\x00\x00\x00'
p2443
tp2444
bsba(i__main__
FrameData
p2445
(dp2446
g6
g832
sg8
g9
(g13
S'~\xc4#,B\xf9"@'
p2447
tp2448
Rp2449
sg19
I0
sg20
g21
(S'\x07\xdd\t\x1d\x13\x12\x02\x08\xf7\x84'
p2450
tp2451
Rp2452
sg25
I0
sg26
g27
(g28
(I0
tp2453
g30
tp2454
Rp2455
(I1
(I2
tp2456
g36
I00
S'\x8b\x00\x00\x00P\x00\x00\x00'
p2457
tp2458
bsba(i__main__
FrameData
p2459
(dp2460
g6
g832
sg8
g9
(g13
S'\xeb\x12\xb2\xbb\xb2\xcd&@'
p2461
tp2462
Rp2463
sg19
I0
sg20
g21
(S'\x07\xdd\t\x1d\x13\x12\x02\t40'
p2464
tp2465
Rp2466
sg25
I0
sg26
g27
(g28
(I0
tp2467
g30
tp2468
Rp2469
(I1
(I2
tp2470
g36
I00
S'\x8d\x00\x00\x00P\x00\x00\x00'
p2471
tp2472
bsba(i__main__
FrameData
p2473
(dp2474
g6
g931
sg8
g9
(g13
S"\xa2\xa3\xb3\r\xe5R'@"
p2475
tp2476
Rp2477
sg19
I0
sg20
g21
(S'\x07\xdd\t\x1d\x13\x12\x02\tu_'
p2478
tp2479
Rp2480
sg25
I0
sg26
g27
(g28
(I0
tp2481
g30
tp2482
Rp2483
(I1
(I2
tp2484
g36
I00
S'\x8e\x00\x00\x00P\x00\x00\x00'
p2485
tp2486
bsba(i__main__
FrameData
p2487
(dp2488
g6
g931
sg8
g9
(g13
S'w\x03Is \xa2%@'
p2489
tp2490
Rp2491
sg19
I0
sg20
g21
(S'\x07\xdd\t\x1d\x13\x12\x02\t\xb6:'
p2492
tp2493
Rp2494
sg25
I0
sg26
g27
(g28
(I0
tp2495
g30
tp2496
Rp2497
(I1
(I2
tp2498
g36
I00
S'\x8f\x00\x00\x00P\x00\x00\x00'
p2499
tp2500
bsba(i__main__
FrameData
p2501
(dp2502
g6
g931
sg8
g9
(g13
S'bVc}\x9d\xb2#@'
p2503
tp2504
Rp2505
sg19
I0
sg20
g21
(S'\x07\xdd\t\x1d\x13\x12\x02\t\xf7\x8a'
p2506
tp2507
Rp2508
sg25
I0
sg26
g27
(g28
(I0
tp2509
g30
tp2510
Rp2511
(I1
(I2
tp2512
g36
I00
S'\x8f\x00\x00\x00N\x00\x00\x00'
p2513
tp2514
bsba(i__main__
FrameData
p2515
(dp2516
g6
g931
sg8
g9
(g13
S'\xd0\xbaa?\xe0\x1f @'
p2517
tp2518
Rp2519
sg19
I0
sg20
g21
(S'\x07\xdd\t\x1d\x13\x12\x02\ny\xe0'
p2520
tp2521
Rp2522
sg25
I0
sg26
g27
(g28
(I0
tp2523
g30
tp2524
Rp2525
(I1
(I2
tp2526
g36
I00
S'\x91\x00\x00\x00N\x00\x00\x00'
p2527
tp2528
bsba(i__main__
FrameData
p2529
(dp2530
g6
g931
sg8
g9
(g13
S'\xf3YaD+\xd8\x1c@'
p2531
tp2532
Rp2533
sg19
I0
sg20
g21
(S'\x07\xdd\t\x1d\x13\x12\x02\n\xfb\xf5'
p2534
tp2535
Rp2536
sg25
I0
sg26
g27
(g28
(I0
tp2537
g30
tp2538
Rp2539
(I1
(I2
tp2540
g36
I00
S'\x92\x00\x00\x00N\x00\x00\x00'
p2541
tp2542
bsba(i__main__
FrameData
p2543
(dp2544
g6
g931
sg8
g9
(g13
S'\xfc\xeeci3\xd5\x1a@'
p2545
tp2546
Rp2547
sg19
I0
sg20
g21
(S'\x07\xdd\t\x1d\x13\x12\x02\x0b\x81O'
p2548
tp2549
Rp2550
sg25
I0
sg26
g27
(g28
(I0
tp2551
g30
tp2552
Rp2553
(I1
(I2
tp2554
g36
I00
S'\x92\x00\x00\x00M\x00\x00\x00'
p2555
tp2556
bsba(i__main__
FrameData
p2557
(dp2558
g6
g931
sg8
g9
(g13
S'\x00\x00\x00\x00\x00\x00\x14@'
p2559
tp2560
Rp2561
sg19
I0
sg20
g21
(S'\x07\xdd\t\x1d\x13\x12\x02\x0b\xc2p'
p2562
tp2563
Rp2564
sg25
I0
sg26
g27
(g28
(I0
tp2565
g30
tp2566
Rp2567
(I1
(I2
tp2568
g36
I00
S'\x94\x00\x00\x00M\x00\x00\x00'
p2569
tp2570
bsba(i__main__
FrameData
p2571
(dp2572
g6
g931
sg8
g9
(g13
S'\xd9l\xdf\xccv\xf8\x10@'
p2573
tp2574
Rp2575
sg19
I0
sg20
g21
(S'\x07\xdd\t\x1d\x13\x12\x02\x0cD\xbb'
p2576
tp2577
Rp2578
sg25
I0
sg26
g27
(g28
(I0
tp2579
g30
tp2580
Rp2581
(I1
(I2
tp2582
g36
I00
S'\x95\x00\x00\x00M\x00\x00\x00'
p2583
tp2584
bsba(i__main__
FrameData
p2585
(dp2586
g6
g931
sg8
g9
(g13
S'\xf3YaD+\xd8\x0c@'
p2587
tp2588
Rp2589
sg19
I0
sg20
g21
(S'\x07\xdd\t\x1d\x13\x12\x02\x0c\x85\xd6'
p2590
tp2591
Rp2592
sg25
I0
sg26
g27
(g28
(I0
tp2593
g30
tp2594
Rp2595
(I1
(I2
tp2596
g36
I00
S'\x96\x00\x00\x00M\x00\x00\x00'
p2597
tp2598
bsba(i__main__
FrameData
p2599
(dp2600
g6
g931
sg8
g9
(g13
S'\xcd;\x7ff\x9e\xa0\x06@'
p2601
tp2602
Rp2603
sg19
I0
sg20
g21
(S'\x07\xdd\t\x1d\x13\x12\x02\rI\x11'
p2604
tp2605
Rp2606
sg25
I0
sg26
g27
(g28
(I0
tp2607
g30
tp2608
Rp2609
(I1
(I2
tp2610
g36
I00
S'\x96\x00\x00\x00L\x00\x00\x00'
p2611
tp2612
bsba(i__main__
FrameData
p2613
(dp2614
g6
g931
sg8
g9
(g13
S'\xa8\xf4\x97\x9bw\xe3\x01@'
p2615
tp2616
Rp2617
sg19
I0
sg20
g21
(S'\x07\xdd\t\x1d\x13\x12\x02\r\x8a0'
p2618
tp2619
Rp2620
sg25
I0
sg26
g27
(g28
(I0
tp2621
g30
tp2622
Rp2623
(I1
(I2
tp2624
g36
I00
S'\x97\x00\x00\x00L\x00\x00\x00'
p2625
tp2626
bsba(i__main__
FrameData
p2627
(dp2628
g6
g931
sg8
g9
(g13
S'\xcd;\x7ff\x9e\xa0\xf6?'
p2629
tp2630
Rp2631
sg19
I0
sg20
g21
(S'\x07\xdd\t\x1d\x13\x12\x02\x0e\x0co'
p2632
tp2633
Rp2634
sg25
I0
sg26
g27
(g28
(I0
tp2635
g30
tp2636
Rp2637
(I1
(I2
tp2638
g36
I00
S'\x97\x00\x00\x00K\x00\x00\x00'
p2639
tp2640
bsba(i__main__
FrameData
p2641
(dp2642
g6
g931
sg8
g9
(g13
S'\xa8\xf4\x97\x9bw\xe3\x01@'
p2643
tp2644
Rp2645
sg19
I0
sg20
g21
(S'\x07\xdd\t\x1d\x13\x12\x03\x03\xe4\xe2'
p2646
tp2647
Rp2648
sg25
I0
sg26
g27
(g28
(I0
tp2649
g30
tp2650
Rp2651
(I1
(I2
tp2652
g36
I00
S'\x97\x00\x00\x00L\x00\x00\x00'
p2653
tp2654
bsba(i__main__
FrameData
p2655
(dp2656
g6
g931
sg8
g9
(g13
S'S[\xda:XL\t@'
p2657
tp2658
Rp2659
sg19
I0
sg20
g21
(S'\x07\xdd\t\x1d\x13\x12\x03\x04f\xe1'
p2660
tp2661
Rp2662
sg25
I0
sg26
g27
(g28
(I0
tp2663
g30
tp2664
Rp2665
(I1
(I2
tp2666
g36
I00
S'\x97\x00\x00\x00M\x00\x00\x00'
p2667
tp2668
bsba(i__main__
FrameData
p2669
(dp2670
g6
g931
sg8
g9
(g13
S'\x07\xed\xaff\x0f~\x10@'
p2671
tp2672
Rp2673
sg19
I0
sg20
g21
(S'\x07\xdd\t\x1d\x13\x12\x03\x04\xa9\xfd'
p2674
tp2675
Rp2676
sg25
I0
sg26
g27
(g28
(I0
tp2677
g30
tp2678
Rp2679
(I1
(I2
tp2680
g36
I00
S'\x97\x00\x00\x00N\x00\x00\x00'
p2681
tp2682
bsba(i__main__
FrameData
p2683
(dp2684
g6
g931
sg8
g9
(g13
S'\xf3\xd9\xa8\xa4h\x8a\x15@'
p2685
tp2686
Rp2687
sg19
I0
sg20
g21
(S'\x07\xdd\t\x1d\x13\x12\x03\x04\xeb&'
p2688
tp2689
Rp2690
sg25
I0
sg26
g27
(g28
(I0
tp2691
g30
tp2692
Rp2693
(I1
(I2
tp2694
g36
I00
S'\x96\x00\x00\x00O\x00\x00\x00'
p2695
tp2696
bsba(i__main__
FrameData
p2697
(dp2698
g6
g931
sg8
g9
(g13
S'\xa2\xa3\xb3\r\xe5R\x17@'
p2699
tp2700
Rp2701
sg19
I0
sg20
g21
(S'\x07\xdd\t\x1d\x13\x12\x03\x05,<'
p2702
tp2703
Rp2704
sg25
I0
sg26
g27
(g28
(I0
tp2705
g30
tp2706
Rp2707
(I1
(I2
tp2708
g36
I00
S'\x95\x00\x00\x00O\x00\x00\x00'
p2709
tp2710
bsba(i__main__
FrameData
p2711
(dp2712
g6
g931
sg8
g9
(g13
S'\xf3YaD+\xd8\x1c@'
p2713
tp2714
Rp2715
sg19
I0
sg20
g21
(S'\x07\xdd\t\x1d\x13\x12\x03\x05ia'
p2716
tp2717
Rp2718
sg25
I0
sg26
g27
(g28
(I0
tp2719
g30
tp2720
Rp2721
(I1
(I2
tp2722
g36
I00
S'\x94\x00\x00\x00P\x00\x00\x00'
p2723
tp2724
bsba(i__main__
FrameData
p2725
(dp2726
g6
g931
sg8
g9
(g13
S'htN\x17\xb2=\x1f@'
p2727
tp2728
Rp2729
sg19
I0
sg20
g21
(S'\x07\xdd\t\x1d\x13\x12\x03\x05\xae\x8f'
p2730
tp2731
Rp2732
sg25
I0
sg26
g27
(g28
(I0
tp2733
g30
tp2734
Rp2735
(I1
(I2
tp2736
g36
I00
S'\x93\x00\x00\x00P\x00\x00\x00'
p2737
tp2738
bsba(i__main__
FrameData
p2739
(dp2740
g6
g931
sg8
g9
(g13
S'\x9a.\x90!hp"@'
p2741
tp2742
Rp2743
sg19
I0
sg20
g21
(S'\x07\xdd\t\x1d\x13\x12\x03\x05\xed\xc3'
p2744
tp2745
Rp2746
sg25
I0
sg26
g27
(g28
(I0
tp2747
g30
tp2748
Rp2749
(I1
(I2
tp2750
g36
I00
S'\x91\x00\x00\x00P\x00\x00\x00'
p2751
tp2752
bsba(i__main__
FrameData
p2753
(dp2754
g6
g931
sg8
g9
(g13
S'\xeb\x12\xb2\xbb\xb2\xcd&@'
p2755
tp2756
Rp2757
sg19
I0
sg20
g21
(S'\x07\xdd\t\x1d\x13\x12\x03\x060\xa9'
p2758
tp2759
Rp2760
sg25
I0
sg26
g27
(g28
(I0
tp2761
g30
tp2762
Rp2763
(I1
(I2
tp2764
g36
I00
S'\x8f\x00\x00\x00Q\x00\x00\x00'
p2765
tp2766
bsba(i__main__
FrameData
p2767
(dp2768
g6
g832
sg8
g9
(g13
S"\xe0\x11<m\xceh'@"
p2769
tp2770
Rp2771
sg19
I0
sg20
g21
(S'\x07\xdd\t\x1d\x13\x12\x03\x06o\x83'
p2772
tp2773
Rp2774
sg25
I0
sg26
g27
(g28
(I0
tp2775
g30
tp2776
Rp2777
(I1
(I2
tp2778
g36
I00
S'\x8d\x00\x00\x00Q\x00\x00\x00'
p2779
tp2780
bsba(i__main__
FrameData
p2781
(dp2782
g6
g832
sg8
g9
(g13
S'A\x87b\xc62\xde"@'
p2783
tp2784
Rp2785
sg19
I0
sg20
g21
(S'\x07\xdd\t\x1d\x13\x12\x03\x06\xb3\xfc'
p2786
tp2787
Rp2788
sg25
I0
sg26
g27
(g28
(I0
tp2789
g30
tp2790
Rp2791
(I1
(I2
tp2792
g36
I00
S'\x8a\x00\x00\x00R\x00\x00\x00'
p2793
tp2794
bsba(i__main__
FrameData
p2795
(dp2796
g6
g832
sg8
g9
(g13
S'htN\x17\xb2=\x1f@'
p2797
tp2798
Rp2799
sg19
I0
sg20
g21
(S'\x07\xdd\t\x1d\x13\x12\x03\x06\xf3\xf7'
p2800
tp2801
Rp2802
sg25
I0
sg26
g27
(g28
(I0
tp2803
g30
tp2804
Rp2805
(I1
(I2
tp2806
g36
I00
S'\x88\x00\x00\x00R\x00\x00\x00'
p2807
tp2808
bsba(i__main__
FrameData
p2809
(dp2810
g6
g832
sg8
g9
(g13
S'S[\xda:XL\x19@'
p2811
tp2812
Rp2813
sg19
I0
sg20
g21
(S'\x07\xdd\t\x1d\x13\x12\x03\x071\xc2'
p2814
tp2815
Rp2816
sg25
I0
sg26
g27
(g28
(I0
tp2817
g30
tp2818
Rp2819
(I1
(I2
tp2820
g36
I00
S'\x84\x00\x00\x00S\x00\x00\x00'
p2821
tp2822
bsba(i__main__
FrameData
p2823
(dp2824
g6
g832
sg8
g9
(g13
S'9\xdcc\xb3\xbfT\x18@'
p2825
tp2826
Rp2827
sg19
I0
sg20
g21
(S'\x07\xdd\t\x1d\x13\x12\x03\x07r\xf9'
p2828
tp2829
Rp2830
sg25
I0
sg26
g27
(g28
(I0
tp2831
g30
tp2832
Rp2833
(I1
(I2
tp2834
g36
I00
S'\x81\x00\x00\x00S\x00\x00\x00'
p2835
tp2836
bsba(i__main__
FrameData
p2837
(dp2838
g6
g832
sg8
g9
(g13
S'\xfc\xeeci3\xd5\x1a@'
p2839
tp2840
Rp2841
sg19
I0
sg20
g21
(S'\x07\xdd\t\x1d\x13\x12\x03\x07\xb4N'
p2842
tp2843
Rp2844
sg25
I0
sg26
g27
(g28
(I0
tp2845
g30
tp2846
Rp2847
(I1
(I2
tp2848
g36
I00
S'\x7f\x00\x00\x00S\x00\x00\x00'
p2849
tp2850
bsba(i__main__
FrameData
p2851
(dp2852
g6
g832
sg8
g9
(g13
S'htN\x17\xb2=\x1f@'
p2853
tp2854
Rp2855
sg19
I0
sg20
g21
(S'\x07\xdd\t\x1d\x13\x12\x03\x07\xf5\x0b'
p2856
tp2857
Rp2858
sg25
I0
sg26
g27
(g28
(I0
tp2859
g30
tp2860
Rp2861
(I1
(I2
tp2862
g36
I00
S'}\x00\x00\x00S\x00\x00\x00'
p2863
tp2864
bsba(i__main__
FrameData
p2865
(dp2866
g6
g832
sg8
g9
(g13
S'\xe4\x10\xe4sW\x0f)@'
p2867
tp2868
Rp2869
sg19
I0
sg20
g21
(S'\x07\xdd\t\x1d\x13\x12\x03\x08<\xc9'
p2870
tp2871
Rp2872
sg25
I0
sg26
g27
(g28
(I0
tp2873
g30
tp2874
Rp2875
(I1
(I2
tp2876
g36
I00
S'w\x00\x00\x00S\x00\x00\x00'
p2877
tp2878
bsba(i__main__
FrameData
p2879
(dp2880
g6
g747
sg8
g9
(g13
S'\xef\rI\xf1\xf33+@'
p2881
tp2882
Rp2883
sg19
I0
sg20
g21
(S'\x07\xdd\t\x1d\x13\x12\x03\x08x\x85'
p2884
tp2885
Rp2886
sg25
I0
sg26
g27
(g28
(I0
tp2887
g30
tp2888
Rp2889
(I1
(I2
tp2890
g36
I00
S'u\x00\x00\x00S\x00\x00\x00'
p2891
tp2892
bsba(i__main__
FrameData
p2893
(dp2894
g6
g747
sg8
g9
(g13
S'&5w\xe2K\x15(@'
p2895
tp2896
Rp2897
sg19
I0
sg20
g21
(S'\x07\xdd\t\x1d\x13\x12\x03\x08\xbb\xe9'
p2898
tp2899
Rp2900
sg25
I0
sg26
g27
(g28
(I0
tp2901
g30
tp2902
Rp2903
(I1
(I2
tp2904
g36
I00
S's\x00\x00\x00S\x00\x00\x00'
p2905
tp2906
bsba(i__main__
FrameData
p2907
(dp2908
g6
g747
sg8
g9
(g13
S'6\xd0\xd2x\xa2B%@'
p2909
tp2910
Rp2911
sg19
I0
sg20
g21
(S'\x07\xdd\t\x1d\x13\x12\x03\x08\xfam'
p2912
tp2913
Rp2914
sg25
I0
sg26
g27
(g28
(I0
tp2915
g30
tp2916
Rp2917
(I1
(I2
tp2918
g36
I00
S'q\x00\x00\x00S\x00\x00\x00'
p2919
tp2920
bsba(i__main__
FrameData
p2921
(dp2922
g6
g747
sg8
g9
(g13
S'A\x87b\xc62\xde"@'
p2923
tp2924
Rp2925
sg19
I0
sg20
g21
(S'\x07\xdd\t\x1d\x13\x12\x03\t=\xcb'
p2926
tp2927
Rp2928
sg25
I0
sg26
g27
(g28
(I0
tp2929
g30
tp2930
Rp2931
(I1
(I2
tp2932
g36
I00
S'o\x00\x00\x00S\x00\x00\x00'
p2933
tp2934
bsba(i__main__
FrameData
p2935
(dp2936
g6
g747
sg8
g9
(g13
S'\xa3\x14\xae\xa8\x87\x16!@'
p2937
tp2938
Rp2939
sg19
I0
sg20
g21
(S'\x07\xdd\t\x1d\x13\x12\x03\t\x82\n'
p2940
tp2941
Rp2942
sg25
I0
sg26
g27
(g28
(I0
tp2943
g30
tp2944
Rp2945
(I1
(I2
tp2946
g36
I00
S'm\x00\x00\x00S\x00\x00\x00'
p2947
tp2948
bsba(i__main__
FrameData
p2949
(dp2950
g6
g747
sg8
g9
(g13
S'\xd0\xbaa?\xe0\x1f @'
p2951
tp2952
Rp2953
sg19
I0
sg20
g21
(S'\x07\xdd\t\x1d\x13\x12\x03\t\xbd\xde'
p2954
tp2955
Rp2956
sg25
I0
sg26
g27
(g28
(I0
tp2957
g30
tp2958
Rp2959
(I1
(I2
tp2960
g36
I00
S'k\x00\x00\x00S\x00\x00\x00'
p2961
tp2962
bsba(i__main__
FrameData
p2963
(dp2964
g6
g747
sg8
g9
(g13
S'\x07\xed\xaff\x0f~ @'
p2965
tp2966
Rp2967
sg19
I0
sg20
g21
(S'\x07\xdd\t\x1d\x13\x12\x03\t\xfe\xff'
p2968
tp2969
Rp2970
sg25
I0
sg26
g27
(g28
(I0
tp2971
g30
tp2972
Rp2973
(I1
(I2
tp2974
g36
I00
S'h\x00\x00\x00S\x00\x00\x00'
p2975
tp2976
bsba(i__main__
FrameData
p2977
(dp2978
g6
g747
sg8
g9
(g13
S'\xa8\xf4\x97\x9bw\xe3!@'
p2979
tp2980
Rp2981
sg19
I0
sg20
g21
(S'\x07\xdd\t\x1d\x13\x12\x03\nB%'
p2982
tp2983
Rp2984
sg25
I0
sg26
g27
(g28
(I0
tp2985
g30
tp2986
Rp2987
(I1
(I2
tp2988
g36
I00
S'f\x00\x00\x00S\x00\x00\x00'
p2989
tp2990
bsba(i__main__
FrameData
p2991
(dp2992
g6
g747
sg8
g9
(g13
S'A\x87b\xc62\xde"@'
p2993
tp2994
Rp2995
sg19
I0
sg20
g21
(S'\x07\xdd\t\x1d\x13\x12\x03\n\x87\x93'
p2996
tp2997
Rp2998
sg25
I0
sg26
g27
(g28
(I0
tp2999
g30
tp3000
Rp3001
(I1
(I2
tp3002
g36
I00
S'e\x00\x00\x00S\x00\x00\x00'
p3003
tp3004
bsba(i__main__
FrameData
p3005
(dp3006
g6
g747
sg8
g9
(g13
S'6\xd0\xd2x\xa2B%@'
p3007
tp3008
Rp3009
sg19
I0
sg20
g21
(S'\x07\xdd\t\x1d\x13\x12\x03\n\xc7\xba'
p3010
tp3011
Rp3012
sg25
I0
sg26
g27
(g28
(I0
tp3013
g30
tp3014
Rp3015
(I1
(I2
tp3016
g36
I00
S'c\x00\x00\x00S\x00\x00\x00'
p3017
tp3018
bsba(i__main__
FrameData
p3019
(dp3020
g6
g747
sg8
g9
(g13
S'6\xd0\xd2x\xa2B%@'
p3021
tp3022
Rp3023
sg19
I0
sg20
g21
(S'\x07\xdd\t\x1d\x13\x12\x03\x0b\x08\xbd'
p3024
tp3025
Rp3026
sg25
I0
sg26
g27
(g28
(I0
tp3027
g30
tp3028
Rp3029
(I1
(I2
tp3030
g36
I00
S'b\x00\x00\x00R\x00\x00\x00'
p3031
tp3032
bsba(i__main__
FrameData
p3033
(dp3034
g6
g747
sg8
g9
(g13
S'\xeb\x12\xb2\xbb\xb2\xcd&@'
p3035
tp3036
Rp3037
sg19
I0
sg20
g21
(S'\x07\xdd\t\x1d\x13\x12\x03\x0bK.'
p3038
tp3039
Rp3040
sg25
I0
sg26
g27
(g28
(I0
tp3041
g30
tp3042
Rp3043
(I1
(I2
tp3044
g36
I00
S'a\x00\x00\x00R\x00\x00\x00'
p3045
tp3046
bsba(i__main__
FrameData
p3047
(dp3048
g6
g747
sg8
g9
(g13
S'Qf\x99\xcb\xa9\x13*@'
p3049
tp3050
Rp3051
sg19
I0
sg20
g21
(S'\x07\xdd\t\x1d\x13\x12\x03\x0b\x87\xdb'
p3052
tp3053
Rp3054
sg25
I0
sg26
g27
(g28
(I0
tp3055
g30
tp3056
Rp3057
(I1
(I2
tp3058
g36
I00
S'_\x00\x00\x00R\x00\x00\x00'
p3059
tp3060
bsba(i__main__
FrameData
p3061
(dp3062
g6
g732
sg8
g9
(g13
S'\xb9e(k\xee\xc8+@'
p3063
tp3064
Rp3065
sg19
I0
sg20
g21
(S'\x07\xdd\t\x1d\x13\x12\x03\x0b\xc9\x0e'
p3066
tp3067
Rp3068
sg25
I0
sg26
g27
(g28
(I0
tp3069
g30
tp3070
Rp3071
(I1
(I2
tp3072
g36
I00
S'^\x00\x00\x00R\x00\x00\x00'
p3073
tp3074
bsba(i__main__
FrameData
p3075
(dp3076
g6
g732
sg8
g9
(g13
S'\xe4\x10\xe4sW\x0f)@'
p3077
tp3078
Rp3079
sg19
I0
sg20
g21
(S'\x07\xdd\t\x1d\x13\x12\x03\x0c\ty'
p3080
tp3081
Rp3082
sg25
I0
sg26
g27
(g28
(I0
tp3083
g30
tp3084
Rp3085
(I1
(I2
tp3086
g36
I00
S']\x00\x00\x00Q\x00\x00\x00'
p3087
tp3088
bsba(i__main__
FrameData
p3089
(dp3090
g6
g732
sg8
g9
(g13
S'w\x03Is \xa2%@'
p3091
tp3092
Rp3093
sg19
I0
sg20
g21
(S'\x07\xdd\t\x1d\x13\x12\x03\x0cJ\xf2'
p3094
tp3095
Rp3096
sg25
I0
sg26
g27
(g28
(I0
tp3097
g30
tp3098
Rp3099
(I1
(I2
tp3100
g36
I00
S'[\x00\x00\x00Q\x00\x00\x00'
p3101
tp3102
bsba(i__main__
FrameData
p3103
(dp3104
g6
g732
sg8
g9
(g13
S'\x00\x00\x00\x00\x00\x00$@'
p3105
tp3106
Rp3107
sg19
I0
sg20
g21
(S'\x07\xdd\t\x1d\x13\x12\x03\x0c\x8fA'
p3108
tp3109
Rp3110
sg25
I0
sg26
g27
(g28
(I0
tp3111
g30
tp3112
Rp3113
(I1
(I2
tp3114
g36
I00
S'Z\x00\x00\x00Q\x00\x00\x00'
p3115
tp3116
bsba(i__main__
FrameData
p3117
(dp3118
g6
g732
sg8
g9
(g13
S'\xa8\xf4\x97\x9bw\xe3!@'
p3119
tp3120
Rp3121
sg19
I0
sg20
g21
(S'\x07\xdd\t\x1d\x13\x12\x03\x0c\xcd^'
p3122
tp3123
Rp3124
sg25
I0
sg26
g27
(g28
(I0
tp3125
g30
tp3126
Rp3127
(I1
(I2
tp3128
g36
I00
S'Z\x00\x00\x00O\x00\x00\x00'
p3129
tp3130
bsba(i__main__
FrameData
p3131
(dp3132
g6
g732
sg8
g9
(g13
S'\xd0\xbaa?\xe0\x1f @'
p3133
tp3134
Rp3135
sg19
I0
sg20
g21
(S'\x07\xdd\t\x1d\x13\x12\x03\r\x0ff'
p3136
tp3137
Rp3138
sg25
I0
sg26
g27
(g28
(I0
tp3139
g30
tp3140
Rp3141
(I1
(I2
tp3142
g36
I00
S'Y\x00\x00\x00O\x00\x00\x00'
p3143
tp3144
bsba(i__main__
FrameData
p3145
(dp3146
g6
g732
sg8
g9
(g13
S'\xa2\xa3\xb3\r\xe5R\x17@'
p3147
tp3148
Rp3149
sg19
I0
sg20
g21
(S'\x07\xdd\t\x1d\x13\x12\x03\r\x94\xb0'
p3150
tp3151
Rp3152
sg25
I0
sg26
g27
(g28
(I0
tp3153
g30
tp3154
Rp3155
(I1
(I2
tp3156
g36
I00
S'W\x00\x00\x00N\x00\x00\x00'
p3157
tp3158
bsba(i__main__
FrameData
p3159
(dp3160
g6
g732
sg8
g9
(g13
S'\xa8\xf4\x97\x9bw\xe3\x11@'
p3161
tp3162
Rp3163
sg19
I0
sg20
g21
(S'\x07\xdd\t\x1d\x13\x12\x03\x0e\x19L'
p3164
tp3165
Rp3166
sg25
I0
sg26
g27
(g28
(I0
tp3167
g30
tp3168
Rp3169
(I1
(I2
tp3170
g36
I00
S'V\x00\x00\x00M\x00\x00\x00'
p3171
tp3172
bsba(i__main__
FrameData
p3173
(dp3174
g6
g732
sg8
g9
(g13
S'S[\xda:XL\t@'
p3175
tp3176
Rp3177
sg19
I0
sg20
g21
(S'\x07\xdd\t\x1d\x13\x12\x03\x0f\x1e\xaf'
p3178
tp3179
Rp3180
sg25
I0
sg26
g27
(g28
(I0
tp3181
g30
tp3182
Rp3183
(I1
(I2
tp3184
g36
I00
S'U\x00\x00\x00L\x00\x00\x00'
p3185
tp3186
bsba(i__main__
FrameData
p3187
(dp3188
g6
g732
sg8
g9
(g13
S'\x00\x00\x00\x00\x00\x00\x08@'
p3189
tp3190
Rp3191
sg19
I0
sg20
g21
(S'\x07\xdd\t\x1d\x13\x12\x04\x00\x9c\x9c'
p3192
tp3193
Rp3194
sg25
I0
sg26
g27
(g28
(I0
tp3195
g30
tp3196
Rp3197
(I1
(I2
tp3198
g36
I00
S'U\x00\x00\x00K\x00\x00\x00'
p3199
tp3200
bsba(i__main__
FrameData
p3201
(dp3202
g6
g732
sg8
g9
(g13
S'S[\xda:XL\t@'
p3203
tp3204
Rp3205
sg19
I0
sg20
g21
(S'\x07\xdd\t\x1d\x13\x12\x04\x02\xa4='
p3206
tp3207
Rp3208
sg25
I0
sg26
g27
(g28
(I0
tp3209
g30
tp3210
Rp3211
(I1
(I2
tp3212
g36
I00
S'U\x00\x00\x00L\x00\x00\x00'
p3213
tp3214
bsba(i__main__
FrameData
p3215
(dp3216
g6
g732
sg8
g9
(g13
S'\xf3YaD+\xd8\x0c@'
p3217
tp3218
Rp3219
sg19
I0
sg20
g21
(S'\x07\xdd\t\x1d\x13\x12\x04\x03)\xd2'
p3220
tp3221
Rp3222
sg25
I0
sg26
g27
(g28
(I0
tp3223
g30
tp3224
Rp3225
(I1
(I2
tp3226
g36
I00
S'U\x00\x00\x00M\x00\x00\x00'
p3227
tp3228
bsba(i__main__
FrameData
p3229
(dp3230
g6
g732
sg8
g9
(g13
S'\x00\x00\x00\x00\x00\x00\x14@'
p3231
tp3232
Rp3233
sg19
I0
sg20
g21
(S'\x07\xdd\t\x1d\x13\x12\x04\x03\xac$'
p3234
tp3235
Rp3236
sg25
I0
sg26
g27
(g28
(I0
tp3237
g30
tp3238
Rp3239
(I1
(I2
tp3240
g36
I00
S'U\x00\x00\x00O\x00\x00\x00'
p3241
tp3242
bsba(i__main__
FrameData
p3243
(dp3244
g6
g732
sg8
g9
(g13
S'\xa2\xa3\xb3\r\xe5R\x17@'
p3245
tp3246
Rp3247
sg19
I0
sg20
g21
(S'\x07\xdd\t\x1d\x13\x12\x04\x03\xe9\xf5'
p3248
tp3249
Rp3250
sg25
I0
sg26
g27
(g28
(I0
tp3251
g30
tp3252
Rp3253
(I1
(I2
tp3254
g36
I00
S'U\x00\x00\x00P\x00\x00\x00'
p3255
tp3256
bsba(i__main__
FrameData
p3257
(dp3258
g6
g732
sg8
g9
(g13
S'\xf3\xd9\xa8\xa4h\x8a\x15@'
p3259
tp3260
Rp3261
sg19
I0
sg20
g21
(S'\x07\xdd\t\x1d\x13\x12\x04\x04*\xd9'
p3262
tp3263
Rp3264
sg25
I0
sg26
g27
(g28
(I0
tp3265
g30
tp3266
Rp3267
(I1
(I2
tp3268
g36
I00
S'T\x00\x00\x00P\x00\x00\x00'
p3269
tp3270
bsba(i__main__
FrameData
p3271
(dp3272
g6
g732
sg8
g9
(g13
S'9\xdcc\xb3\xbfT\x18@'
p3273
tp3274
Rp3275
sg19
I0
sg20
g21
(S'\x07\xdd\t\x1d\x13\x12\x04\x04lr'
p3276
tp3277
Rp3278
sg25
I0
sg26
g27
(g28
(I0
tp3279
g30
tp3280
Rp3281
(I1
(I2
tp3282
g36
I00
S'S\x00\x00\x00Q\x00\x00\x00'
p3283
tp3284
bsba(i__main__
FrameData
p3285
(dp3286
g6
g732
sg8
g9
(g13
S'\x00\x00\x00\x00\x00\x00\x18@'
p3287
tp3288
Rp3289
sg19
I0
sg20
g21
(S'\x07\xdd\t\x1d\x13\x12\x04\x04\xaeQ'
p3290
tp3291
Rp3292
sg25
I0
sg26
g27
(g28
(I0
tp3293
g30
tp3294
Rp3295
(I1
(I2
tp3296
g36
I00
S'R\x00\x00\x00Q\x00\x00\x00'
p3297
tp3298
bsba(i__main__
FrameData
p3299
(dp3300
g6
g732
sg8
g9
(g13
S'9\xdcc\xb3\xbfT\x18@'
p3301
tp3302
Rp3303
sg19
I0
sg20
g21
(S'\x07\xdd\t\x1d\x13\x12\x04\x04\xf1\x86'
p3304
tp3305
Rp3306
sg25
I0
sg26
g27
(g28
(I0
tp3307
g30
tp3308
Rp3309
(I1
(I2
tp3310
g36
I00
S'Q\x00\x00\x00Q\x00\x00\x00'
p3311
tp3312
bsba(i__main__
FrameData
p3313
(dp3314
g6
g732
sg8
g9
(g13
S'\xfc\xeeci3\xd5\x1a@'
p3315
tp3316
Rp3317
sg19
I0
sg20
g21
(S'\x07\xdd\t\x1d\x13\x12\x04\x051\xbb'
p3318
tp3319
Rp3320
sg25
I0
sg26
g27
(g28
(I0
tp3321
g30
tp3322
Rp3323
(I1
(I2
tp3324
g36
I00
S'O\x00\x00\x00Q\x00\x00\x00'
p3325
tp3326
bsba(i__main__
FrameData
p3327
(dp3328
g6
g732
sg8
g9
(g13
S'N\x017\xfac4!@'
p3329
tp3330
Rp3331
sg19
I0
sg20
g21
(S'\x07\xdd\t\x1d\x13\x12\x04\x05s\xa7'
p3332
tp3333
Rp3334
sg25
I0
sg26
g27
(g28
(I0
tp3335
g30
tp3336
Rp3337
(I1
(I2
tp3338
g36
I00
S'M\x00\x00\x00R\x00\x00\x00'
p3339
tp3340
bsba(i__main__
FrameData
p3341
(dp3342
g6
g732
sg8
g9
(g13
S'\x9a.\x90!hp"@'
p3343
tp3344
Rp3345
sg19
I0
sg20
g21
(S'\x07\xdd\t\x1d\x13\x12\x04\x05\xb4\xc6'
p3346
tp3347
Rp3348
sg25
I0
sg26
g27
(g28
(I0
tp3349
g30
tp3350
Rp3351
(I1
(I2
tp3352
g36
I00
S'L\x00\x00\x00R\x00\x00\x00'
p3353
tp3354
bsba(i__main__
FrameData
p3355
(dp3356
g6
g732
sg8
g9
(g13
S'6\xd0\xd2x\xa2B%@'
p3357
tp3358
Rp3359
sg19
I0
sg20
g21
(S'\x07\xdd\t\x1d\x13\x12\x04\x05\xf4\xcf'
p3360
tp3361
Rp3362
sg25
I0
sg26
g27
(g28
(I0
tp3363
g30
tp3364
Rp3365
(I1
(I2
tp3366
g36
I00
S'J\x00\x00\x00R\x00\x00\x00'
p3367
tp3368
bsba(i__main__
FrameData
p3369
(dp3370
g6
g732
sg8
g9
(g13
S'F\xc3\\\xa8\xc1i(@'
p3371
tp3372
Rp3373
sg19
I0
sg20
g21
(S'\x07\xdd\t\x1d\x13\x12\x04\x06:T'
p3374
tp3375
Rp3376
sg25
I0
sg26
g27
(g28
(I0
tp3377
g30
tp3378
Rp3379
(I1
(I2
tp3380
g36
I00
S'H\x00\x00\x00R\x00\x00\x00'
p3381
tp3382
bsba(i__main__
FrameData
p3383
(dp3384
g6
g732
sg8
g9
(g13
S'Qf\x99\xcb\xa9\x13*@'
p3385
tp3386
Rp3387
sg19
I0
sg20
g21
(S'\x07\xdd\t\x1d\x13\x12\x04\x06w\xf9'
p3388
tp3389
Rp3390
sg25
I0
sg26
g27
(g28
(I0
tp3391
g30
tp3392
Rp3393
(I1
(I2
tp3394
g36
I00
S'G\x00\x00\x00R\x00\x00\x00'
p3395
tp3396
bsba(i__main__
FrameData
p3397
(dp3398
g6
S'e'
p3399
sg8
g9
(g13
S"\xa2\xa3\xb3\r\xe5R'@"
p3400
tp3401
Rp3402
sg19
I0
sg20
g21
(S'\x07\xdd\t\x1d\x13\x12\x04\x06\xb8\x9e'
p3403
tp3404
Rp3405
sg25
I0
sg26
g27
(g28
(I0
tp3406
g30
tp3407
Rp3408
(I1
(I2
tp3409
g36
I00
S'E\x00\x00\x00R\x00\x00\x00'
p3410
tp3411
bsba(i__main__
FrameData
p3412
(dp3413
g6
g3399
sg8
g9
(g13
S'w\x03Is \xa2%@'
p3414
tp3415
Rp3416
sg19
I0
sg20
g21
(S'\x07\xdd\t\x1d\x13\x12\x04\x06\xf8$'
p3417
tp3418
Rp3419
sg25
I0
sg26
g27
(g28
(I0
tp3420
g30
tp3421
Rp3422
(I1
(I2
tp3423
g36
I00
S'D\x00\x00\x00R\x00\x00\x00'
p3424
tp3425
bsba(i__main__
FrameData
p3426
(dp3427
g6
g3399
sg8
g9
(g13
S'\x00\x00\x00\x00\x00\x00$@'
p3428
tp3429
Rp3430
sg19
I0
sg20
g21
(S'\x07\xdd\t\x1d\x13\x12\x04\x07>n'
p3431
tp3432
Rp3433
sg25
I0
sg26
g27
(g28
(I0
tp3434
g30
tp3435
Rp3436
(I1
(I2
tp3437
g36
I00
S'C\x00\x00\x00R\x00\x00\x00'
p3438
tp3439
bsba(i__main__
FrameData
p3440
(dp3441
g6
g3399
sg8
g9
(g13
S'\x9a.\x90!hp"@'
p3442
tp3443
Rp3444
sg19
I0
sg20
g21
(S'\x07\xdd\t\x1d\x13\x12\x04\x07|\x01'
p3445
tp3446
Rp3447
sg25
I0
sg26
g27
(g28
(I0
tp3448
g30
tp3449
Rp3450
(I1
(I2
tp3451
g36
I00
S'B\x00\x00\x00R\x00\x00\x00'
p3452
tp3453
bsba(i__main__
FrameData
p3454
(dp3455
g6
g3399
sg8
g9
(g13
S'htN\x17\xb2=\x1f@'
p3456
tp3457
Rp3458
sg19
I0
sg20
g21
(S'\x07\xdd\t\x1d\x13\x12\x04\x07\xbd\x85'
p3459
tp3460
Rp3461
sg25
I0
sg26
g27
(g28
(I0
tp3462
g30
tp3463
Rp3464
(I1
(I2
tp3465
g36
I00
S'@\x00\x00\x00R\x00\x00\x00'
p3466
tp3467
bsba(i__main__
FrameData
p3468
(dp3469
g6
g3399
sg8
g9
(g13
S'\xf3YaD+\xd8\x1c@'
p3470
tp3471
Rp3472
sg19
I0
sg20
g21
(S'\x07\xdd\t\x1d\x13\x12\x04\x07\xfe\x99'
p3473
tp3474
Rp3475
sg25
I0
sg26
g27
(g28
(I0
tp3476
g30
tp3477
Rp3478
(I1
(I2
tp3479
g36
I00
S'?\x00\x00\x00R\x00\x00\x00'
p3480
tp3481
bsba(i__main__
FrameData
p3482
(dp3483
g6
g3399
sg8
g9
(g13
S'\xcd;\x7ff\x9e\xa0\x16@'
p3484
tp3485
Rp3486
sg19
I0
sg20
g21
(S'\x07\xdd\t\x1d\x13\x12\x04\x08?['
p3487
tp3488
Rp3489
sg25
I0
sg26
g27
(g28
(I0
tp3490
g30
tp3491
Rp3492
(I1
(I2
tp3493
g36
I00
S'?\x00\x00\x00P\x00\x00\x00'
p3494
tp3495
bsba(i__main__
FrameData
p3496
(dp3497
g6
g3399
sg8
g9
(g13
S'\xa8\xf4\x97\x9bw\xe3\x11@'
p3498
tp3499
Rp3500
sg19
I0
sg20
g21
(S'\x07\xdd\t\x1d\x13\x12\x04\x08\xc2\x0b'
p3501
tp3502
Rp3503
sg25
I0
sg26
g27
(g28
(I0
tp3504
g30
tp3505
Rp3506
(I1
(I2
tp3507
g36
I00
S'=\x00\x00\x00P\x00\x00\x00'
p3508
tp3509
bsba(i__main__
FrameData
p3510
(dp3511
g6
g3399
sg8
g9
(g13
S'\xf3YaD+\xd8\x0c@'
p3512
tp3513
Rp3514
sg19
I0
sg20
g21
(S'\x07\xdd\t\x1d\x13\x12\x04\t\x02\xa4'
p3515
tp3516
Rp3517
sg25
I0
sg26
g27
(g28
(I0
tp3518
g30
tp3519
Rp3520
(I1
(I2
tp3521
g36
I00
S'=\x00\x00\x00O\x00\x00\x00'
p3522
tp3523
bsba(i__main__
FrameData
p3524
(dp3525
g6
g3399
sg8
g9
(g13
S'\x00\x00\x00\x00\x00\x00\x08@'
p3526
tp3527
Rp3528
sg19
I0
sg20
g21
(S'\x07\xdd\t\x1d\x13\x12\x04\t\x85P'
p3529
tp3530
Rp3531
sg25
I0
sg26
g27
(g28
(I0
tp3532
g30
tp3533
Rp3534
(I1
(I2
tp3535
g36
I00
S';\x00\x00\x00O\x00\x00\x00'
p3536
tp3537
bsba(i__main__
FrameData
p3538
(dp3539
g6
g3399
sg8
g9
(g13
S'\x00\x00\x00\x00\x00\x00\xf0?'
p3540
tp3541
Rp3542
sg19
I0
sg20
g21
(S'\x07\xdd\t\x1d\x13\x12\x04\n\x07\xd1'
p3543
tp3544
Rp3545
sg25
I0
sg26
g27
(g28
(I0
tp3546
g30
tp3547
Rp3548
(I1
(I2
tp3549
g36
I00
S';\x00\x00\x00M\x00\x00\x00'
p3550
tp3551
bsba(i__main__
FrameData
p3552
(dp3553
g6
g3399
sg8
g9
(g13
S'\x00\x00\x00\x00\x00\x00\x00\x00'
p3554
tp3555
Rp3556
sg19
I0
sg20
g21
(S'\x07\xdd\t\x1d\x13\x12\x04\n\x91L'
p3557
tp3558
Rp3559
sg25
I0
sg26
g27
(g28
(I0
tp3560
g30
tp3561
Rp3562
(I1
(I2
tp3563
g36
I00
S';\x00\x00\x00L\x00\x00\x00'
p3564
tp3565
bsba(i__main__
FrameData
p3566
(dp3567
g6
g3399
sg8
g9
(g13
S'\x00\x00\x00\x00\x00\x00\xf0?'
p3568
tp3569
Rp3570
sg19
I0
sg20
g21
(S'\x07\xdd\t\x1d\x13\x12\x04\n\xce\x1a'
p3571
tp3572
Rp3573
sg25
I0
sg26
g27
(g28
(I0
tp3574
g30
tp3575
Rp3576
(I1
(I2
tp3577
g36
I00
S':\x00\x00\x00L\x00\x00\x00'
p3578
tp3579
bsba(i__main__
FrameData
p3580
(dp3581
g6
g3399
sg8
g9
(g13
S'\xcd;\x7ff\x9e\xa0\xf6?'
p3582
tp3583
Rp3584
sg19
I0
sg20
g21
(S'\x07\xdd\t\x1d\x13\x12\x04\x0bPs'
p3585
tp3586
Rp3587
sg25
I0
sg26
g27
(g28
(I0
tp3588
g30
tp3589
Rp3590
(I1
(I2
tp3591
g36
I00
S':\x00\x00\x00K\x00\x00\x00'
p3592
tp3593
bsba(i__main__
FrameData
p3594
(dp3595
g6
g3399
sg8
g9
(g13
S'\xa8\xf4\x97\x9bw\xe3\x01@'
p3596
tp3597
Rp3598
sg19
I0
sg20
g21
(S'\x07\xdd\t\x1d\x13\x12\x04\x0b\x92\x0c'
p3599
tp3600
Rp3601
sg25
I0
sg26
g27
(g28
(I0
tp3602
g30
tp3603
Rp3604
(I1
(I2
tp3605
g36
I00
S':\x00\x00\x00J\x00\x00\x00'
p3606
tp3607
bsba(i__main__
FrameData
p3608
(dp3609
g6
g3399
sg8
g9
(g13
S'S[\xda:XL\t@'
p3610
tp3611
Rp3612
sg19
I0
sg20
g21
(S'\x07\xdd\t\x1d\x13\x12\x04\x0c\x13\xe1'
p3613
tp3614
Rp3615
sg25
I0
sg26
g27
(g28
(I0
tp3616
g30
tp3617
Rp3618
(I1
(I2
tp3619
g36
I00
S':\x00\x00\x00I\x00\x00\x00'
p3620
tp3621
bsba(i__main__
FrameData
p3622
(dp3623
g6
g3399
sg8
g9
(g13
S'\xa8\xf4\x97\x9bw\xe3\x01@'
p3624
tp3625
Rp3626
sg19
I0
sg20
g21
(S'\x07\xdd\t\x1d\x13\x12\x04\r\xda`'
p3627
tp3628
Rp3629
sg25
I0
sg26
g27
(g28
(I0
tp3630
g30
tp3631
Rp3632
(I1
(I2
tp3633
g36
I00
S':\x00\x00\x00J\x00\x00\x00'
p3634
tp3635
bsba(i__main__
FrameData
p3636
(dp3637
g6
g3399
sg8
g9
(g13
S'\xcd;\x7ff\x9e\xa0\xf6?'
p3638
tp3639
Rp3640
sg19
I0
sg20
g21
(S'\x07\xdd\t\x1d\x13\x12\x04\x0eb\x16'
p3641
tp3642
Rp3643
sg25
I0
sg26
g27
(g28
(I0
tp3644
g30
tp3645
Rp3646
(I1
(I2
tp3647
g36
I00
S':\x00\x00\x00K\x00\x00\x00'
p3648
tp3649
bsba(i__main__
FrameData
p3650
(dp3651
g6
g3399
sg8
g9
(g13
S'\xcd;\x7ff\x9e\xa0\xf6?'
p3652
tp3653
Rp3654
sg19
I0
sg20
g21
(S'\x07\xdd\t\x1d\x13\x12\x04\x0e\x9e\xc5'
p3655
tp3656
Rp3657
sg25
I0
sg26
g27
(g28
(I0
tp3658
g30
tp3659
Rp3660
(I1
(I2
tp3661
g36
I00
S'<\x00\x00\x00K\x00\x00\x00'
p3662
tp3663
bsba(i__main__
FrameData
p3664
(dp3665
g6
g3399
sg8
g9
(g13
S'\x00\x00\x00\x00\x00\x00\xf0?'
p3666
tp3667
Rp3668
sg19
I0
sg20
g21
(S'\x07\xdd\t\x1d\x13\x12\x04\x0e\xdf\xdb'
p3669
tp3670
Rp3671
sg25
I0
sg26
g27
(g28
(I0
tp3672
g30
tp3673
Rp3674
(I1
(I2
tp3675
g36
I00
S'<\x00\x00\x00L\x00\x00\x00'
p3676
tp3677
bsba(i__main__
FrameData
p3678
(dp3679
g6
g3399
sg8
g9
(g13
S'\xa8\xf4\x97\x9bw\xe3\x01@'
p3680
tp3681
Rp3682
sg19
I0
sg20
g21
(S'\x07\xdd\t\x1d\x13\x12\x05\x00\x1f\x9e'
p3683
tp3684
Rp3685
sg25
I0
sg26
g27
(g28
(I0
tp3686
g30
tp3687
Rp3688
(I1
(I2
tp3689
g36
I00
S'=\x00\x00\x00M\x00\x00\x00'
p3690
tp3691
bsba(i__main__
FrameData
p3692
(dp3693
g6
g3399
sg8
g9
(g13
S'\xcd;\x7ff\x9e\xa0\x06@'
p3694
tp3695
Rp3696
sg19
I0
sg20
g21
(S'\x07\xdd\t\x1d\x13\x12\x05\x00\xa2\x06'
p3697
tp3698
Rp3699
sg25
I0
sg26
g27
(g28
(I0
tp3700
g30
tp3701
Rp3702
(I1
(I2
tp3703
g36
I00
S'=\x00\x00\x00N\x00\x00\x00'
p3704
tp3705
bsba(i__main__
FrameData
p3706
(dp3707
g6
g3399
sg8
g9
(g13
S'\xd9l\xdf\xccv\xf8\x10@'
p3708
tp3709
Rp3710
sg19
I0
sg20
g21
(S'\x07\xdd\t\x1d\x13\x12\x05\x00\xe4\t'
p3711
tp3712
Rp3713
sg25
I0
sg26
g27
(g28
(I0
tp3714
g30
tp3715
Rp3716
(I1
(I2
tp3717
g36
I00
S'>\x00\x00\x00O\x00\x00\x00'
p3718
tp3719
bsba(i__main__
FrameData
p3720
(dp3721
g6
g3399
sg8
g9
(g13
S'\x00\x00\x00\x00\x00\x00\x14@'
p3722
tp3723
Rp3724
sg19
I0
sg20
g21
(S'\x07\xdd\t\x1d\x13\x12\x05\x01h^'
p3725
tp3726
Rp3727
sg25
I0
sg26
g27
(g28
(I0
tp3728
g30
tp3729
Rp3730
(I1
(I2
tp3731
g36
I00
S'>\x00\x00\x00P\x00\x00\x00'
p3732
tp3733
bsba(i__main__
FrameData
p3734
(dp3735
g6
g3399
sg8
g9
(g13
S'\x00\xff\x9f\x99\xcc\x9c\x19@'
p3736
tp3737
Rp3738
sg19
I0
sg20
g21
(S'\x07\xdd\t\x1d\x13\x12\x05\x01\xea\xdc'
p3739
tp3740
Rp3741
sg25
I0
sg26
g27
(g28
(I0
tp3742
g30
tp3743
Rp3744
(I1
(I2
tp3745
g36
I00
S'?\x00\x00\x00Q\x00\x00\x00'
p3746
tp3747
bsba(i__main__
FrameData
p3748
(dp3749
g6
g3399
sg8
g9
(g13
S'\xf3YaD+\xd8\x1c@'
p3750
tp3751
Rp3752
sg19
I0
sg20
g21
(S'\x07\xdd\t\x1d\x13\x12\x05\x02*\xd5'
p3753
tp3754
Rp3755
sg25
I0
sg26
g27
(g28
(I0
tp3756
g30
tp3757
Rp3758
(I1
(I2
tp3759
g36
I00
S'?\x00\x00\x00R\x00\x00\x00'
p3760
tp3761
bsba(i__main__
FrameData
p3762
(dp3763
g6
g3399
sg8
g9
(g13
S'\xd9l\xdf\xccv\xf8 @'
p3764
tp3765
Rp3766
sg19
I0
sg20
g21
(S'\x07\xdd\t\x1d\x13\x12\x05\x02p\x04'
p3767
tp3768
Rp3769
sg25
I0
sg26
g27
(g28
(I0
tp3770
g30
tp3771
Rp3772
(I1
(I2
tp3773
g36
I00
S'A\x00\x00\x00R\x00\x00\x00'
p3774
tp3775
bsba(i__main__
FrameData
p3776
(dp3777
g6
g3399
sg8
g9
(g13
S'\x9a.\x90!hp"@'
p3778
tp3779
Rp3780
sg19
I0
sg20
g21
(S'\x07\xdd\t\x1d\x13\x12\x05\x02\xaf\xf8'
p3781
tp3782
Rp3783
sg25
I0
sg26
g27
(g28
(I0
tp3784
g30
tp3785
Rp3786
(I1
(I2
tp3787
g36
I00
S'A\x00\x00\x00S\x00\x00\x00'
p3788
tp3789
bsba(i__main__
FrameData
p3790
(dp3791
g6
g3399
sg8
g9
(g13
S'6\xd0\xd2x\xa2B%@'
p3792
tp3793
Rp3794
sg19
I0
sg20
g21
(S'\x07\xdd\t\x1d\x13\x12\x05\x02\xef\x15'
p3795
tp3796
Rp3797
sg25
I0
sg26
g27
(g28
(I0
tp3798
g30
tp3799
Rp3800
(I1
(I2
tp3801
g36
I00
S'B\x00\x00\x00T\x00\x00\x00'
p3802
tp3803
bsba(i__main__
FrameData
p3804
(dp3805
g6
g3399
sg8
g9
(g13
S'\xeb\x12\xb2\xbb\xb2\xcd&@'
p3806
tp3807
Rp3808
sg19
I0
sg20
g21
(S'\x07\xdd\t\x1d\x13\x12\x05\x030.'
p3809
tp3810
Rp3811
sg25
I0
sg26
g27
(g28
(I0
tp3812
g30
tp3813
Rp3814
(I1
(I2
tp3815
g36
I00
S'B\x00\x00\x00U\x00\x00\x00'
p3816
tp3817
bsba(i__main__
FrameData
p3818
(dp3819
g6
g3399
sg8
g9
(g13
S'F\xc3\\\xa8\xc1i(@'
p3820
tp3821
Rp3822
sg19
I0
sg20
g21
(S'\x07\xdd\t\x1d\x13\x12\x05\x03qv'
p3823
tp3824
Rp3825
sg25
I0
sg26
g27
(g28
(I0
tp3826
g30
tp3827
Rp3828
(I1
(I2
tp3829
g36
I00
S'B\x00\x00\x00V\x00\x00\x00'
p3830
tp3831
bsba(i__main__
FrameData
p3832
(dp3833
g6
g3399
sg8
g9
(g13
S'\xb9e(k\xee\xc8+@'
p3834
tp3835
Rp3836
sg19
I0
sg20
g21
(S'\x07\xdd\t\x1d\x13\x12\x05\x03\xb5K'
p3837
tp3838
Rp3839
sg25
I0
sg26
g27
(g28
(I0
tp3840
g30
tp3841
Rp3842
(I1
(I2
tp3843
g36
I00
S'B\x00\x00\x00X\x00\x00\x00'
p3844
tp3845
bsba(i__main__
FrameData
p3846
(dp3847
g6
g3399
sg8
g9
(g13
S'&\xecIP\x11N/@'
p3848
tp3849
Rp3850
sg19
I0
sg20
g21
(S'\x07\xdd\t\x1d\x13\x12\x05\x03\xf5W'
p3851
tp3852
Rp3853
sg25
I0
sg26
g27
(g28
(I0
tp3854
g30
tp3855
Rp3856
(I1
(I2
tp3857
g36
I00
S'B\x00\x00\x00Z\x00\x00\x00'
p3858
tp3859
bsba(i__main__
FrameData
p3860
(dp3861
g6
g3399
sg8
g9
(g13
S'\x00\x00\x00\x00\x00\x001@'
p3862
tp3863
Rp3864
sg19
I0
sg20
g21
(S'\x07\xdd\t\x1d\x13\x12\x05\x044\xd2'
p3865
tp3866
Rp3867
sg25
I0
sg26
g27
(g28
(I0
tp3868
g30
tp3869
Rp3870
(I1
(I2
tp3871
g36
I00
S'C\x00\x00\x00[\x00\x00\x00'
p3872
tp3873
bsba(i__main__
FrameData
p3874
(dp3875
g6
g3399
sg8
g9
(g13
S'5 \x89\xa6\xcd\xc92@'
p3876
tp3877
Rp3878
sg19
I0
sg20
g21
(S'\x07\xdd\t\x1d\x13\x12\x05\x04\xb8>'
p3879
tp3880
Rp3881
sg25
I0
sg26
g27
(g28
(I0
tp3882
g30
tp3883
Rp3884
(I1
(I2
tp3885
g36
I00
S'C\x00\x00\x00]\x00\x00\x00'
p3886
tp3887
bsba(i__main__
FrameData
p3888
(dp3889
g6
g3399
sg8
g9
(g13
S'bVc}\x9d\xb23@'
p3890
tp3891
Rp3892
sg19
I0
sg20
g21
(S'\x07\xdd\t\x1d\x13\x12\x05\x059\\'
p3893
tp3894
Rp3895
sg25
I0
sg26
g27
(g28
(I0
tp3896
g30
tp3897
Rp3898
(I1
(I2
tp3899
g36
I00
S'C\x00\x00\x00^\x00\x00\x00'
p3900
tp3901
bsba(i__main__
FrameData
p3902
(dp3903
g6
g141
sg8
g9
(g13
S'~\xc4#,B\xf92@'
p3904
tp3905
Rp3906
sg19
I0
sg20
g21
(S'\x07\xdd\t\x1d\x13\x12\x05\x05}w'
p3907
tp3908
Rp3909
sg25
I0
sg26
g27
(g28
(I0
tp3910
g30
tp3911
Rp3912
(I1
(I2
tp3913
g36
I00
S'C\x00\x00\x00_\x00\x00\x00'
p3914
tp3915
bsba(i__main__
FrameData
p3916
(dp3917
g6
g141
sg8
g9
(g13
S'\xa3\x14\xae\xa8\x87\x161@'
p3918
tp3919
Rp3920
sg19
I0
sg20
g21
(S'\x07\xdd\t\x1d\x13\x12\x05\x05\xbbr'
p3921
tp3922
Rp3923
sg25
I0
sg26
g27
(g28
(I0
tp3924
g30
tp3925
Rp3926
(I1
(I2
tp3927
g36
I00
S'C\x00\x00\x00a\x00\x00\x00'
p3928
tp3929
bsba(i__main__
FrameData
p3930
(dp3931
g6
g141
sg8
g9
(g13
S"v\xa3~{\xce'0@"
p3932
tp3933
Rp3934
sg19
I0
sg20
g21
(S'\x07\xdd\t\x1d\x13\x12\x05\x05\xfcc'
p3935
tp3936
Rp3937
sg25
I0
sg26
g27
(g28
(I0
tp3938
g30
tp3939
Rp3940
(I1
(I2
tp3941
g36
I00
S'C\x00\x00\x00b\x00\x00\x00'
p3942
tp3943
bsba(i__main__
FrameData
p3944
(dp3945
g6
g141
sg8
g9
(g13
S'\xf7\x80Aq\xb9\xa2,@'
p3946
tp3947
Rp3948
sg19
I0
sg20
g21
(S'\x07\xdd\t\x1d\x13\x12\x05\x06A\xde'
p3949
tp3950
Rp3951
sg25
I0
sg26
g27
(g28
(I0
tp3952
g30
tp3953
Rp3954
(I1
(I2
tp3955
g36
I00
S'C\x00\x00\x00d\x00\x00\x00'
p3956
tp3957
bsba(i__main__
FrameData
p3958
(dp3959
g6
g141
sg8
g9
(g13
S'\xfc\xeeci3\xd5*@'
p3960
tp3961
Rp3962
sg19
I0
sg20
g21
(S'\x07\xdd\t\x1d\x13\x12\x05\x06\xc0+'
p3963
tp3964
Rp3965
sg25
I0
sg26
g27
(g28
(I0
tp3966
g30
tp3967
Rp3968
(I1
(I2
tp3969
g36
I00
S'C\x00\x00\x00e\x00\x00\x00'
p3970
tp3971
bsba(i__main__
FrameData
p3972
(dp3973
g6
g141
sg8
g9
(g13
S'\xe4\x10\xe4sW\x0f)@'
p3974
tp3975
Rp3976
sg19
I0
sg20
g21
(S'\x07\xdd\t\x1d\x13\x12\x05\x07\x01\xce'
p3977
tp3978
Rp3979
sg25
I0
sg26
g27
(g28
(I0
tp3980
g30
tp3981
Rp3982
(I1
(I2
tp3983
g36
I00
S'C\x00\x00\x00f\x00\x00\x00'
p3984
tp3985
bsba(i__main__
FrameData
p3986
(dp3987
g6
g141
sg8
g9
(g13
S"\xa2\xa3\xb3\r\xe5R'@"
p3988
tp3989
Rp3990
sg19
I0
sg20
g21
(S'\x07\xdd\t\x1d\x13\x12\x05\x07E\x18'
p3991
tp3992
Rp3993
sg25
I0
sg26
g27
(g28
(I0
tp3994
g30
tp3995
Rp3996
(I1
(I2
tp3997
g36
I00
S'C\x00\x00\x00g\x00\x00\x00'
p3998
tp3999
bsba(i__main__
FrameData
p4000
(dp4001
g6
g141
sg8
g9
(g13
S'w\x03Is \xa2%@'
p4002
tp4003
Rp4004
sg19
I0
sg20
g21
(S'\x07\xdd\t\x1d\x13\x12\x05\x07\x870'
p4005
tp4006
Rp4007
sg25
I0
sg26
g27
(g28
(I0
tp4008
g30
tp4009
Rp4010
(I1
(I2
tp4011
g36
I00
S'C\x00\x00\x00h\x00\x00\x00'
p4012
tp4013
bsba(i__main__
FrameData
p4014
(dp4015
g6
g141
sg8
g9
(g13
S'\x00\x00\x00\x00\x00\x00$@'
p4016
tp4017
Rp4018
sg19
I0
sg20
g21
(S'\x07\xdd\t\x1d\x13\x12\x05\x07\xc9l'
p4019
tp4020
Rp4021
sg25
I0
sg26
g27
(g28
(I0
tp4022
g30
tp4023
Rp4024
(I1
(I2
tp4025
g36
I00
S'C\x00\x00\x00i\x00\x00\x00'
p4026
tp4027
bsba(i__main__
FrameData
p4028
(dp4029
g6
g141
sg8
g9
(g13
S'\x9a.\x90!hp"@'
p4030
tp4031
Rp4032
sg19
I0
sg20
g21
(S'\x07\xdd\t\x1d\x13\x12\x05\x08\x07\xe3'
p4033
tp4034
Rp4035
sg25
I0
sg26
g27
(g28
(I0
tp4036
g30
tp4037
Rp4038
(I1
(I2
tp4039
g36
I00
S'C\x00\x00\x00j\x00\x00\x00'
p4040
tp4041
bsba(i__main__
FrameData
p4042
(dp4043
g6
g141
sg8
g9
(g13
S'\xd9l\xdf\xccv\xf8 @'
p4044
tp4045
Rp4046
sg19
I0
sg20
g21
(S'\x07\xdd\t\x1d\x13\x12\x05\x08\x8d\xd5'
p4047
tp4048
Rp4049
sg25
I0
sg26
g27
(g28
(I0
tp4050
g30
tp4051
Rp4052
(I1
(I2
tp4053
g36
I00
S'C\x00\x00\x00k\x00\x00\x00'
p4054
tp4055
bsba(i__main__
FrameData
p4056
(dp4057
g6
g141
sg8
g9
(g13
S'\xf3YaD+\xd8\x1c@'
p4058
tp4059
Rp4060
sg19
I0
sg20
g21
(S'\x07\xdd\t\x1d\x13\x12\x05\x08\xcb\xb3'
p4061
tp4062
Rp4063
sg25
I0
sg26
g27
(g28
(I0
tp4064
g30
tp4065
Rp4066
(I1
(I2
tp4067
g36
I00
S'C\x00\x00\x00m\x00\x00\x00'
p4068
tp4069
bsba(i__main__
FrameData
p4070
(dp4071
g6
g141
sg8
g9
(g13
S'\xfc\xeeci3\xd5\x1a@'
p4072
tp4073
Rp4074
sg19
I0
sg20
g21
(S'\x07\xdd\t\x1d\x13\x12\x05\t\x0b\x9b'
p4075
tp4076
Rp4077
sg25
I0
sg26
g27
(g28
(I0
tp4078
g30
tp4079
Rp4080
(I1
(I2
tp4081
g36
I00
S'C\x00\x00\x00n\x00\x00\x00'
p4082
tp4083
bsba(i__main__
FrameData
p4084
(dp4085
g6
g141
sg8
g9
(g13
S'\x00\x00\x00\x00\x00\x00\x14@'
p4086
tp4087
Rp4088
sg19
I0
sg20
g21
(S'\x07\xdd\t\x1d\x13\x12\x05\tRX'
p4089
tp4090
Rp4091
sg25
I0
sg26
g27
(g28
(I0
tp4092
g30
tp4093
Rp4094
(I1
(I2
tp4095
g36
I00
S'E\x00\x00\x00n\x00\x00\x00'
p4096
tp4097
bsba(i__main__
FrameData
p4098
(dp4099
g6
g141
sg8
g9
(g13
S'\xa8\xf4\x97\x9bw\xe3\x11@'
p4100
tp4101
Rp4102
sg19
I0
sg20
g21
(S'\x07\xdd\t\x1d\x13\x12\x05\t\x92('
p4103
tp4104
Rp4105
sg25
I0
sg26
g27
(g28
(I0
tp4106
g30
tp4107
Rp4108
(I1
(I2
tp4109
g36
I00
S'E\x00\x00\x00o\x00\x00\x00'
p4110
tp4111
bsbasS'_fileName'
p4112
S'training/trajectory2013-09-29_19:17:52.660819'
p4113
sS'word'
p4114
S'captured'
p4115
sb.