(i__main__
SwypeTrajectory
p0
(dp1
S'_frameDataList'
p2
(lp3
(i__main__
FrameData
p4
(dp5
S'closestLetter'
p6
S'p'
p7
sS'letterDistance'
p8
cnumpy.core.multiarray
scalar
p9
(cnumpy
dtype
p10
(S'f8'
p11
I0
I1
tp12
Rp13
(I3
S'<'
p14
NNNI-1
I-1
I0
tp15
bS'\xf3YaD+\xd8\x0c@'
p16
tp17
Rp18
sS'accel'
p19
I0
sS'time'
p20
cdatetime
datetime
p21
(S'\x07\xdd\t\x1d\x13\r\t\x02C\xb6'
p22
tp23
Rp24
sS'velocity'
p25
I0
sS'position'
p26
cnumpy.core.multiarray
_reconstruct
p27
(cnumpy
ndarray
p28
(I0
tp29
S'b'
p30
tp31
Rp32
(I1
(I2
tp33
g10
(S'i4'
p34
I0
I1
tp35
Rp36
(I3
S'<'
p37
NNNI-1
I-1
I0
tp38
bI00
S'\xdf\x00\x00\x00H\x00\x00\x00'
p39
tp40
bsba(i__main__
FrameData
p41
(dp42
g6
g7
sg8
g9
(g13
S'\x00\x00\x00\x00\x00\x00\x14@'
p43
tp44
Rp45
sg19
I0
sg20
g21
(S'\x07\xdd\t\x1d\x13\r\t\x02\x91\x99'
p46
tp47
Rp48
sg25
I0
sg26
g27
(g28
(I0
tp49
g30
tp50
Rp51
(I1
(I2
tp52
g36
I00
S'\xdd\x00\x00\x00H\x00\x00\x00'
p53
tp54
bsba(i__main__
FrameData
p55
(dp56
g6
g7
sg8
g9
(g13
S'\xa2\xa3\xb3\r\xe5R\x17@'
p57
tp58
Rp59
sg19
I0
sg20
g21
(S'\x07\xdd\t\x1d\x13\r\t\x02\xe09'
p60
tp61
Rp62
sg25
I0
sg26
g27
(g28
(I0
tp63
g30
tp64
Rp65
(I1
(I2
tp66
g36
I00
S'\xdc\x00\x00\x00H\x00\x00\x00'
p67
tp68
bsba(i__main__
FrameData
p69
(dp70
g6
g7
sg8
g9
(g13
S'\xfc\xeeci3\xd5\x1a@'
p71
tp72
Rp73
sg19
I0
sg20
g21
(S'\x07\xdd\t\x1d\x13\r\t\x03\x07\xc3'
p74
tp75
Rp76
sg25
I0
sg26
g27
(g28
(I0
tp77
g30
tp78
Rp79
(I1
(I2
tp80
g36
I00
S'\xdb\x00\x00\x00H\x00\x00\x00'
p81
tp82
bsba(i__main__
FrameData
p83
(dp84
g6
g7
sg8
g9
(g13
S'p\xc4\x9d9\x8dv\x1e@'
p85
tp86
Rp87
sg19
I0
sg20
g21
(S'\x07\xdd\t\x1d\x13\r\t\x03T\xae'
p88
tp89
Rp90
sg25
I0
sg26
g27
(g28
(I0
tp91
g30
tp92
Rp93
(I1
(I2
tp94
g36
I00
S'\xda\x00\x00\x00H\x00\x00\x00'
p95
tp96
bsba(i__main__
FrameData
p97
(dp98
g6
g7
sg8
g9
(g13
S'\xa3\x14\xae\xa8\x87\x16!@'
p99
tp100
Rp101
sg19
I0
sg20
g21
(S'\x07\xdd\t\x1d\x13\r\t\x03\xa2\xe8'
p102
tp103
Rp104
sg25
I0
sg26
g27
(g28
(I0
tp105
g30
tp106
Rp107
(I1
(I2
tp108
g36
I00
S'\xd9\x00\x00\x00H\x00\x00\x00'
p109
tp110
bsba(i__main__
FrameData
p111
(dp112
g6
g7
sg8
g9
(g13
S'7\xf9\xcf\xdao\xe1$@'
p113
tp114
Rp115
sg19
I0
sg20
g21
(S'\x07\xdd\t\x1d\x13\r\t\x03\xc8\xd4'
p116
tp117
Rp118
sg25
I0
sg26
g27
(g28
(I0
tp119
g30
tp120
Rp121
(I1
(I2
tp122
g36
I00
S'\xd7\x00\x00\x00H\x00\x00\x00'
p123
tp124
bsba(i__main__
FrameData
p125
(dp126
g6
g7
sg8
g9
(g13
S'\xeb\x12\xb2\xbb\xb2\xcd&@'
p127
tp128
Rp129
sg19
I0
sg20
g21
(S'\x07\xdd\t\x1d\x13\r\t\x04\x18\x1b'
p130
tp131
Rp132
sg25
I0
sg26
g27
(g28
(I0
tp133
g30
tp134
Rp135
(I1
(I2
tp136
g36
I00
S'\xd6\x00\x00\x00H\x00\x00\x00'
p137
tp138
bsba(i__main__
FrameData
p139
(dp140
g6
S'o'
p141
sg8
g9
(g13
S'\xeb\x12\xb2\xbb\xb2\xcd&@'
p142
tp143
Rp144
sg19
I0
sg20
g21
(S'\x07\xdd\t\x1d\x13\r\t\x04\x8e\x12'
p145
tp146
Rp147
sg25
I0
sg26
g27
(g28
(I0
tp148
g30
tp149
Rp150
(I1
(I2
tp151
g36
I00
S'\xd5\x00\x00\x00H\x00\x00\x00'
p152
tp153
bsba(i__main__
FrameData
p154
(dp155
g6
g141
sg8
g9
(g13
S'7\xf9\xcf\xdao\xe1$@'
p156
tp157
Rp158
sg19
I0
sg20
g21
(S'\x07\xdd\t\x1d\x13\r\t\x04\xdbl'
p159
tp160
Rp161
sg25
I0
sg26
g27
(g28
(I0
tp162
g30
tp163
Rp164
(I1
(I2
tp165
g36
I00
S'\xd4\x00\x00\x00H\x00\x00\x00'
p166
tp167
bsba(i__main__
FrameData
p168
(dp169
g6
g141
sg8
g9
(g13
S'\xa3\x14\xae\xa8\x87\x16!@'
p170
tp171
Rp172
sg19
I0
sg20
g21
(S'\x07\xdd\t\x1d\x13\r\t\x05P\xe1'
p173
tp174
Rp175
sg25
I0
sg26
g27
(g28
(I0
tp176
g30
tp177
Rp178
(I1
(I2
tp179
g36
I00
S'\xd2\x00\x00\x00H\x00\x00\x00'
p180
tp181
bsba(i__main__
FrameData
p182
(dp183
g6
g141
sg8
g9
(g13
S'p\xc4\x9d9\x8dv\x1e@'
p184
tp185
Rp186
sg19
I0
sg20
g21
(S'\x07\xdd\t\x1d\x13\r\t\x05\x9e\xd9'
p187
tp188
Rp189
sg25
I0
sg26
g27
(g28
(I0
tp190
g30
tp191
Rp192
(I1
(I2
tp193
g36
I00
S'\xd1\x00\x00\x00H\x00\x00\x00'
p194
tp195
bsba(i__main__
FrameData
p196
(dp197
g6
g141
sg8
g9
(g13
S'\xfc\xeeci3\xd5\x1a@'
p198
tp199
Rp200
sg19
I0
sg20
g21
(S'\x07\xdd\t\x1d\x13\r\t\x05\xec\xb4'
p201
tp202
Rp203
sg25
I0
sg26
g27
(g28
(I0
tp204
g30
tp205
Rp206
(I1
(I2
tp207
g36
I00
S'\xd0\x00\x00\x00H\x00\x00\x00'
p208
tp209
bsba(i__main__
FrameData
p210
(dp211
g6
g141
sg8
g9
(g13
S'\xa2\xa3\xb3\r\xe5R\x17@'
p212
tp213
Rp214
sg19
I0
sg20
g21
(S'\x07\xdd\t\x1d\x13\r\t\x06\x12\xf8'
p215
tp216
Rp217
sg25
I0
sg26
g27
(g28
(I0
tp218
g30
tp219
Rp220
(I1
(I2
tp221
g36
I00
S'\xcf\x00\x00\x00H\x00\x00\x00'
p222
tp223
bsba(i__main__
FrameData
p224
(dp225
g6
g141
sg8
g9
(g13
S'\x00\x00\x00\x00\x00\x00\x14@'
p226
tp227
Rp228
sg19
I0
sg20
g21
(S'\x07\xdd\t\x1d\x13\r\t\x06[f'
p229
tp230
Rp231
sg25
I0
sg26
g27
(g28
(I0
tp232
g30
tp233
Rp234
(I1
(I2
tp235
g36
I00
S'\xce\x00\x00\x00H\x00\x00\x00'
p236
tp237
bsba(i__main__
FrameData
p238
(dp239
g6
g141
sg8
g9
(g13
S'\xd9l\xdf\xccv\xf8\x10@'
p240
tp241
Rp242
sg19
I0
sg20
g21
(S'\x07\xdd\t\x1d\x13\r\t\x06\xd7D'
p243
tp244
Rp245
sg25
I0
sg26
g27
(g28
(I0
tp246
g30
tp247
Rp248
(I1
(I2
tp249
g36
I00
S'\xcd\x00\x00\x00H\x00\x00\x00'
p250
tp251
bsba(i__main__
FrameData
p252
(dp253
g6
g141
sg8
g9
(g13
S'\xf3YaD+\xd8\x0c@'
p254
tp255
Rp256
sg19
I0
sg20
g21
(S'\x07\xdd\t\x1d\x13\r\t\x07\x19D'
p257
tp258
Rp259
sg25
I0
sg26
g27
(g28
(I0
tp260
g30
tp261
Rp262
(I1
(I2
tp263
g36
I00
S'\xcc\x00\x00\x00H\x00\x00\x00'
p264
tp265
bsba(i__main__
FrameData
p266
(dp267
g6
g141
sg8
g9
(g13
S'S[\xda:XL\t@'
p268
tp269
Rp270
sg19
I0
sg20
g21
(S'\x07\xdd\t\x1d\x13\r\t\x07s\xc4'
p271
tp272
Rp273
sg25
I0
sg26
g27
(g28
(I0
tp274
g30
tp275
Rp276
(I1
(I2
tp277
g36
I00
S'\xcb\x00\x00\x00H\x00\x00\x00'
p278
tp279
bsba(i__main__
FrameData
p280
(dp281
g6
g141
sg8
g9
(g13
S'\x00\x00\x00\x00\x00\x00\x08@'
p282
tp283
Rp284
sg19
I0
sg20
g21
(S'\x07\xdd\t\x1d\x13\r\t\x07\xe7\xd5'
p285
tp286
Rp287
sg25
I0
sg26
g27
(g28
(I0
tp288
g30
tp289
Rp290
(I1
(I2
tp291
g36
I00
S'\xca\x00\x00\x00H\x00\x00\x00'
p292
tp293
bsba(i__main__
FrameData
p294
(dp295
g6
g141
sg8
g9
(g13
S'S[\xda:XL\t@'
p296
tp297
Rp298
sg19
I0
sg20
g21
(S'\x07\xdd\t\x1d\x13\r\t\x08\xad '
p299
tp300
Rp301
sg25
I0
sg26
g27
(g28
(I0
tp302
g30
tp303
Rp304
(I1
(I2
tp305
g36
I00
S'\xc9\x00\x00\x00H\x00\x00\x00'
p306
tp307
bsba(i__main__
FrameData
p308
(dp309
g6
g141
sg8
g9
(g13
S'\xa8\xf4\x97\x9bw\xe3\x01@'
p310
tp311
Rp312
sg19
I0
sg20
g21
(S'\x07\xdd\t\x1d\x13\r\t\n\xf6B'
p313
tp314
Rp315
sg25
I0
sg26
g27
(g28
(I0
tp316
g30
tp317
Rp318
(I1
(I2
tp319
g36
I00
S'\xc9\x00\x00\x00I\x00\x00\x00'
p320
tp321
bsba(i__main__
FrameData
p322
(dp323
g6
g141
sg8
g9
(g13
S'\xcd;\x7ff\x9e\xa0\xf6?'
p324
tp325
Rp326
sg19
I0
sg20
g21
(S'\x07\xdd\t\x1d\x13\r\t\x0bD\x92'
p327
tp328
Rp329
sg25
I0
sg26
g27
(g28
(I0
tp330
g30
tp331
Rp332
(I1
(I2
tp333
g36
I00
S'\xc9\x00\x00\x00J\x00\x00\x00'
p334
tp335
bsba(i__main__
FrameData
p336
(dp337
g6
g141
sg8
g9
(g13
S'\x00\x00\x00\x00\x00\x00\xf0?'
p338
tp339
Rp340
sg19
I0
sg20
g21
(S'\x07\xdd\t\x1d\x13\r\t\x0b\xb9\xb6'
p341
tp342
Rp343
sg25
I0
sg26
g27
(g28
(I0
tp344
g30
tp345
Rp346
(I1
(I2
tp347
g36
I00
S'\xc9\x00\x00\x00K\x00\x00\x00'
p348
tp349
bsba(i__main__
FrameData
p350
(dp351
g6
g141
sg8
g9
(g13
S'\xf3YaD+\xd8\x0c@'
p352
tp353
Rp354
sg19
I0
sg20
g21
(S'\x07\xdd\t\x1d\x13\r\t\x0c\x07j'
p355
tp356
Rp357
sg25
I0
sg26
g27
(g28
(I0
tp358
g30
tp359
Rp360
(I1
(I2
tp361
g36
I00
S'\xc7\x00\x00\x00M\x00\x00\x00'
p362
tp363
bsba(i__main__
FrameData
p364
(dp365
g6
g141
sg8
g9
(g13
S'\xa8\xf4\x97\x9bw\xe3\x11@'
p366
tp367
Rp368
sg19
I0
sg20
g21
(S'\x07\xdd\t\x1d\x13\r\t\x0cU\xc7'
p369
tp370
Rp371
sg25
I0
sg26
g27
(g28
(I0
tp372
g30
tp373
Rp374
(I1
(I2
tp375
g36
I00
S'\xc6\x00\x00\x00M\x00\x00\x00'
p376
tp377
bsba(i__main__
FrameData
p378
(dp379
g6
g141
sg8
g9
(g13
S'\xcd;\x7ff\x9e\xa0\x16@'
p380
tp381
Rp382
sg19
I0
sg20
g21
(S'\x07\xdd\t\x1d\x13\r\t\x0c{\x97'
p383
tp384
Rp385
sg25
I0
sg26
g27
(g28
(I0
tp386
g30
tp387
Rp388
(I1
(I2
tp389
g36
I00
S'\xc6\x00\x00\x00O\x00\x00\x00'
p390
tp391
bsba(i__main__
FrameData
p392
(dp393
g6
g141
sg8
g9
(g13
S'\xf3YaD+\xd8\x1c@'
p394
tp395
Rp396
sg19
I0
sg20
g21
(S'\x07\xdd\t\x1d\x13\r\t\r\x19$'
p397
tp398
Rp399
sg25
I0
sg26
g27
(g28
(I0
tp400
g30
tp401
Rp402
(I1
(I2
tp403
g36
I00
S'\xc4\x00\x00\x00O\x00\x00\x00'
p404
tp405
bsba(i__main__
FrameData
p406
(dp407
g6
g141
sg8
g9
(g13
S'\xd0\xbaa?\xe0\x1f @'
p408
tp409
Rp410
sg19
I0
sg20
g21
(S'\x07\xdd\t\x1d\x13\r\t\r\x82\x83'
p411
tp412
Rp413
sg25
I0
sg26
g27
(g28
(I0
tp414
g30
tp415
Rp416
(I1
(I2
tp417
g36
I00
S'\xc3\x00\x00\x00O\x00\x00\x00'
p418
tp419
bsba(i__main__
FrameData
p420
(dp421
g6
g141
sg8
g9
(g13
S'\xa8\xf4\x97\x9bw\xe3!@'
p422
tp423
Rp424
sg19
I0
sg20
g21
(S'\x07\xdd\t\x1d\x13\r\t\r\xdb8'
p425
tp426
Rp427
sg25
I0
sg26
g27
(g28
(I0
tp428
g30
tp429
Rp430
(I1
(I2
tp431
g36
I00
S'\xc2\x00\x00\x00O\x00\x00\x00'
p432
tp433
bsba(i__main__
FrameData
p434
(dp435
g6
g141
sg8
g9
(g13
S'bVc}\x9d\xb2#@'
p436
tp437
Rp438
sg19
I0
sg20
g21
(S'\x07\xdd\t\x1d\x13\r\t\x0e\x03\x88'
p439
tp440
Rp441
sg25
I0
sg26
g27
(g28
(I0
tp442
g30
tp443
Rp444
(I1
(I2
tp445
g36
I00
S'\xc1\x00\x00\x00O\x00\x00\x00'
p446
tp447
bsba(i__main__
FrameData
p448
(dp449
g6
g141
sg8
g9
(g13
S'\xf3\xd9\xa8\xa4h\x8a%@'
p450
tp451
Rp452
sg19
I0
sg20
g21
(S'\x07\xdd\t\x1d\x13\r\t\x0e\x9ff'
p453
tp454
Rp455
sg25
I0
sg26
g27
(g28
(I0
tp456
g30
tp457
Rp458
(I1
(I2
tp459
g36
I00
S'\xc0\x00\x00\x00O\x00\x00\x00'
p460
tp461
bsba(i__main__
FrameData
p462
(dp463
g6
g141
sg8
g9
(g13
S"\xe0\x11<m\xceh'@"
p464
tp465
Rp466
sg19
I0
sg20
g21
(S'\x07\xdd\t\x1d\x13\r\t\x0f\x13\xaa'
p467
tp468
Rp469
sg25
I0
sg26
g27
(g28
(I0
tp470
g30
tp471
Rp472
(I1
(I2
tp473
g36
I00
S'\xbf\x00\x00\x00O\x00\x00\x00'
p474
tp475
bsba(i__main__
FrameData
p476
(dp477
g6
S'i'
p478
sg8
g9
(g13
S'S[\xda:XL)@'
p479
tp480
Rp481
sg19
I0
sg20
g21
(S'\x07\xdd\t\x1d\x13\r\n\x00G\xfd'
p482
tp483
Rp484
sg25
I0
sg26
g27
(g28
(I0
tp485
g30
tp486
Rp487
(I1
(I2
tp488
g36
I00
S'\xbe\x00\x00\x00O\x00\x00\x00'
p489
tp490
bsba(i__main__
FrameData
p491
(dp492
g6
g478
sg8
g9
(g13
S"\xe0\x11<m\xceh'@"
p493
tp494
Rp495
sg19
I0
sg20
g21
(S'\x07\xdd\t\x1d\x13\r\n\x00\x96\xc0'
p496
tp497
Rp498
sg25
I0
sg26
g27
(g28
(I0
tp499
g30
tp500
Rp501
(I1
(I2
tp502
g36
I00
S'\xbd\x00\x00\x00O\x00\x00\x00'
p503
tp504
bsba(i__main__
FrameData
p505
(dp506
g6
g478
sg8
g9
(g13
S'\xf3\xd9\xa8\xa4h\x8a%@'
p507
tp508
Rp509
sg19
I0
sg20
g21
(S'\x07\xdd\t\x1d\x13\r\n\x00\xd4\xe8'
p510
tp511
Rp512
sg25
I0
sg26
g27
(g28
(I0
tp513
g30
tp514
Rp515
(I1
(I2
tp516
g36
I00
S'\xbc\x00\x00\x00O\x00\x00\x00'
p517
tp518
bsba(i__main__
FrameData
p519
(dp520
g6
g478
sg8
g9
(g13
S'bVc}\x9d\xb2#@'
p521
tp522
Rp523
sg19
I0
sg20
g21
(S'\x07\xdd\t\x1d\x13\r\n\x01\n\x91'
p524
tp525
Rp526
sg25
I0
sg26
g27
(g28
(I0
tp527
g30
tp528
Rp529
(I1
(I2
tp530
g36
I00
S'\xbb\x00\x00\x00O\x00\x00\x00'
p531
tp532
bsba(i__main__
FrameData
p533
(dp534
g6
g478
sg8
g9
(g13
S'\xd0\xbaa?\xe0\x1f @'
p535
tp536
Rp537
sg19
I0
sg20
g21
(S'\x07\xdd\t\x1d\x13\r\n\x01CC'
p538
tp539
Rp540
sg25
I0
sg26
g27
(g28
(I0
tp541
g30
tp542
Rp543
(I1
(I2
tp544
g36
I00
S'\xb9\x00\x00\x00O\x00\x00\x00'
p545
tp546
bsba(i__main__
FrameData
p547
(dp548
g6
g478
sg8
g9
(g13
S'\xf3YaD+\xd8\x1c@'
p549
tp550
Rp551
sg19
I0
sg20
g21
(S'\x07\xdd\t\x1d\x13\r\n\x01\xa7\x8e'
p552
tp553
Rp554
sg25
I0
sg26
g27
(g28
(I0
tp555
g30
tp556
Rp557
(I1
(I2
tp558
g36
I00
S'\xb8\x00\x00\x00O\x00\x00\x00'
p559
tp560
bsba(i__main__
FrameData
p561
(dp562
g6
g478
sg8
g9
(g13
S'\x00\xff\x9f\x99\xcc\x9c\x19@'
p563
tp564
Rp565
sg19
I0
sg20
g21
(S'\x07\xdd\t\x1d\x13\r\n\x01\xcb\x97'
p566
tp567
Rp568
sg25
I0
sg26
g27
(g28
(I0
tp569
g30
tp570
Rp571
(I1
(I2
tp572
g36
I00
S'\xb7\x00\x00\x00O\x00\x00\x00'
p573
tp574
bsba(i__main__
FrameData
p575
(dp576
g6
g478
sg8
g9
(g13
S'\xcd;\x7ff\x9e\xa0\x16@'
p577
tp578
Rp579
sg19
I0
sg20
g21
(S'\x07\xdd\t\x1d\x13\r\n\x02\x13\xeb'
p580
tp581
Rp582
sg25
I0
sg26
g27
(g28
(I0
tp583
g30
tp584
Rp585
(I1
(I2
tp586
g36
I00
S'\xb6\x00\x00\x00O\x00\x00\x00'
p587
tp588
bsba(i__main__
FrameData
p589
(dp590
g6
g478
sg8
g9
(g13
S'\x00\x00\x00\x00\x00\x00\x14@'
p591
tp592
Rp593
sg19
I0
sg20
g21
(S'\x07\xdd\t\x1d\x13\r\n\x02\xa0Z'
p594
tp595
Rp596
sg25
I0
sg26
g27
(g28
(I0
tp597
g30
tp598
Rp599
(I1
(I2
tp600
g36
I00
S'\xb5\x00\x00\x00O\x00\x00\x00'
p601
tp602
bsba(i__main__
FrameData
p603
(dp604
g6
g478
sg8
g9
(g13
S'\xd9l\xdf\xccv\xf8\x10@'
p605
tp606
Rp607
sg19
I0
sg20
g21
(S'\x07\xdd\t\x1d\x13\r\n\x02\xd0U'
p608
tp609
Rp610
sg25
I0
sg26
g27
(g28
(I0
tp611
g30
tp612
Rp613
(I1
(I2
tp614
g36
I00
S'\xb5\x00\x00\x00N\x00\x00\x00'
p615
tp616
bsba(i__main__
FrameData
p617
(dp618
g6
g478
sg8
g9
(g13
S'S[\xda:XL\t@'
p619
tp620
Rp621
sg19
I0
sg20
g21
(S'\x07\xdd\t\x1d\x13\r\n\x03Y\x03'
p622
tp623
Rp624
sg25
I0
sg26
g27
(g28
(I0
tp625
g30
tp626
Rp627
(I1
(I2
tp628
g36
I00
S'\xb3\x00\x00\x00N\x00\x00\x00'
p629
tp630
bsba(i__main__
FrameData
p631
(dp632
g6
g478
sg8
g9
(g13
S'\xa8\xf4\x97\x9bw\xe3\x01@'
p633
tp634
Rp635
sg19
I0
sg20
g21
(S'\x07\xdd\t\x1d\x13\r\n\x04\x1a\x85'
p636
tp637
Rp638
sg25
I0
sg26
g27
(g28
(I0
tp639
g30
tp640
Rp641
(I1
(I2
tp642
g36
I00
S'\xb3\x00\x00\x00M\x00\x00\x00'
p643
tp644
bsba(i__main__
FrameData
p645
(dp646
g6
g478
sg8
g9
(g13
S'\x00\x00\x00\x00\x00\x00\x00@'
p647
tp648
Rp649
sg19
I0
sg20
g21
(S'\x07\xdd\t\x1d\x13\r\n\x04u\x12'
p650
tp651
Rp652
sg25
I0
sg26
g27
(g28
(I0
tp653
g30
tp654
Rp655
(I1
(I2
tp656
g36
I00
S'\xb2\x00\x00\x00M\x00\x00\x00'
p657
tp658
bsba(i__main__
FrameData
p659
(dp660
g6
g478
sg8
g9
(g13
S'\x00\x00\x00\x00\x00\x00\x00\x00'
p661
tp662
Rp663
sg19
I0
sg20
g21
(S'\x07\xdd\t\x1d\x13\r\n\x04\xebl'
p664
tp665
Rp666
sg25
I0
sg26
g27
(g28
(I0
tp667
g30
tp668
Rp669
(I1
(I2
tp670
g36
I00
S'\xb2\x00\x00\x00K\x00\x00\x00'
p671
tp672
bsba(i__main__
FrameData
p673
(dp674
g6
g478
sg8
g9
(g13
S'\x00\x00\x00\x00\x00\x00\xf0?'
p675
tp676
Rp677
sg19
I0
sg20
g21
(S'\x07\xdd\t\x1d\x13\r\n\x059m'
p678
tp679
Rp680
sg25
I0
sg26
g27
(g28
(I0
tp681
g30
tp682
Rp683
(I1
(I2
tp684
g36
I00
S'\xb1\x00\x00\x00K\x00\x00\x00'
p685
tp686
bsba(i__main__
FrameData
p687
(dp688
g6
g478
sg8
g9
(g13
S'\xcd;\x7ff\x9e\xa0\xf6?'
p689
tp690
Rp691
sg19
I0
sg20
g21
(S'\x07\xdd\t\x1d\x13\r\n\x05\x9fG'
p692
tp693
Rp694
sg25
I0
sg26
g27
(g28
(I0
tp695
g30
tp696
Rp697
(I1
(I2
tp698
g36
I00
S'\xb1\x00\x00\x00J\x00\x00\x00'
p699
tp700
bsba(i__main__
FrameData
p701
(dp702
g6
g478
sg8
g9
(g13
S'\xa8\xf4\x97\x9bw\xe3\x01@'
p703
tp704
Rp705
sg19
I0
sg20
g21
(S'\x07\xdd\t\x1d\x13\r\n\x05\xfd\x07'
p706
tp707
Rp708
sg25
I0
sg26
g27
(g28
(I0
tp709
g30
tp710
Rp711
(I1
(I2
tp712
g36
I00
S'\xb0\x00\x00\x00J\x00\x00\x00'
p713
tp714
bsba(i__main__
FrameData
p715
(dp716
g6
g478
sg8
g9
(g13
S'\xcd;\x7ff\x9e\xa0\x06@'
p717
tp718
Rp719
sg19
I0
sg20
g21
(S'\x07\xdd\t\x1d\x13\r\n\x06$\x92'
p720
tp721
Rp722
sg25
I0
sg26
g27
(g28
(I0
tp723
g30
tp724
Rp725
(I1
(I2
tp726
g36
I00
S'\xb0\x00\x00\x00I\x00\x00\x00'
p727
tp728
bsba(i__main__
FrameData
p729
(dp730
g6
g478
sg8
g9
(g13
S'\xa8\xf4\x97\x9bw\xe3\x01@'
p731
tp732
Rp733
sg19
I0
sg20
g21
(S'\x07\xdd\t\x1d\x13\r\n\n\x91\x16'
p734
tp735
Rp736
sg25
I0
sg26
g27
(g28
(I0
tp737
g30
tp738
Rp739
(I1
(I2
tp740
g36
I00
S'\xb0\x00\x00\x00J\x00\x00\x00'
p741
tp742
bsba(i__main__
FrameData
p743
(dp744
g6
g478
sg8
g9
(g13
S'\x00\x00\x00\x00\x00\x00\x00@'
p745
tp746
Rp747
sg19
I0
sg20
g21
(S'\x07\xdd\t\x1d\x13\r\n\n\xb6\xc9'
p748
tp749
Rp750
sg25
I0
sg26
g27
(g28
(I0
tp751
g30
tp752
Rp753
(I1
(I2
tp754
g36
I00
S'\xb0\x00\x00\x00K\x00\x00\x00'
p755
tp756
bsba(i__main__
FrameData
p757
(dp758
g6
g478
sg8
g9
(g13
S'\xa8\xf4\x97\x9bw\xe3\x01@'
p759
tp760
Rp761
sg19
I0
sg20
g21
(S'\x07\xdd\t\x1d\x13\r\n\n\xf2y'
p762
tp763
Rp764
sg25
I0
sg26
g27
(g28
(I0
tp765
g30
tp766
Rp767
(I1
(I2
tp768
g36
I00
S'\xb0\x00\x00\x00L\x00\x00\x00'
p769
tp770
bsba(i__main__
FrameData
p771
(dp772
g6
g478
sg8
g9
(g13
S'\xf3YaD+\xd8\x0c@'
p773
tp774
Rp775
sg19
I0
sg20
g21
(S'\x07\xdd\t\x1d\x13\r\n\x0bL\xb6'
p776
tp777
Rp778
sg25
I0
sg26
g27
(g28
(I0
tp779
g30
tp780
Rp781
(I1
(I2
tp782
g36
I00
S'\xb0\x00\x00\x00N\x00\x00\x00'
p783
tp784
bsba(i__main__
FrameData
p785
(dp786
g6
g478
sg8
g9
(g13
S'\xa8\xf4\x97\x9bw\xe3\x11@'
p787
tp788
Rp789
sg19
I0
sg20
g21
(S'\x07\xdd\t\x1d\x13\r\n\x0bu9'
p790
tp791
Rp792
sg25
I0
sg26
g27
(g28
(I0
tp793
g30
tp794
Rp795
(I1
(I2
tp796
g36
I00
S'\xb0\x00\x00\x00O\x00\x00\x00'
p797
tp798
bsba(i__main__
FrameData
p799
(dp800
g6
g478
sg8
g9
(g13
S'S[\xda:XL\x19@'
p801
tp802
Rp803
sg19
I0
sg20
g21
(S'\x07\xdd\t\x1d\x13\r\n\x0b\xc9A'
p804
tp805
Rp806
sg25
I0
sg26
g27
(g28
(I0
tp807
g30
tp808
Rp809
(I1
(I2
tp810
g36
I00
S'\xb0\x00\x00\x00Q\x00\x00\x00'
p811
tp812
bsba(i__main__
FrameData
p813
(dp814
g6
g478
sg8
g9
(g13
S'\x07\xed\xaff\x0f~ @'
p815
tp816
Rp817
sg19
I0
sg20
g21
(S'\x07\xdd\t\x1d\x13\r\n\x0c\x14\x84'
p818
tp819
Rp820
sg25
I0
sg26
g27
(g28
(I0
tp821
g30
tp822
Rp823
(I1
(I2
tp824
g36
I00
S'\xb0\x00\x00\x00S\x00\x00\x00'
p825
tp826
bsba(i__main__
FrameData
p827
(dp828
g6
g478
sg8
g9
(g13
S'\xf6/\x12_ee$@'
p829
tp830
Rp831
sg19
I0
sg20
g21
(S'\x07\xdd\t\x1d\x13\r\n\x0c>\xb8'
p832
tp833
Rp834
sg25
I0
sg26
g27
(g28
(I0
tp835
g30
tp836
Rp837
(I1
(I2
tp838
g36
I00
S'\xb0\x00\x00\x00U\x00\x00\x00'
p839
tp840
bsba(i__main__
FrameData
p841
(dp842
g6
g478
sg8
g9
(g13
S'\xd2\xf1}\x82U\\&@'
p843
tp844
Rp845
sg19
I0
sg20
g21
(S'\x07\xdd\t\x1d\x13\r\n\x0c\x8c\xd5'
p846
tp847
Rp848
sg25
I0
sg26
g27
(g28
(I0
tp849
g30
tp850
Rp851
(I1
(I2
tp852
g36
I00
S'\xb0\x00\x00\x00V\x00\x00\x00'
p853
tp854
bsba(i__main__
FrameData
p855
(dp856
g6
g478
sg8
g9
(g13
S'\xde4\xda\xfeNN*@'
p857
tp858
Rp859
sg19
I0
sg20
g21
(S'\x07\xdd\t\x1d\x13\r\n\x0c\xd2\x8b'
p860
tp861
Rp862
sg25
I0
sg26
g27
(g28
(I0
tp863
g30
tp864
Rp865
(I1
(I2
tp866
g36
I00
S'\xb0\x00\x00\x00X\x00\x00\x00'
p867
tp868
bsba(i__main__
FrameData
p869
(dp870
g6
g478
sg8
g9
(g13
S'f\xee@\x9f\x03\x1e1@'
p871
tp872
Rp873
sg19
I0
sg20
g21
(S'\x07\xdd\t\x1d\x13\r\n\r\x00\xd6'
p874
tp875
Rp876
sg25
I0
sg26
g27
(g28
(I0
tp877
g30
tp878
Rp879
(I1
(I2
tp880
g36
I00
S'\xb0\x00\x00\x00\\\x00\x00\x00'
p881
tp882
bsba(i__main__
FrameData
p883
(dp884
g6
S'j'
p885
sg8
g9
(g13
S'\xbf\x8f+\t\x89[2@'
p886
tp887
Rp888
sg19
I0
sg20
g21
(S'\x07\xdd\t\x1d\x13\r\n\rQ\x0b'
p889
tp890
Rp891
sg25
I0
sg26
g27
(g28
(I0
tp892
g30
tp893
Rp894
(I1
(I2
tp895
g36
I00
S'\xb0\x00\x00\x00b\x00\x00\x00'
p896
tp897
bsba(i__main__
FrameData
p898
(dp899
g6
g885
sg8
g9
(g13
S'F#O3\xb2t)@'
p900
tp901
Rp902
sg19
I0
sg20
g21
(S'\x07\xdd\t\x1d\x13\r\n\r~v'
p903
tp904
Rp905
sg25
I0
sg26
g27
(g28
(I0
tp906
g30
tp907
Rp908
(I1
(I2
tp909
g36
I00
S'\xb0\x00\x00\x00i\x00\x00\x00'
p910
tp911
bsba(i__main__
FrameData
p912
(dp913
g6
g885
sg8
g9
(g13
S'bVc}\x9d\xb2#@'
p914
tp915
Rp916
sg19
I0
sg20
g21
(S'\x07\xdd\t\x1d\x13\r\n\r\xc5J'
p917
tp918
Rp919
sg25
I0
sg26
g27
(g28
(I0
tp920
g30
tp921
Rp922
(I1
(I2
tp923
g36
I00
S'\xb0\x00\x00\x00n\x00\x00\x00'
p924
tp925
bsba(i__main__
FrameData
p926
(dp927
g6
g885
sg8
g9
(g13
S'$\xf8\xd9p[\x1c"@'
p928
tp929
Rp930
sg19
I0
sg20
g21
(S'\x07\xdd\t\x1d\x13\r\n\x0e\x15\xa3'
p931
tp932
Rp933
sg25
I0
sg26
g27
(g28
(I0
tp934
g30
tp935
Rp936
(I1
(I2
tp937
g36
I00
S'\xb0\x00\x00\x00q\x00\x00\x00'
p938
tp939
bsba(i__main__
FrameData
p940
(dp941
g6
g885
sg8
g9
(g13
S'$\xf8\xd9p[\x1c"@'
p942
tp943
Rp944
sg19
I0
sg20
g21
(S'\x07\xdd\t\x1d\x13\r\n\x0eb\xef'
p945
tp946
Rp947
sg25
I0
sg26
g27
(g28
(I0
tp948
g30
tp949
Rp950
(I1
(I2
tp951
g36
I00
S'\xb0\x00\x00\x00s\x00\x00\x00'
p952
tp953
bsba(i__main__
FrameData
p954
(dp955
g6
g885
sg8
g9
(g13
S'\x9a.\x90!hp"@'
p956
tp957
Rp958
sg19
I0
sg20
g21
(S'\x07\xdd\t\x1d\x13\r\n\x0e\x88\xe5'
p959
tp960
Rp961
sg25
I0
sg26
g27
(g28
(I0
tp962
g30
tp963
Rp964
(I1
(I2
tp965
g36
I00
S'\xb0\x00\x00\x00t\x00\x00\x00'
p966
tp967
bsba(i__main__
FrameData
p968
(dp969
g6
g885
sg8
g9
(g13
S'~\xc4#,B\xf9"@'
p970
tp971
Rp972
sg19
I0
sg20
g21
(S'\x07\xdd\t\x1d\x13\r\n\x0e\xc6\x17'
p973
tp974
Rp975
sg25
I0
sg26
g27
(g28
(I0
tp976
g30
tp977
Rp978
(I1
(I2
tp979
g36
I00
S'\xb0\x00\x00\x00u\x00\x00\x00'
p980
tp981
bsba(i__main__
FrameData
p982
(dp983
g6
g885
sg8
g9
(g13
S'bVc}\x9d\xb2#@'
p984
tp985
Rp986
sg19
I0
sg20
g21
(S'\x07\xdd\t\x1d\x13\r\n\x0f\x15\xd1'
p987
tp988
Rp989
sg25
I0
sg26
g27
(g28
(I0
tp990
g30
tp991
Rp992
(I1
(I2
tp993
g36
I00
S'\xb0\x00\x00\x00v\x00\x00\x00'
p994
tp995
bsba(i__main__
FrameData
p996
(dp997
g6
g885
sg8
g9
(g13
S'\x88\x80v\xd5\\\x97$@'
p998
tp999
Rp1000
sg19
I0
sg20
g21
(S'\x07\xdd\t\x1d\x13\r\x0b\x00\x08\x7f'
p1001
tp1002
Rp1003
sg25
I0
sg26
g27
(g28
(I0
tp1004
g30
tp1005
Rp1006
(I1
(I2
tp1007
g36
I00
S'\xb0\x00\x00\x00w\x00\x00\x00'
p1008
tp1009
bsba(i__main__
FrameData
p1010
(dp1011
g6
g885
sg8
g9
(g13
S'w\x03Is \xa2%@'
p1012
tp1013
Rp1014
sg19
I0
sg20
g21
(S'\x07\xdd\t\x1d\x13\r\x0b\x00G\x93'
p1015
tp1016
Rp1017
sg25
I0
sg26
g27
(g28
(I0
tp1018
g30
tp1019
Rp1020
(I1
(I2
tp1021
g36
I00
S'\xb0\x00\x00\x00x\x00\x00\x00'
p1022
tp1023
bsba(i__main__
FrameData
p1024
(dp1025
g6
g885
sg8
g9
(g13
S'6\xd0\xd2x\xa2B%@'
p1026
tp1027
Rp1028
sg19
I0
sg20
g21
(S'\x07\xdd\t\x1d\x13\r\x0b\x00\x87\xb0'
p1029
tp1030
Rp1031
sg25
I0
sg26
g27
(g28
(I0
tp1032
g30
tp1033
Rp1034
(I1
(I2
tp1035
g36
I00
S'\xae\x00\x00\x00z\x00\x00\x00'
p1036
tp1037
bsba(i__main__
FrameData
p1038
(dp1039
g6
g885
sg8
g9
(g13
S'\xeb\x12\xb2\xbb\xb2\xcd&@'
p1040
tp1041
Rp1042
sg19
I0
sg20
g21
(S'\x07\xdd\t\x1d\x13\r\x0b\x00\xcd\xb7'
p1043
tp1044
Rp1045
sg25
I0
sg26
g27
(g28
(I0
tp1046
g30
tp1047
Rp1048
(I1
(I2
tp1049
g36
I00
S'\xae\x00\x00\x00{\x00\x00\x00'
p1050
tp1051
bsba(i__main__
FrameData
p1052
(dp1053
g6
g885
sg8
g9
(g13
S"v\xa3~{\xce'0@"
p1054
tp1055
Rp1056
sg19
I0
sg20
g21
(S'\x07\xdd\t\x1d\x13\r\x0b\x01\x19\xd9'
p1057
tp1058
Rp1059
sg25
I0
sg26
g27
(g28
(I0
tp1060
g30
tp1061
Rp1062
(I1
(I2
tp1063
g36
I00
S'\xad\x00\x00\x00\x81\x00\x00\x00'
p1064
tp1065
bsba(i__main__
FrameData
p1066
(dp1067
g6
g885
sg8
g9
(g13
S'I\xe8[@\x93\x9d4@'
p1068
tp1069
Rp1070
sg19
I0
sg20
g21
(S'\x07\xdd\t\x1d\x13\r\x0b\x01i!'
p1071
tp1072
Rp1073
sg25
I0
sg26
g27
(g28
(I0
tp1074
g30
tp1075
Rp1076
(I1
(I2
tp1077
g36
I00
S'\xac\x00\x00\x00\x86\x00\x00\x00'
p1078
tp1079
bsba(i__main__
FrameData
p1080
(dp1081
g6
S'n'
p1082
sg8
g9
(g13
S'\x0f\xab\xa8Q\xb6f0@'
p1083
tp1084
Rp1085
sg19
I0
sg20
g21
(S'\x07\xdd\t\x1d\x13\r\x0b\x01\x8fS'
p1086
tp1087
Rp1088
sg25
I0
sg26
g27
(g28
(I0
tp1089
g30
tp1090
Rp1091
(I1
(I2
tp1092
g36
I00
S'\xaa\x00\x00\x00\x8c\x00\x00\x00'
p1093
tp1094
bsba(i__main__
FrameData
p1095
(dp1096
g6
g1082
sg8
g9
(g13
S'\xb4\xb8=iA\xe8*@'
p1097
tp1098
Rp1099
sg19
I0
sg20
g21
(S'\x07\xdd\t\x1d\x13\r\x0b\x01\xdd&'
p1100
tp1101
Rp1102
sg25
I0
sg26
g27
(g28
(I0
tp1103
g30
tp1104
Rp1105
(I1
(I2
tp1106
g36
I00
S'\xaa\x00\x00\x00\x90\x00\x00\x00'
p1107
tp1108
bsba(i__main__
FrameData
p1109
(dp1110
g6
g1082
sg8
g9
(g13
S'w\x03Is \xa2%@'
p1111
tp1112
Rp1113
sg19
I0
sg20
g21
(S'\x07\xdd\t\x1d\x13\r\x0b\x02,\xa5'
p1114
tp1115
Rp1116
sg25
I0
sg26
g27
(g28
(I0
tp1117
g30
tp1118
Rp1119
(I1
(I2
tp1120
g36
I00
S'\xa9\x00\x00\x00\x93\x00\x00\x00'
p1121
tp1122
bsba(i__main__
FrameData
p1123
(dp1124
g6
g1082
sg8
g9
(g13
S'\xa8\xf4\x97\x9bw\xe3!@'
p1125
tp1126
Rp1127
sg19
I0
sg20
g21
(S'\x07\xdd\t\x1d\x13\r\x0b\x02S}'
p1128
tp1129
Rp1130
sg25
I0
sg26
g27
(g28
(I0
tp1131
g30
tp1132
Rp1133
(I1
(I2
tp1134
g36
I00
S'\xa8\x00\x00\x00\x95\x00\x00\x00'
p1135
tp1136
bsba(i__main__
FrameData
p1137
(dp1138
g6
g1082
sg8
g9
(g13
S'\xa3\x14\xae\xa8\x87\x16!@'
p1139
tp1140
Rp1141
sg19
I0
sg20
g21
(S'\x07\xdd\t\x1d\x13\r\x0b\x02\xa1|'
p1142
tp1143
Rp1144
sg25
I0
sg26
g27
(g28
(I0
tp1145
g30
tp1146
Rp1147
(I1
(I2
tp1148
g36
I00
S'\xa8\x00\x00\x00\x96\x00\x00\x00'
p1149
tp1150
bsba(i__main__
FrameData
p1151
(dp1152
g6
g1082
sg8
g9
(g13
S'\x07\xed\xaff\x0f~ @'
p1153
tp1154
Rp1155
sg19
I0
sg20
g21
(S'\x07\xdd\t\x1d\x13\r\x0b\x02\xef\xba'
p1156
tp1157
Rp1158
sg25
I0
sg26
g27
(g28
(I0
tp1159
g30
tp1160
Rp1161
(I1
(I2
tp1162
g36
I00
S'\xa8\x00\x00\x00\x97\x00\x00\x00'
p1163
tp1164
bsba(i__main__
FrameData
p1165
(dp1166
g6
g1082
sg8
g9
(g13
S'\xe9\xfbv \xd5\x1e\x1d@'
p1167
tp1168
Rp1169
sg19
I0
sg20
g21
(S'\x07\xdd\t\x1d\x13\r\x0b\x03\x17!'
p1170
tp1171
Rp1172
sg25
I0
sg26
g27
(g28
(I0
tp1173
g30
tp1174
Rp1175
(I1
(I2
tp1176
g36
I00
S'\xa7\x00\x00\x00\x97\x00\x00\x00'
p1177
tp1178
bsba(i__main__
FrameData
p1179
(dp1180
g6
g1082
sg8
g9
(g13
S'\x00\x00\x00\x00\x00\x00\x1c@'
p1181
tp1182
Rp1183
sg19
I0
sg20
g21
(S'\x07\xdd\t\x1d\x13\r\x0b\x03c\xa8'
p1184
tp1185
Rp1186
sg25
I0
sg26
g27
(g28
(I0
tp1187
g30
tp1188
Rp1189
(I1
(I2
tp1190
g36
I00
S'\xa7\x00\x00\x00\x99\x00\x00\x00'
p1191
tp1192
bsba(i__main__
FrameData
p1193
(dp1194
g6
g1082
sg8
g9
(g13
S'9\xdcc\xb3\xbfT\x18@'
p1195
tp1196
Rp1197
sg19
I0
sg20
g21
(S'\x07\xdd\t\x1d\x13\r\x0b\x03\xda+'
p1198
tp1199
Rp1200
sg25
I0
sg26
g27
(g28
(I0
tp1201
g30
tp1202
Rp1203
(I1
(I2
tp1204
g36
I00
S'\xa6\x00\x00\x00\x9a\x00\x00\x00'
p1205
tp1206
bsba(i__main__
FrameData
p1207
(dp1208
g6
g1082
sg8
g9
(g13
S'\xf3\xd9\xa8\xa4h\x8a\x15@'
p1209
tp1210
Rp1211
sg19
I0
sg20
g21
(S'\x07\xdd\t\x1d\x13\r\x0b\x04m1'
p1212
tp1213
Rp1214
sg25
I0
sg26
g27
(g28
(I0
tp1215
g30
tp1216
Rp1217
(I1
(I2
tp1218
g36
I00
S'\xa5\x00\x00\x00\x9b\x00\x00\x00'
p1219
tp1220
bsba(i__main__
FrameData
p1221
(dp1222
g6
g1082
sg8
g9
(g13
S'\xa2\xa3\xb3\r\xe5R\x17@'
p1223
tp1224
Rp1225
sg19
I0
sg20
g21
(S'\x07\xdd\t\x1d\x13\r\x0b\x04\x9c\xb0'
p1226
tp1227
Rp1228
sg25
I0
sg26
g27
(g28
(I0
tp1229
g30
tp1230
Rp1231
(I1
(I2
tp1232
g36
I00
S'\xa5\x00\x00\x00\x9c\x00\x00\x00'
p1233
tp1234
bsba(i__main__
FrameData
p1235
(dp1236
g6
g1082
sg8
g9
(g13
S'\x00\x00\x00\x00\x00\x00\x14@'
p1237
tp1238
Rp1239
sg19
I0
sg20
g21
(S'\x07\xdd\t\x1d\x13\r\x0b\x05^\xbb'
p1240
tp1241
Rp1242
sg25
I0
sg26
g27
(g28
(I0
tp1243
g30
tp1244
Rp1245
(I1
(I2
tp1246
g36
I00
S'\xa4\x00\x00\x00\x9c\x00\x00\x00'
p1247
tp1248
bsba(i__main__
FrameData
p1249
(dp1250
g6
g1082
sg8
g9
(g13
S'\xcd;\x7ff\x9e\xa0\x16@'
p1251
tp1252
Rp1253
sg19
I0
sg20
g21
(S'\x07\xdd\t\x1d\x13\r\x0b\x05\xae\xa6'
p1254
tp1255
Rp1256
sg25
I0
sg26
g27
(g28
(I0
tp1257
g30
tp1258
Rp1259
(I1
(I2
tp1260
g36
I00
S'\xa4\x00\x00\x00\x9d\x00\x00\x00'
p1261
tp1262
bsba(i__main__
FrameData
p1263
(dp1264
g6
g1082
sg8
g9
(g13
S'\x00\x00\x00\x00\x00\x00\x14@'
p1265
tp1266
Rp1267
sg19
I0
sg20
g21
(S'\x07\xdd\t\x1d\x13\r\x0b\x06"\xf6'
p1268
tp1269
Rp1270
sg25
I0
sg26
g27
(g28
(I0
tp1271
g30
tp1272
Rp1273
(I1
(I2
tp1274
g36
I00
S'\xa3\x00\x00\x00\x9d\x00\x00\x00'
p1275
tp1276
bsba(i__main__
FrameData
p1277
(dp1278
g6
g1082
sg8
g9
(g13
S'\xd9l\xdf\xccv\xf8\x10@'
p1279
tp1280
Rp1281
sg19
I0
sg20
g21
(S'\x07\xdd\t\x1d\x13\r\x0b\nB\xe3'
p1282
tp1283
Rp1284
sg25
I0
sg26
g27
(g28
(I0
tp1285
g30
tp1286
Rp1287
(I1
(I2
tp1288
g36
I00
S'\xa3\x00\x00\x00\x9c\x00\x00\x00'
p1289
tp1290
bsba(i__main__
FrameData
p1291
(dp1292
g6
g1082
sg8
g9
(g13
S'\xf3YaD+\xd8\x0c@'
p1293
tp1294
Rp1295
sg19
I0
sg20
g21
(S'\x07\xdd\t\x1d\x13\r\x0b\n\x91%'
p1296
tp1297
Rp1298
sg25
I0
sg26
g27
(g28
(I0
tp1299
g30
tp1300
Rp1301
(I1
(I2
tp1302
g36
I00
S'\xa3\x00\x00\x00\x9b\x00\x00\x00'
p1303
tp1304
bsba(i__main__
FrameData
p1305
(dp1306
g6
g1082
sg8
g9
(g13
S'S[\xda:XL\t@'
p1307
tp1308
Rp1309
sg19
I0
sg20
g21
(S'\x07\xdd\t\x1d\x13\r\x0b\n\xdd\xc6'
p1310
tp1311
Rp1312
sg25
I0
sg26
g27
(g28
(I0
tp1313
g30
tp1314
Rp1315
(I1
(I2
tp1316
g36
I00
S'\xa3\x00\x00\x00\x9a\x00\x00\x00'
p1317
tp1318
bsba(i__main__
FrameData
p1319
(dp1320
g6
g1082
sg8
g9
(g13
S'S[\xda:XL\t@'
p1321
tp1322
Rp1323
sg19
I0
sg20
g21
(S'\x07\xdd\t\x1d\x13\r\x0b\n\xfc\x9e'
p1324
tp1325
Rp1326
sg25
I0
sg26
g27
(g28
(I0
tp1327
g30
tp1328
Rp1329
(I1
(I2
tp1330
g36
I00
S'\xa3\x00\x00\x00\x98\x00\x00\x00'
p1331
tp1332
bsba(i__main__
FrameData
p1333
(dp1334
g6
g1082
sg8
g9
(g13
S'\xd9l\xdf\xccv\xf8\x10@'
p1335
tp1336
Rp1337
sg19
I0
sg20
g21
(S'\x07\xdd\t\x1d\x13\r\x0b\x0bT-'
p1338
tp1339
Rp1340
sg25
I0
sg26
g27
(g28
(I0
tp1341
g30
tp1342
Rp1343
(I1
(I2
tp1344
g36
I00
S'\xa3\x00\x00\x00\x96\x00\x00\x00'
p1345
tp1346
bsba(i__main__
FrameData
p1347
(dp1348
g6
g1082
sg8
g9
(g13
S'\xa2\xa3\xb3\r\xe5R\x17@'
p1349
tp1350
Rp1351
sg19
I0
sg20
g21
(S'\x07\xdd\t\x1d\x13\r\x0b\x0b\xa2U'
p1352
tp1353
Rp1354
sg25
I0
sg26
g27
(g28
(I0
tp1355
g30
tp1356
Rp1357
(I1
(I2
tp1358
g36
I00
S'\xa3\x00\x00\x00\x94\x00\x00\x00'
p1359
tp1360
bsba(i__main__
FrameData
p1361
(dp1362
g6
g1082
sg8
g9
(g13
S'p\xc4\x9d9\x8dv\x1e@'
p1363
tp1364
Rp1365
sg19
I0
sg20
g21
(S'\x07\xdd\t\x1d\x13\r\x0b\x0b\xc9Z'
p1366
tp1367
Rp1368
sg25
I0
sg26
g27
(g28
(I0
tp1369
g30
tp1370
Rp1371
(I1
(I2
tp1372
g36
I00
S'\xa3\x00\x00\x00\x92\x00\x00\x00'
p1373
tp1374
bsba(i__main__
FrameData
p1375
(dp1376
g6
g1082
sg8
g9
(g13
S'~\xc4#,B\xf9"@'
p1377
tp1378
Rp1379
sg19
I0
sg20
g21
(S'\x07\xdd\t\x1d\x13\r\x0b\x0c\x018'
p1380
tp1381
Rp1382
sg25
I0
sg26
g27
(g28
(I0
tp1383
g30
tp1384
Rp1385
(I1
(I2
tp1386
g36
I00
S'\xa3\x00\x00\x00\x90\x00\x00\x00'
p1387
tp1388
bsba(i__main__
FrameData
p1389
(dp1390
g6
g1082
sg8
g9
(g13
S'7\xf9\xcf\xdao\xe1$@'
p1391
tp1392
Rp1393
sg19
I0
sg20
g21
(S'\x07\xdd\t\x1d\x13\r\x0b\x0cey'
p1394
tp1395
Rp1396
sg25
I0
sg26
g27
(g28
(I0
tp1397
g30
tp1398
Rp1399
(I1
(I2
tp1400
g36
I00
S'\xa3\x00\x00\x00\x8f\x00\x00\x00'
p1401
tp1402
bsba(i__main__
FrameData
p1403
(dp1404
g6
g1082
sg8
g9
(g13
S'\xd2\xf1}\x82U\\&@'
p1405
tp1406
Rp1407
sg19
I0
sg20
g21
(S'\x07\xdd\t\x1d\x13\r\x0b\x0c\x8c&'
p1408
tp1409
Rp1410
sg25
I0
sg26
g27
(g28
(I0
tp1411
g30
tp1412
Rp1413
(I1
(I2
tp1414
g36
I00
S'\xa2\x00\x00\x00\x8e\x00\x00\x00'
p1415
tp1416
bsba(i__main__
FrameData
p1417
(dp1418
g6
g1082
sg8
g9
(g13
S'9\xdcc\xb3\xbfT(@'
p1419
tp1420
Rp1421
sg19
I0
sg20
g21
(S'\x07\xdd\t\x1d\x13\r\x0b\x0c\xc5\xe1'
p1422
tp1423
Rp1424
sg25
I0
sg26
g27
(g28
(I0
tp1425
g30
tp1426
Rp1427
(I1
(I2
tp1428
g36
I00
S'\xa2\x00\x00\x00\x8d\x00\x00\x00'
p1429
tp1430
bsba(i__main__
FrameData
p1431
(dp1432
g6
g1082
sg8
g9
(g13
S'\xde4\xda\xfeNN*@'
p1433
tp1434
Rp1435
sg19
I0
sg20
g21
(S'\x07\xdd\t\x1d\x13\r\x0b\r\x1f+'
p1436
tp1437
Rp1438
sg25
I0
sg26
g27
(g28
(I0
tp1439
g30
tp1440
Rp1441
(I1
(I2
tp1442
g36
I00
S'\xa2\x00\x00\x00\x8c\x00\x00\x00'
p1443
tp1444
bsba(i__main__
FrameData
p1445
(dp1446
g6
g1082
sg8
g9
(g13
S'\xc0\n\x1f\x00\xc6H,@'
p1447
tp1448
Rp1449
sg19
I0
sg20
g21
(S'\x07\xdd\t\x1d\x13\r\x0b\rN\x0c'
p1450
tp1451
Rp1452
sg25
I0
sg26
g27
(g28
(I0
tp1453
g30
tp1454
Rp1455
(I1
(I2
tp1456
g36
I00
S'\xa2\x00\x00\x00\x8b\x00\x00\x00'
p1457
tp1458
bsba(i__main__
FrameData
p1459
(dp1460
g6
g1082
sg8
g9
(g13
S'\xaf_\x109\x0c\x11.@'
p1461
tp1462
Rp1463
sg19
I0
sg20
g21
(S'\x07\xdd\t\x1d\x13\r\x0b\r\x9e\xec'
p1464
tp1465
Rp1466
sg25
I0
sg26
g27
(g28
(I0
tp1467
g30
tp1468
Rp1469
(I1
(I2
tp1470
g36
I00
S'\xa1\x00\x00\x00\x8a\x00\x00\x00'
p1471
tp1472
bsba(i__main__
FrameData
p1473
(dp1474
g6
g1082
sg8
g9
(g13
S'p`\xff\x00\xfe\x070@'
p1475
tp1476
Rp1477
sg19
I0
sg20
g21
(S'\x07\xdd\t\x1d\x13\r\x0b\r\xece'
p1478
tp1479
Rp1480
sg25
I0
sg26
g27
(g28
(I0
tp1481
g30
tp1482
Rp1483
(I1
(I2
tp1484
g36
I00
S'\xa1\x00\x00\x00\x89\x00\x00\x00'
p1485
tp1486
bsba(i__main__
FrameData
p1487
(dp1488
g6
g1082
sg8
g9
(g13
S'\x00\x00\x00\x00\x00\x001@'
p1489
tp1490
Rp1491
sg19
I0
sg20
g21
(S'\x07\xdd\t\x1d\x13\r\x0b\x0e\x13D'
p1492
tp1493
Rp1494
sg25
I0
sg26
g27
(g28
(I0
tp1495
g30
tp1496
Rp1497
(I1
(I2
tp1498
g36
I00
S'\xa0\x00\x00\x00\x88\x00\x00\x00'
p1499
tp1500
bsba(i__main__
FrameData
p1501
(dp1502
g6
g1082
sg8
g9
(g13
S'\x00\x00\x00\x00\x00\x003@'
p1503
tp1504
Rp1505
sg19
I0
sg20
g21
(S'\x07\xdd\t\x1d\x13\r\x0b\x0e`%'
p1506
tp1507
Rp1508
sg25
I0
sg26
g27
(g28
(I0
tp1509
g30
tp1510
Rp1511
(I1
(I2
tp1512
g36
I00
S'\xa0\x00\x00\x00\x86\x00\x00\x00'
p1513
tp1514
bsba(i__main__
FrameData
p1515
(dp1516
g6
g1082
sg8
g9
(g13
S'\x8fJ\x95`e\x064@'
p1517
tp1518
Rp1519
sg19
I0
sg20
g21
(S'\x07\xdd\t\x1d\x13\r\x0b\x0e\x9d\xd3'
p1520
tp1521
Rp1522
sg25
I0
sg26
g27
(g28
(I0
tp1523
g30
tp1524
Rp1525
(I1
(I2
tp1526
g36
I00
S'\x9f\x00\x00\x00\x85\x00\x00\x00'
p1527
tp1528
bsba(i__main__
FrameData
p1529
(dp1530
g6
g885
sg8
g9
(g13
S'\xc9\xe0>!B<3@'
p1531
tp1532
Rp1533
sg19
I0
sg20
g21
(S'\x07\xdd\t\x1d\x13\r\x0b\x0e\xd6\xc4'
p1534
tp1535
Rp1536
sg25
I0
sg26
g27
(g28
(I0
tp1537
g30
tp1538
Rp1539
(I1
(I2
tp1540
g36
I00
S'\x9e\x00\x00\x00\x83\x00\x00\x00'
p1541
tp1542
bsba(i__main__
FrameData
p1543
(dp1544
g6
g885
sg8
g9
(g13
S'u\x85\x18\x11\xe0\x992@'
p1545
tp1546
Rp1547
sg19
I0
sg20
g21
(S'\x07\xdd\t\x1d\x13\r\x0b\x0f$\xb7'
p1548
tp1549
Rp1550
sg25
I0
sg26
g27
(g28
(I0
tp1551
g30
tp1552
Rp1553
(I1
(I2
tp1554
g36
I00
S'\x9c\x00\x00\x00\x81\x00\x00\x00'
p1555
tp1556
bsba(i__main__
FrameData
p1557
(dp1558
g6
S'h'
p1559
sg8
g9
(g13
S'\xd5?\x80N\xf3\xcd1@'
p1560
tp1561
Rp1562
sg19
I0
sg20
g21
(S'\x07\xdd\t\x1d\x13\r\x0c\x000\x84'
p1563
tp1564
Rp1565
sg25
I0
sg26
g27
(g28
(I0
tp1566
g30
tp1567
Rp1568
(I1
(I2
tp1569
g36
I00
S'\x9b\x00\x00\x00\x80\x00\x00\x00'
p1570
tp1571
bsba(i__main__
FrameData
p1572
(dp1573
g6
g1559
sg8
g9
(g13
S'\x0f\xab\xa8Q\xb6f0@'
p1574
tp1575
Rp1576
sg19
I0
sg20
g21
(S'\x07\xdd\t\x1d\x13\r\x0c\x00Q\xbe'
p1577
tp1578
Rp1579
sg25
I0
sg26
g27
(g28
(I0
tp1580
g30
tp1581
Rp1582
(I1
(I2
tp1583
g36
I00
S'\x9a\x00\x00\x00\x7f\x00\x00\x00'
p1584
tp1585
bsba(i__main__
FrameData
p1586
(dp1587
g6
g1559
sg8
g9
(g13
S'\x00\xff\x9f\x99\xcc\x9c)@'
p1588
tp1589
Rp1590
sg19
I0
sg20
g21
(S'\x07\xdd\t\x1d\x13\r\x0c\x00\x9c#'
p1591
tp1592
Rp1593
sg25
I0
sg26
g27
(g28
(I0
tp1594
g30
tp1595
Rp1596
(I1
(I2
tp1597
g36
I00
S'\x98\x00\x00\x00|\x00\x00\x00'
p1598
tp1599
bsba(i__main__
FrameData
p1600
(dp1601
g6
g1559
sg8
g9
(g13
S'6\xd0\xd2x\xa2B%@'
p1602
tp1603
Rp1604
sg19
I0
sg20
g21
(S'\x07\xdd\t\x1d\x13\r\x0c\x00\xe9\x8c'
p1605
tp1606
Rp1607
sg25
I0
sg26
g27
(g28
(I0
tp1608
g30
tp1609
Rp1610
(I1
(I2
tp1611
g36
I00
S'\x97\x00\x00\x00z\x00\x00\x00'
p1612
tp1613
bsba(i__main__
FrameData
p1614
(dp1615
g6
g1559
sg8
g9
(g13
S'\x00\x00\x00\x00\x00\x00\x14@'
p1616
tp1617
Rp1618
sg19
I0
sg20
g21
(S'\x07\xdd\t\x1d\x13\r\x0c\x01\x12+'
p1619
tp1620
Rp1621
sg25
I0
sg26
g27
(g28
(I0
tp1622
g30
tp1623
Rp1624
(I1
(I2
tp1625
g36
I00
S'\x94\x00\x00\x00u\x00\x00\x00'
p1626
tp1627
bsba(i__main__
FrameData
p1628
(dp1629
g6
g1559
sg8
g9
(g13
S'\xa8\xf4\x97\x9bw\xe3\x01@'
p1630
tp1631
Rp1632
sg19
I0
sg20
g21
(S'\x07\xdd\t\x1d\x13\r\x0c\x01_\xa5'
p1633
tp1634
Rp1635
sg25
I0
sg26
g27
(g28
(I0
tp1636
g30
tp1637
Rp1638
(I1
(I2
tp1639
g36
I00
S'\x91\x00\x00\x00p\x00\x00\x00'
p1640
tp1641
bsba(i__main__
FrameData
p1642
(dp1643
g6
g1559
sg8
g9
(g13
S'7\xf9\xcf\xdao\xe1$@'
p1644
tp1645
Rp1646
sg19
I0
sg20
g21
(S'\x07\xdd\t\x1d\x13\r\x0c\x01\xad\xa0'
p1647
tp1648
Rp1649
sg25
I0
sg26
g27
(g28
(I0
tp1650
g30
tp1651
Rp1652
(I1
(I2
tp1653
g36
I00
S'\x8d\x00\x00\x00h\x00\x00\x00'
p1654
tp1655
bsba(i__main__
FrameData
p1656
(dp1657
g6
g1559
sg8
g9
(g13
S'\xef\rI\xf1\xf33+@'
p1658
tp1659
Rp1660
sg19
I0
sg20
g21
(S'\x07\xdd\t\x1d\x13\r\x0c\x01\xea\xa0'
p1661
tp1662
Rp1663
sg25
I0
sg26
g27
(g28
(I0
tp1664
g30
tp1665
Rp1666
(I1
(I2
tp1667
g36
I00
S'\x8c\x00\x00\x00e\x00\x00\x00'
p1668
tp1669
bsba(i__main__
FrameData
p1670
(dp1671
g6
g1559
sg8
g9
(g13
S'8\xd8\xbc\n\x1b\x072@'
p1672
tp1673
Rp1674
sg19
I0
sg20
g21
(S'\x07\xdd\t\x1d\x13\r\x0c\x02"i'
p1675
tp1676
Rp1677
sg25
I0
sg26
g27
(g28
(I0
tp1678
g30
tp1679
Rp1680
(I1
(I2
tp1681
g36
I00
S'\x8a\x00\x00\x00a\x00\x00\x00'
p1682
tp1683
bsba(i__main__
FrameData
p1684
(dp1685
g6
S'y'
p1686
sg8
g9
(g13
S'~\xc4#,B\xf92@'
p1687
tp1688
Rp1689
sg19
I0
sg20
g21
(S'\x07\xdd\t\x1d\x13\r\x0c\x02_\xa8'
p1690
tp1691
Rp1692
sg25
I0
sg26
g27
(g28
(I0
tp1693
g30
tp1694
Rp1695
(I1
(I2
tp1696
g36
I00
S'\x88\x00\x00\x00_\x00\x00\x00'
p1697
tp1698
bsba(i__main__
FrameData
p1699
(dp1700
g6
g1686
sg8
g9
(g13
S'\xa0\x96\xf4\xe0T\xb81@'
p1701
tp1702
Rp1703
sg19
I0
sg20
g21
(S'\x07\xdd\t\x1d\x13\r\x0c\x02\xbf"'
p1704
tp1705
Rp1706
sg25
I0
sg26
g27
(g28
(I0
tp1707
g30
tp1708
Rp1709
(I1
(I2
tp1710
g36
I00
S'\x87\x00\x00\x00^\x00\x00\x00'
p1711
tp1712
bsba(i__main__
FrameData
p1713
(dp1714
g6
g1686
sg8
g9
(g13
S'\x07\xed\xaff\x0f~0@'
p1715
tp1716
Rp1717
sg19
I0
sg20
g21
(S'\x07\xdd\t\x1d\x13\r\x0c\x02\xe6['
p1718
tp1719
Rp1720
sg25
I0
sg26
g27
(g28
(I0
tp1721
g30
tp1722
Rp1723
(I1
(I2
tp1724
g36
I00
S'\x86\x00\x00\x00]\x00\x00\x00'
p1725
tp1726
bsba(i__main__
FrameData
p1727
(dp1728
g6
g1686
sg8
g9
(g13
S'\xe9\xfbv \xd5\x1e-@'
p1729
tp1730
Rp1731
sg19
I0
sg20
g21
(S'\x07\xdd\t\x1d\x13\r\x0c\x03]\x91'
p1732
tp1733
Rp1734
sg25
I0
sg26
g27
(g28
(I0
tp1735
g30
tp1736
Rp1737
(I1
(I2
tp1738
g36
I00
S'\x86\x00\x00\x00[\x00\x00\x00'
p1739
tp1740
bsba(i__main__
FrameData
p1741
(dp1742
g6
g1686
sg8
g9
(g13
S'8H\x9b\x97\xee\xae*@'
p1743
tp1744
Rp1745
sg19
I0
sg20
g21
(S'\x07\xdd\t\x1d\x13\r\x0c\x03\xa0\xca'
p1746
tp1747
Rp1748
sg25
I0
sg26
g27
(g28
(I0
tp1749
g30
tp1750
Rp1751
(I1
(I2
tp1752
g36
I00
S'\x85\x00\x00\x00Z\x00\x00\x00'
p1753
tp1754
bsba(i__main__
FrameData
p1755
(dp1756
g6
g1686
sg8
g9
(g13
S'\x8a\xe3\x07\x1a\x17\xbd(@'
p1757
tp1758
Rp1759
sg19
I0
sg20
g21
(S'\x07\xdd\t\x1d\x13\r\x0c\x03\xe0@'
p1760
tp1761
Rp1762
sg25
I0
sg26
g27
(g28
(I0
tp1763
g30
tp1764
Rp1765
(I1
(I2
tp1766
g36
I00
S'\x85\x00\x00\x00Y\x00\x00\x00'
p1767
tp1768
bsba(i__main__
FrameData
p1769
(dp1770
g6
g1686
sg8
g9
(g13
S'&5w\xe2K\x15(@'
p1771
tp1772
Rp1773
sg19
I0
sg20
g21
(S'\x07\xdd\t\x1d\x13\r\x0c\x04E\xc4'
p1774
tp1775
Rp1776
sg25
I0
sg26
g27
(g28
(I0
tp1777
g30
tp1778
Rp1779
(I1
(I2
tp1780
g36
I00
S'\x83\x00\x00\x00Y\x00\x00\x00'
p1781
tp1782
bsba(i__main__
FrameData
p1783
(dp1784
g6
g1686
sg8
g9
(g13
S'\x00\x00\x00\x00\x00\x00&@'
p1785
tp1786
Rp1787
sg19
I0
sg20
g21
(S'\x07\xdd\t\x1d\x13\r\x0c\x04\xf1\x01'
p1788
tp1789
Rp1790
sg25
I0
sg26
g27
(g28
(I0
tp1791
g30
tp1792
Rp1793
(I1
(I2
tp1794
g36
I00
S'\x82\x00\x00\x00X\x00\x00\x00'
p1795
tp1796
bsba(i__main__
FrameData
p1797
(dp1798
g6
g1686
sg8
g9
(g13
S'H\xaa*\x8f9\x17&@'
p1799
tp1800
Rp1801
sg19
I0
sg20
g21
(S'\x07\xdd\t\x1d\x13\r\x0c\x051\x8f'
p1802
tp1803
Rp1804
sg25
I0
sg26
g27
(g28
(I0
tp1805
g30
tp1806
Rp1807
(I1
(I2
tp1808
g36
I00
S'\x81\x00\x00\x00X\x00\x00\x00'
p1809
tp1810
bsba(i__main__
FrameData
p1811
(dp1812
g6
g1686
sg8
g9
(g13
S'$\xf8\xd9p[\x1c"@'
p1813
tp1814
Rp1815
sg19
I0
sg20
g21
(S'\x07\xdd\t\x1d\x13\r\x0c\x05~H'
p1816
tp1817
Rp1818
sg25
I0
sg26
g27
(g28
(I0
tp1819
g30
tp1820
Rp1821
(I1
(I2
tp1822
g36
I00
S'\x81\x00\x00\x00V\x00\x00\x00'
p1823
tp1824
bsba(i__main__
FrameData
p1825
(dp1826
g6
g1686
sg8
g9
(g13
S'\xa3\x14\xae\xa8\x87\x16!@'
p1827
tp1828
Rp1829
sg19
I0
sg20
g21
(S'\x07\xdd\t\x1d\x13\r\x0c\x05\xccj'
p1830
tp1831
Rp1832
sg25
I0
sg26
g27
(g28
(I0
tp1833
g30
tp1834
Rp1835
(I1
(I2
tp1836
g36
I00
S'\x7f\x00\x00\x00U\x00\x00\x00'
p1837
tp1838
bsba(i__main__
FrameData
p1839
(dp1840
g6
g1686
sg8
g9
(g13
S'\xfc\xeeci3\xd5\x1a@'
p1841
tp1842
Rp1843
sg19
I0
sg20
g21
(S'\x07\xdd\t\x1d\x13\r\x0c\x05\xf3\x8e'
p1844
tp1845
Rp1846
sg25
I0
sg26
g27
(g28
(I0
tp1847
g30
tp1848
Rp1849
(I1
(I2
tp1850
g36
I00
S'\x7f\x00\x00\x00S\x00\x00\x00'
p1851
tp1852
bsba(i__main__
FrameData
p1853
(dp1854
g6
g1686
sg8
g9
(g13
S'\x00\xff\x9f\x99\xcc\x9c\x19@'
p1855
tp1856
Rp1857
sg19
I0
sg20
g21
(S'\x07\xdd\t\x1d\x13\r\x0c\x06A\xa3'
p1858
tp1859
Rp1860
sg25
I0
sg26
g27
(g28
(I0
tp1861
g30
tp1862
Rp1863
(I1
(I2
tp1864
g36
I00
S'}\x00\x00\x00Q\x00\x00\x00'
p1865
tp1866
bsba(i__main__
FrameData
p1867
(dp1868
g6
g1686
sg8
g9
(g13
S'S[\xda:XL\x19@'
p1869
tp1870
Rp1871
sg19
I0
sg20
g21
(S'\x07\xdd\t\x1d\x13\r\x0c\x06\x8f\xca'
p1872
tp1873
Rp1874
sg25
I0
sg26
g27
(g28
(I0
tp1875
g30
tp1876
Rp1877
(I1
(I2
tp1878
g36
I00
S'|\x00\x00\x00O\x00\x00\x00'
p1879
tp1880
bsba(i__main__
FrameData
p1881
(dp1882
g6
g1686
sg8
g9
(g13
S'\x00\x00\x00\x00\x00\x00\x1c@'
p1883
tp1884
Rp1885
sg19
I0
sg20
g21
(S'\x07\xdd\t\x1d\x13\r\x0c\x06\xaf\xc5'
p1886
tp1887
Rp1888
sg25
I0
sg26
g27
(g28
(I0
tp1889
g30
tp1890
Rp1891
(I1
(I2
tp1892
g36
I00
S'{\x00\x00\x00M\x00\x00\x00'
p1893
tp1894
bsba(i__main__
FrameData
p1895
(dp1896
g6
g1686
sg8
g9
(g13
S'\xd0\xbaa?\xe0\x1f @'
p1897
tp1898
Rp1899
sg19
I0
sg20
g21
(S'\x07\xdd\t\x1d\x13\r\x0c\x07\x04\xe3'
p1900
tp1901
Rp1902
sg25
I0
sg26
g27
(g28
(I0
tp1903
g30
tp1904
Rp1905
(I1
(I2
tp1906
g36
I00
S'z\x00\x00\x00L\x00\x00\x00'
p1907
tp1908
bsba(i__main__
FrameData
p1909
(dp1910
g6
g1686
sg8
g9
(g13
S'\x07\xed\xaff\x0f~ @'
p1911
tp1912
Rp1913
sg19
I0
sg20
g21
(S'\x07\xdd\t\x1d\x13\r\x0c\x07R\xf7'
p1914
tp1915
Rp1916
sg25
I0
sg26
g27
(g28
(I0
tp1917
g30
tp1918
Rp1919
(I1
(I2
tp1920
g36
I00
S'z\x00\x00\x00K\x00\x00\x00'
p1921
tp1922
bsba(i__main__
FrameData
p1923
(dp1924
g6
g1686
sg8
g9
(g13
S'\x9a.\x90!hp"@'
p1925
tp1926
Rp1927
sg19
I0
sg20
g21
(S'\x07\xdd\t\x1d\x13\r\x0c\x07z('
p1928
tp1929
Rp1930
sg25
I0
sg26
g27
(g28
(I0
tp1931
g30
tp1932
Rp1933
(I1
(I2
tp1934
g36
I00
S'y\x00\x00\x00K\x00\x00\x00'
p1935
tp1936
bsba(i__main__
FrameData
p1937
(dp1938
g6
g1686
sg8
g9
(g13
S'bVc}\x9d\xb2#@'
p1939
tp1940
Rp1941
sg19
I0
sg20
g21
(S'\x07\xdd\t\x1d\x13\r\x0c\x07\xc8c'
p1942
tp1943
Rp1944
sg25
I0
sg26
g27
(g28
(I0
tp1945
g30
tp1946
Rp1947
(I1
(I2
tp1948
g36
I00
S'y\x00\x00\x00I\x00\x00\x00'
p1949
tp1950
bsba(i__main__
FrameData
p1951
(dp1952
g6
g1686
sg8
g9
(g13
S"\xe0\x11<m\xceh'@"
p1953
tp1954
Rp1955
sg19
I0
sg20
g21
(S'\x07\xdd\t\x1d\x13\r\x0c\x08>Z'
p1956
tp1957
Rp1958
sg25
I0
sg26
g27
(g28
(I0
tp1959
g30
tp1960
Rp1961
(I1
(I2
tp1962
g36
I00
S'w\x00\x00\x00I\x00\x00\x00'
p1963
tp1964
bsba(i__main__
FrameData
p1965
(dp1966
g6
S't'
p1967
sg8
g9
(g13
S'9\xdcc\xb3\xbfT(@'
p1968
tp1969
Rp1970
sg19
I0
sg20
g21
(S'\x07\xdd\t\x1d\x13\r\x0c\x08\x83\xf5'
p1971
tp1972
Rp1973
sg25
I0
sg26
g27
(g28
(I0
tp1974
g30
tp1975
Rp1976
(I1
(I2
tp1977
g36
I00
S'v\x00\x00\x00I\x00\x00\x00'
p1978
tp1979
bsba(i__main__
FrameData
p1980
(dp1981
g6
g1967
sg8
g9
(g13
S'\xf6/\x12_ee$@'
p1982
tp1983
Rp1984
sg19
I0
sg20
g21
(S'\x07\xdd\t\x1d\x13\r\x0c\x08\xff\xb4'
p1985
tp1986
Rp1987
sg25
I0
sg26
g27
(g28
(I0
tp1988
g30
tp1989
Rp1990
(I1
(I2
tp1991
g36
I00
S't\x00\x00\x00I\x00\x00\x00'
p1992
tp1993
bsba(i__main__
FrameData
p1994
(dp1995
g6
g1967
sg8
g9
(g13
S'\x9a.\x90!hp"@'
p1996
tp1997
Rp1998
sg19
I0
sg20
g21
(S'\x07\xdd\t\x1d\x13\r\x0c\t\xbd\x1c'
p1999
tp2000
Rp2001
sg25
I0
sg26
g27
(g28
(I0
tp2002
g30
tp2003
Rp2004
(I1
(I2
tp2005
g36
I00
S's\x00\x00\x00I\x00\x00\x00'
p2006
tp2007
bsba(i__main__
FrameData
p2008
(dp2009
g6
g1967
sg8
g9
(g13
S'\xe9\xfbv \xd5\x1e\x1d@'
p2010
tp2011
Rp2012
sg19
I0
sg20
g21
(S'\x07\xdd\t\x1d\x13\r\x0c\n`\x1c'
p2013
tp2014
Rp2015
sg25
I0
sg26
g27
(g28
(I0
tp2016
g30
tp2017
Rp2018
(I1
(I2
tp2019
g36
I00
S'q\x00\x00\x00I\x00\x00\x00'
p2020
tp2021
bsba(i__main__
FrameData
p2022
(dp2023
g6
g1967
sg8
g9
(g13
S'S[\xda:XL\x19@'
p2024
tp2025
Rp2026
sg19
I0
sg20
g21
(S'\x07\xdd\t\x1d\x13\r\x0c\n\x87u'
p2027
tp2028
Rp2029
sg25
I0
sg26
g27
(g28
(I0
tp2030
g30
tp2031
Rp2032
(I1
(I2
tp2033
g36
I00
S'p\x00\x00\x00I\x00\x00\x00'
p2034
tp2035
bsba(i__main__
FrameData
p2036
(dp2037
g6
g1967
sg8
g9
(g13
S'\xf3\xd9\xa8\xa4h\x8a\x15@'
p2038
tp2039
Rp2040
sg19
I0
sg20
g21
(S'\x07\xdd\t\x1d\x13\r\x0c\x0b"n'
p2041
tp2042
Rp2043
sg25
I0
sg26
g27
(g28
(I0
tp2044
g30
tp2045
Rp2046
(I1
(I2
tp2047
g36
I00
S'o\x00\x00\x00I\x00\x00\x00'
p2048
tp2049
bsba(i__main__
FrameData
p2050
(dp2051
g6
g1967
sg8
g9
(g13
S'\xa8\xf4\x97\x9bw\xe3\x11@'
p2052
tp2053
Rp2054
sg19
I0
sg20
g21
(S'\x07\xdd\t\x1d\x13\r\x0c\x0bD\xa1'
p2055
tp2056
Rp2057
sg25
I0
sg26
g27
(g28
(I0
tp2058
g30
tp2059
Rp2060
(I1
(I2
tp2061
g36
I00
S'n\x00\x00\x00I\x00\x00\x00'
p2062
tp2063
bsba(i__main__
FrameData
p2064
(dp2065
g6
g1967
sg8
g9
(g13
S'\xf3YaD+\xd8\x0c@'
p2066
tp2067
Rp2068
sg19
I0
sg20
g21
(S'\x07\xdd\t\x1d\x13\r\x0c\x0b\x87z'
p2069
tp2070
Rp2071
sg25
I0
sg26
g27
(g28
(I0
tp2072
g30
tp2073
Rp2074
(I1
(I2
tp2075
g36
I00
S'm\x00\x00\x00I\x00\x00\x00'
p2076
tp2077
bsba(i__main__
FrameData
p2078
(dp2079
g6
g1967
sg8
g9
(g13
S'\xcd;\x7ff\x9e\xa0\x06@'
p2080
tp2081
Rp2082
sg19
I0
sg20
g21
(S'\x07\xdd\t\x1d\x13\r\x0c\x0c\x07\xa3'
p2083
tp2084
Rp2085
sg25
I0
sg26
g27
(g28
(I0
tp2086
g30
tp2087
Rp2088
(I1
(I2
tp2089
g36
I00
S'l\x00\x00\x00I\x00\x00\x00'
p2090
tp2091
bsba(i__main__
FrameData
p2092
(dp2093
g6
g1967
sg8
g9
(g13
S'\xa8\xf4\x97\x9bw\xe3\x01@'
p2094
tp2095
Rp2096
sg19
I0
sg20
g21
(S'\x07\xdd\t\x1d\x13\r\x0c\x0cKk'
p2097
tp2098
Rp2099
sg25
I0
sg26
g27
(g28
(I0
tp2100
g30
tp2101
Rp2102
(I1
(I2
tp2103
g36
I00
S'k\x00\x00\x00I\x00\x00\x00'
p2104
tp2105
bsba(i__main__
FrameData
p2106
(dp2107
g6
g1967
sg8
g9
(g13
S'\x00\x00\x00\x00\x00\x00\x00@'
p2108
tp2109
Rp2110
sg19
I0
sg20
g21
(S'\x07\xdd\t\x1d\x13\r\x0c\x0c\xcba'
p2111
tp2112
Rp2113
sg25
I0
sg26
g27
(g28
(I0
tp2114
g30
tp2115
Rp2116
(I1
(I2
tp2117
g36
I00
S'j\x00\x00\x00I\x00\x00\x00'
p2118
tp2119
bsba(i__main__
FrameData
p2120
(dp2121
g6
g1967
sg8
g9
(g13
S'\xa8\xf4\x97\x9bw\xe3\x01@'
p2122
tp2123
Rp2124
sg19
I0
sg20
g21
(S'\x07\xdd\t\x1d\x13\r\r\x01\xa0?'
p2125
tp2126
Rp2127
sg25
I0
sg26
g27
(g28
(I0
tp2128
g30
tp2129
Rp2130
(I1
(I2
tp2131
g36
I00
S'k\x00\x00\x00I\x00\x00\x00'
p2132
tp2133
bsba(i__main__
FrameData
p2134
(dp2135
g6
g1967
sg8
g9
(g13
S'\xcd;\x7ff\x9e\xa0\x06@'
p2136
tp2137
Rp2138
sg19
I0
sg20
g21
(S'\x07\xdd\t\x1d\x13\r\r\x02*\x9c'
p2139
tp2140
Rp2141
sg25
I0
sg26
g27
(g28
(I0
tp2142
g30
tp2143
Rp2144
(I1
(I2
tp2145
g36
I00
S'l\x00\x00\x00I\x00\x00\x00'
p2146
tp2147
bsba(i__main__
FrameData
p2148
(dp2149
g6
g1967
sg8
g9
(g13
S'\xf3YaD+\xd8\x0c@'
p2150
tp2151
Rp2152
sg19
I0
sg20
g21
(S'\x07\xdd\t\x1d\x13\r\r\x02\xaa\xb6'
p2153
tp2154
Rp2155
sg25
I0
sg26
g27
(g28
(I0
tp2156
g30
tp2157
Rp2158
(I1
(I2
tp2159
g36
I00
S'm\x00\x00\x00I\x00\x00\x00'
p2160
tp2161
bsba(i__main__
FrameData
p2162
(dp2163
g6
g1967
sg8
g9
(g13
S'\xa8\xf4\x97\x9bw\xe3\x11@'
p2164
tp2165
Rp2166
sg19
I0
sg20
g21
(S'\x07\xdd\t\x1d\x13\r\r\x03k8'
p2167
tp2168
Rp2169
sg25
I0
sg26
g27
(g28
(I0
tp2170
g30
tp2171
Rp2172
(I1
(I2
tp2173
g36
I00
S'n\x00\x00\x00I\x00\x00\x00'
p2174
tp2175
bsba(i__main__
FrameData
p2176
(dp2177
g6
g1967
sg8
g9
(g13
S'\xf3\xd9\xa8\xa4h\x8a\x15@'
p2178
tp2179
Rp2180
sg19
I0
sg20
g21
(S'\x07\xdd\t\x1d\x13\r\r\x03\xeb\xfd'
p2181
tp2182
Rp2183
sg25
I0
sg26
g27
(g28
(I0
tp2184
g30
tp2185
Rp2186
(I1
(I2
tp2187
g36
I00
S'o\x00\x00\x00I\x00\x00\x00'
p2188
tp2189
bsba(i__main__
FrameData
p2190
(dp2191
g6
g1967
sg8
g9
(g13
S'S[\xda:XL\x19@'
p2192
tp2193
Rp2194
sg19
I0
sg20
g21
(S'\x07\xdd\t\x1d\x13\r\r\x04\xaf\xbd'
p2195
tp2196
Rp2197
sg25
I0
sg26
g27
(g28
(I0
tp2198
g30
tp2199
Rp2200
(I1
(I2
tp2201
g36
I00
S'p\x00\x00\x00I\x00\x00\x00'
p2202
tp2203
bsba(i__main__
FrameData
p2204
(dp2205
g6
g1967
sg8
g9
(g13
S'\xe9\xfbv \xd5\x1e\x1d@'
p2206
tp2207
Rp2208
sg19
I0
sg20
g21
(S'\x07\xdd\t\x1d\x13\r\r\x05q5'
p2209
tp2210
Rp2211
sg25
I0
sg26
g27
(g28
(I0
tp2212
g30
tp2213
Rp2214
(I1
(I2
tp2215
g36
I00
S'q\x00\x00\x00I\x00\x00\x00'
p2216
tp2217
bsba(i__main__
FrameData
p2218
(dp2219
g6
g1967
sg8
g9
(g13
S'\x07\xed\xaff\x0f~ @'
p2220
tp2221
Rp2222
sg19
I0
sg20
g21
(S'\x07\xdd\t\x1d\x13\r\r\x06\xb6E'
p2223
tp2224
Rp2225
sg25
I0
sg26
g27
(g28
(I0
tp2226
g30
tp2227
Rp2228
(I1
(I2
tp2229
g36
I00
S'r\x00\x00\x00I\x00\x00\x00'
p2230
tp2231
bsba(i__main__
FrameData
p2232
(dp2233
g6
g1967
sg8
g9
(g13
S'\x9a.\x90!hp"@'
p2234
tp2235
Rp2236
sg19
I0
sg20
g21
(S'\x07\xdd\t\x1d\x13\r\r\x06\xfb\x8a'
p2237
tp2238
Rp2239
sg25
I0
sg26
g27
(g28
(I0
tp2240
g30
tp2241
Rp2242
(I1
(I2
tp2243
g36
I00
S's\x00\x00\x00I\x00\x00\x00'
p2244
tp2245
bsba(i__main__
FrameData
p2246
(dp2247
g6
g1967
sg8
g9
(g13
S'\xf6/\x12_ee$@'
p2248
tp2249
Rp2250
sg19
I0
sg20
g21
(S'\x07\xdd\t\x1d\x13\r\r\x07z\x80'
p2251
tp2252
Rp2253
sg25
I0
sg26
g27
(g28
(I0
tp2254
g30
tp2255
Rp2256
(I1
(I2
tp2257
g36
I00
S't\x00\x00\x00I\x00\x00\x00'
p2258
tp2259
bsba(i__main__
FrameData
p2260
(dp2261
g6
g1967
sg8
g9
(g13
S'\xd2\xf1}\x82U\\&@'
p2262
tp2263
Rp2264
sg19
I0
sg20
g21
(S'\x07\xdd\t\x1d\x13\r\r\x07\xbf{'
p2265
tp2266
Rp2267
sg25
I0
sg26
g27
(g28
(I0
tp2268
g30
tp2269
Rp2270
(I1
(I2
tp2271
g36
I00
S'u\x00\x00\x00I\x00\x00\x00'
p2272
tp2273
bsba(i__main__
FrameData
p2274
(dp2275
g6
g1967
sg8
g9
(g13
S'9\xdcc\xb3\xbfT(@'
p2276
tp2277
Rp2278
sg19
I0
sg20
g21
(S'\x07\xdd\t\x1d\x13\r\r\x08\x04\x88'
p2279
tp2280
Rp2281
sg25
I0
sg26
g27
(g28
(I0
tp2282
g30
tp2283
Rp2284
(I1
(I2
tp2285
g36
I00
S'v\x00\x00\x00I\x00\x00\x00'
p2286
tp2287
bsba(i__main__
FrameData
p2288
(dp2289
g6
g1686
sg8
g9
(g13
S"\xe0\x11<m\xceh'@"
p2290
tp2291
Rp2292
sg19
I0
sg20
g21
(S'\x07\xdd\t\x1d\x13\r\r\x08=\xef'
p2293
tp2294
Rp2295
sg25
I0
sg26
g27
(g28
(I0
tp2296
g30
tp2297
Rp2298
(I1
(I2
tp2299
g36
I00
S'w\x00\x00\x00I\x00\x00\x00'
p2300
tp2301
bsba(i__main__
FrameData
p2302
(dp2303
g6
g1686
sg8
g9
(g13
S'\xf3\xd9\xa8\xa4h\x8a%@'
p2304
tp2305
Rp2306
sg19
I0
sg20
g21
(S'\x07\xdd\t\x1d\x13\r\r\x08\x83V'
p2307
tp2308
Rp2309
sg25
I0
sg26
g27
(g28
(I0
tp2310
g30
tp2311
Rp2312
(I1
(I2
tp2313
g36
I00
S'x\x00\x00\x00I\x00\x00\x00'
p2314
tp2315
bsba(i__main__
FrameData
p2316
(dp2317
g6
g1686
sg8
g9
(g13
S'bVc}\x9d\xb2#@'
p2318
tp2319
Rp2320
sg19
I0
sg20
g21
(S'\x07\xdd\t\x1d\x13\r\r\x08\xc8v'
p2321
tp2322
Rp2323
sg25
I0
sg26
g27
(g28
(I0
tp2324
g30
tp2325
Rp2326
(I1
(I2
tp2327
g36
I00
S'y\x00\x00\x00I\x00\x00\x00'
p2328
tp2329
bsba(i__main__
FrameData
p2330
(dp2331
g6
g1686
sg8
g9
(g13
S'\xa8\xf4\x97\x9bw\xe3!@'
p2332
tp2333
Rp2334
sg19
I0
sg20
g21
(S'\x07\xdd\t\x1d\x13\r\r\t\x01\x97'
p2335
tp2336
Rp2337
sg25
I0
sg26
g27
(g28
(I0
tp2338
g30
tp2339
Rp2340
(I1
(I2
tp2341
g36
I00
S'z\x00\x00\x00I\x00\x00\x00'
p2342
tp2343
bsba(i__main__
FrameData
p2344
(dp2345
g6
g1686
sg8
g9
(g13
S'\xd0\xbaa?\xe0\x1f @'
p2346
tp2347
Rp2348
sg19
I0
sg20
g21
(S'\x07\xdd\t\x1d\x13\r\r\t\x84^'
p2349
tp2350
Rp2351
sg25
I0
sg26
g27
(g28
(I0
tp2352
g30
tp2353
Rp2354
(I1
(I2
tp2355
g36
I00
S'{\x00\x00\x00I\x00\x00\x00'
p2356
tp2357
bsba(i__main__
FrameData
p2358
(dp2359
g6
g1686
sg8
g9
(g13
S'\xf3YaD+\xd8\x1c@'
p2360
tp2361
Rp2362
sg19
I0
sg20
g21
(S'\x07\xdd\t\x1d\x13\r\r\t\xc5\xcd'
p2363
tp2364
Rp2365
sg25
I0
sg26
g27
(g28
(I0
tp2366
g30
tp2367
Rp2368
(I1
(I2
tp2369
g36
I00
S'|\x00\x00\x00I\x00\x00\x00'
p2370
tp2371
bsba(i__main__
FrameData
p2372
(dp2373
g6
g1686
sg8
g9
(g13
S'\x00\xff\x9f\x99\xcc\x9c\x19@'
p2374
tp2375
Rp2376
sg19
I0
sg20
g21
(S'\x07\xdd\t\x1d\x13\r\r\n\x0b\x01'
p2377
tp2378
Rp2379
sg25
I0
sg26
g27
(g28
(I0
tp2380
g30
tp2381
Rp2382
(I1
(I2
tp2383
g36
I00
S'}\x00\x00\x00I\x00\x00\x00'
p2384
tp2385
bsba(i__main__
FrameData
p2386
(dp2387
g6
g1686
sg8
g9
(g13
S'\x00\xff\x9f\x99\xcc\x9c\x19@'
p2388
tp2389
Rp2390
sg19
I0
sg20
g21
(S'\x07\xdd\t\x1d\x13\r\r\nG\xe5'
p2391
tp2392
Rp2393
sg25
I0
sg26
g27
(g28
(I0
tp2394
g30
tp2395
Rp2396
(I1
(I2
tp2397
g36
I00
S'~\x00\x00\x00H\x00\x00\x00'
p2398
tp2399
bsba(i__main__
FrameData
p2400
(dp2401
g6
g1686
sg8
g9
(g13
S'\xa2\xa3\xb3\r\xe5R\x17@'
p2402
tp2403
Rp2404
sg19
I0
sg20
g21
(S'\x07\xdd\t\x1d\x13\r\r\n\xcf\x04'
p2405
tp2406
Rp2407
sg25
I0
sg26
g27
(g28
(I0
tp2408
g30
tp2409
Rp2410
(I1
(I2
tp2411
g36
I00
S'\x7f\x00\x00\x00H\x00\x00\x00'
p2412
tp2413
bsba(i__main__
FrameData
p2414
(dp2415
g6
g1686
sg8
g9
(g13
S'\xf3\xd9\xa8\xa4h\x8a\x15@'
p2416
tp2417
Rp2418
sg19
I0
sg20
g21
(S'\x07\xdd\t\x1d\x13\r\r\x0b\x13\xfa'
p2419
tp2420
Rp2421
sg25
I0
sg26
g27
(g28
(I0
tp2422
g30
tp2423
Rp2424
(I1
(I2
tp2425
g36
I00
S'\x80\x00\x00\x00H\x00\x00\x00'
p2426
tp2427
bsba(i__main__
FrameData
p2428
(dp2429
g6
g1686
sg8
g9
(g13
S'\xf6/\x12_ee\x14@'
p2430
tp2431
Rp2432
sg19
I0
sg20
g21
(S'\x07\xdd\t\x1d\x13\r\r\x0bL$'
p2433
tp2434
Rp2435
sg25
I0
sg26
g27
(g28
(I0
tp2436
g30
tp2437
Rp2438
(I1
(I2
tp2439
g36
I00
S'\x81\x00\x00\x00H\x00\x00\x00'
p2440
tp2441
bsba(i__main__
FrameData
p2442
(dp2443
g6
g1686
sg8
g9
(g13
S'\x00\x00\x00\x00\x00\x00\x14@'
p2444
tp2445
Rp2446
sg19
I0
sg20
g21
(S'\x07\xdd\t\x1d\x13\r\r\x0b\x92\x8c'
p2447
tp2448
Rp2449
sg25
I0
sg26
g27
(g28
(I0
tp2450
g30
tp2451
Rp2452
(I1
(I2
tp2453
g36
I00
S'\x82\x00\x00\x00H\x00\x00\x00'
p2454
tp2455
bsba(i__main__
FrameData
p2456
(dp2457
g6
g1686
sg8
g9
(g13
S'\xf6/\x12_ee\x14@'
p2458
tp2459
Rp2460
sg19
I0
sg20
g21
(S'\x07\xdd\t\x1d\x13\r\r\x0b\xcf\x8c'
p2461
tp2462
Rp2463
sg25
I0
sg26
g27
(g28
(I0
tp2464
g30
tp2465
Rp2466
(I1
(I2
tp2467
g36
I00
S'\x83\x00\x00\x00H\x00\x00\x00'
p2468
tp2469
bsba(i__main__
FrameData
p2470
(dp2471
g6
g1686
sg8
g9
(g13
S'\xf3\xd9\xa8\xa4h\x8a\x15@'
p2472
tp2473
Rp2474
sg19
I0
sg20
g21
(S'\x07\xdd\t\x1d\x13\r\r\x0c\x126'
p2475
tp2476
Rp2477
sg25
I0
sg26
g27
(g28
(I0
tp2478
g30
tp2479
Rp2480
(I1
(I2
tp2481
g36
I00
S'\x84\x00\x00\x00H\x00\x00\x00'
p2482
tp2483
bsba(i__main__
FrameData
p2484
(dp2485
g6
g1686
sg8
g9
(g13
S'\xa2\xa3\xb3\r\xe5R\x17@'
p2486
tp2487
Rp2488
sg19
I0
sg20
g21
(S'\x07\xdd\t\x1d\x13\r\r\x0c\x98\xc6'
p2489
tp2490
Rp2491
sg25
I0
sg26
g27
(g28
(I0
tp2492
g30
tp2493
Rp2494
(I1
(I2
tp2495
g36
I00
S'\x85\x00\x00\x00H\x00\x00\x00'
p2496
tp2497
bsbasS'_fileName'
p2498
S'training/trajectory2013-09-29_19:13:03.468805'
p2499
sS'word'
p2500
S'pointy'
p2501
sb.