(i__main__
SwypeTrajectory
p0
(dp1
S'_frameDataList'
p2
(lp3
(i__main__
FrameData
p4
(dp5
S'closestLetter'
p6
S'm'
p7
sS'letterDistance'
p8
cnumpy.core.multiarray
scalar
p9
(cnumpy
dtype
p10
(S'f8'
p11
I0
I1
tp12
Rp13
(I3
S'<'
p14
NNNI-1
I-1
I0
tp15
bS'\xcd;\x7ff\x9e\xa0\xf6?'
p16
tp17
Rp18
sS'accel'
p19
I0
sS'time'
p20
cdatetime
datetime
p21
(S'\x07\xdd\t\x1d\x13\x0e\x1a\x05\x83\xa1'
p22
tp23
Rp24
sS'velocity'
p25
I0
sS'position'
p26
cnumpy.core.multiarray
_reconstruct
p27
(cnumpy
ndarray
p28
(I0
tp29
S'b'
p30
tp31
Rp32
(I1
(I2
tp33
g10
(S'i4'
p34
I0
I1
tp35
Rp36
(I3
S'<'
p37
NNNI-1
I-1
I0
tp38
bI00
S'\xba\x00\x00\x00\x9a\x00\x00\x00'
p39
tp40
bsba(i__main__
FrameData
p41
(dp42
g6
g7
sg8
g9
(g13
S'\xcd;\x7ff\x9e\xa0\xf6?'
p43
tp44
Rp45
sg19
I0
sg20
g21
(S'\x07\xdd\t\x1d\x13\x0e\x1a\x05\xd1\x90'
p46
tp47
Rp48
sg25
I0
sg26
g27
(g28
(I0
tp49
g30
tp50
Rp51
(I1
(I2
tp52
g36
I00
S'\xba\x00\x00\x00\x98\x00\x00\x00'
p53
tp54
bsba(i__main__
FrameData
p55
(dp56
g6
g7
sg8
g9
(g13
S'\xa8\xf4\x97\x9bw\xe3\x11@'
p57
tp58
Rp59
sg19
I0
sg20
g21
(S'\x07\xdd\t\x1d\x13\x0e\x1a\x06\x19 '
p60
tp61
Rp62
sg25
I0
sg26
g27
(g28
(I0
tp63
g30
tp64
Rp65
(I1
(I2
tp66
g36
I00
S'\xb9\x00\x00\x00\x95\x00\x00\x00'
p67
tp68
bsba(i__main__
FrameData
p69
(dp70
g6
g7
sg8
g9
(g13
S'\xd0\xbaa?\xe0\x1f @'
p71
tp72
Rp73
sg19
I0
sg20
g21
(S'\x07\xdd\t\x1d\x13\x0e\x1a\x06F\xc4'
p74
tp75
Rp76
sg25
I0
sg26
g27
(g28
(I0
tp77
g30
tp78
Rp79
(I1
(I2
tp80
g36
I00
S'\xb7\x00\x00\x00\x92\x00\x00\x00'
p81
tp82
bsba(i__main__
FrameData
p83
(dp84
g6
g7
sg8
g9
(g13
S'\xf3\xd9\xa8\xa4h\x8a%@'
p85
tp86
Rp87
sg19
I0
sg20
g21
(S'\x07\xdd\t\x1d\x13\x0e\x1a\x06\x94\xe5'
p88
tp89
Rp90
sg25
I0
sg26
g27
(g28
(I0
tp91
g30
tp92
Rp93
(I1
(I2
tp94
g36
I00
S'\xb7\x00\x00\x00\x8f\x00\x00\x00'
p95
tp96
bsba(i__main__
FrameData
p97
(dp98
g6
g7
sg8
g9
(g13
S'\xfc\xeeci3\xd5*@'
p99
tp100
Rp101
sg19
I0
sg20
g21
(S'\x07\xdd\t\x1d\x13\x0e\x1a\x06\xd4Z'
p102
tp103
Rp104
sg25
I0
sg26
g27
(g28
(I0
tp105
g30
tp106
Rp107
(I1
(I2
tp108
g36
I00
S'\xb5\x00\x00\x00\x8d\x00\x00\x00'
p109
tp110
bsba(i__main__
FrameData
p111
(dp112
g6
g7
sg8
g9
(g13
S'&\xecIP\x11N/@'
p113
tp114
Rp115
sg19
I0
sg20
g21
(S'\x07\xdd\t\x1d\x13\x0e\x1a\x07\ne'
p116
tp117
Rp118
sg25
I0
sg26
g27
(g28
(I0
tp119
g30
tp120
Rp121
(I1
(I2
tp122
g36
I00
S'\xb4\x00\x00\x00\x8b\x00\x00\x00'
p123
tp124
bsba(i__main__
FrameData
p125
(dp126
g6
g7
sg8
g9
(g13
S'5 \x89\xa6\xcd\xc92@'
p127
tp128
Rp129
sg19
I0
sg20
g21
(S'\x07\xdd\t\x1d\x13\x0e\x1a\x07P6'
p130
tp131
Rp132
sg25
I0
sg26
g27
(g28
(I0
tp133
g30
tp134
Rp135
(I1
(I2
tp136
g36
I00
S'\xb3\x00\x00\x00\x88\x00\x00\x00'
p137
tp138
bsba(i__main__
FrameData
p139
(dp140
g6
g7
sg8
g9
(g13
S'v\xf8\xd1\xb0\x84\xee5@'
p141
tp142
Rp143
sg19
I0
sg20
g21
(S'\x07\xdd\t\x1d\x13\x0e\x1a\x07\x96\xaa'
p144
tp145
Rp146
sg25
I0
sg26
g27
(g28
(I0
tp147
g30
tp148
Rp149
(I1
(I2
tp150
g36
I00
S'\xb2\x00\x00\x00\x85\x00\x00\x00'
p151
tp152
bsba(i__main__
FrameData
p153
(dp154
g6
S'j'
p155
sg8
g9
(g13
S'u\xa6<oS\x185@'
p156
tp157
Rp158
sg19
I0
sg20
g21
(S'\x07\xdd\t\x1d\x13\x0e\x1a\x07\xcdl'
p159
tp160
Rp161
sg25
I0
sg26
g27
(g28
(I0
tp162
g30
tp163
Rp164
(I1
(I2
tp165
g36
I00
S'\xb2\x00\x00\x00\x84\x00\x00\x00'
p166
tp167
bsba(i__main__
FrameData
p168
(dp169
g6
g155
sg8
g9
(g13
S'8\xd8\xbc\n\x1b\x072@'
p170
tp171
Rp172
sg19
I0
sg20
g21
(S'\x07\xdd\t\x1d\x13\x0e\x1a\x08\x1d\xbe'
p173
tp174
Rp175
sg25
I0
sg26
g27
(g28
(I0
tp176
g30
tp177
Rp178
(I1
(I2
tp179
g36
I00
S'\xb1\x00\x00\x00\x81\x00\x00\x00'
p180
tp181
bsba(i__main__
FrameData
p182
(dp183
g6
g155
sg8
g9
(g13
S'N\x017\xfac41@'
p184
tp185
Rp186
sg19
I0
sg20
g21
(S'\x07\xdd\t\x1d\x13\x0e\x1a\x08S|'
p187
tp188
Rp189
sg25
I0
sg26
g27
(g28
(I0
tp190
g30
tp191
Rp192
(I1
(I2
tp193
g36
I00
S'\xb1\x00\x00\x00\x80\x00\x00\x00'
p194
tp195
bsba(i__main__
FrameData
p196
(dp197
g6
g155
sg8
g9
(g13
S'\x0f\xab\xa8Q\xb6f0@'
p198
tp199
Rp200
sg19
I0
sg20
g21
(S'\x07\xdd\t\x1d\x13\x0e\x1a\x08\x91\x83'
p201
tp202
Rp203
sg25
I0
sg26
g27
(g28
(I0
tp204
g30
tp205
Rp206
(I1
(I2
tp207
g36
I00
S'\xb1\x00\x00\x00\x7f\x00\x00\x00'
p208
tp209
bsba(i__main__
FrameData
p210
(dp211
g6
g155
sg8
g9
(g13
S'\xb4\xb8=iA\xe8*@'
p212
tp213
Rp214
sg19
I0
sg20
g21
(S'\x07\xdd\t\x1d\x13\x0e\x1a\x08\xefe'
p215
tp216
Rp217
sg25
I0
sg26
g27
(g28
(I0
tp218
g30
tp219
Rp220
(I1
(I2
tp221
g36
I00
S'\xb0\x00\x00\x00|\x00\x00\x00'
p222
tp223
bsba(i__main__
FrameData
p224
(dp225
g6
g155
sg8
g9
(g13
S'w\x03Is \xa2%@'
p226
tp227
Rp228
sg19
I0
sg20
g21
(S'\x07\xdd\t\x1d\x13\x0e\x1a\t\x1ei'
p229
tp230
Rp231
sg25
I0
sg26
g27
(g28
(I0
tp232
g30
tp233
Rp234
(I1
(I2
tp235
g36
I00
S'\xb0\x00\x00\x00x\x00\x00\x00'
p236
tp237
bsba(i__main__
FrameData
p238
(dp239
g6
g155
sg8
g9
(g13
S'\x9a.\x90!hp"@'
p240
tp241
Rp242
sg19
I0
sg20
g21
(S'\x07\xdd\t\x1d\x13\x0e\x1a\tln'
p243
tp244
Rp245
sg25
I0
sg26
g27
(g28
(I0
tp246
g30
tp247
Rp248
(I1
(I2
tp249
g36
I00
S'\xb0\x00\x00\x00t\x00\x00\x00'
p250
tp251
bsba(i__main__
FrameData
p252
(dp253
g6
g155
sg8
g9
(g13
S'\x00\x00\x00\x00\x00\x00"@'
p254
tp255
Rp256
sg19
I0
sg20
g21
(S'\x07\xdd\t\x1d\x13\x0e\x1a\t\xaa\x16'
p257
tp258
Rp259
sg25
I0
sg26
g27
(g28
(I0
tp260
g30
tp261
Rp262
(I1
(I2
tp263
g36
I00
S'\xb0\x00\x00\x00r\x00\x00\x00'
p264
tp265
bsba(i__main__
FrameData
p266
(dp267
g6
g155
sg8
g9
(g13
S'$\xf8\xd9p[\x1c"@'
p268
tp269
Rp270
sg19
I0
sg20
g21
(S'\x07\xdd\t\x1d\x13\x0e\x1a\t\xe0\xd6'
p271
tp272
Rp273
sg25
I0
sg26
g27
(g28
(I0
tp274
g30
tp275
Rp276
(I1
(I2
tp277
g36
I00
S'\xb0\x00\x00\x00q\x00\x00\x00'
p278
tp279
bsba(i__main__
FrameData
p280
(dp281
g6
g155
sg8
g9
(g13
S'~\xc4#,B\xf9"@'
p282
tp283
Rp284
sg19
I0
sg20
g21
(S'\x07\xdd\t\x1d\x13\x0e\x1a\n0\x91'
p285
tp286
Rp287
sg25
I0
sg26
g27
(g28
(I0
tp288
g30
tp289
Rp290
(I1
(I2
tp291
g36
I00
S'\xb0\x00\x00\x00o\x00\x00\x00'
p292
tp293
bsba(i__main__
FrameData
p294
(dp295
g6
g155
sg8
g9
(g13
S'\x88\x80v\xd5\\\x97$@'
p296
tp297
Rp298
sg19
I0
sg20
g21
(S'\x07\xdd\t\x1d\x13\x0e\x1a\nk:'
p299
tp300
Rp301
sg25
I0
sg26
g27
(g28
(I0
tp302
g30
tp303
Rp304
(I1
(I2
tp305
g36
I00
S'\xb0\x00\x00\x00m\x00\x00\x00'
p306
tp307
bsba(i__main__
FrameData
p308
(dp309
g6
g155
sg8
g9
(g13
S'F#O3\xb2t)@'
p310
tp311
Rp312
sg19
I0
sg20
g21
(S'\x07\xdd\t\x1d\x13\x0e\x1a\n\xa5\xc1'
p313
tp314
Rp315
sg25
I0
sg26
g27
(g28
(I0
tp316
g30
tp317
Rp318
(I1
(I2
tp319
g36
I00
S'\xb0\x00\x00\x00i\x00\x00\x00'
p320
tp321
bsba(i__main__
FrameData
p322
(dp323
g6
g155
sg8
g9
(g13
S'?*\x98"\xe3l,@'
p324
tp325
Rp326
sg19
I0
sg20
g21
(S'\x07\xdd\t\x1d\x13\x0e\x1a\n\xe2g'
p327
tp328
Rp329
sg25
I0
sg26
g27
(g28
(I0
tp330
g30
tp331
Rp332
(I1
(I2
tp333
g36
I00
S'\xb0\x00\x00\x00g\x00\x00\x00'
p334
tp335
bsba(i__main__
FrameData
p336
(dp337
g6
g155
sg8
g9
(g13
S"'\xf2\x90In\x9f/@"
p338
tp339
Rp340
sg19
I0
sg20
g21
(S'\x07\xdd\t\x1d\x13\x0e\x1a\x0b \xf1'
p341
tp342
Rp343
sg25
I0
sg26
g27
(g28
(I0
tp344
g30
tp345
Rp346
(I1
(I2
tp347
g36
I00
S'\xb0\x00\x00\x00e\x00\x00\x00'
p348
tp349
bsba(i__main__
FrameData
p350
(dp351
g6
g155
sg8
g9
(g13
S'\xb9\xbaF\xca+~1@'
p352
tp353
Rp354
sg19
I0
sg20
g21
(S'\x07\xdd\t\x1d\x13\x0e\x1a\x0b_Y'
p355
tp356
Rp357
sg25
I0
sg26
g27
(g28
(I0
tp358
g30
tp359
Rp360
(I1
(I2
tp361
g36
I00
S'\xb0\x00\x00\x00c\x00\x00\x00'
p362
tp363
bsba(i__main__
FrameData
p364
(dp365
g6
g155
sg8
g9
(g13
S'\xbf\x8f+\t\x89[2@'
p366
tp367
Rp368
sg19
I0
sg20
g21
(S'\x07\xdd\t\x1d\x13\x0e\x1a\x0b\xba\xcc'
p369
tp370
Rp371
sg25
I0
sg26
g27
(g28
(I0
tp372
g30
tp373
Rp374
(I1
(I2
tp375
g36
I00
S'\xb0\x00\x00\x00b\x00\x00\x00'
p376
tp377
bsba(i__main__
FrameData
p378
(dp379
g6
g155
sg8
g9
(g13
S'\xc9\xe0>!B<3@'
p380
tp381
Rp382
sg19
I0
sg20
g21
(S'\x07\xdd\t\x1d\x13\x0e\x1a\x0c\x05h'
p383
tp384
Rp385
sg25
I0
sg26
g27
(g28
(I0
tp386
g30
tp387
Rp388
(I1
(I2
tp389
g36
I00
S'\xb0\x00\x00\x00a\x00\x00\x00'
p390
tp391
bsba(i__main__
FrameData
p392
(dp393
g6
S'i'
p394
sg8
g9
(g13
S'\xf0)#L\x89\x194@'
p395
tp396
Rp397
sg19
I0
sg20
g21
(S'\x07\xdd\t\x1d\x13\x0e\x1a\x0c+\xa6'
p398
tp399
Rp400
sg25
I0
sg26
g27
(g28
(I0
tp401
g30
tp402
Rp403
(I1
(I2
tp404
g36
I00
S'\xb0\x00\x00\x00_\x00\x00\x00'
p405
tp406
bsba(i__main__
FrameData
p407
(dp408
g6
g394
sg8
g9
(g13
S'$\xf8\xd9p[\x1c2@'
p409
tp410
Rp411
sg19
I0
sg20
g21
(S'\x07\xdd\t\x1d\x13\x0e\x1a\x0cz\x8e'
p412
tp413
Rp414
sg25
I0
sg26
g27
(g28
(I0
tp415
g30
tp416
Rp417
(I1
(I2
tp418
g36
I00
S'\xb0\x00\x00\x00]\x00\x00\x00'
p419
tp420
bsba(i__main__
FrameData
p421
(dp422
g6
g394
sg8
g9
(g13
S'f\xee@\x9f\x03\x1e1@'
p423
tp424
Rp425
sg19
I0
sg20
g21
(S'\x07\xdd\t\x1d\x13\x0e\x1a\x0c\xc7\xcf'
p426
tp427
Rp428
sg25
I0
sg26
g27
(g28
(I0
tp429
g30
tp430
Rp431
(I1
(I2
tp432
g36
I00
S'\xb0\x00\x00\x00\\\x00\x00\x00'
p433
tp434
bsba(i__main__
FrameData
p435
(dp436
g6
g394
sg8
g9
(g13
S'\xd0\xbaa?\xe0\x1f0@'
p437
tp438
Rp439
sg19
I0
sg20
g21
(S'\x07\xdd\t\x1d\x13\x0e\x1a\x0c\xee\xeb'
p440
tp441
Rp442
sg25
I0
sg26
g27
(g28
(I0
tp443
g30
tp444
Rp445
(I1
(I2
tp446
g36
I00
S'\xb0\x00\x00\x00[\x00\x00\x00'
p447
tp448
bsba(i__main__
FrameData
p449
(dp450
g6
g394
sg8
g9
(g13
S'\xc0\n\x1f\x00\xc6H,@'
p451
tp452
Rp453
sg19
I0
sg20
g21
(S'\x07\xdd\t\x1d\x13\x0e\x1a\r*\xcc'
p454
tp455
Rp456
sg25
I0
sg26
g27
(g28
(I0
tp457
g30
tp458
Rp459
(I1
(I2
tp460
g36
I00
S'\xb0\x00\x00\x00Y\x00\x00\x00'
p461
tp462
bsba(i__main__
FrameData
p463
(dp464
g6
g394
sg8
g9
(g13
S'\xde4\xda\xfeNN*@'
p465
tp466
Rp467
sg19
I0
sg20
g21
(S'\x07\xdd\t\x1d\x13\x0e\x1a\rh\x8f'
p468
tp469
Rp470
sg25
I0
sg26
g27
(g28
(I0
tp471
g30
tp472
Rp473
(I1
(I2
tp474
g36
I00
S'\xb0\x00\x00\x00X\x00\x00\x00'
p475
tp476
bsba(i__main__
FrameData
p477
(dp478
g6
g394
sg8
g9
(g13
S'9\xdcc\xb3\xbfT(@'
p479
tp480
Rp481
sg19
I0
sg20
g21
(S'\x07\xdd\t\x1d\x13\x0e\x1a\r\xb3\x8a'
p482
tp483
Rp484
sg25
I0
sg26
g27
(g28
(I0
tp485
g30
tp486
Rp487
(I1
(I2
tp488
g36
I00
S'\xb0\x00\x00\x00W\x00\x00\x00'
p489
tp490
bsba(i__main__
FrameData
p491
(dp492
g6
g394
sg8
g9
(g13
S'\xd2\xf1}\x82U\\&@'
p493
tp494
Rp495
sg19
I0
sg20
g21
(S'\x07\xdd\t\x1d\x13\x0e\x1a\x0eO\x96'
p496
tp497
Rp498
sg25
I0
sg26
g27
(g28
(I0
tp499
g30
tp500
Rp501
(I1
(I2
tp502
g36
I00
S'\xb0\x00\x00\x00V\x00\x00\x00'
p503
tp504
bsba(i__main__
FrameData
p505
(dp506
g6
g394
sg8
g9
(g13
S'\xf6/\x12_ee$@'
p507
tp508
Rp509
sg19
I0
sg20
g21
(S'\x07\xdd\t\x1d\x13\x0e\x1a\x0end'
p510
tp511
Rp512
sg25
I0
sg26
g27
(g28
(I0
tp513
g30
tp514
Rp515
(I1
(I2
tp516
g36
I00
S'\xb0\x00\x00\x00U\x00\x00\x00'
p517
tp518
bsba(i__main__
FrameData
p519
(dp520
g6
g394
sg8
g9
(g13
S'\x9a.\x90!hp"@'
p521
tp522
Rp523
sg19
I0
sg20
g21
(S'\x07\xdd\t\x1d\x13\x0e\x1a\x0f\x15\x90'
p524
tp525
Rp526
sg25
I0
sg26
g27
(g28
(I0
tp527
g30
tp528
Rp529
(I1
(I2
tp530
g36
I00
S'\xb0\x00\x00\x00T\x00\x00\x00'
p531
tp532
bsba(i__main__
FrameData
p533
(dp534
g6
g394
sg8
g9
(g13
S'\x07\xed\xaff\x0f~ @'
p535
tp536
Rp537
sg19
I0
sg20
g21
(S'\x07\xdd\t\x1d\x13\x0e\x1a\x0f8\xda'
p538
tp539
Rp540
sg25
I0
sg26
g27
(g28
(I0
tp541
g30
tp542
Rp543
(I1
(I2
tp544
g36
I00
S'\xb0\x00\x00\x00S\x00\x00\x00'
p545
tp546
bsba(i__main__
FrameData
p547
(dp548
g6
g394
sg8
g9
(g13
S'S[\xda:XL\x19@'
p549
tp550
Rp551
sg19
I0
sg20
g21
(S'\x07\xdd\t\x1d\x13\x0e\x1b\x007\xc0'
p552
tp553
Rp554
sg25
I0
sg26
g27
(g28
(I0
tp555
g30
tp556
Rp557
(I1
(I2
tp558
g36
I00
S'\xb0\x00\x00\x00Q\x00\x00\x00'
p559
tp560
bsba(i__main__
FrameData
p561
(dp562
g6
g394
sg8
g9
(g13
S'\xf3\xd9\xa8\xa4h\x8a\x15@'
p563
tp564
Rp565
sg19
I0
sg20
g21
(S'\x07\xdd\t\x1d\x13\x0e\x1b\x00\x93\xe7'
p566
tp567
Rp568
sg25
I0
sg26
g27
(g28
(I0
tp569
g30
tp570
Rp571
(I1
(I2
tp572
g36
I00
S'\xb0\x00\x00\x00P\x00\x00\x00'
p573
tp574
bsba(i__main__
FrameData
p575
(dp576
g6
g394
sg8
g9
(g13
S'\xa8\xf4\x97\x9bw\xe3\x11@'
p577
tp578
Rp579
sg19
I0
sg20
g21
(S'\x07\xdd\t\x1d\x13\x0e\x1b\x00\xbb\x1d'
p580
tp581
Rp582
sg25
I0
sg26
g27
(g28
(I0
tp583
g30
tp584
Rp585
(I1
(I2
tp586
g36
I00
S'\xb0\x00\x00\x00O\x00\x00\x00'
p587
tp588
bsba(i__main__
FrameData
p589
(dp590
g6
g394
sg8
g9
(g13
S'\x07\xed\xaff\x0f~\x10@'
p591
tp592
Rp593
sg19
I0
sg20
g21
(S'\x07\xdd\t\x1d\x13\x0e\x1b\x01\x00z'
p594
tp595
Rp596
sg25
I0
sg26
g27
(g28
(I0
tp597
g30
tp598
Rp599
(I1
(I2
tp600
g36
I00
S'\xb1\x00\x00\x00O\x00\x00\x00'
p601
tp602
bsba(i__main__
FrameData
p603
(dp604
g6
g394
sg8
g9
(g13
S'S[\xda:XL\t@'
p605
tp606
Rp607
sg19
I0
sg20
g21
(S'\x07\xdd\t\x1d\x13\x0e\x1b\x01Wg'
p608
tp609
Rp610
sg25
I0
sg26
g27
(g28
(I0
tp611
g30
tp612
Rp613
(I1
(I2
tp614
g36
I00
S'\xb1\x00\x00\x00N\x00\x00\x00'
p615
tp616
bsba(i__main__
FrameData
p617
(dp618
g6
g394
sg8
g9
(g13
S'\x00\x00\x00\x00\x00\x00\x00@'
p619
tp620
Rp621
sg19
I0
sg20
g21
(S'\x07\xdd\t\x1d\x13\x0e\x1b\x01~&'
p622
tp623
Rp624
sg25
I0
sg26
g27
(g28
(I0
tp625
g30
tp626
Rp627
(I1
(I2
tp628
g36
I00
S'\xb2\x00\x00\x00M\x00\x00\x00'
p629
tp630
bsba(i__main__
FrameData
p631
(dp632
g6
g394
sg8
g9
(g13
S'\x00\x00\x00\x00\x00\x00\xf0?'
p633
tp634
Rp635
sg19
I0
sg20
g21
(S'\x07\xdd\t\x1d\x13\x0e\x1b\x01\xb7\xe4'
p636
tp637
Rp638
sg25
I0
sg26
g27
(g28
(I0
tp639
g30
tp640
Rp641
(I1
(I2
tp642
g36
I00
S'\xb2\x00\x00\x00L\x00\x00\x00'
p643
tp644
bsba(i__main__
FrameData
p645
(dp646
g6
g394
sg8
g9
(g13
S'\x00\x00\x00\x00\x00\x00\x00\x00'
p647
tp648
Rp649
sg19
I0
sg20
g21
(S'\x07\xdd\t\x1d\x13\x0e\x1b\x02\x87='
p650
tp651
Rp652
sg25
I0
sg26
g27
(g28
(I0
tp653
g30
tp654
Rp655
(I1
(I2
tp656
g36
I00
S'\xb2\x00\x00\x00K\x00\x00\x00'
p657
tp658
bsba(i__main__
FrameData
p659
(dp660
g6
g394
sg8
g9
(g13
S'\x00\x00\x00\x00\x00\x00\xf0?'
p661
tp662
Rp663
sg19
I0
sg20
g21
(S'\x07\xdd\t\x1d\x13\x0e\x1b\x04\xd0C'
p664
tp665
Rp666
sg25
I0
sg26
g27
(g28
(I0
tp667
g30
tp668
Rp669
(I1
(I2
tp670
g36
I00
S'\xb2\x00\x00\x00L\x00\x00\x00'
p671
tp672
bsba(i__main__
FrameData
p673
(dp674
g6
g394
sg8
g9
(g13
S'\x00\x00\x00\x00\x00\x00\x00@'
p675
tp676
Rp677
sg19
I0
sg20
g21
(S'\x07\xdd\t\x1d\x13\x0e\x1b\x05"a'
p678
tp679
Rp680
sg25
I0
sg26
g27
(g28
(I0
tp681
g30
tp682
Rp683
(I1
(I2
tp684
g36
I00
S'\xb2\x00\x00\x00M\x00\x00\x00'
p685
tp686
bsba(i__main__
FrameData
p687
(dp688
g6
g394
sg8
g9
(g13
S'\x00\x00\x00\x00\x00\x00\x10@'
p689
tp690
Rp691
sg19
I0
sg20
g21
(S'\x07\xdd\t\x1d\x13\x0e\x1b\x05Mq'
p692
tp693
Rp694
sg25
I0
sg26
g27
(g28
(I0
tp695
g30
tp696
Rp697
(I1
(I2
tp698
g36
I00
S'\xb2\x00\x00\x00O\x00\x00\x00'
p699
tp700
bsba(i__main__
FrameData
p701
(dp702
g6
g394
sg8
g9
(g13
S'\x00\x00\x00\x00\x00\x00\x14@'
p703
tp704
Rp705
sg19
I0
sg20
g21
(S'\x07\xdd\t\x1d\x13\x0e\x1b\x05\x8d;'
p706
tp707
Rp708
sg25
I0
sg26
g27
(g28
(I0
tp709
g30
tp710
Rp711
(I1
(I2
tp712
g36
I00
S'\xb2\x00\x00\x00P\x00\x00\x00'
p713
tp714
bsba(i__main__
FrameData
p715
(dp716
g6
g394
sg8
g9
(g13
S'\x00\x00\x00\x00\x00\x00\x1c@'
p717
tp718
Rp719
sg19
I0
sg20
g21
(S'\x07\xdd\t\x1d\x13\x0e\x1b\x05\xe0\xc2'
p720
tp721
Rp722
sg25
I0
sg26
g27
(g28
(I0
tp723
g30
tp724
Rp725
(I1
(I2
tp726
g36
I00
S'\xb2\x00\x00\x00R\x00\x00\x00'
p727
tp728
bsba(i__main__
FrameData
p729
(dp730
g6
g394
sg8
g9
(g13
S'$\xf8\xd9p[\x1c"@'
p731
tp732
Rp733
sg19
I0
sg20
g21
(S'\x07\xdd\t\x1d\x13\x0e\x1b\x06\x14\x1e'
p734
tp735
Rp736
sg25
I0
sg26
g27
(g28
(I0
tp737
g30
tp738
Rp739
(I1
(I2
tp740
g36
I00
S'\xb1\x00\x00\x00T\x00\x00\x00'
p741
tp742
bsba(i__main__
FrameData
p743
(dp744
g6
g394
sg8
g9
(g13
S'9\xdcc\xb3\xbfT(@'
p745
tp746
Rp747
sg19
I0
sg20
g21
(S'\x07\xdd\t\x1d\x13\x0e\x1b\x06``'
p748
tp749
Rp750
sg25
I0
sg26
g27
(g28
(I0
tp751
g30
tp752
Rp753
(I1
(I2
tp754
g36
I00
S'\xb0\x00\x00\x00W\x00\x00\x00'
p755
tp756
bsba(i__main__
FrameData
p757
(dp758
g6
g394
sg8
g9
(g13
S'\xf7\x80Aq\xb9\xa2,@'
p759
tp760
Rp761
sg19
I0
sg20
g21
(S'\x07\xdd\t\x1d\x13\x0e\x1b\x06\xae\x81'
p762
tp763
Rp764
sg25
I0
sg26
g27
(g28
(I0
tp765
g30
tp766
Rp767
(I1
(I2
tp768
g36
I00
S'\xaf\x00\x00\x00Y\x00\x00\x00'
p769
tp770
bsba(i__main__
FrameData
p771
(dp772
g6
g394
sg8
g9
(g13
S'X(/\x84y\xae2@'
p773
tp774
Rp775
sg19
I0
sg20
g21
(S'\x07\xdd\t\x1d\x13\x0e\x1b\x06\xd5u'
p776
tp777
Rp778
sg25
I0
sg26
g27
(g28
(I0
tp779
g30
tp780
Rp781
(I1
(I2
tp782
g36
I00
S'\xad\x00\x00\x00]\x00\x00\x00'
p783
tp784
bsba(i__main__
FrameData
p785
(dp786
g6
g155
sg8
g9
(g13
S'\x9a.\x90!hp2@'
p787
tp788
Rp789
sg19
I0
sg20
g21
(S'\x07\xdd\t\x1d\x13\x0e\x1b\x07#g'
p790
tp791
Rp792
sg25
I0
sg26
g27
(g28
(I0
tp793
g30
tp794
Rp795
(I1
(I2
tp796
g36
I00
S'\xab\x00\x00\x00`\x00\x00\x00'
p797
tp798
bsba(i__main__
FrameData
p799
(dp800
g6
g155
sg8
g9
(g13
S'\xa8y\x0c\t\xd9v1@'
p801
tp802
Rp803
sg19
I0
sg20
g21
(S'\x07\xdd\t\x1d\x13\x0e\x1b\x07r\xa6'
p804
tp805
Rp806
sg25
I0
sg26
g27
(g28
(I0
tp807
g30
tp808
Rp809
(I1
(I2
tp810
g36
I00
S'\xab\x00\x00\x00a\x00\x00\x00'
p811
tp812
bsba(i__main__
FrameData
p813
(dp814
g6
g155
sg8
g9
(g13
S'\x10\xb3]\xc9`G0@'
p815
tp816
Rp817
sg19
I0
sg20
g21
(S'\x07\xdd\t\x1d\x13\x0e\x1b\x07\x98\xcf'
p818
tp819
Rp820
sg25
I0
sg26
g27
(g28
(I0
tp821
g30
tp822
Rp823
(I1
(I2
tp824
g36
I00
S'\xaa\x00\x00\x00b\x00\x00\x00'
p825
tp826
bsba(i__main__
FrameData
p827
(dp828
g6
g155
sg8
g9
(g13
S'\xd0\xbaa?\xe0\x1f0@'
p829
tp830
Rp831
sg19
I0
sg20
g21
(S'\x07\xdd\t\x1d\x13\x0e\x1b\x07\xe71'
p832
tp833
Rp834
sg25
I0
sg26
g27
(g28
(I0
tp835
g30
tp836
Rp837
(I1
(I2
tp838
g36
I00
S'\xa9\x00\x00\x00b\x00\x00\x00'
p839
tp840
bsba(i__main__
FrameData
p841
(dp842
g6
g155
sg8
g9
(g13
S'\xc0\n\x1f\x00\xc6H,@'
p843
tp844
Rp845
sg19
I0
sg20
g21
(S'\x07\xdd\t\x1d\x13\x0e\x1b\x08\x1b\x84'
p846
tp847
Rp848
sg25
I0
sg26
g27
(g28
(I0
tp849
g30
tp850
Rp851
(I1
(I2
tp852
g36
I00
S'\xa9\x00\x00\x00d\x00\x00\x00'
p853
tp854
bsba(i__main__
FrameData
p855
(dp856
g6
g155
sg8
g9
(g13
S'Qf\x99\xcb\xa9\x13*@'
p857
tp858
Rp859
sg19
I0
sg20
g21
(S'\x07\xdd\t\x1d\x13\x0e\x1b\x08\\B'
p860
tp861
Rp862
sg25
I0
sg26
g27
(g28
(I0
tp863
g30
tp864
Rp865
(I1
(I2
tp866
g36
I00
S'\xa8\x00\x00\x00e\x00\x00\x00'
p867
tp868
bsba(i__main__
FrameData
p869
(dp870
g6
g155
sg8
g9
(g13
S'7\xf9\xcf\xdao\xe1$@'
p871
tp872
Rp873
sg19
I0
sg20
g21
(S'\x07\xdd\t\x1d\x13\x0e\x1b\x08\xa1*'
p874
tp875
Rp876
sg25
I0
sg26
g27
(g28
(I0
tp877
g30
tp878
Rp879
(I1
(I2
tp880
g36
I00
S'\xa4\x00\x00\x00h\x00\x00\x00'
p881
tp882
bsba(i__main__
FrameData
p883
(dp884
g6
g155
sg8
g9
(g13
S'\xd9l\xdf\xccv\xf8 @'
p885
tp886
Rp887
sg19
I0
sg20
g21
(S'\x07\xdd\t\x1d\x13\x0e\x1b\x08\xe4>'
p888
tp889
Rp890
sg25
I0
sg26
g27
(g28
(I0
tp891
g30
tp892
Rp893
(I1
(I2
tp894
g36
I00
S'\xa1\x00\x00\x00l\x00\x00\x00'
p895
tp896
bsba(i__main__
FrameData
p897
(dp898
g6
g155
sg8
g9
(g13
S'\xf6/\x12_ee$@'
p899
tp900
Rp901
sg19
I0
sg20
g21
(S'\x07\xdd\t\x1d\x13\x0e\x1b\t\x1e\x1e'
p902
tp903
Rp904
sg25
I0
sg26
g27
(g28
(I0
tp905
g30
tp906
Rp907
(I1
(I2
tp908
g36
I00
S'\x9d\x00\x00\x00p\x00\x00\x00'
p909
tp910
bsba(i__main__
FrameData
p911
(dp912
g6
S'h'
p913
sg8
g9
(g13
S'H\xaa*\x8f9\x17&@'
p914
tp915
Rp916
sg19
I0
sg20
g21
(S'\x07\xdd\t\x1d\x13\x0e\x1b\tmi'
p917
tp918
Rp919
sg25
I0
sg26
g27
(g28
(I0
tp920
g30
tp921
Rp922
(I1
(I2
tp923
g36
I00
S'\x9b\x00\x00\x00q\x00\x00\x00'
p924
tp925
bsba(i__main__
FrameData
p926
(dp927
g6
g913
sg8
g9
(g13
S'$\xf8\xd9p[\x1c"@'
p928
tp929
Rp930
sg19
I0
sg20
g21
(S'\x07\xdd\t\x1d\x13\x0e\x1b\t\xb1\xba'
p931
tp932
Rp933
sg25
I0
sg26
g27
(g28
(I0
tp934
g30
tp935
Rp936
(I1
(I2
tp937
g36
I00
S'\x99\x00\x00\x00s\x00\x00\x00'
p938
tp939
bsba(i__main__
FrameData
p940
(dp941
g6
g913
sg8
g9
(g13
S'\xe9\xfbv \xd5\x1e\x1d@'
p942
tp943
Rp944
sg19
I0
sg20
g21
(S'\x07\xdd\t\x1d\x13\x0e\x1b\t\xe1\x18'
p945
tp946
Rp947
sg25
I0
sg26
g27
(g28
(I0
tp948
g30
tp949
Rp950
(I1
(I2
tp951
g36
I00
S'\x97\x00\x00\x00t\x00\x00\x00'
p952
tp953
bsba(i__main__
FrameData
p954
(dp955
g6
g913
sg8
g9
(g13
S'\xfc\xeeci3\xd5\x1a@'
p956
tp957
Rp958
sg19
I0
sg20
g21
(S'\x07\xdd\t\x1d\x13\x0e\x1b\n0\xcb'
p959
tp960
Rp961
sg25
I0
sg26
g27
(g28
(I0
tp962
g30
tp963
Rp964
(I1
(I2
tp965
g36
I00
S'\x96\x00\x00\x00u\x00\x00\x00'
p966
tp967
bsba(i__main__
FrameData
p968
(dp969
g6
g913
sg8
g9
(g13
S'S[\xda:XL\x19@'
p970
tp971
Rp972
sg19
I0
sg20
g21
(S'\x07\xdd\t\x1d\x13\x0e\x1b\n~\xfc'
p973
tp974
Rp975
sg25
I0
sg26
g27
(g28
(I0
tp976
g30
tp977
Rp978
(I1
(I2
tp979
g36
I00
S'\x92\x00\x00\x00x\x00\x00\x00'
p980
tp981
bsba(i__main__
FrameData
p982
(dp983
g6
g913
sg8
g9
(g13
S'\xeb\x12\xb2\xbb\xb2\xcd&@'
p984
tp985
Rp986
sg19
I0
sg20
g21
(S'\x07\xdd\t\x1d\x13\x0e\x1b\n\xa6\x13'
p987
tp988
Rp989
sg25
I0
sg26
g27
(g28
(I0
tp990
g30
tp991
Rp992
(I1
(I2
tp993
g36
I00
S'\x8d\x00\x00\x00}\x00\x00\x00'
p994
tp995
bsba(i__main__
FrameData
p996
(dp997
g6
g913
sg8
g9
(g13
S'\x00\x00\x00\x00\x00\x001@'
p998
tp999
Rp1000
sg19
I0
sg20
g21
(S'\x07\xdd\t\x1d\x13\x0e\x1b\n\xf3\xd9'
p1001
tp1002
Rp1003
sg25
I0
sg26
g27
(g28
(I0
tp1004
g30
tp1005
Rp1006
(I1
(I2
tp1007
g36
I00
S'\x88\x00\x00\x00\x81\x00\x00\x00'
p1008
tp1009
bsba(i__main__
FrameData
p1010
(dp1011
g6
g30
sg8
g9
(g13
S'7\xf9\xcf\xdao\xe14@'
p1012
tp1013
Rp1014
sg19
I0
sg20
g21
(S'\x07\xdd\t\x1d\x13\x0e\x1b\x0bB\x0b'
p1015
tp1016
Rp1017
sg25
I0
sg26
g27
(g28
(I0
tp1018
g30
tp1019
Rp1020
(I1
(I2
tp1021
g36
I00
S'\x82\x00\x00\x00\x86\x00\x00\x00'
p1022
tp1023
bsba(i__main__
FrameData
p1024
(dp1025
g6
g30
sg8
g9
(g13
S'/vo\xf2\x9ej3@'
p1026
tp1027
Rp1028
sg19
I0
sg20
g21
(S'\x07\xdd\t\x1d\x13\x0e\x1b\x0biy'
p1029
tp1030
Rp1031
sg25
I0
sg26
g27
(g28
(I0
tp1032
g30
tp1033
Rp1034
(I1
(I2
tp1035
g36
I00
S'}\x00\x00\x00\x8a\x00\x00\x00'
p1036
tp1037
bsba(i__main__
FrameData
p1038
(dp1039
g6
S'v'
p1040
sg8
g9
(g13
S'\xb2\xdb]\xe3\x96\x87-@'
p1041
tp1042
Rp1043
sg19
I0
sg20
g21
(S'\x07\xdd\t\x1d\x13\x0e\x1b\x0b\xb8\x19'
p1044
tp1045
Rp1046
sg25
I0
sg26
g27
(g28
(I0
tp1047
g30
tp1048
Rp1049
(I1
(I2
tp1050
g36
I00
S'x\x00\x00\x00\x8e\x00\x00\x00'
p1051
tp1052
bsba(i__main__
FrameData
p1053
(dp1054
g6
g1040
sg8
g9
(g13
S'\xd0\xbaa?\xe0\x1f @'
p1055
tp1056
Rp1057
sg19
I0
sg20
g21
(S'\x07\xdd\t\x1d\x13\x0e\x1b\x0b\xec\x11'
p1058
tp1059
Rp1060
sg25
I0
sg26
g27
(g28
(I0
tp1061
g30
tp1062
Rp1063
(I1
(I2
tp1064
g36
I00
S'r\x00\x00\x00\x93\x00\x00\x00'
p1065
tp1066
bsba(i__main__
FrameData
p1067
(dp1068
g6
g1040
sg8
g9
(g13
S'\xfc\xeeci3\xd5\x1a@'
p1069
tp1070
Rp1071
sg19
I0
sg20
g21
(S'\x07\xdd\t\x1d\x13\x0e\x1b\x0c,\x07'
p1072
tp1073
Rp1074
sg25
I0
sg26
g27
(g28
(I0
tp1075
g30
tp1076
Rp1077
(I1
(I2
tp1078
g36
I00
S'n\x00\x00\x00\x95\x00\x00\x00'
p1079
tp1080
bsba(i__main__
FrameData
p1081
(dp1082
g6
g1040
sg8
g9
(g13
S'\xf3YaD+\xd8\x1c@'
p1083
tp1084
Rp1085
sg19
I0
sg20
g21
(S'\x07\xdd\t\x1d\x13\x0e\x1b\x0cz\x9d'
p1086
tp1087
Rp1088
sg25
I0
sg26
g27
(g28
(I0
tp1089
g30
tp1090
Rp1091
(I1
(I2
tp1092
g36
I00
S'k\x00\x00\x00\x97\x00\x00\x00'
p1093
tp1094
bsba(i__main__
FrameData
p1095
(dp1096
g6
g1040
sg8
g9
(g13
S'\xa3\x14\xae\xa8\x87\x16!@'
p1097
tp1098
Rp1099
sg19
I0
sg20
g21
(S'\x07\xdd\t\x1d\x13\x0e\x1b\x0c\xc8\xb2'
p1100
tp1101
Rp1102
sg25
I0
sg26
g27
(g28
(I0
tp1103
g30
tp1104
Rp1105
(I1
(I2
tp1106
g36
I00
S'i\x00\x00\x00\x98\x00\x00\x00'
p1107
tp1108
bsba(i__main__
FrameData
p1109
(dp1110
g6
g1040
sg8
g9
(g13
S'\xf6/\x12_ee$@'
p1111
tp1112
Rp1113
sg19
I0
sg20
g21
(S'\x07\xdd\t\x1d\x13\x0e\x1b\x0c\xf0\\'
p1114
tp1115
Rp1116
sg25
I0
sg26
g27
(g28
(I0
tp1117
g30
tp1118
Rp1119
(I1
(I2
tp1120
g36
I00
S'g\x00\x00\x00\x99\x00\x00\x00'
p1121
tp1122
bsba(i__main__
FrameData
p1123
(dp1124
g6
S'c'
p1125
sg8
g9
(g13
S'\xd2\xf1}\x82U\\&@'
p1126
tp1127
Rp1128
sg19
I0
sg20
g21
(S'\x07\xdd\t\x1d\x13\x0e\x1b\r=\xfc'
p1129
tp1130
Rp1131
sg25
I0
sg26
g27
(g28
(I0
tp1132
g30
tp1133
Rp1134
(I1
(I2
tp1135
g36
I00
S'e\x00\x00\x00\x9a\x00\x00\x00'
p1136
tp1137
bsba(i__main__
FrameData
p1138
(dp1139
g6
g1125
sg8
g9
(g13
S'\xf6/\x12_ee$@'
p1140
tp1141
Rp1142
sg19
I0
sg20
g21
(S'\x07\xdd\t\x1d\x13\x0e\x1b\r\x8c<'
p1143
tp1144
Rp1145
sg25
I0
sg26
g27
(g28
(I0
tp1146
g30
tp1147
Rp1148
(I1
(I2
tp1149
g36
I00
S'd\x00\x00\x00\x9a\x00\x00\x00'
p1150
tp1151
bsba(i__main__
FrameData
p1152
(dp1153
g6
g1125
sg8
g9
(g13
S'\xd0\xbaa?\xe0\x1f @'
p1154
tp1155
Rp1156
sg19
I0
sg20
g21
(S'\x07\xdd\t\x1d\x13\x0e\x1b\r\xbd\xfa'
p1157
tp1158
Rp1159
sg25
I0
sg26
g27
(g28
(I0
tp1160
g30
tp1161
Rp1162
(I1
(I2
tp1163
g36
I00
S'b\x00\x00\x00\x9b\x00\x00\x00'
p1164
tp1165
bsba(i__main__
FrameData
p1166
(dp1167
g6
g1125
sg8
g9
(g13
S'\x00\x00\x00\x00\x00\x00\x1c@'
p1168
tp1169
Rp1170
sg19
I0
sg20
g21
(S'\x07\xdd\t\x1d\x13\x0e\x1b\x0e\x0cD'
p1171
tp1172
Rp1173
sg25
I0
sg26
g27
(g28
(I0
tp1174
g30
tp1175
Rp1176
(I1
(I2
tp1177
g36
I00
S'a\x00\x00\x00\x9c\x00\x00\x00'
p1178
tp1179
bsba(i__main__
FrameData
p1180
(dp1181
g6
g1125
sg8
g9
(g13
S'\x00\x00\x00\x00\x00\x00\x18@'
p1182
tp1183
Rp1184
sg19
I0
sg20
g21
(S'\x07\xdd\t\x1d\x13\x0e\x1b\x0eY:'
p1185
tp1186
Rp1187
sg25
I0
sg26
g27
(g28
(I0
tp1188
g30
tp1189
Rp1190
(I1
(I2
tp1191
g36
I00
S'`\x00\x00\x00\x9c\x00\x00\x00'
p1192
tp1193
bsba(i__main__
FrameData
p1194
(dp1195
g6
g1125
sg8
g9
(g13
S'\xf6/\x12_ee\x14@'
p1196
tp1197
Rp1198
sg19
I0
sg20
g21
(S'\x07\xdd\t\x1d\x13\x0e\x1b\x0ez\xf6'
p1199
tp1200
Rp1201
sg25
I0
sg26
g27
(g28
(I0
tp1202
g30
tp1203
Rp1204
(I1
(I2
tp1205
g36
I00
S'_\x00\x00\x00\x9d\x00\x00\x00'
p1206
tp1207
bsba(i__main__
FrameData
p1208
(dp1209
g6
g1125
sg8
g9
(g13
S'\x07\xed\xaff\x0f~\x10@'
p1210
tp1211
Rp1212
sg19
I0
sg20
g21
(S'\x07\xdd\t\x1d\x13\x0e\x1b\x0e\xcf]'
p1213
tp1214
Rp1215
sg25
I0
sg26
g27
(g28
(I0
tp1216
g30
tp1217
Rp1218
(I1
(I2
tp1219
g36
I00
S'^\x00\x00\x00\x9d\x00\x00\x00'
p1220
tp1221
bsba(i__main__
FrameData
p1222
(dp1223
g6
g1125
sg8
g9
(g13
S'S[\xda:XL\t@'
p1224
tp1225
Rp1226
sg19
I0
sg20
g21
(S'\x07\xdd\t\x1d\x13\x0e\x1c\x00\x02]'
p1227
tp1228
Rp1229
sg25
I0
sg26
g27
(g28
(I0
tp1230
g30
tp1231
Rp1232
(I1
(I2
tp1233
g36
I00
S']\x00\x00\x00\x9d\x00\x00\x00'
p1234
tp1235
bsba(i__main__
FrameData
p1236
(dp1237
g6
g1125
sg8
g9
(g13
S'\xa8\xf4\x97\x9bw\xe3\x01@'
p1238
tp1239
Rp1240
sg19
I0
sg20
g21
(S'\x07\xdd\t\x1d\x13\x0e\x1c\x00OU'
p1241
tp1242
Rp1243
sg25
I0
sg26
g27
(g28
(I0
tp1244
g30
tp1245
Rp1246
(I1
(I2
tp1247
g36
I00
S'\\\x00\x00\x00\x9d\x00\x00\x00'
p1248
tp1249
bsba(i__main__
FrameData
p1250
(dp1251
g6
g1125
sg8
g9
(g13
S'\xcd;\x7ff\x9e\xa0\xf6?'
p1252
tp1253
Rp1254
sg19
I0
sg20
g21
(S'\x07\xdd\t\x1d\x13\x0e\x1c\x01a\xda'
p1255
tp1256
Rp1257
sg25
I0
sg26
g27
(g28
(I0
tp1258
g30
tp1259
Rp1260
(I1
(I2
tp1261
g36
I00
S'[\x00\x00\x00\x9d\x00\x00\x00'
p1262
tp1263
bsba(i__main__
FrameData
p1264
(dp1265
g6
g1125
sg8
g9
(g13
S'\x00\x00\x00\x00\x00\x00\xf0?'
p1266
tp1267
Rp1268
sg19
I0
sg20
g21
(S'\x07\xdd\t\x1d\x13\x0e\x1c\x05\x10a'
p1269
tp1270
Rp1271
sg25
I0
sg26
g27
(g28
(I0
tp1272
g30
tp1273
Rp1274
(I1
(I2
tp1275
g36
I00
S'[\x00\x00\x00\x9c\x00\x00\x00'
p1276
tp1277
bsba(i__main__
FrameData
p1278
(dp1279
g6
g1125
sg8
g9
(g13
S'\xcd;\x7ff\x9e\xa0\xf6?'
p1280
tp1281
Rp1282
sg19
I0
sg20
g21
(S'\x07\xdd\t\x1d\x13\x0e\x1c\x05Y\xb3'
p1283
tp1284
Rp1285
sg25
I0
sg26
g27
(g28
(I0
tp1286
g30
tp1287
Rp1288
(I1
(I2
tp1289
g36
I00
S'[\x00\x00\x00\x9b\x00\x00\x00'
p1290
tp1291
bsba(i__main__
FrameData
p1292
(dp1293
g6
g1125
sg8
g9
(g13
S'S[\xda:XL\t@'
p1294
tp1295
Rp1296
sg19
I0
sg20
g21
(S'\x07\xdd\t\x1d\x13\x0e\x1c\x05\xa6\x8d'
p1297
tp1298
Rp1299
sg25
I0
sg26
g27
(g28
(I0
tp1300
g30
tp1301
Rp1302
(I1
(I2
tp1303
g36
I00
S'[\x00\x00\x00\x99\x00\x00\x00'
p1304
tp1305
bsba(i__main__
FrameData
p1306
(dp1307
g6
g1125
sg8
g9
(g13
S'\xf6/\x12_ee\x14@'
p1308
tp1309
Rp1310
sg19
I0
sg20
g21
(S'\x07\xdd\t\x1d\x13\x0e\x1c\x05\xd9\xeb'
p1311
tp1312
Rp1313
sg25
I0
sg26
g27
(g28
(I0
tp1314
g30
tp1315
Rp1316
(I1
(I2
tp1317
g36
I00
S'[\x00\x00\x00\x97\x00\x00\x00'
p1318
tp1319
bsba(i__main__
FrameData
p1320
(dp1321
g6
g1125
sg8
g9
(g13
S'\xc0\n\x1f\x00\xc6H\x1c@'
p1322
tp1323
Rp1324
sg19
I0
sg20
g21
(S'\x07\xdd\t\x1d\x13\x0e\x1c\x06\x1d\x19'
p1325
tp1326
Rp1327
sg25
I0
sg26
g27
(g28
(I0
tp1328
g30
tp1329
Rp1330
(I1
(I2
tp1331
g36
I00
S'[\x00\x00\x00\x95\x00\x00\x00'
p1332
tp1333
bsba(i__main__
FrameData
p1334
(dp1335
g6
g1125
sg8
g9
(g13
S'\xf0)#L\x89\x19$@'
p1336
tp1337
Rp1338
sg19
I0
sg20
g21
(S'\x07\xdd\t\x1d\x13\x0e\x1c\x06Y\x0f'
p1339
tp1340
Rp1341
sg25
I0
sg26
g27
(g28
(I0
tp1342
g30
tp1343
Rp1344
(I1
(I2
tp1345
g36
I00
S'[\x00\x00\x00\x92\x00\x00\x00'
p1346
tp1347
bsba(i__main__
FrameData
p1348
(dp1349
g6
g1125
sg8
g9
(g13
S'\xaf_\x109\x0c\x11.@'
p1350
tp1351
Rp1352
sg19
I0
sg20
g21
(S'\x07\xdd\t\x1d\x13\x0e\x1c\x06\xa7\xf6'
p1353
tp1354
Rp1355
sg25
I0
sg26
g27
(g28
(I0
tp1356
g30
tp1357
Rp1358
(I1
(I2
tp1359
g36
I00
S'[\x00\x00\x00\x8d\x00\x00\x00'
p1360
tp1361
bsba(i__main__
FrameData
p1362
(dp1363
g6
g1125
sg8
g9
(g13
S'\xbb\x91T\x7f\x17\x065@'
p1364
tp1365
Rp1366
sg19
I0
sg20
g21
(S'\x07\xdd\t\x1d\x13\x0e\x1c\x06\xdfb'
p1367
tp1368
Rp1369
sg25
I0
sg26
g27
(g28
(I0
tp1370
g30
tp1371
Rp1372
(I1
(I2
tp1373
g36
I00
S'[\x00\x00\x00\x87\x00\x00\x00'
p1374
tp1375
bsba(i__main__
FrameData
p1376
(dp1377
g6
S'f'
p1378
sg8
g9
(g13
S'>9\x15\x8cW\xc30@'
p1379
tp1380
Rp1381
sg19
I0
sg20
g21
(S'\x07\xdd\t\x1d\x13\x0e\x1c\x07\x1d\xbc'
p1382
tp1383
Rp1384
sg25
I0
sg26
g27
(g28
(I0
tp1385
g30
tp1386
Rp1387
(I1
(I2
tp1388
g36
I00
S'[\x00\x00\x00\x82\x00\x00\x00'
p1389
tp1390
bsba(i__main__
FrameData
p1391
(dp1392
g6
g1378
sg8
g9
(g13
S'\x00\x00\x00\x00\x00\x00*@'
p1393
tp1394
Rp1395
sg19
I0
sg20
g21
(S'\x07\xdd\t\x1d\x13\x0e\x1c\x07|Y'
p1396
tp1397
Rp1398
sg25
I0
sg26
g27
(g28
(I0
tp1399
g30
tp1400
Rp1401
(I1
(I2
tp1402
g36
I00
S'[\x00\x00\x00~\x00\x00\x00'
p1403
tp1404
bsba(i__main__
FrameData
p1405
(dp1406
g6
g1378
sg8
g9
(g13
S'\xd2\xf1}\x82U\\&@'
p1407
tp1408
Rp1409
sg19
I0
sg20
g21
(S'\x07\xdd\t\x1d\x13\x0e\x1c\x07\xa3\xc9'
p1410
tp1411
Rp1412
sg25
I0
sg26
g27
(g28
(I0
tp1413
g30
tp1414
Rp1415
(I1
(I2
tp1416
g36
I00
S'[\x00\x00\x00|\x00\x00\x00'
p1417
tp1418
bsba(i__main__
FrameData
p1419
(dp1420
g6
g1378
sg8
g9
(g13
S'\x88\x80v\xd5\\\x97$@'
p1421
tp1422
Rp1423
sg19
I0
sg20
g21
(S'\x07\xdd\t\x1d\x13\x0e\x1c\x07\xf2i'
p1424
tp1425
Rp1426
sg25
I0
sg26
g27
(g28
(I0
tp1427
g30
tp1428
Rp1429
(I1
(I2
tp1430
g36
I00
S'[\x00\x00\x00{\x00\x00\x00'
p1431
tp1432
bsba(i__main__
FrameData
p1433
(dp1434
g6
g1378
sg8
g9
(g13
S'N\x017\xfac4!@'
p1435
tp1436
Rp1437
sg19
I0
sg20
g21
(S'\x07\xdd\t\x1d\x13\x0e\x1c\x08@\x0b'
p1438
tp1439
Rp1440
sg25
I0
sg26
g27
(g28
(I0
tp1441
g30
tp1442
Rp1443
(I1
(I2
tp1444
g36
I00
S'[\x00\x00\x00y\x00\x00\x00'
p1445
tp1446
bsba(i__main__
FrameData
p1447
(dp1448
g6
g1378
sg8
g9
(g13
S'htN\x17\xb2=\x1f@'
p1449
tp1450
Rp1451
sg19
I0
sg20
g21
(S'\x07\xdd\t\x1d\x13\x0e\x1c\x08f\x01'
p1452
tp1453
Rp1454
sg25
I0
sg26
g27
(g28
(I0
tp1455
g30
tp1456
Rp1457
(I1
(I2
tp1458
g36
I00
S'[\x00\x00\x00x\x00\x00\x00'
p1459
tp1460
bsba(i__main__
FrameData
p1461
(dp1462
g6
g1378
sg8
g9
(g13
S'\x00\xff\x9f\x99\xcc\x9c\x19@'
p1463
tp1464
Rp1465
sg19
I0
sg20
g21
(S'\x07\xdd\t\x1d\x13\x0e\x1c\x08\xb4\xfa'
p1466
tp1467
Rp1468
sg25
I0
sg26
g27
(g28
(I0
tp1469
g30
tp1470
Rp1471
(I1
(I2
tp1472
g36
I00
S'[\x00\x00\x00v\x00\x00\x00'
p1473
tp1474
bsba(i__main__
FrameData
p1475
(dp1476
g6
g1378
sg8
g9
(g13
S'\xf3\xd9\xa8\xa4h\x8a\x15@'
p1477
tp1478
Rp1479
sg19
I0
sg20
g21
(S'\x07\xdd\t\x1d\x13\x0e\x1c\x08\xf6\x8f'
p1480
tp1481
Rp1482
sg25
I0
sg26
g27
(g28
(I0
tp1483
g30
tp1484
Rp1485
(I1
(I2
tp1486
g36
I00
S'[\x00\x00\x00t\x00\x00\x00'
p1487
tp1488
bsba(i__main__
FrameData
p1489
(dp1490
g6
g1378
sg8
g9
(g13
S'\xf6/\x12_ee\x14@'
p1491
tp1492
Rp1493
sg19
I0
sg20
g21
(S'\x07\xdd\t\x1d\x13\x0e\x1c\t%\x9d'
p1494
tp1495
Rp1496
sg25
I0
sg26
g27
(g28
(I0
tp1497
g30
tp1498
Rp1499
(I1
(I2
tp1500
g36
I00
S'[\x00\x00\x00s\x00\x00\x00'
p1501
tp1502
bsba(i__main__
FrameData
p1503
(dp1504
g6
g1378
sg8
g9
(g13
S'\xf6/\x12_ee\x14@'
p1505
tp1506
Rp1507
sg19
I0
sg20
g21
(S'\x07\xdd\t\x1d\x13\x0e\x1c\txV'
p1508
tp1509
Rp1510
sg25
I0
sg26
g27
(g28
(I0
tp1511
g30
tp1512
Rp1513
(I1
(I2
tp1514
g36
I00
S'[\x00\x00\x00q\x00\x00\x00'
p1515
tp1516
bsba(i__main__
FrameData
p1517
(dp1518
g6
g1378
sg8
g9
(g13
S'\xf3\xd9\xa8\xa4h\x8a\x15@'
p1519
tp1520
Rp1521
sg19
I0
sg20
g21
(S'\x07\xdd\t\x1d\x13\x0e\x1c\t\xc6\x9e'
p1522
tp1523
Rp1524
sg25
I0
sg26
g27
(g28
(I0
tp1525
g30
tp1526
Rp1527
(I1
(I2
tp1528
g36
I00
S'[\x00\x00\x00p\x00\x00\x00'
p1529
tp1530
bsba(i__main__
FrameData
p1531
(dp1532
g6
g1378
sg8
g9
(g13
S'\x00\xff\x9f\x99\xcc\x9c\x19@'
p1533
tp1534
Rp1535
sg19
I0
sg20
g21
(S'\x07\xdd\t\x1d\x13\x0e\x1c\t\xe8r'
p1536
tp1537
Rp1538
sg25
I0
sg26
g27
(g28
(I0
tp1539
g30
tp1540
Rp1541
(I1
(I2
tp1542
g36
I00
S'[\x00\x00\x00n\x00\x00\x00'
p1543
tp1544
bsba(i__main__
FrameData
p1545
(dp1546
g6
g1378
sg8
g9
(g13
S'\xc0\n\x1f\x00\xc6H\x1c@'
p1547
tp1548
Rp1549
sg19
I0
sg20
g21
(S'\x07\xdd\t\x1d\x13\x0e\x1c\n10'
p1550
tp1551
Rp1552
sg25
I0
sg26
g27
(g28
(I0
tp1553
g30
tp1554
Rp1555
(I1
(I2
tp1556
g36
I00
S'[\x00\x00\x00m\x00\x00\x00'
p1557
tp1558
bsba(i__main__
FrameData
p1559
(dp1560
g6
g1378
sg8
g9
(g13
S'N\x017\xfac4!@'
p1561
tp1562
Rp1563
sg19
I0
sg20
g21
(S'\x07\xdd\t\x1d\x13\x0e\x1c\n\x89\xf1'
p1564
tp1565
Rp1566
sg25
I0
sg26
g27
(g28
(I0
tp1567
g30
tp1568
Rp1569
(I1
(I2
tp1570
g36
I00
S'[\x00\x00\x00k\x00\x00\x00'
p1571
tp1572
bsba(i__main__
FrameData
p1573
(dp1574
g6
g1378
sg8
g9
(g13
S'\x88\x80v\xd5\\\x97$@'
p1575
tp1576
Rp1577
sg19
I0
sg20
g21
(S'\x07\xdd\t\x1d\x13\x0e\x1c\n\xb1\xb4'
p1578
tp1579
Rp1580
sg25
I0
sg26
g27
(g28
(I0
tp1581
g30
tp1582
Rp1583
(I1
(I2
tp1584
g36
I00
S'[\x00\x00\x00i\x00\x00\x00'
p1585
tp1586
bsba(i__main__
FrameData
p1587
(dp1588
g6
g1378
sg8
g9
(g13
S'lNy\x00\x85*(@'
p1589
tp1590
Rp1591
sg19
I0
sg20
g21
(S'\x07\xdd\t\x1d\x13\x0e\x1c\n\xfe\x9e'
p1592
tp1593
Rp1594
sg25
I0
sg26
g27
(g28
(I0
tp1595
g30
tp1596
Rp1597
(I1
(I2
tp1598
g36
I00
S'[\x00\x00\x00g\x00\x00\x00'
p1599
tp1600
bsba(i__main__
FrameData
p1601
(dp1602
g6
g1378
sg8
g9
(g13
S'\xbc\xfdP\xb5U\xdb+@'
p1603
tp1604
Rp1605
sg19
I0
sg20
g21
(S'\x07\xdd\t\x1d\x13\x0e\x1c\x0bGm'
p1606
tp1607
Rp1608
sg25
I0
sg26
g27
(g28
(I0
tp1609
g30
tp1610
Rp1611
(I1
(I2
tp1612
g36
I00
S'[\x00\x00\x00e\x00\x00\x00'
p1613
tp1614
bsba(i__main__
FrameData
p1615
(dp1616
g6
g1378
sg8
g9
(g13
S'\xa3\x14\xae\xa8\x87\x161@'
p1617
tp1618
Rp1619
sg19
I0
sg20
g21
(S'\x07\xdd\t\x1d\x13\x0e\x1c\x0bt\x16'
p1620
tp1621
Rp1622
sg25
I0
sg26
g27
(g28
(I0
tp1623
g30
tp1624
Rp1625
(I1
(I2
tp1626
g36
I00
S'Z\x00\x00\x00b\x00\x00\x00'
p1627
tp1628
bsba(i__main__
FrameData
p1629
(dp1630
g6
g1378
sg8
g9
(g13
S'~\xc4#,B\xf92@'
p1631
tp1632
Rp1633
sg19
I0
sg20
g21
(S'\x07\xdd\t\x1d\x13\x0e\x1c\x0b\xc2)'
p1634
tp1635
Rp1636
sg25
I0
sg26
g27
(g28
(I0
tp1637
g30
tp1638
Rp1639
(I1
(I2
tp1640
g36
I00
S'Z\x00\x00\x00`\x00\x00\x00'
p1641
tp1642
bsba(i__main__
FrameData
p1643
(dp1644
g6
S'r'
p1645
sg8
g9
(g13
S'~\xc4#,B\xf92@'
p1646
tp1647
Rp1648
sg19
I0
sg20
g21
(S'\x07\xdd\t\x1d\x13\x0e\x1c\x0b\xf80'
p1649
tp1650
Rp1651
sg25
I0
sg26
g27
(g28
(I0
tp1652
g30
tp1653
Rp1654
(I1
(I2
tp1655
g36
I00
S'X\x00\x00\x00]\x00\x00\x00'
p1656
tp1657
bsba(i__main__
FrameData
p1658
(dp1659
g6
g1645
sg8
g9
(g13
S'>9\x15\x8cW\xc30@'
p1660
tp1661
Rp1662
sg19
I0
sg20
g21
(S'\x07\xdd\t\x1d\x13\x0e\x1c\x0c7\x94'
p1663
tp1664
Rp1665
sg25
I0
sg26
g27
(g28
(I0
tp1666
g30
tp1667
Rp1668
(I1
(I2
tp1669
g36
I00
S'W\x00\x00\x00[\x00\x00\x00'
p1670
tp1671
bsba(i__main__
FrameData
p1672
(dp1673
g6
g1645
sg8
g9
(g13
S'\xbc\xfdP\xb5U\xdb+@'
p1674
tp1675
Rp1676
sg19
I0
sg20
g21
(S'\x07\xdd\t\x1d\x13\x0e\x1c\x0c\x84\xb9'
p1677
tp1678
Rp1679
sg25
I0
sg26
g27
(g28
(I0
tp1680
g30
tp1681
Rp1682
(I1
(I2
tp1683
g36
I00
S'W\x00\x00\x00X\x00\x00\x00'
p1684
tp1685
bsba(i__main__
FrameData
p1686
(dp1687
g6
g1645
sg8
g9
(g13
S'\xeb\x12\xb2\xbb\xb2\xcd&@'
p1688
tp1689
Rp1690
sg19
I0
sg20
g21
(S'\x07\xdd\t\x1d\x13\x0e\x1c\x0c\xbb\\'
p1691
tp1692
Rp1693
sg25
I0
sg26
g27
(g28
(I0
tp1694
g30
tp1695
Rp1696
(I1
(I2
tp1697
g36
I00
S'U\x00\x00\x00V\x00\x00\x00'
p1698
tp1699
bsba(i__main__
FrameData
p1700
(dp1701
g6
g1645
sg8
g9
(g13
S'\x9a.\x90!hp"@'
p1702
tp1703
Rp1704
sg19
I0
sg20
g21
(S'\x07\xdd\t\x1d\x13\x0e\x1c\x0c\xf7K'
p1705
tp1706
Rp1707
sg25
I0
sg26
g27
(g28
(I0
tp1708
g30
tp1709
Rp1710
(I1
(I2
tp1711
g36
I00
S'T\x00\x00\x00T\x00\x00\x00'
p1712
tp1713
bsba(i__main__
FrameData
p1714
(dp1715
g6
g1645
sg8
g9
(g13
S'\xd0\xbaa?\xe0\x1f @'
p1716
tp1717
Rp1718
sg19
I0
sg20
g21
(S'\x07\xdd\t\x1d\x13\x0e\x1c\rL\xfc'
p1719
tp1720
Rp1721
sg25
I0
sg26
g27
(g28
(I0
tp1722
g30
tp1723
Rp1724
(I1
(I2
tp1725
g36
I00
S'S\x00\x00\x00S\x00\x00\x00'
p1726
tp1727
bsba(i__main__
FrameData
p1728
(dp1729
g6
g1645
sg8
g9
(g13
S'\xc0\n\x1f\x00\xc6H\x1c@'
p1730
tp1731
Rp1732
sg19
I0
sg20
g21
(S'\x07\xdd\t\x1d\x13\x0e\x1c\rz\xe5'
p1733
tp1734
Rp1735
sg25
I0
sg26
g27
(g28
(I0
tp1736
g30
tp1737
Rp1738
(I1
(I2
tp1739
g36
I00
S'S\x00\x00\x00R\x00\x00\x00'
p1740
tp1741
bsba(i__main__
FrameData
p1742
(dp1743
g6
g1645
sg8
g9
(g13
S'\x00\x00\x00\x00\x00\x00\x18@'
p1744
tp1745
Rp1746
sg19
I0
sg20
g21
(S'\x07\xdd\t\x1d\x13\x0e\x1c\r\xbe\xf6'
p1747
tp1748
Rp1749
sg25
I0
sg26
g27
(g28
(I0
tp1750
g30
tp1751
Rp1752
(I1
(I2
tp1753
g36
I00
S'R\x00\x00\x00Q\x00\x00\x00'
p1754
tp1755
bsba(i__main__
FrameData
p1756
(dp1757
g6
g1645
sg8
g9
(g13
S'\x00\x00\x00\x00\x00\x00\x14@'
p1758
tp1759
Rp1760
sg19
I0
sg20
g21
(S'\x07\xdd\t\x1d\x13\x0e\x1c\x0e\x02\xa0'
p1761
tp1762
Rp1763
sg25
I0
sg26
g27
(g28
(I0
tp1764
g30
tp1765
Rp1766
(I1
(I2
tp1767
g36
I00
S'R\x00\x00\x00P\x00\x00\x00'
p1768
tp1769
bsba(i__main__
FrameData
p1770
(dp1771
g6
g1645
sg8
g9
(g13
S'\x00\x00\x00\x00\x00\x00\x10@'
p1772
tp1773
Rp1774
sg19
I0
sg20
g21
(S'\x07\xdd\t\x1d\x13\x0e\x1c\x0e\x8cN'
p1775
tp1776
Rp1777
sg25
I0
sg26
g27
(g28
(I0
tp1778
g30
tp1779
Rp1780
(I1
(I2
tp1781
g36
I00
S'R\x00\x00\x00O\x00\x00\x00'
p1782
tp1783
bsba(i__main__
FrameData
p1784
(dp1785
g6
g1645
sg8
g9
(g13
S'\x00\x00\x00\x00\x00\x00\x08@'
p1786
tp1787
Rp1788
sg19
I0
sg20
g21
(S'\x07\xdd\t\x1d\x13\x0e\x1d\x00A\x14'
p1789
tp1790
Rp1791
sg25
I0
sg26
g27
(g28
(I0
tp1792
g30
tp1793
Rp1794
(I1
(I2
tp1795
g36
I00
S'R\x00\x00\x00N\x00\x00\x00'
p1796
tp1797
bsba(i__main__
FrameData
p1798
(dp1799
g6
g1645
sg8
g9
(g13
S'\x00\x00\x00\x00\x00\x00\x00@'
p1800
tp1801
Rp1802
sg19
I0
sg20
g21
(S'\x07\xdd\t\x1d\x13\x0e\x1d\x00\xc8\x15'
p1803
tp1804
Rp1805
sg25
I0
sg26
g27
(g28
(I0
tp1806
g30
tp1807
Rp1808
(I1
(I2
tp1809
g36
I00
S'R\x00\x00\x00M\x00\x00\x00'
p1810
tp1811
bsba(i__main__
FrameData
p1812
(dp1813
g6
g1645
sg8
g9
(g13
S'\x00\x00\x00\x00\x00\x00\xf0?'
p1814
tp1815
Rp1816
sg19
I0
sg20
g21
(S'\x07\xdd\t\x1d\x13\x0e\x1d\x01\x06\x84'
p1817
tp1818
Rp1819
sg25
I0
sg26
g27
(g28
(I0
tp1820
g30
tp1821
Rp1822
(I1
(I2
tp1823
g36
I00
S'R\x00\x00\x00L\x00\x00\x00'
p1824
tp1825
bsba(i__main__
FrameData
p1826
(dp1827
g6
g1645
sg8
g9
(g13
S'\x00\x00\x00\x00\x00\x00\x00\x00'
p1828
tp1829
Rp1830
sg19
I0
sg20
g21
(S'\x07\xdd\t\x1d\x13\x0e\x1d\x01\x8b\xb7'
p1831
tp1832
Rp1833
sg25
I0
sg26
g27
(g28
(I0
tp1834
g30
tp1835
Rp1836
(I1
(I2
tp1837
g36
I00
S'R\x00\x00\x00K\x00\x00\x00'
p1838
tp1839
bsba(i__main__
FrameData
p1840
(dp1841
g6
g1645
sg8
g9
(g13
S'\xcd;\x7ff\x9e\xa0\xf6?'
p1842
tp1843
Rp1844
sg19
I0
sg20
g21
(S'\x07\xdd\t\x1d\x13\x0e\x1d\x05|x'
p1845
tp1846
Rp1847
sg25
I0
sg26
g27
(g28
(I0
tp1848
g30
tp1849
Rp1850
(I1
(I2
tp1851
g36
I00
S'Q\x00\x00\x00L\x00\x00\x00'
p1852
tp1853
bsba(i__main__
FrameData
p1854
(dp1855
g6
g1645
sg8
g9
(g13
S'\x00\x00\x00\x00\x00\x00\x00@'
p1856
tp1857
Rp1858
sg19
I0
sg20
g21
(S'\x07\xdd\t\x1d\x13\x0e\x1d\x05\xf0\x8d'
p1859
tp1860
Rp1861
sg25
I0
sg26
g27
(g28
(I0
tp1862
g30
tp1863
Rp1864
(I1
(I2
tp1865
g36
I00
S'R\x00\x00\x00M\x00\x00\x00'
p1866
tp1867
bsba(i__main__
FrameData
p1868
(dp1869
g6
g1645
sg8
g9
(g13
S'\xf3YaD+\xd8\x0c@'
p1870
tp1871
Rp1872
sg19
I0
sg20
g21
(S'\x07\xdd\t\x1d\x13\x0e\x1d\x06\x1e\xae'
p1873
tp1874
Rp1875
sg25
I0
sg26
g27
(g28
(I0
tp1876
g30
tp1877
Rp1878
(I1
(I2
tp1879
g36
I00
S'T\x00\x00\x00N\x00\x00\x00'
p1880
tp1881
bsba(i__main__
FrameData
p1882
(dp1883
g6
g1645
sg8
g9
(g13
S'\x00\x00\x00\x00\x00\x00\x14@'
p1884
tp1885
Rp1886
sg19
I0
sg20
g21
(S'\x07\xdd\t\x1d\x13\x0e\x1d\x06g\x07'
p1887
tp1888
Rp1889
sg25
I0
sg26
g27
(g28
(I0
tp1890
g30
tp1891
Rp1892
(I1
(I2
tp1893
g36
I00
S'V\x00\x00\x00N\x00\x00\x00'
p1894
tp1895
bsba(i__main__
FrameData
p1896
(dp1897
g6
g1645
sg8
g9
(g13
S'\xa8\xf4\x97\x9bw\xe3!@'
p1898
tp1899
Rp1900
sg19
I0
sg20
g21
(S'\x07\xdd\t\x1d\x13\x0e\x1d\x06\xb5\xc3'
p1901
tp1902
Rp1903
sg25
I0
sg26
g27
(g28
(I0
tp1904
g30
tp1905
Rp1906
(I1
(I2
tp1907
g36
I00
S'Z\x00\x00\x00O\x00\x00\x00'
p1908
tp1909
bsba(i__main__
FrameData
p1910
(dp1911
g6
g1645
sg8
g9
(g13
S'S[\xda:XL)@'
p1912
tp1913
Rp1914
sg19
I0
sg20
g21
(S'\x07\xdd\t\x1d\x13\x0e\x1d\x07\x01\xfc'
p1915
tp1916
Rp1917
sg25
I0
sg26
g27
(g28
(I0
tp1918
g30
tp1919
Rp1920
(I1
(I2
tp1921
g36
I00
S'^\x00\x00\x00O\x00\x00\x00'
p1922
tp1923
bsba(i__main__
FrameData
p1924
(dp1925
g6
S't'
p1926
sg8
g9
(g13
S'\x00\xff\x9f\x99\xcc\x9c\x19@'
p1927
tp1928
Rp1929
sg19
I0
sg20
g21
(S'\x07\xdd\t\x1d\x13\x0e\x1d\x07#!'
p1930
tp1931
Rp1932
sg25
I0
sg26
g27
(g28
(I0
tp1933
g30
tp1934
Rp1935
(I1
(I2
tp1936
g36
I00
S'e\x00\x00\x00O\x00\x00\x00'
p1937
tp1938
bsba(i__main__
FrameData
p1939
(dp1940
g6
g1926
sg8
g9
(g13
S'\x00\x00\x00\x00\x00\x00\x10@'
p1941
tp1942
Rp1943
sg19
I0
sg20
g21
(S'\x07\xdd\t\x1d\x13\x0e\x1d\x07x8'
p1944
tp1945
Rp1946
sg25
I0
sg26
g27
(g28
(I0
tp1947
g30
tp1948
Rp1949
(I1
(I2
tp1950
g36
I00
S'j\x00\x00\x00O\x00\x00\x00'
p1951
tp1952
bsba(i__main__
FrameData
p1953
(dp1954
g6
g1926
sg8
g9
(g13
S'\xf3YaD+\xd8\x1c@'
p1955
tp1956
Rp1957
sg19
I0
sg20
g21
(S'\x07\xdd\t\x1d\x13\x0e\x1d\x07\xc6U'
p1958
tp1959
Rp1960
sg25
I0
sg26
g27
(g28
(I0
tp1961
g30
tp1962
Rp1963
(I1
(I2
tp1964
g36
I00
S'p\x00\x00\x00O\x00\x00\x00'
p1965
tp1966
bsba(i__main__
FrameData
p1967
(dp1968
g6
S'y'
p1969
sg8
g9
(g13
S'\xf6/\x12_ee$@'
p1970
tp1971
Rp1972
sg19
I0
sg20
g21
(S'\x07\xdd\t\x1d\x13\x0e\x1d\x07\xed\xba'
p1973
tp1974
Rp1975
sg25
I0
sg26
g27
(g28
(I0
tp1976
g30
tp1977
Rp1978
(I1
(I2
tp1979
g36
I00
S'x\x00\x00\x00O\x00\x00\x00'
p1980
tp1981
bsba(i__main__
FrameData
p1982
(dp1983
g6
g1969
sg8
g9
(g13
S'\xcd;\x7ff\x9e\xa0\x06@'
p1984
tp1985
Rp1986
sg19
I0
sg20
g21
(S'\x07\xdd\t\x1d\x13\x0e\x1d\x08<L'
p1987
tp1988
Rp1989
sg25
I0
sg26
g27
(g28
(I0
tp1990
g30
tp1991
Rp1992
(I1
(I2
tp1993
g36
I00
S'\x80\x00\x00\x00O\x00\x00\x00'
p1994
tp1995
bsba(i__main__
FrameData
p1996
(dp1997
g6
g1969
sg8
g9
(g13
S'\xf3YaD+\xd8\x0c@'
p1998
tp1999
Rp2000
sg19
I0
sg20
g21
(S'\x07\xdd\t\x1d\x13\x0e\x1d\x08\x89\xa3'
p2001
tp2002
Rp2003
sg25
I0
sg26
g27
(g28
(I0
tp2004
g30
tp2005
Rp2006
(I1
(I2
tp2007
g36
I00
S'\x85\x00\x00\x00O\x00\x00\x00'
p2008
tp2009
bsba(i__main__
FrameData
p2010
(dp2011
g6
g1969
sg8
g9
(g13
S'\x07\xed\xaff\x0f~ @'
p2012
tp2013
Rp2014
sg19
I0
sg20
g21
(S'\x07\xdd\t\x1d\x13\x0e\x1d\x08\xb0\xc9'
p2015
tp2016
Rp2017
sg25
I0
sg26
g27
(g28
(I0
tp2018
g30
tp2019
Rp2020
(I1
(I2
tp2021
g36
I00
S'\x8a\x00\x00\x00O\x00\x00\x00'
p2022
tp2023
bsba(i__main__
FrameData
p2024
(dp2025
g6
S'u'
p2026
sg8
g9
(g13
S'w\x03Is \xa2%@'
p2027
tp2028
Rp2029
sg19
I0
sg20
g21
(S'\x07\xdd\t\x1d\x13\x0e\x1d\x08\xfd\xce'
p2030
tp2031
Rp2032
sg25
I0
sg26
g27
(g28
(I0
tp2033
g30
tp2034
Rp2035
(I1
(I2
tp2036
g36
I00
S'\x8f\x00\x00\x00P\x00\x00\x00'
p2037
tp2038
bsba(i__main__
FrameData
p2039
(dp2040
g6
g2026
sg8
g9
(g13
S'\xf3YaD+\xd8\x1c@'
p2041
tp2042
Rp2043
sg19
I0
sg20
g21
(S'\x07\xdd\t\x1d\x13\x0e\x1d\tL\xe2'
p2044
tp2045
Rp2046
sg25
I0
sg26
g27
(g28
(I0
tp2047
g30
tp2048
Rp2049
(I1
(I2
tp2050
g36
I00
S'\x94\x00\x00\x00P\x00\x00\x00'
p2051
tp2052
bsba(i__main__
FrameData
p2053
(dp2054
g6
g2026
sg8
g9
(g13
S'9\xdcc\xb3\xbfT\x18@'
p2055
tp2056
Rp2057
sg19
I0
sg20
g21
(S'\x07\xdd\t\x1d\x13\x0e\x1d\ttd'
p2058
tp2059
Rp2060
sg25
I0
sg26
g27
(g28
(I0
tp2061
g30
tp2062
Rp2063
(I1
(I2
tp2064
g36
I00
S'\x99\x00\x00\x00P\x00\x00\x00'
p2065
tp2066
bsba(i__main__
FrameData
p2067
(dp2068
g6
g2026
sg8
g9
(g13
S'\x00\x00\x00\x00\x00\x00$@'
p2069
tp2070
Rp2071
sg19
I0
sg20
g21
(S'\x07\xdd\t\x1d\x13\x0e\x1d\t\xc2\x0c'
p2072
tp2073
Rp2074
sg25
I0
sg26
g27
(g28
(I0
tp2075
g30
tp2076
Rp2077
(I1
(I2
tp2078
g36
I00
S'\xa0\x00\x00\x00P\x00\x00\x00'
p2079
tp2080
bsba(i__main__
FrameData
p2081
(dp2082
g6
g394
sg8
g9
(g13
S'\xbc\xfdP\xb5U\xdb+@'
p2083
tp2084
Rp2085
sg19
I0
sg20
g21
(S'\x07\xdd\t\x1d\x13\x0e\x1d\n\x105'
p2086
tp2087
Rp2088
sg25
I0
sg26
g27
(g28
(I0
tp2089
g30
tp2090
Rp2091
(I1
(I2
tp2092
g36
I00
S'\xa5\x00\x00\x00P\x00\x00\x00'
p2093
tp2094
bsba(i__main__
FrameData
p2095
(dp2096
g6
g394
sg8
g9
(g13
S'\xd2\xf1}\x82U\\&@'
p2097
tp2098
Rp2099
sg19
I0
sg20
g21
(S'\x07\xdd\t\x1d\x13\x0e\x1d\n6\x94'
p2100
tp2101
Rp2102
sg25
I0
sg26
g27
(g28
(I0
tp2103
g30
tp2104
Rp2105
(I1
(I2
tp2106
g36
I00
S'\xa8\x00\x00\x00P\x00\x00\x00'
p2107
tp2108
bsba(i__main__
FrameData
p2109
(dp2110
g6
g394
sg8
g9
(g13
S'A\x87b\xc62\xde"@'
p2111
tp2112
Rp2113
sg19
I0
sg20
g21
(S'\x07\xdd\t\x1d\x13\x0e\x1d\ns\xd3'
p2114
tp2115
Rp2116
sg25
I0
sg26
g27
(g28
(I0
tp2117
g30
tp2118
Rp2119
(I1
(I2
tp2120
g36
I00
S'\xaa\x00\x00\x00P\x00\x00\x00'
p2121
tp2122
bsba(i__main__
FrameData
p2123
(dp2124
g6
g394
sg8
g9
(g13
S'htN\x17\xb2=\x1f@'
p2125
tp2126
Rp2127
sg19
I0
sg20
g21
(S'\x07\xdd\t\x1d\x13\x0e\x1d\n\xb3\xe8'
p2128
tp2129
Rp2130
sg25
I0
sg26
g27
(g28
(I0
tp2131
g30
tp2132
Rp2133
(I1
(I2
tp2134
g36
I00
S'\xac\x00\x00\x00P\x00\x00\x00'
p2135
tp2136
bsba(i__main__
FrameData
p2137
(dp2138
g6
g394
sg8
g9
(g13
S'\xc0\n\x1f\x00\xc6H\x1c@'
p2139
tp2140
Rp2141
sg19
I0
sg20
g21
(S'\x07\xdd\t\x1d\x13\x0e\x1d\n\xfb\xc8'
p2142
tp2143
Rp2144
sg25
I0
sg26
g27
(g28
(I0
tp2145
g30
tp2146
Rp2147
(I1
(I2
tp2148
g36
I00
S'\xad\x00\x00\x00P\x00\x00\x00'
p2149
tp2150
bsba(i__main__
FrameData
p2151
(dp2152
g6
g394
sg8
g9
(g13
S'\xa2\xa3\xb3\r\xe5R\x17@'
p2153
tp2154
Rp2155
sg19
I0
sg20
g21
(S'\x07\xdd\t\x1d\x13\x0e\x1d\x0bI;'
p2156
tp2157
Rp2158
sg25
I0
sg26
g27
(g28
(I0
tp2159
g30
tp2160
Rp2161
(I1
(I2
tp2162
g36
I00
S'\xaf\x00\x00\x00P\x00\x00\x00'
p2163
tp2164
bsba(i__main__
FrameData
p2165
(dp2166
g6
g394
sg8
g9
(g13
S'\xf3\xd9\xa8\xa4h\x8a\x15@'
p2167
tp2168
Rp2169
sg19
I0
sg20
g21
(S'\x07\xdd\t\x1d\x13\x0e\x1d\x0b\x97p'
p2170
tp2171
Rp2172
sg25
I0
sg26
g27
(g28
(I0
tp2173
g30
tp2174
Rp2175
(I1
(I2
tp2176
g36
I00
S'\xb0\x00\x00\x00P\x00\x00\x00'
p2177
tp2178
bsba(i__main__
FrameData
p2179
(dp2180
g6
g394
sg8
g9
(g13
S'\xf6/\x12_ee\x14@'
p2181
tp2182
Rp2183
sg19
I0
sg20
g21
(S'\x07\xdd\t\x1d\x13\x0e\x1d\x0b\xbe&'
p2184
tp2185
Rp2186
sg25
I0
sg26
g27
(g28
(I0
tp2187
g30
tp2188
Rp2189
(I1
(I2
tp2190
g36
I00
S'\xb1\x00\x00\x00P\x00\x00\x00'
p2191
tp2192
bsba(i__main__
FrameData
p2193
(dp2194
g6
g394
sg8
g9
(g13
S'\x00\x00\x00\x00\x00\x00\x14@'
p2195
tp2196
Rp2197
sg19
I0
sg20
g21
(S'\x07\xdd\t\x1d\x13\x0e\x1d\x0c\x0cF'
p2198
tp2199
Rp2200
sg25
I0
sg26
g27
(g28
(I0
tp2201
g30
tp2202
Rp2203
(I1
(I2
tp2204
g36
I00
S'\xb2\x00\x00\x00P\x00\x00\x00'
p2205
tp2206
bsba(i__main__
FrameData
p2207
(dp2208
g6
g394
sg8
g9
(g13
S'\xf6/\x12_ee\x14@'
p2209
tp2210
Rp2211
sg19
I0
sg20
g21
(S'\x07\xdd\t\x1d\x13\x0e\x1d\x0cZW'
p2212
tp2213
Rp2214
sg25
I0
sg26
g27
(g28
(I0
tp2215
g30
tp2216
Rp2217
(I1
(I2
tp2218
g36
I00
S'\xb3\x00\x00\x00P\x00\x00\x00'
p2219
tp2220
bsba(i__main__
FrameData
p2221
(dp2222
g6
g394
sg8
g9
(g13
S'\xf3\xd9\xa8\xa4h\x8a\x15@'
p2223
tp2224
Rp2225
sg19
I0
sg20
g21
(S'\x07\xdd\t\x1d\x13\x0e\x1d\x0c\x80U'
p2226
tp2227
Rp2228
sg25
I0
sg26
g27
(g28
(I0
tp2229
g30
tp2230
Rp2231
(I1
(I2
tp2232
g36
I00
S'\xb4\x00\x00\x00P\x00\x00\x00'
p2233
tp2234
bsba(i__main__
FrameData
p2235
(dp2236
g6
g394
sg8
g9
(g13
S'\xa2\xa3\xb3\r\xe5R\x17@'
p2237
tp2238
Rp2239
sg19
I0
sg20
g21
(S'\x07\xdd\t\x1d\x13\x0e\x1d\x0c\xce\xcc'
p2240
tp2241
Rp2242
sg25
I0
sg26
g27
(g28
(I0
tp2243
g30
tp2244
Rp2245
(I1
(I2
tp2246
g36
I00
S'\xb5\x00\x00\x00P\x00\x00\x00'
p2247
tp2248
bsba(i__main__
FrameData
p2249
(dp2250
g6
g394
sg8
g9
(g13
S'\x00\xff\x9f\x99\xcc\x9c\x19@'
p2251
tp2252
Rp2253
sg19
I0
sg20
g21
(S'\x07\xdd\t\x1d\x13\x0e\x1d\r\x1b\xb5'
p2254
tp2255
Rp2256
sg25
I0
sg26
g27
(g28
(I0
tp2257
g30
tp2258
Rp2259
(I1
(I2
tp2260
g36
I00
S'\xb6\x00\x00\x00P\x00\x00\x00'
p2261
tp2262
bsba(i__main__
FrameData
p2263
(dp2264
g6
g394
sg8
g9
(g13
S'\xc0\n\x1f\x00\xc6H\x1c@'
p2265
tp2266
Rp2267
sg19
I0
sg20
g21
(S'\x07\xdd\t\x1d\x13\x0e\x1d\rD4'
p2268
tp2269
Rp2270
sg25
I0
sg26
g27
(g28
(I0
tp2271
g30
tp2272
Rp2273
(I1
(I2
tp2274
g36
I00
S'\xb7\x00\x00\x00P\x00\x00\x00'
p2275
tp2276
bsba(i__main__
FrameData
p2277
(dp2278
g6
g394
sg8
g9
(g13
S'N\x017\xfac4!@'
p2279
tp2280
Rp2281
sg19
I0
sg20
g21
(S'\x07\xdd\t\x1d\x13\x0e\x1d\r\x83z'
p2282
tp2283
Rp2284
sg25
I0
sg26
g27
(g28
(I0
tp2285
g30
tp2286
Rp2287
(I1
(I2
tp2288
g36
I00
S'\xb9\x00\x00\x00P\x00\x00\x00'
p2289
tp2290
bsba(i__main__
FrameData
p2291
(dp2292
g6
g394
sg8
g9
(g13
S'A\x87b\xc62\xde"@'
p2293
tp2294
Rp2295
sg19
I0
sg20
g21
(S'\x07\xdd\t\x1d\x13\x0e\x1d\r\xe2p'
p2296
tp2297
Rp2298
sg25
I0
sg26
g27
(g28
(I0
tp2299
g30
tp2300
Rp2301
(I1
(I2
tp2302
g36
I00
S'\xba\x00\x00\x00P\x00\x00\x00'
p2303
tp2304
bsba(i__main__
FrameData
p2305
(dp2306
g6
g394
sg8
g9
(g13
S'\x88\x80v\xd5\\\x97$@'
p2307
tp2308
Rp2309
sg19
I0
sg20
g21
(S'\x07\xdd\t\x1d\x13\x0e\x1d\x0e\x04\xc1'
p2310
tp2311
Rp2312
sg25
I0
sg26
g27
(g28
(I0
tp2313
g30
tp2314
Rp2315
(I1
(I2
tp2316
g36
I00
S'\xbb\x00\x00\x00P\x00\x00\x00'
p2317
tp2318
bsba(i__main__
FrameData
p2319
(dp2320
g6
g394
sg8
g9
(g13
S'lNy\x00\x85*(@'
p2321
tp2322
Rp2323
sg19
I0
sg20
g21
(S'\x07\xdd\t\x1d\x13\x0e\x1d\x0eV\xbf'
p2324
tp2325
Rp2326
sg25
I0
sg26
g27
(g28
(I0
tp2327
g30
tp2328
Rp2329
(I1
(I2
tp2330
g36
I00
S'\xbd\x00\x00\x00P\x00\x00\x00'
p2331
tp2332
bsba(i__main__
FrameData
p2333
(dp2334
g6
g394
sg8
g9
(g13
S'\x00\x00\x00\x00\x00\x00*@'
p2335
tp2336
Rp2337
sg19
I0
sg20
g21
(S'\x07\xdd\t\x1d\x13\x0e\x1d\x0e\x9cC'
p2338
tp2339
Rp2340
sg25
I0
sg26
g27
(g28
(I0
tp2341
g30
tp2342
Rp2343
(I1
(I2
tp2344
g36
I00
S'\xbe\x00\x00\x00P\x00\x00\x00'
p2345
tp2346
bsba(i__main__
FrameData
p2347
(dp2348
g6
S'o'
p2349
sg8
g9
(g13
S'lNy\x00\x85*(@'
p2350
tp2351
Rp2352
sg19
I0
sg20
g21
(S'\x07\xdd\t\x1d\x13\x0e\x1d\x0f\x1ai'
p2353
tp2354
Rp2355
sg25
I0
sg26
g27
(g28
(I0
tp2356
g30
tp2357
Rp2358
(I1
(I2
tp2359
g36
I00
S'\xbf\x00\x00\x00P\x00\x00\x00'
p2360
tp2361
bsba(i__main__
FrameData
p2362
(dp2363
g6
g2349
sg8
g9
(g13
S'\xd2\xf1}\x82U\\&@'
p2364
tp2365
Rp2366
sg19
I0
sg20
g21
(S'\x07\xdd\t\x1d\x13\x0e\x1e\x00$\xc9'
p2367
tp2368
Rp2369
sg25
I0
sg26
g27
(g28
(I0
tp2370
g30
tp2371
Rp2372
(I1
(I2
tp2373
g36
I00
S'\xc0\x00\x00\x00P\x00\x00\x00'
p2374
tp2375
bsba(i__main__
FrameData
p2376
(dp2377
g6
g2349
sg8
g9
(g13
S'bVc}\x9d\xb2#@'
p2378
tp2379
Rp2380
sg19
I0
sg20
g21
(S'\x07\xdd\t\x1d\x13\x0e\x1e\x00K\xed'
p2381
tp2382
Rp2383
sg25
I0
sg26
g27
(g28
(I0
tp2384
g30
tp2385
Rp2386
(I1
(I2
tp2387
g36
I00
S'\xc1\x00\x00\x00O\x00\x00\x00'
p2388
tp2389
bsba(i__main__
FrameData
p2390
(dp2391
g6
g2349
sg8
g9
(g13
S'\xd0\xbaa?\xe0\x1f @'
p2392
tp2393
Rp2394
sg19
I0
sg20
g21
(S'\x07\xdd\t\x1d\x13\x0e\x1e\x00\x90\xa4'
p2395
tp2396
Rp2397
sg25
I0
sg26
g27
(g28
(I0
tp2398
g30
tp2399
Rp2400
(I1
(I2
tp2401
g36
I00
S'\xc3\x00\x00\x00O\x00\x00\x00'
p2402
tp2403
bsba(i__main__
FrameData
p2404
(dp2405
g6
g2349
sg8
g9
(g13
S'\xf3YaD+\xd8\x1c@'
p2406
tp2407
Rp2408
sg19
I0
sg20
g21
(S'\x07\xdd\t\x1d\x13\x0e\x1e\x00\xe96'
p2409
tp2410
Rp2411
sg25
I0
sg26
g27
(g28
(I0
tp2412
g30
tp2413
Rp2414
(I1
(I2
tp2415
g36
I00
S'\xc4\x00\x00\x00O\x00\x00\x00'
p2416
tp2417
bsba(i__main__
FrameData
p2418
(dp2419
g6
g2349
sg8
g9
(g13
S'\x00\xff\x9f\x99\xcc\x9c\x19@'
p2420
tp2421
Rp2422
sg19
I0
sg20
g21
(S'\x07\xdd\t\x1d\x13\x0e\x1e\x01\x10]'
p2423
tp2424
Rp2425
sg25
I0
sg26
g27
(g28
(I0
tp2426
g30
tp2427
Rp2428
(I1
(I2
tp2429
g36
I00
S'\xc5\x00\x00\x00O\x00\x00\x00'
p2430
tp2431
bsba(i__main__
FrameData
p2432
(dp2433
g6
g2349
sg8
g9
(g13
S'\xcd;\x7ff\x9e\xa0\x16@'
p2434
tp2435
Rp2436
sg19
I0
sg20
g21
(S'\x07\xdd\t\x1d\x13\x0e\x1e\x01\xac\x9f'
p2437
tp2438
Rp2439
sg25
I0
sg26
g27
(g28
(I0
tp2440
g30
tp2441
Rp2442
(I1
(I2
tp2443
g36
I00
S'\xc6\x00\x00\x00O\x00\x00\x00'
p2444
tp2445
bsba(i__main__
FrameData
p2446
(dp2447
g6
g2349
sg8
g9
(g13
S'\x00\x00\x00\x00\x00\x00\x14@'
p2448
tp2449
Rp2450
sg19
I0
sg20
g21
(S'\x07\xdd\t\x1d\x13\x0e\x1e\x01\xd3\xab'
p2451
tp2452
Rp2453
sg25
I0
sg26
g27
(g28
(I0
tp2454
g30
tp2455
Rp2456
(I1
(I2
tp2457
g36
I00
S'\xc7\x00\x00\x00O\x00\x00\x00'
p2458
tp2459
bsba(i__main__
FrameData
p2460
(dp2461
g6
g2349
sg8
g9
(g13
S'\xf3YaD+\xd8\x0c@'
p2462
tp2463
Rp2464
sg19
I0
sg20
g21
(S'\x07\xdd\t\x1d\x13\x0e\x1e\x02\x12H'
p2465
tp2466
Rp2467
sg25
I0
sg26
g27
(g28
(I0
tp2468
g30
tp2469
Rp2470
(I1
(I2
tp2471
g36
I00
S'\xc7\x00\x00\x00M\x00\x00\x00'
p2472
tp2473
bsba(i__main__
FrameData
p2474
(dp2475
g6
g2349
sg8
g9
(g13
S'\xa8\xf4\x97\x9bw\xe3\x01@'
p2476
tp2477
Rp2478
sg19
I0
sg20
g21
(S'\x07\xdd\t\x1d\x13\x0e\x1e\x02\x95\xa7'
p2479
tp2480
Rp2481
sg25
I0
sg26
g27
(g28
(I0
tp2482
g30
tp2483
Rp2484
(I1
(I2
tp2485
g36
I00
S'\xc9\x00\x00\x00M\x00\x00\x00'
p2486
tp2487
bsba(i__main__
FrameData
p2488
(dp2489
g6
g2349
sg8
g9
(g13
S'\x00\x00\x00\x00\x00\x00\x00@'
p2490
tp2491
Rp2492
sg19
I0
sg20
g21
(S'\x07\xdd\t\x1d\x13\x0e\x1e\x02\xd6r'
p2493
tp2494
Rp2495
sg25
I0
sg26
g27
(g28
(I0
tp2496
g30
tp2497
Rp2498
(I1
(I2
tp2499
g36
I00
S'\xca\x00\x00\x00M\x00\x00\x00'
p2500
tp2501
bsba(i__main__
FrameData
p2502
(dp2503
g6
g2349
sg8
g9
(g13
S'\x00\x00\x00\x00\x00\x00\xf0?'
p2504
tp2505
Rp2506
sg19
I0
sg20
g21
(S'\x07\xdd\t\x1d\x13\x0e\x1e\x05\xe6\x15'
p2507
tp2508
Rp2509
sg25
I0
sg26
g27
(g28
(I0
tp2510
g30
tp2511
Rp2512
(I1
(I2
tp2513
g36
I00
S'\xca\x00\x00\x00L\x00\x00\x00'
p2514
tp2515
bsba(i__main__
FrameData
p2516
(dp2517
g6
g2349
sg8
g9
(g13
S'\xcd;\x7ff\x9e\xa0\xf6?'
p2518
tp2519
Rp2520
sg19
I0
sg20
g21
(S'\x07\xdd\t\x1d\x13\x0e\x1e\n\\\x9c'
p2521
tp2522
Rp2523
sg25
I0
sg26
g27
(g28
(I0
tp2524
g30
tp2525
Rp2526
(I1
(I2
tp2527
g36
I00
S'\xc9\x00\x00\x00L\x00\x00\x00'
p2528
tp2529
bsba(i__main__
FrameData
p2530
(dp2531
g6
g2349
sg8
g9
(g13
S'\xa8\xf4\x97\x9bw\xe3\x01@'
p2532
tp2533
Rp2534
sg19
I0
sg20
g21
(S'\x07\xdd\t\x1d\x13\x0e\x1e\n\x82\xb0'
p2535
tp2536
Rp2537
sg25
I0
sg26
g27
(g28
(I0
tp2538
g30
tp2539
Rp2540
(I1
(I2
tp2541
g36
I00
S'\xc8\x00\x00\x00L\x00\x00\x00'
p2542
tp2543
bsba(i__main__
FrameData
p2544
(dp2545
g6
g2349
sg8
g9
(g13
S'S[\xda:XL\t@'
p2546
tp2547
Rp2548
sg19
I0
sg20
g21
(S'\x07\xdd\t\x1d\x13\x0e\x1e\n\xd3\x03'
p2549
tp2550
Rp2551
sg25
I0
sg26
g27
(g28
(I0
tp2552
g30
tp2553
Rp2554
(I1
(I2
tp2555
g36
I00
S'\xc7\x00\x00\x00L\x00\x00\x00'
p2556
tp2557
bsba(i__main__
FrameData
p2558
(dp2559
g6
g2349
sg8
g9
(g13
S'\xf6/\x12_ee\x14@'
p2560
tp2561
Rp2562
sg19
I0
sg20
g21
(S'\x07\xdd\t\x1d\x13\x0e\x1e\x0b!.'
p2563
tp2564
Rp2565
sg25
I0
sg26
g27
(g28
(I0
tp2566
g30
tp2567
Rp2568
(I1
(I2
tp2569
g36
I00
S'\xc5\x00\x00\x00L\x00\x00\x00'
p2570
tp2571
bsba(i__main__
FrameData
p2572
(dp2573
g6
g2349
sg8
g9
(g13
S'\x07\xed\xaff\x0f~ @'
p2574
tp2575
Rp2576
sg19
I0
sg20
g21
(S'\x07\xdd\t\x1d\x13\x0e\x1e\x0bA\xed'
p2577
tp2578
Rp2579
sg25
I0
sg26
g27
(g28
(I0
tp2580
g30
tp2581
Rp2582
(I1
(I2
tp2583
g36
I00
S'\xc2\x00\x00\x00M\x00\x00\x00'
p2584
tp2585
bsba(i__main__
FrameData
p2586
(dp2587
g6
g394
sg8
g9
(g13
S'\xa3\x14\xae\xa8\x87\x16!@'
p2588
tp2589
Rp2590
sg19
I0
sg20
g21
(S'\x07\xdd\t\x1d\x13\x0e\x1e\x0b\x91\xa5'
p2591
tp2592
Rp2593
sg25
I0
sg26
g27
(g28
(I0
tp2594
g30
tp2595
Rp2596
(I1
(I2
tp2597
g36
I00
S'\xba\x00\x00\x00N\x00\x00\x00'
p2598
tp2599
bsba(i__main__
FrameData
p2600
(dp2601
g6
g394
sg8
g9
(g13
S'p\xc4\x9d9\x8dv\x1e@'
p2602
tp2603
Rp2604
sg19
I0
sg20
g21
(S'\x07\xdd\t\x1d\x13\x0e\x1e\x0b\xe47'
p2605
tp2606
Rp2607
sg25
I0
sg26
g27
(g28
(I0
tp2608
g30
tp2609
Rp2610
(I1
(I2
tp2611
g36
I00
S'\xaf\x00\x00\x00R\x00\x00\x00'
p2612
tp2613
bsba(i__main__
FrameData
p2614
(dp2615
g6
g2026
sg8
g9
(g13
S'\x10\xb3]\xc9`G0@'
p2616
tp2617
Rp2618
sg19
I0
sg20
g21
(S'\x07\xdd\t\x1d\x13\x0e\x1e\x0c\x0bh'
p2619
tp2620
Rp2621
sg25
I0
sg26
g27
(g28
(I0
tp2622
g30
tp2623
Rp2624
(I1
(I2
tp2625
g36
I00
S'\xa3\x00\x00\x00V\x00\x00\x00'
p2626
tp2627
bsba(i__main__
FrameData
p2628
(dp2629
g6
g2026
sg8
g9
(g13
S'\x00\x00\x00\x00\x00\x00.@'
p2630
tp2631
Rp2632
sg19
I0
sg20
g21
(S'\x07\xdd\t\x1d\x13\x0e\x1e\x0cY\x83'
p2633
tp2634
Rp2635
sg25
I0
sg26
g27
(g28
(I0
tp2636
g30
tp2637
Rp2638
(I1
(I2
tp2639
g36
I00
S'\x98\x00\x00\x00Y\x00\x00\x00'
p2640
tp2641
bsba(i__main__
FrameData
p2642
(dp2643
g6
g2026
sg8
g9
(g13
S'\xa8\xf4\x97\x9bw\xe31@'
p2644
tp2645
Rp2646
sg19
I0
sg20
g21
(S'\x07\xdd\t\x1d\x13\x0e\x1e\x0c\xa6Y'
p2647
tp2648
Rp2649
sg25
I0
sg26
g27
(g28
(I0
tp2650
g30
tp2651
Rp2652
(I1
(I2
tp2653
g36
I00
S'\x90\x00\x00\x00Z\x00\x00\x00'
p2654
tp2655
bsba(i__main__
FrameData
p2656
(dp2657
g6
g1969
sg8
g9
(g13
S"'\xf2\x90In\x9f/@"
p2658
tp2659
Rp2660
sg19
I0
sg20
g21
(S'\x07\xdd\t\x1d\x13\x0e\x1e\x0c\xce\xb7'
p2661
tp2662
Rp2663
sg25
I0
sg26
g27
(g28
(I0
tp2664
g30
tp2665
Rp2666
(I1
(I2
tp2667
g36
I00
S'\x8b\x00\x00\x00Z\x00\x00\x00'
p2668
tp2669
bsba(i__main__
FrameData
p2670
(dp2671
g6
g1969
sg8
g9
(g13
S'\xbc\xfdP\xb5U\xdb+@'
p2672
tp2673
Rp2674
sg19
I0
sg20
g21
(S'\x07\xdd\t\x1d\x13\x0e\x1e\r\x1c\xbe'
p2675
tp2676
Rp2677
sg25
I0
sg26
g27
(g28
(I0
tp2678
g30
tp2679
Rp2680
(I1
(I2
tp2681
g36
I00
S'\x87\x00\x00\x00Z\x00\x00\x00'
p2682
tp2683
bsba(i__main__
FrameData
p2684
(dp2685
g6
g1969
sg8
g9
(g13
S'\xde4\xda\xfeNN*@'
p2686
tp2687
Rp2688
sg19
I0
sg20
g21
(S'\x07\xdd\t\x1d\x13\x0e\x1e\rj\xb5'
p2689
tp2690
Rp2691
sg25
I0
sg26
g27
(g28
(I0
tp2692
g30
tp2693
Rp2694
(I1
(I2
tp2695
g36
I00
S'\x84\x00\x00\x00Z\x00\x00\x00'
p2696
tp2697
bsba(i__main__
FrameData
p2698
(dp2699
g6
g1969
sg8
g9
(g13
S'Qf\x99\xcb\xa9\x13*@'
p2700
tp2701
Rp2702
sg19
I0
sg20
g21
(S'\x07\xdd\t\x1d\x13\x0e\x1e\r\x92\x1f'
p2703
tp2704
Rp2705
sg25
I0
sg26
g27
(g28
(I0
tp2706
g30
tp2707
Rp2708
(I1
(I2
tp2709
g36
I00
S'\x81\x00\x00\x00Z\x00\x00\x00'
p2710
tp2711
bsba(i__main__
FrameData
p2712
(dp2713
g6
g1969
sg8
g9
(g13
S'8H\x9b\x97\xee\xae*@'
p2714
tp2715
Rp2716
sg19
I0
sg20
g21
(S'\x07\xdd\t\x1d\x13\x0e\x1e\r\xdf\xfc'
p2717
tp2718
Rp2719
sg25
I0
sg26
g27
(g28
(I0
tp2720
g30
tp2721
Rp2722
(I1
(I2
tp2723
g36
I00
S'\x7f\x00\x00\x00Z\x00\x00\x00'
p2724
tp2725
bsba(i__main__
FrameData
p2726
(dp2727
g6
g1969
sg8
g9
(g13
S'/\xa4\xe3\\m\xbb-@'
p2728
tp2729
Rp2730
sg19
I0
sg20
g21
(S'\x07\xdd\t\x1d\x13\x0e\x1e\x0e/\n'
p2731
tp2732
Rp2733
sg25
I0
sg26
g27
(g28
(I0
tp2734
g30
tp2735
Rp2736
(I1
(I2
tp2737
g36
I00
S'}\x00\x00\x00[\x00\x00\x00'
p2738
tp2739
bsba(i__main__
FrameData
p2740
(dp2741
g6
g1969
sg8
g9
(g13
S'&\xecIP\x11N/@'
p2742
tp2743
Rp2744
sg19
I0
sg20
g21
(S'\x07\xdd\t\x1d\x13\x0e\x1e\x0eN\x9a'
p2745
tp2746
Rp2747
sg25
I0
sg26
g27
(g28
(I0
tp2748
g30
tp2749
Rp2750
(I1
(I2
tp2751
g36
I00
S'{\x00\x00\x00[\x00\x00\x00'
p2752
tp2753
bsba(i__main__
FrameData
p2754
(dp2755
g6
g1969
sg8
g9
(g13
S'\xb9\x93\xe1k\xb0\xa40@'
p2756
tp2757
Rp2758
sg19
I0
sg20
g21
(S'\x07\xdd\t\x1d\x13\x0e\x1e\x0e\x94w'
p2759
tp2760
Rp2761
sg25
I0
sg26
g27
(g28
(I0
tp2762
g30
tp2763
Rp2764
(I1
(I2
tp2765
g36
I00
S'y\x00\x00\x00[\x00\x00\x00'
p2766
tp2767
bsba(i__main__
FrameData
p2768
(dp2769
g6
g1969
sg8
g9
(g13
S'@\xff7s\x9953@'
p2770
tp2771
Rp2772
sg19
I0
sg20
g21
(S'\x07\xdd\t\x1d\x13\x0e\x1e\x0e\xe6\xc5'
p2773
tp2774
Rp2775
sg25
I0
sg26
g27
(g28
(I0
tp2776
g30
tp2777
Rp2778
(I1
(I2
tp2779
g36
I00
S'v\x00\x00\x00\\\x00\x00\x00'
p2780
tp2781
bsba(i__main__
FrameData
p2782
(dp2783
g6
g1926
sg8
g9
(g13
S'=\xf3\n\x8f\xe6\x1f4@'
p2784
tp2785
Rp2786
sg19
I0
sg20
g21
(S'\x07\xdd\t\x1d\x13\x0e\x1e\x0f\x11\x0c'
p2787
tp2788
Rp2789
sg25
I0
sg26
g27
(g28
(I0
tp2790
g30
tp2791
Rp2792
(I1
(I2
tp2793
g36
I00
S's\x00\x00\x00]\x00\x00\x00'
p2794
tp2795
bsba(i__main__
FrameData
p2796
(dp2797
g6
g1926
sg8
g9
(g13
S'Mm\x9d\x8c\xc3\xec3@'
p2798
tp2799
Rp2800
sg19
I0
sg20
g21
(S'\x07\xdd\t\x1d\x13\x0e\x1f\x00+\xd9'
p2801
tp2802
Rp2803
sg25
I0
sg26
g27
(g28
(I0
tp2804
g30
tp2805
Rp2806
(I1
(I2
tp2807
g36
I00
S'p\x00\x00\x00^\x00\x00\x00'
p2808
tp2809
bsba(i__main__
FrameData
p2810
(dp2811
g6
g1926
sg8
g9
(g13
S'\xf0)#L\x89\x194@'
p2812
tp2813
Rp2814
sg19
I0
sg20
g21
(S'\x07\xdd\t\x1d\x13\x0e\x1f\x00Rq'
p2815
tp2816
Rp2817
sg25
I0
sg26
g27
(g28
(I0
tp2818
g30
tp2819
Rp2820
(I1
(I2
tp2821
g36
I00
S'l\x00\x00\x00_\x00\x00\x00'
p2822
tp2823
bsba(i__main__
FrameData
p2824
(dp2825
g6
g1378
sg8
g9
(g13
S'VT\xdbd.P3@'
p2826
tp2827
Rp2828
sg19
I0
sg20
g21
(S'\x07\xdd\t\x1d\x13\x0e\x1f\x00\x97h'
p2829
tp2830
Rp2831
sg25
I0
sg26
g27
(g28
(I0
tp2832
g30
tp2833
Rp2834
(I1
(I2
tp2835
g36
I00
S'g\x00\x00\x00`\x00\x00\x00'
p2836
tp2837
bsba(i__main__
FrameData
p2838
(dp2839
g6
g1378
sg8
g9
(g13
S'\xa8y\x0c\t\xd9v1@'
p2840
tp2841
Rp2842
sg19
I0
sg20
g21
(S'\x07\xdd\t\x1d\x13\x0e\x1f\x00\xe7\xb2'
p2843
tp2844
Rp2845
sg25
I0
sg26
g27
(g28
(I0
tp2846
g30
tp2847
Rp2848
(I1
(I2
tp2849
g36
I00
S'd\x00\x00\x00a\x00\x00\x00'
p2850
tp2851
bsba(i__main__
FrameData
p2852
(dp2853
g6
g1378
sg8
g9
(g13
S'p`\xff\x00\xfe\x070@'
p2854
tp2855
Rp2856
sg19
I0
sg20
g21
(S'\x07\xdd\t\x1d\x13\x0e\x1f\x01\x16"'
p2857
tp2858
Rp2859
sg25
I0
sg26
g27
(g28
(I0
tp2860
g30
tp2861
Rp2862
(I1
(I2
tp2863
g36
I00
S'a\x00\x00\x00b\x00\x00\x00'
p2864
tp2865
bsba(i__main__
FrameData
p2866
(dp2867
g6
g1378
sg8
g9
(g13
S'\xaf_\x109\x0c\x11.@'
p2868
tp2869
Rp2870
sg19
I0
sg20
g21
(S'\x07\xdd\t\x1d\x13\x0e\x1f\x01e\x97'
p2871
tp2872
Rp2873
sg25
I0
sg26
g27
(g28
(I0
tp2874
g30
tp2875
Rp2876
(I1
(I2
tp2877
g36
I00
S'_\x00\x00\x00c\x00\x00\x00'
p2878
tp2879
bsba(i__main__
FrameData
p2880
(dp2881
g6
g1378
sg8
g9
(g13
S'\xf7\x80Aq\xb9\xa2,@'
p2882
tp2883
Rp2884
sg19
I0
sg20
g21
(S'\x07\xdd\t\x1d\x13\x0e\x1f\x01\xad\xb0'
p2885
tp2886
Rp2887
sg25
I0
sg26
g27
(g28
(I0
tp2888
g30
tp2889
Rp2890
(I1
(I2
tp2891
g36
I00
S']\x00\x00\x00d\x00\x00\x00'
p2892
tp2893
bsba(i__main__
FrameData
p2894
(dp2895
g6
g1378
sg8
g9
(g13
S'\xb9e(k\xee\xc8+@'
p2896
tp2897
Rp2898
sg19
I0
sg20
g21
(S'\x07\xdd\t\x1d\x13\x0e\x1f\x01\xd9\xdf'
p2899
tp2900
Rp2901
sg25
I0
sg26
g27
(g28
(I0
tp2902
g30
tp2903
Rp2904
(I1
(I2
tp2905
g36
I00
S'Y\x00\x00\x00f\x00\x00\x00'
p2906
tp2907
bsba(i__main__
FrameData
p2908
(dp2909
g6
g1378
sg8
g9
(g13
S'?*\x98"\xe3l,@'
p2910
tp2911
Rp2912
sg19
I0
sg20
g21
(S"\x07\xdd\t\x1d\x13\x0e\x1f\x02'\xaf"
p2913
tp2914
Rp2915
sg25
I0
sg26
g27
(g28
(I0
tp2916
g30
tp2917
Rp2918
(I1
(I2
tp2919
g36
I00
S'U\x00\x00\x00i\x00\x00\x00'
p2920
tp2921
bsba(i__main__
FrameData
p2922
(dp2923
g6
S'd'
p2924
sg8
g9
(g13
S'A\x87b\xc62\xde"@'
p2925
tp2926
Rp2927
sg19
I0
sg20
g21
(S'\x07\xdd\t\x1d\x13\x0e\x1f\x02v\xee'
p2928
tp2929
Rp2930
sg25
I0
sg26
g27
(g28
(I0
tp2931
g30
tp2932
Rp2933
(I1
(I2
tp2934
g36
I00
S'Q\x00\x00\x00l\x00\x00\x00'
p2935
tp2936
bsba(i__main__
FrameData
p2937
(dp2938
g6
g2924
sg8
g9
(g13
S'\xf3YaD+\xd8\x0c@'
p2939
tp2940
Rp2941
sg19
I0
sg20
g21
(S'\x07\xdd\t\x1d\x13\x0e\x1f\x02\x9e8'
p2942
tp2943
Rp2944
sg25
I0
sg26
g27
(g28
(I0
tp2945
g30
tp2946
Rp2947
(I1
(I2
tp2948
g36
I00
S'L\x00\x00\x00o\x00\x00\x00'
p2949
tp2950
bsba(i__main__
FrameData
p2951
(dp2952
g6
g2924
sg8
g9
(g13
S'\x00\x00\x00\x00\x00\x00\xf0?'
p2953
tp2954
Rp2955
sg19
I0
sg20
g21
(S'\x07\xdd\t\x1d\x13\x0e\x1f\x02\xde\xaa'
p2956
tp2957
Rp2958
sg25
I0
sg26
g27
(g28
(I0
tp2959
g30
tp2960
Rp2961
(I1
(I2
tp2962
g36
I00
S'J\x00\x00\x00q\x00\x00\x00'
p2963
tp2964
bsba(i__main__
FrameData
p2965
(dp2966
g6
g2924
sg8
g9
(g13
S'\x00\x00\x00\x00\x00\x00\xf0?'
p2967
tp2968
Rp2969
sg19
I0
sg20
g21
(S'\x07\xdd\t\x1d\x13\x0e\x1f\x03a\x8d'
p2970
tp2971
Rp2972
sg25
I0
sg26
g27
(g28
(I0
tp2973
g30
tp2974
Rp2975
(I1
(I2
tp2976
g36
I00
S'H\x00\x00\x00q\x00\x00\x00'
p2977
tp2978
bsba(i__main__
FrameData
p2979
(dp2980
g6
g2924
sg8
g9
(g13
S'\xa8\xf4\x97\x9bw\xe3\x01@'
p2981
tp2982
Rp2983
sg19
I0
sg20
g21
(S'\x07\xdd\t\x1d\x13\x0e\x1f\x03\xae\xa5'
p2984
tp2985
Rp2986
sg25
I0
sg26
g27
(g28
(I0
tp2987
g30
tp2988
Rp2989
(I1
(I2
tp2990
g36
I00
S'G\x00\x00\x00r\x00\x00\x00'
p2991
tp2992
bsba(i__main__
FrameData
p2993
(dp2994
g6
g2924
sg8
g9
(g13
S'S[\xda:XL\t@'
p2995
tp2996
Rp2997
sg19
I0
sg20
g21
(S'\x07\xdd\t\x1d\x13\x0e\x1f\x03\xed\xf6'
p2998
tp2999
Rp3000
sg25
I0
sg26
g27
(g28
(I0
tp3001
g30
tp3002
Rp3003
(I1
(I2
tp3004
g36
I00
S'F\x00\x00\x00r\x00\x00\x00'
p3005
tp3006
bsba(i__main__
FrameData
p3007
(dp3008
g6
g2924
sg8
g9
(g13
S'\xa8\xf4\x97\x9bw\xe3\x11@'
p3009
tp3010
Rp3011
sg19
I0
sg20
g21
(S'\x07\xdd\t\x1d\x13\x0e\x1f\x04%('
p3012
tp3013
Rp3014
sg25
I0
sg26
g27
(g28
(I0
tp3015
g30
tp3016
Rp3017
(I1
(I2
tp3018
g36
I00
S'E\x00\x00\x00s\x00\x00\x00'
p3019
tp3020
bsba(i__main__
FrameData
p3021
(dp3022
g6
g2924
sg8
g9
(g13
S'\xf3\xd9\xa8\xa4h\x8a\x15@'
p3023
tp3024
Rp3025
sg19
I0
sg20
g21
(S'\x07\xdd\t\x1d\x13\x0e\x1f\x04s\x81'
p3026
tp3027
Rp3028
sg25
I0
sg26
g27
(g28
(I0
tp3029
g30
tp3030
Rp3031
(I1
(I2
tp3032
g36
I00
S'D\x00\x00\x00s\x00\x00\x00'
p3033
tp3034
bsba(i__main__
FrameData
p3035
(dp3036
g6
g2924
sg8
g9
(g13
S'\xe9\xfbv \xd5\x1e\x1d@'
p3037
tp3038
Rp3039
sg19
I0
sg20
g21
(S'\x07\xdd\t\x1d\x13\x0e\x1f\x04\xbf\xfa'
p3040
tp3041
Rp3042
sg25
I0
sg26
g27
(g28
(I0
tp3043
g30
tp3044
Rp3045
(I1
(I2
tp3046
g36
I00
S'B\x00\x00\x00s\x00\x00\x00'
p3047
tp3048
bsba(i__main__
FrameData
p3049
(dp3050
g6
g2924
sg8
g9
(g13
S'\x9a.\x90!hp"@'
p3051
tp3052
Rp3053
sg19
I0
sg20
g21
(S'\x07\xdd\t\x1d\x13\x0e\x1f\x05\x04a'
p3054
tp3055
Rp3056
sg25
I0
sg26
g27
(g28
(I0
tp3057
g30
tp3058
Rp3059
(I1
(I2
tp3060
g36
I00
S'@\x00\x00\x00s\x00\x00\x00'
p3061
tp3062
bsba(i__main__
FrameData
p3063
(dp3064
g6
g2924
sg8
g9
(g13
S'\xf6/\x12_ee$@'
p3065
tp3066
Rp3067
sg19
I0
sg20
g21
(S'\x07\xdd\t\x1d\x13\x0e\x1f\x05)\x96'
p3068
tp3069
Rp3070
sg25
I0
sg26
g27
(g28
(I0
tp3071
g30
tp3072
Rp3073
(I1
(I2
tp3074
g36
I00
S'?\x00\x00\x00s\x00\x00\x00'
p3075
tp3076
bsba(i__main__
FrameData
p3077
(dp3078
g6
g2924
sg8
g9
(g13
S'\xd2\xf1}\x82U\\&@'
p3079
tp3080
Rp3081
sg19
I0
sg20
g21
(S'\x07\xdd\t\x1d\x13\x0e\x1f\x05\xb1o'
p3082
tp3083
Rp3084
sg25
I0
sg26
g27
(g28
(I0
tp3085
g30
tp3086
Rp3087
(I1
(I2
tp3088
g36
I00
S'>\x00\x00\x00s\x00\x00\x00'
p3089
tp3090
bsba(i__main__
FrameData
p3091
(dp3092
g6
S's'
p3093
sg8
g9
(g13
S'\x8a\xe3\x07\x1a\x17\xbd(@'
p3094
tp3095
Rp3096
sg19
I0
sg20
g21
(S'\x07\xdd\t\x1d\x13\x0e\x1f\x05\xf8\x90'
p3097
tp3098
Rp3099
sg25
I0
sg26
g27
(g28
(I0
tp3100
g30
tp3101
Rp3102
(I1
(I2
tp3103
g36
I00
S'=\x00\x00\x00t\x00\x00\x00'
p3104
tp3105
bsba(i__main__
FrameData
p3106
(dp3107
g6
g3093
sg8
g9
(g13
S'\xeb\x12\xb2\xbb\xb2\xcd&@'
p3108
tp3109
Rp3110
sg19
I0
sg20
g21
(S'\x07\xdd\t\x1d\x13\x0e\x1f\x06Ad'
p3111
tp3112
Rp3113
sg25
I0
sg26
g27
(g28
(I0
tp3114
g30
tp3115
Rp3116
(I1
(I2
tp3117
g36
I00
S'<\x00\x00\x00t\x00\x00\x00'
p3118
tp3119
bsba(i__main__
FrameData
p3120
(dp3121
g6
g3093
sg8
g9
(g13
S'7\xf9\xcf\xdao\xe1$@'
p3122
tp3123
Rp3124
sg19
I0
sg20
g21
(S'\x07\xdd\t\x1d\x13\x0e\x1f\x06\xbb\xb1'
p3125
tp3126
Rp3127
sg25
I0
sg26
g27
(g28
(I0
tp3128
g30
tp3129
Rp3130
(I1
(I2
tp3131
g36
I00
S';\x00\x00\x00t\x00\x00\x00'
p3132
tp3133
bsba(i__main__
FrameData
p3134
(dp3135
g6
g3093
sg8
g9
(g13
S'~\xc4#,B\xf9"@'
p3136
tp3137
Rp3138
sg19
I0
sg20
g21
(S'\x07\xdd\t\x1d\x13\x0e\x1f\x07\x02\xb9'
p3139
tp3140
Rp3141
sg25
I0
sg26
g27
(g28
(I0
tp3142
g30
tp3143
Rp3144
(I1
(I2
tp3145
g36
I00
S':\x00\x00\x00t\x00\x00\x00'
p3146
tp3147
bsba(i__main__
FrameData
p3148
(dp3149
g6
g3093
sg8
g9
(g13
S'\xa3\x14\xae\xa8\x87\x16!@'
p3150
tp3151
Rp3152
sg19
I0
sg20
g21
(S'\x07\xdd\t\x1d\x13\x0e\x1f\x076N'
p3153
tp3154
Rp3155
sg25
I0
sg26
g27
(g28
(I0
tp3156
g30
tp3157
Rp3158
(I1
(I2
tp3159
g36
I00
S'9\x00\x00\x00t\x00\x00\x00'
p3160
tp3161
bsba(i__main__
FrameData
p3162
(dp3163
g6
g3093
sg8
g9
(g13
S'p\xc4\x9d9\x8dv\x1e@'
p3164
tp3165
Rp3166
sg19
I0
sg20
g21
(S'\x07\xdd\t\x1d\x13\x0e\x1f\x07ua'
p3167
tp3168
Rp3169
sg25
I0
sg26
g27
(g28
(I0
tp3170
g30
tp3171
Rp3172
(I1
(I2
tp3173
g36
I00
S'8\x00\x00\x00t\x00\x00\x00'
p3174
tp3175
bsba(i__main__
FrameData
p3176
(dp3177
g6
g3093
sg8
g9
(g13
S'\xfc\xeeci3\xd5\x1a@'
p3178
tp3179
Rp3180
sg19
I0
sg20
g21
(S'\x07\xdd\t\x1d\x13\x0e\x1f\x07\xbe#'
p3181
tp3182
Rp3183
sg25
I0
sg26
g27
(g28
(I0
tp3184
g30
tp3185
Rp3186
(I1
(I2
tp3187
g36
I00
S'7\x00\x00\x00t\x00\x00\x00'
p3188
tp3189
bsba(i__main__
FrameData
p3190
(dp3191
g6
g3093
sg8
g9
(g13
S'\xa2\xa3\xb3\r\xe5R\x17@'
p3192
tp3193
Rp3194
sg19
I0
sg20
g21
(S'\x07\xdd\t\x1d\x13\x0e\x1f\x088\xfe'
p3195
tp3196
Rp3197
sg25
I0
sg26
g27
(g28
(I0
tp3198
g30
tp3199
Rp3200
(I1
(I2
tp3201
g36
I00
S'6\x00\x00\x00t\x00\x00\x00'
p3202
tp3203
bsba(i__main__
FrameData
p3204
(dp3205
g6
g3093
sg8
g9
(g13
S'\x00\x00\x00\x00\x00\x00\x14@'
p3206
tp3207
Rp3208
sg19
I0
sg20
g21
(S'\x07\xdd\t\x1d\x13\x0e\x1f\x08\x81\xee'
p3209
tp3210
Rp3211
sg25
I0
sg26
g27
(g28
(I0
tp3212
g30
tp3213
Rp3214
(I1
(I2
tp3215
g36
I00
S'5\x00\x00\x00t\x00\x00\x00'
p3216
tp3217
bsba(i__main__
FrameData
p3218
(dp3219
g6
g3093
sg8
g9
(g13
S'\xd9l\xdf\xccv\xf8\x10@'
p3220
tp3221
Rp3222
sg19
I0
sg20
g21
(S'\x07\xdd\t\x1d\x13\x0e\x1f\x08\xd1\x1e'
p3223
tp3224
Rp3225
sg25
I0
sg26
g27
(g28
(I0
tp3226
g30
tp3227
Rp3228
(I1
(I2
tp3229
g36
I00
S'4\x00\x00\x00t\x00\x00\x00'
p3230
tp3231
bsba(i__main__
FrameData
p3232
(dp3233
g6
g3093
sg8
g9
(g13
S'\xf3YaD+\xd8\x0c@'
p3234
tp3235
Rp3236
sg19
I0
sg20
g21
(S'\x07\xdd\t\x1d\x13\x0e\x1f\t<\xe6'
p3237
tp3238
Rp3239
sg25
I0
sg26
g27
(g28
(I0
tp3240
g30
tp3241
Rp3242
(I1
(I2
tp3243
g36
I00
S'3\x00\x00\x00t\x00\x00\x00'
p3244
tp3245
bsba(i__main__
FrameData
p3246
(dp3247
g6
g3093
sg8
g9
(g13
S'S[\xda:XL\t@'
p3248
tp3249
Rp3250
sg19
I0
sg20
g21
(S'\x07\xdd\t\x1d\x13\x0e\x1f\t\xc4q'
p3251
tp3252
Rp3253
sg25
I0
sg26
g27
(g28
(I0
tp3254
g30
tp3255
Rp3256
(I1
(I2
tp3257
g36
I00
S'2\x00\x00\x00t\x00\x00\x00'
p3258
tp3259
bsba(i__main__
FrameData
p3260
(dp3261
g6
g3093
sg8
g9
(g13
S'\x00\x00\x00\x00\x00\x00\x08@'
p3262
tp3263
Rp3264
sg19
I0
sg20
g21
(S'\x07\xdd\t\x1d\x13\x0e\x1f\n\x08\xec'
p3265
tp3266
Rp3267
sg25
I0
sg26
g27
(g28
(I0
tp3268
g30
tp3269
Rp3270
(I1
(I2
tp3271
g36
I00
S'1\x00\x00\x00t\x00\x00\x00'
p3272
tp3273
bsba(i__main__
FrameData
p3274
(dp3275
g6
g3093
sg8
g9
(g13
S'S[\xda:XL\t@'
p3276
tp3277
Rp3278
sg19
I0
sg20
g21
(S'\x07\xdd\t\x1d\x13\x0e\x1f\nM\xd3'
p3279
tp3280
Rp3281
sg25
I0
sg26
g27
(g28
(I0
tp3282
g30
tp3283
Rp3284
(I1
(I2
tp3285
g36
I00
S'0\x00\x00\x00t\x00\x00\x00'
p3286
tp3287
bsba(i__main__
FrameData
p3288
(dp3289
g6
g3093
sg8
g9
(g13
S'\xf3YaD+\xd8\x0c@'
p3290
tp3291
Rp3292
sg19
I0
sg20
g21
(S'\x07\xdd\t\x1d\x13\x0e\x1f\n\xd1O'
p3293
tp3294
Rp3295
sg25
I0
sg26
g27
(g28
(I0
tp3296
g30
tp3297
Rp3298
(I1
(I2
tp3299
g36
I00
S'/\x00\x00\x00t\x00\x00\x00'
p3300
tp3301
bsba(i__main__
FrameData
p3302
(dp3303
g6
g3093
sg8
g9
(g13
S'S[\xda:XL\t@'
p3304
tp3305
Rp3306
sg19
I0
sg20
g21
(S'\x07\xdd\t\x1d\x13\x0e\x1f\r\xd7\xb3'
p3307
tp3308
Rp3309
sg25
I0
sg26
g27
(g28
(I0
tp3310
g30
tp3311
Rp3312
(I1
(I2
tp3313
g36
I00
S'0\x00\x00\x00t\x00\x00\x00'
p3314
tp3315
bsba(i__main__
FrameData
p3316
(dp3317
g6
g3093
sg8
g9
(g13
S'\x00\x00\x00\x00\x00\x00\x08@'
p3318
tp3319
Rp3320
sg19
I0
sg20
g21
(S'\x07\xdd\t\x1d\x13\x0e\x1f\x0e\x1f\x81'
p3321
tp3322
Rp3323
sg25
I0
sg26
g27
(g28
(I0
tp3324
g30
tp3325
Rp3326
(I1
(I2
tp3327
g36
I00
S'1\x00\x00\x00t\x00\x00\x00'
p3328
tp3329
bsba(i__main__
FrameData
p3330
(dp3331
g6
g3093
sg8
g9
(g13
S'\x00\x00\x00\x00\x00\x00\xf0?'
p3332
tp3333
Rp3334
sg19
I0
sg20
g21
(S'\x07\xdd\t\x1d\x13\x0e\x1f\x0eV^'
p3335
tp3336
Rp3337
sg25
I0
sg26
g27
(g28
(I0
tp3338
g30
tp3339
Rp3340
(I1
(I2
tp3341
g36
I00
S'1\x00\x00\x00r\x00\x00\x00'
p3342
tp3343
bsba(i__main__
FrameData
p3344
(dp3345
g6
g3093
sg8
g9
(g13
S'\xcd;\x7ff\x9e\xa0\xf6?'
p3346
tp3347
Rp3348
sg19
I0
sg20
g21
(S'\x07\xdd\t\x1d\x13\x0e\x1f\x0e\xa2\xde'
p3349
tp3350
Rp3351
sg25
I0
sg26
g27
(g28
(I0
tp3352
g30
tp3353
Rp3354
(I1
(I2
tp3355
g36
I00
S'2\x00\x00\x00r\x00\x00\x00'
p3356
tp3357
bsba(i__main__
FrameData
p3358
(dp3359
g6
g3093
sg8
g9
(g13
S'\xa8\xf4\x97\x9bw\xe3\x01@'
p3360
tp3361
Rp3362
sg19
I0
sg20
g21
(S'\x07\xdd\t\x1d\x13\x0e\x1f\x0e\xdaz'
p3363
tp3364
Rp3365
sg25
I0
sg26
g27
(g28
(I0
tp3366
g30
tp3367
Rp3368
(I1
(I2
tp3369
g36
I00
S'3\x00\x00\x00r\x00\x00\x00'
p3370
tp3371
bsba(i__main__
FrameData
p3372
(dp3373
g6
g3093
sg8
g9
(g13
S'\x00\x00\x00\x00\x00\x00\x08@'
p3374
tp3375
Rp3376
sg19
I0
sg20
g21
(S'\x07\xdd\t\x1d\x13\x0e\x1f\x0f>\xf9'
p3377
tp3378
Rp3379
sg25
I0
sg26
g27
(g28
(I0
tp3380
g30
tp3381
Rp3382
(I1
(I2
tp3383
g36
I00
S'4\x00\x00\x00q\x00\x00\x00'
p3384
tp3385
bsba(i__main__
FrameData
p3386
(dp3387
g6
g3093
sg8
g9
(g13
S'\x00\x00\x00\x00\x00\x00\x10@'
p3388
tp3389
Rp3390
sg19
I0
sg20
g21
(S'\x07\xdd\t\x1d\x13\x0e \x00#\xe9'
p3391
tp3392
Rp3393
sg25
I0
sg26
g27
(g28
(I0
tp3394
g30
tp3395
Rp3396
(I1
(I2
tp3397
g36
I00
S'5\x00\x00\x00q\x00\x00\x00'
p3398
tp3399
bsba(i__main__
FrameData
p3400
(dp3401
g6
g3093
sg8
g9
(g13
S'\xa8\xf4\x97\x9bw\xe3\x11@'
p3402
tp3403
Rp3404
sg19
I0
sg20
g21
(S'\x07\xdd\t\x1d\x13\x0e \x00}\x1b'
p3405
tp3406
Rp3407
sg25
I0
sg26
g27
(g28
(I0
tp3408
g30
tp3409
Rp3410
(I1
(I2
tp3411
g36
I00
S'5\x00\x00\x00o\x00\x00\x00'
p3412
tp3413
bsba(i__main__
FrameData
p3414
(dp3415
g6
g3093
sg8
g9
(g13
S'p\xc4\x9d9\x8dv\x1e@'
p3416
tp3417
Rp3418
sg19
I0
sg20
g21
(S'\x07\xdd\t\x1d\x13\x0e \x00\xa4\xda'
p3419
tp3420
Rp3421
sg25
I0
sg26
g27
(g28
(I0
tp3422
g30
tp3423
Rp3424
(I1
(I2
tp3425
g36
I00
S'8\x00\x00\x00n\x00\x00\x00'
p3426
tp3427
bsba(i__main__
FrameData
p3428
(dp3429
g6
g3093
sg8
g9
(g13
S'\xd2\xf1}\x82U\\&@'
p3430
tp3431
Rp3432
sg19
I0
sg20
g21
(S'\x07\xdd\t\x1d\x13\x0e \x00\xf1\x8a'
p3433
tp3434
Rp3435
sg25
I0
sg26
g27
(g28
(I0
tp3436
g30
tp3437
Rp3438
(I1
(I2
tp3439
g36
I00
S';\x00\x00\x00l\x00\x00\x00'
p3440
tp3441
bsba(i__main__
FrameData
p3442
(dp3443
g6
g2924
sg8
g9
(g13
S'&5w\xe2K\x15(@'
p3444
tp3445
Rp3446
sg19
I0
sg20
g21
(S'\x07\xdd\t\x1d\x13\x0e \x01@\x03'
p3447
tp3448
Rp3449
sg25
I0
sg26
g27
(g28
(I0
tp3450
g30
tp3451
Rp3452
(I1
(I2
tp3453
g36
I00
S'A\x00\x00\x00h\x00\x00\x00'
p3454
tp3455
bsba(i__main__
FrameData
p3456
(dp3457
g6
g2924
sg8
g9
(g13
S'\xde4\xda\xfeNN*@'
p3458
tp3459
Rp3460
sg19
I0
sg20
g21
(S'\x07\xdd\t\x1d\x13\x0e \x01gQ'
p3461
tp3462
Rp3463
sg25
I0
sg26
g27
(g28
(I0
tp3464
g30
tp3465
Rp3466
(I1
(I2
tp3467
g36
I00
S'G\x00\x00\x00d\x00\x00\x00'
p3468
tp3469
bsba(i__main__
FrameData
p3470
(dp3471
g6
g2924
sg8
g9
(g13
S'\x07\xed\xaff\x0f~0@'
p3472
tp3473
Rp3474
sg19
I0
sg20
g21
(S'\x07\xdd\t\x1d\x13\x0e \x01\xb5b'
p3475
tp3476
Rp3477
sg25
I0
sg26
g27
(g28
(I0
tp3478
g30
tp3479
Rp3480
(I1
(I2
tp3481
g36
I00
S'M\x00\x00\x00a\x00\x00\x00'
p3482
tp3483
bsba(i__main__
FrameData
p3484
(dp3485
g6
g1645
sg8
g9
(g13
S'\x00\x00\x00\x00\x00\x002@'
p3486
tp3487
Rp3488
sg19
I0
sg20
g21
(S'\x07\xdd\t\x1d\x13\x0e \x01\xe8\xd5'
p3489
tp3490
Rp3491
sg25
I0
sg26
g27
(g28
(I0
tp3492
g30
tp3493
Rp3494
(I1
(I2
tp3495
g36
I00
S'R\x00\x00\x00]\x00\x00\x00'
p3496
tp3497
bsba(i__main__
FrameData
p3498
(dp3499
g6
g1645
sg8
g9
(g13
S'8\xd8\xbc\n\x1b\x072@'
p3500
tp3501
Rp3502
sg19
I0
sg20
g21
(S'\x07\xdd\t\x1d\x13\x0e \x02$('
p3503
tp3504
Rp3505
sg25
I0
sg26
g27
(g28
(I0
tp3506
g30
tp3507
Rp3508
(I1
(I2
tp3509
g36
I00
S'X\x00\x00\x00\\\x00\x00\x00'
p3510
tp3511
bsba(i__main__
FrameData
p3512
(dp3513
g6
g1645
sg8
g9
(g13
S'8\xd8\xbc\n\x1b\x072@'
p3514
tp3515
Rp3516
sg19
I0
sg20
g21
(S'\x07\xdd\t\x1d\x13\x0e \x02y\x83'
p3517
tp3518
Rp3519
sg25
I0
sg26
g27
(g28
(I0
tp3520
g30
tp3521
Rp3522
(I1
(I2
tp3523
g36
I00
S'\\\x00\x00\x00Z\x00\x00\x00'
p3524
tp3525
bsba(i__main__
FrameData
p3526
(dp3527
g6
g1926
sg8
g9
(g13
S'\xd5?\x80N\xf3\xcd1@'
p3528
tp3529
Rp3530
sg19
I0
sg20
g21
(S'\x07\xdd\t\x1d\x13\x0e \x02\xc7\x16'
p3531
tp3532
Rp3533
sg25
I0
sg26
g27
(g28
(I0
tp3534
g30
tp3535
Rp3536
(I1
(I2
tp3537
g36
I00
S'_\x00\x00\x00Y\x00\x00\x00'
p3538
tp3539
bsba(i__main__
FrameData
p3540
(dp3541
g6
g1926
sg8
g9
(g13
S'\xb2\xdb]\xe3\x96\x87-@'
p3542
tp3543
Rp3544
sg19
I0
sg20
g21
(S'\x07\xdd\t\x1d\x13\x0e \x02\xee<'
p3545
tp3546
Rp3547
sg25
I0
sg26
g27
(g28
(I0
tp3548
g30
tp3549
Rp3550
(I1
(I2
tp3551
g36
I00
S'c\x00\x00\x00X\x00\x00\x00'
p3552
tp3553
bsba(i__main__
FrameData
p3554
(dp3555
g6
g1926
sg8
g9
(g13
S'\xde4\xda\xfeNN*@'
p3556
tp3557
Rp3558
sg19
I0
sg20
g21
(S'\x07\xdd\t\x1d\x13\x0e \x03<5'
p3559
tp3560
Rp3561
sg25
I0
sg26
g27
(g28
(I0
tp3562
g30
tp3563
Rp3564
(I1
(I2
tp3565
g36
I00
S'h\x00\x00\x00X\x00\x00\x00'
p3566
tp3567
bsba(i__main__
FrameData
p3568
(dp3569
g6
g1926
sg8
g9
(g13
S'9\xdcc\xb3\xbfT(@'
p3570
tp3571
Rp3572
sg19
I0
sg20
g21
(S'\x07\xdd\t\x1d\x13\x0e \x03\x8b2'
p3573
tp3574
Rp3575
sg25
I0
sg26
g27
(g28
(I0
tp3576
g30
tp3577
Rp3578
(I1
(I2
tp3579
g36
I00
S'l\x00\x00\x00W\x00\x00\x00'
p3580
tp3581
bsba(i__main__
FrameData
p3582
(dp3583
g6
g1926
sg8
g9
(g13
S'lNy\x00\x85*(@'
p3584
tp3585
Rp3586
sg19
I0
sg20
g21
(S'\x07\xdd\t\x1d\x13\x0e \x03\xb1\x86'
p3587
tp3588
Rp3589
sg25
I0
sg26
g27
(g28
(I0
tp3590
g30
tp3591
Rp3592
(I1
(I2
tp3593
g36
I00
S'o\x00\x00\x00V\x00\x00\x00'
p3594
tp3595
bsba(i__main__
FrameData
p3596
(dp3597
g6
g1926
sg8
g9
(g13
S'\xef\rI\xf1\xf33+@'
p3598
tp3599
Rp3600
sg19
I0
sg20
g21
(S'\x07\xdd\t\x1d\x13\x0e \x04\x00\xc4'
p3601
tp3602
Rp3603
sg25
I0
sg26
g27
(g28
(I0
tp3604
g30
tp3605
Rp3606
(I1
(I2
tp3607
g36
I00
S'r\x00\x00\x00V\x00\x00\x00'
p3608
tp3609
bsba(i__main__
FrameData
p3610
(dp3611
g6
g1969
sg8
g9
(g13
S'\xef\rI\xf1\xf33+@'
p3612
tp3613
Rp3614
sg19
I0
sg20
g21
(S'\x07\xdd\t\x1d\x13\x0e \x04N\xa7'
p3615
tp3616
Rp3617
sg25
I0
sg26
g27
(g28
(I0
tp3618
g30
tp3619
Rp3620
(I1
(I2
tp3621
g36
I00
S'w\x00\x00\x00U\x00\x00\x00'
p3622
tp3623
bsba(i__main__
FrameData
p3624
(dp3625
g6
g1969
sg8
g9
(g13
S'\x9a.\x90!hp"@'
p3626
tp3627
Rp3628
sg19
I0
sg20
g21
(S'\x07\xdd\t\x1d\x13\x0e \x04n\x1a'
p3629
tp3630
Rp3631
sg25
I0
sg26
g27
(g28
(I0
tp3632
g30
tp3633
Rp3634
(I1
(I2
tp3635
g36
I00
S'|\x00\x00\x00T\x00\x00\x00'
p3636
tp3637
bsba(i__main__
FrameData
p3638
(dp3639
g6
g1969
sg8
g9
(g13
S'9\xdcc\xb3\xbfT\x18@'
p3640
tp3641
Rp3642
sg19
I0
sg20
g21
(S'\x07\xdd\t\x1d\x13\x0e \x04\xc4\xe7'
p3643
tp3644
Rp3645
sg25
I0
sg26
g27
(g28
(I0
tp3646
g30
tp3647
Rp3648
(I1
(I2
tp3649
g36
I00
S'\x83\x00\x00\x00S\x00\x00\x00'
p3650
tp3651
bsba(i__main__
FrameData
p3652
(dp3653
g6
g1969
sg8
g9
(g13
S'htN\x17\xb2=\x1f@'
p3654
tp3655
Rp3656
sg19
I0
sg20
g21
(S'\x07\xdd\t\x1d\x13\x0e \x04\xf6d'
p3657
tp3658
Rp3659
sg25
I0
sg26
g27
(g28
(I0
tp3660
g30
tp3661
Rp3662
(I1
(I2
tp3663
g36
I00
S'\x88\x00\x00\x00R\x00\x00\x00'
p3664
tp3665
bsba(i__main__
FrameData
p3666
(dp3667
g6
g1969
sg8
g9
(g13
S'\xd2\xf1}\x82U\\&@'
p3668
tp3669
Rp3670
sg19
I0
sg20
g21
(S'\x07\xdd\t\x1d\x13\x0e \x058\x06'
p3671
tp3672
Rp3673
sg25
I0
sg26
g27
(g28
(I0
tp3674
g30
tp3675
Rp3676
(I1
(I2
tp3677
g36
I00
S'\x8c\x00\x00\x00R\x00\x00\x00'
p3678
tp3679
bsba(i__main__
FrameData
p3680
(dp3681
g6
g2026
sg8
g9
(g13
S'ST\xaf\x99\x8a\xcc#@'
p3682
tp3683
Rp3684
sg19
I0
sg20
g21
(S'\x07\xdd\t\x1d\x13\x0e \x05t\xa3'
p3685
tp3686
Rp3687
sg25
I0
sg26
g27
(g28
(I0
tp3688
g30
tp3689
Rp3690
(I1
(I2
tp3691
g36
I00
S'\x91\x00\x00\x00Q\x00\x00\x00'
p3692
tp3693
bsba(i__main__
FrameData
p3694
(dp3695
g6
g2026
sg8
g9
(g13
S'\xfc\xeeci3\xd5\x1a@'
p3696
tp3697
Rp3698
sg19
I0
sg20
g21
(S'\x07\xdd\t\x1d\x13\x0e \x05\xd4O'
p3699
tp3700
Rp3701
sg25
I0
sg26
g27
(g28
(I0
tp3702
g30
tp3703
Rp3704
(I1
(I2
tp3705
g36
I00
S'\x95\x00\x00\x00P\x00\x00\x00'
p3706
tp3707
bsba(i__main__
FrameData
p3708
(dp3709
g6
g2026
sg8
g9
(g13
S'S[\xda:XL\x19@'
p3710
tp3711
Rp3712
sg19
I0
sg20
g21
(S'\x07\xdd\t\x1d\x13\x0e \x05\xfa8'
p3713
tp3714
Rp3715
sg25
I0
sg26
g27
(g28
(I0
tp3716
g30
tp3717
Rp3718
(I1
(I2
tp3719
g36
I00
S'\x9a\x00\x00\x00P\x00\x00\x00'
p3720
tp3721
bsba(i__main__
FrameData
p3722
(dp3723
g6
g2026
sg8
g9
(g13
S'htN\x17\xb2=\x1f@'
p3724
tp3725
Rp3726
sg19
I0
sg20
g21
(S'\x07\xdd\t\x1d\x13\x0e \x06H_'
p3727
tp3728
Rp3729
sg25
I0
sg26
g27
(g28
(I0
tp3730
g30
tp3731
Rp3732
(I1
(I2
tp3733
g36
I00
S'\x9e\x00\x00\x00O\x00\x00\x00'
p3734
tp3735
bsba(i__main__
FrameData
p3736
(dp3737
g6
g2026
sg8
g9
(g13
S'\xd2\xf1}\x82U\\&@'
p3738
tp3739
Rp3740
sg19
I0
sg20
g21
(S'\x07\xdd\t\x1d\x13\x0e \x06\x97\xb1'
p3741
tp3742
Rp3743
sg25
I0
sg26
g27
(g28
(I0
tp3744
g30
tp3745
Rp3746
(I1
(I2
tp3747
g36
I00
S'\xa2\x00\x00\x00O\x00\x00\x00'
p3748
tp3749
bsba(i__main__
FrameData
p3750
(dp3751
g6
g394
sg8
g9
(g13
S'\xef\rI\xf1\xf33+@'
p3752
tp3753
Rp3754
sg19
I0
sg20
g21
(S'\x07\xdd\t\x1d\x13\x0e \x06\xbd\x89'
p3755
tp3756
Rp3757
sg25
I0
sg26
g27
(g28
(I0
tp3758
g30
tp3759
Rp3760
(I1
(I2
tp3761
g36
I00
S'\xa5\x00\x00\x00O\x00\x00\x00'
p3762
tp3763
bsba(i__main__
FrameData
p3764
(dp3765
g6
g394
sg8
g9
(g13
S'bVc}\x9d\xb2#@'
p3766
tp3767
Rp3768
sg19
I0
sg20
g21
(S'\x07\xdd\t\x1d\x13\x0e \x07\x0c\xc1'
p3769
tp3770
Rp3771
sg25
I0
sg26
g27
(g28
(I0
tp3772
g30
tp3773
Rp3774
(I1
(I2
tp3775
g36
I00
S'\xa9\x00\x00\x00O\x00\x00\x00'
p3776
tp3777
bsba(i__main__
FrameData
p3778
(dp3779
g6
g394
sg8
g9
(g13
S'\xcd;\x7ff\x9e\xa0\x16@'
p3780
tp3781
Rp3782
sg19
I0
sg20
g21
(S'\x07\xdd\t\x1d\x13\x0e \x07Z\x0b'
p3783
tp3784
Rp3785
sg25
I0
sg26
g27
(g28
(I0
tp3786
g30
tp3787
Rp3788
(I1
(I2
tp3789
g36
I00
S'\xae\x00\x00\x00O\x00\x00\x00'
p3790
tp3791
bsba(i__main__
FrameData
p3792
(dp3793
g6
g394
sg8
g9
(g13
S'\x00\x00\x00\x00\x00\x00\x08@'
p3794
tp3795
Rp3796
sg19
I0
sg20
g21
(S'\x07\xdd\t\x1d\x13\x0e \x07\x81\xe7'
p3797
tp3798
Rp3799
sg25
I0
sg26
g27
(g28
(I0
tp3800
g30
tp3801
Rp3802
(I1
(I2
tp3803
g36
I00
S'\xb2\x00\x00\x00N\x00\x00\x00'
p3804
tp3805
bsba(i__main__
FrameData
p3806
(dp3807
g6
g394
sg8
g9
(g13
S'\xf3YaD+\xd8\x0c@'
p3808
tp3809
Rp3810
sg19
I0
sg20
g21
(S'\x07\xdd\t\x1d\x13\x0e \x07\xd0\xf3'
p3811
tp3812
Rp3813
sg25
I0
sg26
g27
(g28
(I0
tp3814
g30
tp3815
Rp3816
(I1
(I2
tp3817
g36
I00
S'\xb5\x00\x00\x00M\x00\x00\x00'
p3818
tp3819
bsba(i__main__
FrameData
p3820
(dp3821
g6
g394
sg8
g9
(g13
S'\xf3\xd9\xa8\xa4h\x8a\x15@'
p3822
tp3823
Rp3824
sg19
I0
sg20
g21
(S'\x07\xdd\t\x1d\x13\x0e \x08\x1er'
p3825
tp3826
Rp3827
sg25
I0
sg26
g27
(g28
(I0
tp3828
g30
tp3829
Rp3830
(I1
(I2
tp3831
g36
I00
S'\xb7\x00\x00\x00M\x00\x00\x00'
p3832
tp3833
bsba(i__main__
FrameData
p3834
(dp3835
g6
g394
sg8
g9
(g13
S'\xe9\xfbv \xd5\x1e\x1d@'
p3836
tp3837
Rp3838
sg19
I0
sg20
g21
(S'\x07\xdd\t\x1d\x13\x0e \x08D('
p3839
tp3840
Rp3841
sg25
I0
sg26
g27
(g28
(I0
tp3842
g30
tp3843
Rp3844
(I1
(I2
tp3845
g36
I00
S'\xb9\x00\x00\x00M\x00\x00\x00'
p3846
tp3847
bsba(i__main__
FrameData
p3848
(dp3849
g6
g394
sg8
g9
(g13
S'\x9a.\x90!hp"@'
p3850
tp3851
Rp3852
sg19
I0
sg20
g21
(S'\x07\xdd\t\x1d\x13\x0e \x08\x82\x00'
p3853
tp3854
Rp3855
sg25
I0
sg26
g27
(g28
(I0
tp3856
g30
tp3857
Rp3858
(I1
(I2
tp3859
g36
I00
S'\xbb\x00\x00\x00M\x00\x00\x00'
p3860
tp3861
bsba(i__main__
FrameData
p3862
(dp3863
g6
g394
sg8
g9
(g13
S'\xf6/\x12_ee$@'
p3864
tp3865
Rp3866
sg19
I0
sg20
g21
(S'\x07\xdd\t\x1d\x13\x0e \x08\xe1\xc1'
p3867
tp3868
Rp3869
sg25
I0
sg26
g27
(g28
(I0
tp3870
g30
tp3871
Rp3872
(I1
(I2
tp3873
g36
I00
S'\xbc\x00\x00\x00M\x00\x00\x00'
p3874
tp3875
bsba(i__main__
FrameData
p3876
(dp3877
g6
g394
sg8
g9
(g13
S'9\xdcc\xb3\xbfT(@'
p3878
tp3879
Rp3880
sg19
I0
sg20
g21
(S'\x07\xdd\t\x1d\x13\x0e \t\x07\x99'
p3881
tp3882
Rp3883
sg25
I0
sg26
g27
(g28
(I0
tp3884
g30
tp3885
Rp3886
(I1
(I2
tp3887
g36
I00
S'\xbe\x00\x00\x00M\x00\x00\x00'
p3888
tp3889
bsba(i__main__
FrameData
p3890
(dp3891
g6
g2349
sg8
g9
(g13
S'\x00\x00\x00\x00\x00\x00$@'
p3892
tp3893
Rp3894
sg19
I0
sg20
g21
(S'\x07\xdd\t\x1d\x13\x0e \tFG'
p3895
tp3896
Rp3897
sg25
I0
sg26
g27
(g28
(I0
tp3898
g30
tp3899
Rp3900
(I1
(I2
tp3901
g36
I00
S'\xc0\x00\x00\x00K\x00\x00\x00'
p3902
tp3903
bsba(i__main__
FrameData
p3904
(dp3905
g6
g2349
sg8
g9
(g13
S'\x00\x00\x00\x00\x00\x00 @'
p3906
tp3907
Rp3908
sg19
I0
sg20
g21
(S'\x07\xdd\t\x1d\x13\x0e \t\xa3\xa3'
p3909
tp3910
Rp3911
sg25
I0
sg26
g27
(g28
(I0
tp3912
g30
tp3913
Rp3914
(I1
(I2
tp3915
g36
I00
S'\xc2\x00\x00\x00K\x00\x00\x00'
p3916
tp3917
bsba(i__main__
FrameData
p3918
(dp3919
g6
g2349
sg8
g9
(g13
S'\x00\x00\x00\x00\x00\x00\x18@'
p3920
tp3921
Rp3922
sg19
I0
sg20
g21
(S'\x07\xdd\t\x1d\x13\x0e \t\xc7\xa5'
p3923
tp3924
Rp3925
sg25
I0
sg26
g27
(g28
(I0
tp3926
g30
tp3927
Rp3928
(I1
(I2
tp3929
g36
I00
S'\xc4\x00\x00\x00K\x00\x00\x00'
p3930
tp3931
bsba(i__main__
FrameData
p3932
(dp3933
g6
g2349
sg8
g9
(g13
S'\x00\x00\x00\x00\x00\x00\x10@'
p3934
tp3935
Rp3936
sg19
I0
sg20
g21
(S'\x07\xdd\t\x1d\x13\x0e \n\t\xa6'
p3937
tp3938
Rp3939
sg25
I0
sg26
g27
(g28
(I0
tp3940
g30
tp3941
Rp3942
(I1
(I2
tp3943
g36
I00
S'\xc6\x00\x00\x00K\x00\x00\x00'
p3944
tp3945
bsba(i__main__
FrameData
p3946
(dp3947
g6
g2349
sg8
g9
(g13
S'\x00\x00\x00\x00\x00\x00\x08@'
p3948
tp3949
Rp3950
sg19
I0
sg20
g21
(S'\x07\xdd\t\x1d\x13\x0e \nS\xaf'
p3951
tp3952
Rp3953
sg25
I0
sg26
g27
(g28
(I0
tp3954
g30
tp3955
Rp3956
(I1
(I2
tp3957
g36
I00
S'\xc7\x00\x00\x00K\x00\x00\x00'
p3958
tp3959
bsba(i__main__
FrameData
p3960
(dp3961
g6
g2349
sg8
g9
(g13
S'\x00\x00\x00\x00\x00\x00\x00@'
p3962
tp3963
Rp3964
sg19
I0
sg20
g21
(S'\x07\xdd\t\x1d\x13\x0e \n\x8b<'
p3965
tp3966
Rp3967
sg25
I0
sg26
g27
(g28
(I0
tp3968
g30
tp3969
Rp3970
(I1
(I2
tp3971
g36
I00
S'\xc8\x00\x00\x00K\x00\x00\x00'
p3972
tp3973
bsba(i__main__
FrameData
p3974
(dp3975
g6
g2349
sg8
g9
(g13
S'\x00\x00\x00\x00\x00\x00\x00\x00'
p3976
tp3977
Rp3978
sg19
I0
sg20
g21
(S'\x07\xdd\t\x1d\x13\x0e \n\xcex'
p3979
tp3980
Rp3981
sg25
I0
sg26
g27
(g28
(I0
tp3982
g30
tp3983
Rp3984
(I1
(I2
tp3985
g36
I00
S'\xca\x00\x00\x00K\x00\x00\x00'
p3986
tp3987
bsba(i__main__
FrameData
p3988
(dp3989
g6
g2349
sg8
g9
(g13
S'\x00\x00\x00\x00\x00\x00\xf0?'
p3990
tp3991
Rp3992
sg19
I0
sg20
g21
(S'\x07\xdd\t\x1d\x13\x0e \x0b\x19C'
p3993
tp3994
Rp3995
sg25
I0
sg26
g27
(g28
(I0
tp3996
g30
tp3997
Rp3998
(I1
(I2
tp3999
g36
I00
S'\xcb\x00\x00\x00K\x00\x00\x00'
p4000
tp4001
bsba(i__main__
FrameData
p4002
(dp4003
g6
g2349
sg8
g9
(g13
S'\x00\x00\x00\x00\x00\x00\x00@'
p4004
tp4005
Rp4006
sg19
I0
sg20
g21
(S'\x07\xdd\t\x1d\x13\x0e \x0bV\xbe'
p4007
tp4008
Rp4009
sg25
I0
sg26
g27
(g28
(I0
tp4010
g30
tp4011
Rp4012
(I1
(I2
tp4013
g36
I00
S'\xcc\x00\x00\x00K\x00\x00\x00'
p4014
tp4015
bsba(i__main__
FrameData
p4016
(dp4017
g6
g2349
sg8
g9
(g13
S'\x00\x00\x00\x00\x00\x00\x08@'
p4018
tp4019
Rp4020
sg19
I0
sg20
g21
(S'\x07\xdd\t\x1d\x13\x0e \x0c\x14X'
p4021
tp4022
Rp4023
sg25
I0
sg26
g27
(g28
(I0
tp4024
g30
tp4025
Rp4026
(I1
(I2
tp4027
g36
I00
S'\xcd\x00\x00\x00K\x00\x00\x00'
p4028
tp4029
bsba(i__main__
FrameData
p4030
(dp4031
g6
g2349
sg8
g9
(g13
S'\x00\x00\x00\x00\x00\x00\x00@'
p4032
tp4033
Rp4034
sg19
I0
sg20
g21
(S'\x07\xdd\t\x1d\x13\x0e!\x04\x01\xe2'
p4035
tp4036
Rp4037
sg25
I0
sg26
g27
(g28
(I0
tp4038
g30
tp4039
Rp4040
(I1
(I2
tp4041
g36
I00
S'\xcc\x00\x00\x00K\x00\x00\x00'
p4042
tp4043
bsba(i__main__
FrameData
p4044
(dp4045
g6
g2349
sg8
g9
(g13
S'\x00\x00\x00\x00\x00\x00\xf0?'
p4046
tp4047
Rp4048
sg19
I0
sg20
g21
(S'\x07\xdd\t\x1d\x13\x0e!\x06O\x04'
p4049
tp4050
Rp4051
sg25
I0
sg26
g27
(g28
(I0
tp4052
g30
tp4053
Rp4054
(I1
(I2
tp4055
g36
I00
S'\xcb\x00\x00\x00K\x00\x00\x00'
p4056
tp4057
bsba(i__main__
FrameData
p4058
(dp4059
g6
g2349
sg8
g9
(g13
S'\x00\x00\x00\x00\x00\x00\x00\x00'
p4060
tp4061
Rp4062
sg19
I0
sg20
g21
(S'\x07\xdd\t\x1d\x13\x0e!\x07\x87\x94'
p4063
tp4064
Rp4065
sg25
I0
sg26
g27
(g28
(I0
tp4066
g30
tp4067
Rp4068
(I1
(I2
tp4069
g36
I00
S'\xca\x00\x00\x00K\x00\x00\x00'
p4070
tp4071
bsba(i__main__
FrameData
p4072
(dp4073
g6
g2349
sg8
g9
(g13
S'\x00\x00\x00\x00\x00\x00\x00@'
p4074
tp4075
Rp4076
sg19
I0
sg20
g21
(S'\x07\xdd\t\x1d\x13\x0e!\x07\xed\xc0'
p4077
tp4078
Rp4079
sg25
I0
sg26
g27
(g28
(I0
tp4080
g30
tp4081
Rp4082
(I1
(I2
tp4083
g36
I00
S'\xca\x00\x00\x00M\x00\x00\x00'
p4084
tp4085
bsba(i__main__
FrameData
p4086
(dp4087
g6
g2349
sg8
g9
(g13
S'\xcd;\x7ff\x9e\xa0\x06@'
p4088
tp4089
Rp4090
sg19
I0
sg20
g21
(S'\x07\xdd\t\x1d\x13\x0e!\x08NB'
p4091
tp4092
Rp4093
sg25
I0
sg26
g27
(g28
(I0
tp4094
g30
tp4095
Rp4096
(I1
(I2
tp4097
g36
I00
S'\xc8\x00\x00\x00M\x00\x00\x00'
p4098
tp4099
bsba(i__main__
FrameData
p4100
(dp4101
g6
g2349
sg8
g9
(g13
S'\xf3YaD+\xd8\x0c@'
p4102
tp4103
Rp4104
sg19
I0
sg20
g21
(S'\x07\xdd\t\x1d\x13\x0e!\x08\x8f\x94'
p4105
tp4106
Rp4107
sg25
I0
sg26
g27
(g28
(I0
tp4108
g30
tp4109
Rp4110
(I1
(I2
tp4111
g36
I00
S'\xc7\x00\x00\x00M\x00\x00\x00'
p4112
tp4113
bsba(i__main__
FrameData
p4114
(dp4115
g6
g2349
sg8
g9
(g13
S'\xa8\xf4\x97\x9bw\xe3\x11@'
p4116
tp4117
Rp4118
sg19
I0
sg20
g21
(S'\x07\xdd\t\x1d\x13\x0e!\x08\xce\x15'
p4119
tp4120
Rp4121
sg25
I0
sg26
g27
(g28
(I0
tp4122
g30
tp4123
Rp4124
(I1
(I2
tp4125
g36
I00
S'\xc6\x00\x00\x00M\x00\x00\x00'
p4126
tp4127
bsba(i__main__
FrameData
p4128
(dp4129
g6
g2349
sg8
g9
(g13
S'\xa2\xa3\xb3\r\xe5R\x17@'
p4130
tp4131
Rp4132
sg19
I0
sg20
g21
(S'\x07\xdd\t\x1d\x13\x0e!\t_5'
p4133
tp4134
Rp4135
sg25
I0
sg26
g27
(g28
(I0
tp4136
g30
tp4137
Rp4138
(I1
(I2
tp4139
g36
I00
S'\xc5\x00\x00\x00N\x00\x00\x00'
p4140
tp4141
bsba(i__main__
FrameData
p4142
(dp4143
g6
g2349
sg8
g9
(g13
S'\xfc\xeeci3\xd5\x1a@'
p4144
tp4145
Rp4146
sg19
I0
sg20
g21
(S'\x07\xdd\t\x1d\x13\x0e!\t\x97?'
p4147
tp4148
Rp4149
sg25
I0
sg26
g27
(g28
(I0
tp4150
g30
tp4151
Rp4152
(I1
(I2
tp4153
g36
I00
S'\xc4\x00\x00\x00N\x00\x00\x00'
p4154
tp4155
bsba(i__main__
FrameData
p4156
(dp4157
g6
g2349
sg8
g9
(g13
S'p\xc4\x9d9\x8dv\x1e@'
p4158
tp4159
Rp4160
sg19
I0
sg20
g21
(S'\x07\xdd\t\x1d\x13\x0e!\n]\xea'
p4161
tp4162
Rp4163
sg25
I0
sg26
g27
(g28
(I0
tp4164
g30
tp4165
Rp4166
(I1
(I2
tp4167
g36
I00
S'\xc3\x00\x00\x00N\x00\x00\x00'
p4168
tp4169
bsba(i__main__
FrameData
p4170
(dp4171
g6
g2349
sg8
g9
(g13
S'\xa3\x14\xae\xa8\x87\x16!@'
p4172
tp4173
Rp4174
sg19
I0
sg20
g21
(S'\x07\xdd\t\x1d\x13\x0e!\n\xea\xcb'
p4175
tp4176
Rp4177
sg25
I0
sg26
g27
(g28
(I0
tp4178
g30
tp4179
Rp4180
(I1
(I2
tp4181
g36
I00
S'\xc2\x00\x00\x00N\x00\x00\x00'
p4182
tp4183
bsba(i__main__
FrameData
p4184
(dp4185
g6
g2349
sg8
g9
(g13
S'~\xc4#,B\xf9"@'
p4186
tp4187
Rp4188
sg19
I0
sg20
g21
(S'\x07\xdd\t\x1d\x13\x0e!\r\xf6\xa4'
p4189
tp4190
Rp4191
sg25
I0
sg26
g27
(g28
(I0
tp4192
g30
tp4193
Rp4194
(I1
(I2
tp4195
g36
I00
S'\xc1\x00\x00\x00N\x00\x00\x00'
p4196
tp4197
bsba(i__main__
FrameData
p4198
(dp4199
g6
g2349
sg8
g9
(g13
S'7\xf9\xcf\xdao\xe1$@'
p4200
tp4201
Rp4202
sg19
I0
sg20
g21
(S'\x07\xdd\t\x1d\x13\x0e!\x0f.\xcb'
p4203
tp4204
Rp4205
sg25
I0
sg26
g27
(g28
(I0
tp4206
g30
tp4207
Rp4208
(I1
(I2
tp4209
g36
I00
S'\xc0\x00\x00\x00N\x00\x00\x00'
p4210
tp4211
bsba(i__main__
FrameData
p4212
(dp4213
g6
g2349
sg8
g9
(g13
S'\xeb\x12\xb2\xbb\xb2\xcd&@'
p4214
tp4215
Rp4216
sg19
I0
sg20
g21
(S'\x07\xdd\t\x1d\x13\x0e"\x00\xac\xa8'
p4217
tp4218
Rp4219
sg25
I0
sg26
g27
(g28
(I0
tp4220
g30
tp4221
Rp4222
(I1
(I2
tp4223
g36
I00
S'\xbf\x00\x00\x00N\x00\x00\x00'
p4224
tp4225
bsba(i__main__
FrameData
p4226
(dp4227
g6
g394
sg8
g9
(g13
S'S[\xda:XL)@'
p4228
tp4229
Rp4230
sg19
I0
sg20
g21
(S'\x07\xdd\t\x1d\x13\x0e"\x02\xbdT'
p4231
tp4232
Rp4233
sg25
I0
sg26
g27
(g28
(I0
tp4234
g30
tp4235
Rp4236
(I1
(I2
tp4237
g36
I00
S'\xbe\x00\x00\x00O\x00\x00\x00'
p4238
tp4239
bsba(i__main__
FrameData
p4240
(dp4241
g6
g394
sg8
g9
(g13
S"\xe0\x11<m\xceh'@"
p4242
tp4243
Rp4244
sg19
I0
sg20
g21
(S'\x07\xdd\t\x1d\x13\x0e"\x03?\xe1'
p4245
tp4246
Rp4247
sg25
I0
sg26
g27
(g28
(I0
tp4248
g30
tp4249
Rp4250
(I1
(I2
tp4251
g36
I00
S'\xbd\x00\x00\x00O\x00\x00\x00'
p4252
tp4253
bsba(i__main__
FrameData
p4254
(dp4255
g6
g394
sg8
g9
(g13
S'\xe4\x10\xe4sW\x0f)@'
p4256
tp4257
Rp4258
sg19
I0
sg20
g21
(S'\x07\xdd\t\x1d\x13\x0e"\x03\x8d\xf1'
p4259
tp4260
Rp4261
sg25
I0
sg26
g27
(g28
(I0
tp4262
g30
tp4263
Rp4264
(I1
(I2
tp4265
g36
I00
S'\xbd\x00\x00\x00Q\x00\x00\x00'
p4266
tp4267
bsba(i__main__
FrameData
p4268
(dp4269
g6
g394
sg8
g9
(g13
S"\xa2\xa3\xb3\r\xe5R'@"
p4270
tp4271
Rp4272
sg19
I0
sg20
g21
(S'\x07\xdd\t\x1d\x13\x0e"\x03\xdcA'
p4273
tp4274
Rp4275
sg25
I0
sg26
g27
(g28
(I0
tp4276
g30
tp4277
Rp4278
(I1
(I2
tp4279
g36
I00
S'\xbc\x00\x00\x00Q\x00\x00\x00'
p4280
tp4281
bsba(i__main__
FrameData
p4282
(dp4283
g6
g394
sg8
g9
(g13
S'\x00\x00\x00\x00\x00\x00$@'
p4284
tp4285
Rp4286
sg19
I0
sg20
g21
(S'\x07\xdd\t\x1d\x13\x0e"\x04\x027'
p4287
tp4288
Rp4289
sg25
I0
sg26
g27
(g28
(I0
tp4290
g30
tp4291
Rp4292
(I1
(I2
tp4293
g36
I00
S'\xba\x00\x00\x00Q\x00\x00\x00'
p4294
tp4295
bsba(i__main__
FrameData
p4296
(dp4297
g6
g394
sg8
g9
(g13
S'\x00\x00\x00\x00\x00\x00$@'
p4298
tp4299
Rp4300
sg19
I0
sg20
g21
(S'\x07\xdd\t\x1d\x13\x0e"\x04Q\xa6'
p4301
tp4302
Rp4303
sg25
I0
sg26
g27
(g28
(I0
tp4304
g30
tp4305
Rp4306
(I1
(I2
tp4307
g36
I00
S'\xb8\x00\x00\x00S\x00\x00\x00'
p4308
tp4309
bsba(i__main__
FrameData
p4310
(dp4311
g6
g394
sg8
g9
(g13
S'\xa8\xf4\x97\x9bw\xe3!@'
p4312
tp4313
Rp4314
sg19
I0
sg20
g21
(S'\x07\xdd\t\x1d\x13\x0e"\x04\x88\x82'
p4315
tp4316
Rp4317
sg25
I0
sg26
g27
(g28
(I0
tp4318
g30
tp4319
Rp4320
(I1
(I2
tp4321
g36
I00
S'\xb6\x00\x00\x00S\x00\x00\x00'
p4322
tp4323
bsba(i__main__
FrameData
p4324
(dp4325
g6
g394
sg8
g9
(g13
S'\xa3\x14\xae\xa8\x87\x16!@'
p4326
tp4327
Rp4328
sg19
I0
sg20
g21
(S'\x07\xdd\t\x1d\x13\x0e"\x04\xbf\xf0'
p4329
tp4330
Rp4331
sg25
I0
sg26
g27
(g28
(I0
tp4332
g30
tp4333
Rp4334
(I1
(I2
tp4335
g36
I00
S'\xb5\x00\x00\x00S\x00\x00\x00'
p4336
tp4337
bsba(i__main__
FrameData
p4338
(dp4339
g6
g394
sg8
g9
(g13
S'\x9a.\x90!hp"@'
p4340
tp4341
Rp4342
sg19
I0
sg20
g21
(S'\x07\xdd\t\x1d\x13\x0e"\x05\x14\xa7'
p4343
tp4344
Rp4345
sg25
I0
sg26
g27
(g28
(I0
tp4346
g30
tp4347
Rp4348
(I1
(I2
tp4349
g36
I00
S'\xb4\x00\x00\x00T\x00\x00\x00'
p4350
tp4351
bsba(i__main__
FrameData
p4352
(dp4353
g6
g394
sg8
g9
(g13
S'$\xf8\xd9p[\x1c"@'
p4354
tp4355
Rp4356
sg19
I0
sg20
g21
(S'\x07\xdd\t\x1d\x13\x0e"\x05\x88\xe0'
p4357
tp4358
Rp4359
sg25
I0
sg26
g27
(g28
(I0
tp4360
g30
tp4361
Rp4362
(I1
(I2
tp4363
g36
I00
S'\xb3\x00\x00\x00T\x00\x00\x00'
p4364
tp4365
bsba(i__main__
FrameData
p4366
(dp4367
g6
g394
sg8
g9
(g13
S'\x00\x00\x00\x00\x00\x00"@'
p4368
tp4369
Rp4370
sg19
I0
sg20
g21
(S'\x07\xdd\t\x1d\x13\x0e"\x06G\xc4'
p4371
tp4372
Rp4373
sg25
I0
sg26
g27
(g28
(I0
tp4374
g30
tp4375
Rp4376
(I1
(I2
tp4377
g36
I00
S'\xb2\x00\x00\x00T\x00\x00\x00'
p4378
tp4379
bsba(i__main__
FrameData
p4380
(dp4381
g6
g394
sg8
g9
(g13
S'\xf0)#L\x89\x19$@'
p4382
tp4383
Rp4384
sg19
I0
sg20
g21
(S'\x07\xdd\t\x1d\x13\x0e"\x07\x0c\xc2'
p4385
tp4386
Rp4387
sg25
I0
sg26
g27
(g28
(I0
tp4388
g30
tp4389
Rp4390
(I1
(I2
tp4391
g36
I00
S'\xb1\x00\x00\x00U\x00\x00\x00'
p4392
tp4393
bsba(i__main__
FrameData
p4394
(dp4395
g6
g394
sg8
g9
(g13
S'\xf6/\x12_ee$@'
p4396
tp4397
Rp4398
sg19
I0
sg20
g21
(S'\x07\xdd\t\x1d\x13\x0e"\x07^\x98'
p4399
tp4400
Rp4401
sg25
I0
sg26
g27
(g28
(I0
tp4402
g30
tp4403
Rp4404
(I1
(I2
tp4405
g36
I00
S'\xb0\x00\x00\x00U\x00\x00\x00'
p4406
tp4407
bsba(i__main__
FrameData
p4408
(dp4409
g6
g394
sg8
g9
(g13
S'7\xf9\xcf\xdao\xe1$@'
p4410
tp4411
Rp4412
sg19
I0
sg20
g21
(S'\x07\xdd\t\x1d\x13\x0e"\x07\xac\xc4'
p4413
tp4414
Rp4415
sg25
I0
sg26
g27
(g28
(I0
tp4416
g30
tp4417
Rp4418
(I1
(I2
tp4419
g36
I00
S'\xaf\x00\x00\x00U\x00\x00\x00'
p4420
tp4421
bsba(i__main__
FrameData
p4422
(dp4423
g6
g394
sg8
g9
(g13
S'\xf3\xd9\xa8\xa4h\x8a%@'
p4424
tp4425
Rp4426
sg19
I0
sg20
g21
(S'\x07\xdd\t\x1d\x13\x0e"\x07\xd3\x0f'
p4427
tp4428
Rp4429
sg25
I0
sg26
g27
(g28
(I0
tp4430
g30
tp4431
Rp4432
(I1
(I2
tp4433
g36
I00
S'\xae\x00\x00\x00U\x00\x00\x00'
p4434
tp4435
bsba(i__main__
FrameData
p4436
(dp4437
g6
g394
sg8
g9
(g13
S'\xe4\x10\xe4sW\x0f)@'
p4438
tp4439
Rp4440
sg19
I0
sg20
g21
(S'\x07\xdd\t\x1d\x13\x0e"\x08"U'
p4441
tp4442
Rp4443
sg25
I0
sg26
g27
(g28
(I0
tp4444
g30
tp4445
Rp4446
(I1
(I2
tp4447
g36
I00
S'\xac\x00\x00\x00V\x00\x00\x00'
p4448
tp4449
bsba(i__main__
FrameData
p4450
(dp4451
g6
g394
sg8
g9
(g13
S'\xef\rI\xf1\xf33+@'
p4452
tp4453
Rp4454
sg19
I0
sg20
g21
(S'\x07\xdd\t\x1d\x13\x0e"\x08q\x0e'
p4455
tp4456
Rp4457
sg25
I0
sg26
g27
(g28
(I0
tp4458
g30
tp4459
Rp4460
(I1
(I2
tp4461
g36
I00
S'\xaa\x00\x00\x00V\x00\x00\x00'
p4462
tp4463
bsba(i__main__
FrameData
p4464
(dp4465
g6
g394
sg8
g9
(g13
S'htN\x17\xb2=/@'
p4466
tp4467
Rp4468
sg19
I0
sg20
g21
(S'\x07\xdd\t\x1d\x13\x0e"\x08\x977'
p4469
tp4470
Rp4471
sg25
I0
sg26
g27
(g28
(I0
tp4472
g30
tp4473
Rp4474
(I1
(I2
tp4475
g36
I00
S'\xa8\x00\x00\x00W\x00\x00\x00'
p4476
tp4477
bsba(i__main__
FrameData
p4478
(dp4479
g6
g2026
sg8
g9
(g13
S'8\xd8\xbc\n\x1b\x072@'
p4480
tp4481
Rp4482
sg19
I0
sg20
g21
(S'\x07\xdd\t\x1d\x13\x0e"\x08\xe5V'
p4483
tp4484
Rp4485
sg25
I0
sg26
g27
(g28
(I0
tp4486
g30
tp4487
Rp4488
(I1
(I2
tp4489
g36
I00
S'\xa2\x00\x00\x00Y\x00\x00\x00'
p4490
tp4491
bsba(i__main__
FrameData
p4492
(dp4493
g6
g2026
sg8
g9
(g13
S'$\xf8\xd9p[\x1c2@'
p4494
tp4495
Rp4496
sg19
I0
sg20
g21
(S'\x07\xdd\t\x1d\x13\x0e"\t\x195'
p4497
tp4498
Rp4499
sg25
I0
sg26
g27
(g28
(I0
tp4500
g30
tp4501
Rp4502
(I1
(I2
tp4503
g36
I00
S'\x9a\x00\x00\x00\\\x00\x00\x00'
p4504
tp4505
bsba(i__main__
FrameData
p4506
(dp4507
g6
g913
sg8
g9
(g13
S'W\xb2\xdb\x1a\x9a\xa53@'
p4508
tp4509
Rp4510
sg19
I0
sg20
g21
(S'\x07\xdd\t\x1d\x13\x0e"\tg\xb0'
p4511
tp4512
Rp4513
sg25
I0
sg26
g27
(g28
(I0
tp4514
g30
tp4515
Rp4516
(I1
(I2
tp4517
g36
I00
S'\x95\x00\x00\x00_\x00\x00\x00'
p4518
tp4519
bsba(i__main__
FrameData
p4520
(dp4521
g6
g913
sg8
g9
(g13
S'\x00\x00\x00\x00\x00\x000@'
p4522
tp4523
Rp4524
sg19
I0
sg20
g21
(S'\x07\xdd\t\x1d\x13\x0e"\t\xb4\x17'
p4525
tp4526
Rp4527
sg25
I0
sg26
g27
(g28
(I0
tp4528
g30
tp4529
Rp4530
(I1
(I2
tp4531
g36
I00
S'\x90\x00\x00\x00b\x00\x00\x00'
p4532
tp4533
bsba(i__main__
FrameData
p4534
(dp4535
g6
g913
sg8
g9
(g13
S'\xe9\xfbv \xd5\x1e-@'
p4536
tp4537
Rp4538
sg19
I0
sg20
g21
(S'\x07\xdd\t\x1d\x13\x0e"\t\xd9n'
p4539
tp4540
Rp4541
sg25
I0
sg26
g27
(g28
(I0
tp4542
g30
tp4543
Rp4544
(I1
(I2
tp4545
g36
I00
S'\x8c\x00\x00\x00d\x00\x00\x00'
p4546
tp4547
bsba(i__main__
FrameData
p4548
(dp4549
g6
g913
sg8
g9
(g13
S'\xc5Bl?W\x87.@'
p4550
tp4551
Rp4552
sg19
I0
sg20
g21
(S'\x07\xdd\t\x1d\x13\x0e"\n)\xf5'
p4553
tp4554
Rp4555
sg25
I0
sg26
g27
(g28
(I0
tp4556
g30
tp4557
Rp4558
(I1
(I2
tp4559
g36
I00
S'\x88\x00\x00\x00e\x00\x00\x00'
p4560
tp4561
bsba(i__main__
FrameData
p4562
(dp4563
g6
g913
sg8
g9
(g13
S'\x0f\xab\xa8Q\xb6f0@'
p4564
tp4565
Rp4566
sg19
I0
sg20
g21
(S'\x07\xdd\t\x1d\x13\x0e"\ng\xb1'
p4567
tp4568
Rp4569
sg25
I0
sg26
g27
(g28
(I0
tp4570
g30
tp4571
Rp4572
(I1
(I2
tp4573
g36
I00
S'\x86\x00\x00\x00e\x00\x00\x00'
p4574
tp4575
bsba(i__main__
FrameData
p4576
(dp4577
g6
S'g'
p4578
sg8
g9
(g13
S'l\xd0\xe82\x1a\xb11@'
p4579
tp4580
Rp4581
sg19
I0
sg20
g21
(S'\x07\xdd\t\x1d\x13\x0e"\n\x9c\xde'
p4582
tp4583
Rp4584
sg25
I0
sg26
g27
(g28
(I0
tp4585
g30
tp4586
Rp4587
(I1
(I2
tp4588
g36
I00
S'\x84\x00\x00\x00e\x00\x00\x00'
p4589
tp4590
bsba(i__main__
FrameData
p4591
(dp4592
g6
g4578
sg8
g9
(g13
S'\x10\xb3]\xc9`G0@'
p4593
tp4594
Rp4595
sg19
I0
sg20
g21
(S'\x07\xdd\t\x1d\x13\x0e"\n\xec\x14'
p4596
tp4597
Rp4598
sg25
I0
sg26
g27
(g28
(I0
tp4599
g30
tp4600
Rp4601
(I1
(I2
tp4602
g36
I00
S'\x83\x00\x00\x00f\x00\x00\x00'
p4603
tp4604
bsba(i__main__
FrameData
p4605
(dp4606
g6
g4578
sg8
g9
(g13
S'htN\x17\xb2=/@'
p4607
tp4608
Rp4609
sg19
I0
sg20
g21
(S'\x07\xdd\t\x1d\x13\x0e"\x0b\x1e\xb4'
p4610
tp4611
Rp4612
sg25
I0
sg26
g27
(g28
(I0
tp4613
g30
tp4614
Rp4615
(I1
(I2
tp4616
g36
I00
S'\x82\x00\x00\x00f\x00\x00\x00'
p4617
tp4618
bsba(i__main__
FrameData
p4619
(dp4620
g6
g4578
sg8
g9
(g13
S'\x00\x00\x00\x00\x00\x00.@'
p4621
tp4622
Rp4623
sg19
I0
sg20
g21
(S'\x07\xdd\t\x1d\x13\x0e"\x0bb\x84'
p4624
tp4625
Rp4626
sg25
I0
sg26
g27
(g28
(I0
tp4627
g30
tp4628
Rp4629
(I1
(I2
tp4630
g36
I00
S'\x81\x00\x00\x00f\x00\x00\x00'
p4631
tp4632
bsba(i__main__
FrameData
p4633
(dp4634
g6
g4578
sg8
g9
(g13
S'\xf3YaD+\xd8,@'
p4635
tp4636
Rp4637
sg19
I0
sg20
g21
(S'\x07\xdd\t\x1d\x13\x0e"\x0b\xb0\x8c'
p4638
tp4639
Rp4640
sg25
I0
sg26
g27
(g28
(I0
tp4641
g30
tp4642
Rp4643
(I1
(I2
tp4644
g36
I00
S'\x80\x00\x00\x00f\x00\x00\x00'
p4645
tp4646
bsba(i__main__
FrameData
p4647
(dp4648
g6
g4578
sg8
g9
(g13
S'\xef\rI\xf1\xf33+@'
p4649
tp4650
Rp4651
sg19
I0
sg20
g21
(S'\x07\xdd\t\x1d\x13\x0e"\x0b\xfd\xef'
p4652
tp4653
Rp4654
sg25
I0
sg26
g27
(g28
(I0
tp4655
g30
tp4656
Rp4657
(I1
(I2
tp4658
g36
I00
S'\x80\x00\x00\x00g\x00\x00\x00'
p4659
tp4660
bsba(i__main__
FrameData
p4661
(dp4662
g6
g4578
sg8
g9
(g13
S'\xe4\x10\xe4sW\x0f)@'
p4663
tp4664
Rp4665
sg19
I0
sg20
g21
(S'\x07\xdd\t\x1d\x13\x0e"\x0c%\xd3'
p4666
tp4667
Rp4668
sg25
I0
sg26
g27
(g28
(I0
tp4669
g30
tp4670
Rp4671
(I1
(I2
tp4672
g36
I00
S'~\x00\x00\x00g\x00\x00\x00'
p4673
tp4674
bsba(i__main__
FrameData
p4675
(dp4676
g6
g4578
sg8
g9
(g13
S'lNy\x00\x85*(@'
p4677
tp4678
Rp4679
sg19
I0
sg20
g21
(S'\x07\xdd\t\x1d\x13\x0e"\x0cs\xf7'
p4680
tp4681
Rp4682
sg25
I0
sg26
g27
(g28
(I0
tp4683
g30
tp4684
Rp4685
(I1
(I2
tp4686
g36
I00
S'}\x00\x00\x00g\x00\x00\x00'
p4687
tp4688
bsba(i__main__
FrameData
p4689
(dp4690
g6
g4578
sg8
g9
(g13
S'\x88\x80v\xd5\\\x97$@'
p4691
tp4692
Rp4693
sg19
I0
sg20
g21
(S'\x07\xdd\t\x1d\x13\x0e"\x0c\xa6\xae'
p4694
tp4695
Rp4696
sg25
I0
sg26
g27
(g28
(I0
tp4697
g30
tp4698
Rp4699
(I1
(I2
tp4700
g36
I00
S'}\x00\x00\x00i\x00\x00\x00'
p4701
tp4702
bsba(i__main__
FrameData
p4703
(dp4704
g6
g4578
sg8
g9
(g13
S'bVc}\x9d\xb2#@'
p4705
tp4706
Rp4707
sg19
I0
sg20
g21
(S'\x07\xdd\t\x1d\x13\x0e"\x0c\xe95'
p4708
tp4709
Rp4710
sg25
I0
sg26
g27
(g28
(I0
tp4711
g30
tp4712
Rp4713
(I1
(I2
tp4714
g36
I00
S'|\x00\x00\x00i\x00\x00\x00'
p4715
tp4716
bsba(i__main__
FrameData
p4717
(dp4718
g6
g4578
sg8
g9
(g13
S'\xa3\x14\xae\xa8\x87\x16!@'
p4719
tp4720
Rp4721
sg19
I0
sg20
g21
(S'\x07\xdd\t\x1d\x13\x0e"\r6\x1e'
p4722
tp4723
Rp4724
sg25
I0
sg26
g27
(g28
(I0
tp4725
g30
tp4726
Rp4727
(I1
(I2
tp4728
g36
I00
S'{\x00\x00\x00j\x00\x00\x00'
p4729
tp4730
bsba(i__main__
FrameData
p4731
(dp4732
g6
g4578
sg8
g9
(g13
S'\xd0\xbaa?\xe0\x1f @'
p4733
tp4734
Rp4735
sg19
I0
sg20
g21
(S'\x07\xdd\t\x1d\x13\x0e"\r\x85\xa4'
p4736
tp4737
Rp4738
sg25
I0
sg26
g27
(g28
(I0
tp4739
g30
tp4740
Rp4741
(I1
(I2
tp4742
g36
I00
S'y\x00\x00\x00j\x00\x00\x00'
p4743
tp4744
bsba(i__main__
FrameData
p4745
(dp4746
g6
g4578
sg8
g9
(g13
S'\x00\x00\x00\x00\x00\x00 @'
p4747
tp4748
Rp4749
sg19
I0
sg20
g21
(S'\x07\xdd\t\x1d\x13\x0e"\r\xabT'
p4750
tp4751
Rp4752
sg25
I0
sg26
g27
(g28
(I0
tp4753
g30
tp4754
Rp4755
(I1
(I2
tp4756
g36
I00
S'x\x00\x00\x00j\x00\x00\x00'
p4757
tp4758
bsba(i__main__
FrameData
p4759
(dp4760
g6
g4578
sg8
g9
(g13
S'\x07\xed\xaff\x0f~ @'
p4761
tp4762
Rp4763
sg19
I0
sg20
g21
(S'\x07\xdd\t\x1d\x13\x0e"\r\xf9T'
p4764
tp4765
Rp4766
sg25
I0
sg26
g27
(g28
(I0
tp4767
g30
tp4768
Rp4769
(I1
(I2
tp4770
g36
I00
S'v\x00\x00\x00j\x00\x00\x00'
p4771
tp4772
bsba(i__main__
FrameData
p4773
(dp4774
g6
g4578
sg8
g9
(g13
S'\xa3\x14\xae\xa8\x87\x16!@'
p4775
tp4776
Rp4777
sg19
I0
sg20
g21
(S'\x07\xdd\t\x1d\x13\x0e"\x0e9\xf8'
p4778
tp4779
Rp4780
sg25
I0
sg26
g27
(g28
(I0
tp4781
g30
tp4782
Rp4783
(I1
(I2
tp4784
g36
I00
S'u\x00\x00\x00j\x00\x00\x00'
p4785
tp4786
bsba(i__main__
FrameData
p4787
(dp4788
g6
g4578
sg8
g9
(g13
S'p\xc4\x9d9\x8dv\x1e@'
p4789
tp4790
Rp4791
sg19
I0
sg20
g21
(S'\x07\xdd\t\x1d\x13\x0e"\x0eo\xf6'
p4792
tp4793
Rp4794
sg25
I0
sg26
g27
(g28
(I0
tp4795
g30
tp4796
Rp4797
(I1
(I2
tp4798
g36
I00
S'u\x00\x00\x00k\x00\x00\x00'
p4799
tp4800
bsba(i__main__
FrameData
p4801
(dp4802
g6
g4578
sg8
g9
(g13
S'\xd0\xbaa?\xe0\x1f @'
p4803
tp4804
Rp4805
sg19
I0
sg20
g21
(S'\x07\xdd\t\x1d\x13\x0e"\x0e\xc0\x07'
p4806
tp4807
Rp4808
sg25
I0
sg26
g27
(g28
(I0
tp4809
g30
tp4810
Rp4811
(I1
(I2
tp4812
g36
I00
S't\x00\x00\x00k\x00\x00\x00'
p4813
tp4814
bsba(i__main__
FrameData
p4815
(dp4816
g6
g4578
sg8
g9
(g13
S'htN\x17\xb2=\x1f@'
p4817
tp4818
Rp4819
sg19
I0
sg20
g21
(S'\x07\xdd\t\x1d\x13\x0e"\x0e\xf3\x94'
p4820
tp4821
Rp4822
sg25
I0
sg26
g27
(g28
(I0
tp4823
g30
tp4824
Rp4825
(I1
(I2
tp4826
g36
I00
S's\x00\x00\x00l\x00\x00\x00'
p4827
tp4828
bsba(i__main__
FrameData
p4829
(dp4830
g6
g4578
sg8
g9
(g13
S'\xd9l\xdf\xccv\xf8 @'
p4831
tp4832
Rp4833
sg19
I0
sg20
g21
(S'\x07\xdd\t\x1d\x13\x0e"\x0f3\xf6'
p4834
tp4835
Rp4836
sg25
I0
sg26
g27
(g28
(I0
tp4837
g30
tp4838
Rp4839
(I1
(I2
tp4840
g36
I00
S'r\x00\x00\x00l\x00\x00\x00'
p4841
tp4842
bsba(i__main__
FrameData
p4843
(dp4844
g6
g4578
sg8
g9
(g13
S'\x00\x00\x00\x00\x00\x00$@'
p4845
tp4846
Rp4847
sg19
I0
sg20
g21
(S'\x07\xdd\t\x1d\x13\x0e#\x004\xe2'
p4848
tp4849
Rp4850
sg25
I0
sg26
g27
(g28
(I0
tp4851
g30
tp4852
Rp4853
(I1
(I2
tp4854
g36
I00
S'p\x00\x00\x00l\x00\x00\x00'
p4855
tp4856
bsba(i__main__
FrameData
p4857
(dp4858
g6
g4578
sg8
g9
(g13
S'\x88\x80v\xd5\\\x97$@'
p4859
tp4860
Rp4861
sg19
I0
sg20
g21
(S'\x07\xdd\t\x1d\x13\x0e#\x00\x8f\x0c'
p4862
tp4863
Rp4864
sg25
I0
sg26
g27
(g28
(I0
tp4865
g30
tp4866
Rp4867
(I1
(I2
tp4868
g36
I00
S'o\x00\x00\x00m\x00\x00\x00'
p4869
tp4870
bsba(i__main__
FrameData
p4871
(dp4872
g6
g4578
sg8
g9
(g13
S'lNy\x00\x85*(@'
p4873
tp4874
Rp4875
sg19
I0
sg20
g21
(S'\x07\xdd\t\x1d\x13\x0e#\x00\xb5\x87'
p4876
tp4877
Rp4878
sg25
I0
sg26
g27
(g28
(I0
tp4879
g30
tp4880
Rp4881
(I1
(I2
tp4882
g36
I00
S'm\x00\x00\x00m\x00\x00\x00'
p4883
tp4884
bsba(i__main__
FrameData
p4885
(dp4886
g6
g1378
sg8
g9
(g13
S"\xe0\x11<m\xceh'@"
p4887
tp4888
Rp4889
sg19
I0
sg20
g21
(S'\x07\xdd\t\x1d\x13\x0e#\x00\xf7\xbf'
p4890
tp4891
Rp4892
sg25
I0
sg26
g27
(g28
(I0
tp4893
g30
tp4894
Rp4895
(I1
(I2
tp4896
g36
I00
S'k\x00\x00\x00n\x00\x00\x00'
p4897
tp4898
bsba(i__main__
FrameData
p4899
(dp4900
g6
g1378
sg8
g9
(g13
S'~\xc4#,B\xf9"@'
p4901
tp4902
Rp4903
sg19
I0
sg20
g21
(S'\x07\xdd\t\x1d\x13\x0e#\x01R\xe0'
p4904
tp4905
Rp4906
sg25
I0
sg26
g27
(g28
(I0
tp4907
g30
tp4908
Rp4909
(I1
(I2
tp4910
g36
I00
S'i\x00\x00\x00o\x00\x00\x00'
p4911
tp4912
bsba(i__main__
FrameData
p4913
(dp4914
g6
g1378
sg8
g9
(g13
S'p\xc4\x9d9\x8dv\x1e@'
p4915
tp4916
Rp4917
sg19
I0
sg20
g21
(S'\x07\xdd\t\x1d\x13\x0e#\x01{\r'
p4918
tp4919
Rp4920
sg25
I0
sg26
g27
(g28
(I0
tp4921
g30
tp4922
Rp4923
(I1
(I2
tp4924
g36
I00
S'g\x00\x00\x00o\x00\x00\x00'
p4925
tp4926
bsba(i__main__
FrameData
p4927
(dp4928
g6
g1378
sg8
g9
(g13
S'S[\xda:XL\x19@'
p4929
tp4930
Rp4931
sg19
I0
sg20
g21
(S'\x07\xdd\t\x1d\x13\x0e#\x01\xb9\xf4'
p4932
tp4933
Rp4934
sg25
I0
sg26
g27
(g28
(I0
tp4935
g30
tp4936
Rp4937
(I1
(I2
tp4938
g36
I00
S'f\x00\x00\x00p\x00\x00\x00'
p4939
tp4940
bsba(i__main__
FrameData
p4941
(dp4942
g6
g1378
sg8
g9
(g13
S'\xa8\xf4\x97\x9bw\xe3\x11@'
p4943
tp4944
Rp4945
sg19
I0
sg20
g21
(S'\x07\xdd\t\x1d\x13\x0e#\x02\x000'
p4946
tp4947
Rp4948
sg25
I0
sg26
g27
(g28
(I0
tp4949
g30
tp4950
Rp4951
(I1
(I2
tp4952
g36
I00
S'd\x00\x00\x00p\x00\x00\x00'
p4953
tp4954
bsba(i__main__
FrameData
p4955
(dp4956
g6
g1378
sg8
g9
(g13
S'\xf3YaD+\xd8\x0c@'
p4957
tp4958
Rp4959
sg19
I0
sg20
g21
(S'\x07\xdd\t\x1d\x13\x0e#\x02Oo'
p4960
tp4961
Rp4962
sg25
I0
sg26
g27
(g28
(I0
tp4963
g30
tp4964
Rp4965
(I1
(I2
tp4966
g36
I00
S'c\x00\x00\x00p\x00\x00\x00'
p4967
tp4968
bsba(i__main__
FrameData
p4969
(dp4970
g6
g1378
sg8
g9
(g13
S'\x00\x00\x00\x00\x00\x00\xf0?'
p4971
tp4972
Rp4973
sg19
I0
sg20
g21
(S'\x07\xdd\t\x1d\x13\x0e#\x02\x98\x18'
p4974
tp4975
Rp4976
sg25
I0
sg26
g27
(g28
(I0
tp4977
g30
tp4978
Rp4979
(I1
(I2
tp4980
g36
I00
S'`\x00\x00\x00q\x00\x00\x00'
p4981
tp4982
bsba(i__main__
FrameData
p4983
(dp4984
g6
g1378
sg8
g9
(g13
S'\xcd;\x7ff\x9e\xa0\xf6?'
p4985
tp4986
Rp4987
sg19
I0
sg20
g21
(S'\x07\xdd\t\x1d\x13\x0e#\x02\xc4\xb8'
p4988
tp4989
Rp4990
sg25
I0
sg26
g27
(g28
(I0
tp4991
g30
tp4992
Rp4993
(I1
(I2
tp4994
g36
I00
S'_\x00\x00\x00q\x00\x00\x00'
p4995
tp4996
bsba(i__main__
FrameData
p4997
(dp4998
g6
g1378
sg8
g9
(g13
S'\x00\x00\x00\x00\x00\x00\x00@'
p4999
tp5000
Rp5001
sg19
I0
sg20
g21
(S'\x07\xdd\t\x1d\x13\x0e#\x03\x03\xe2'
p5002
tp5003
Rp5004
sg25
I0
sg26
g27
(g28
(I0
tp5005
g30
tp5006
Rp5007
(I1
(I2
tp5008
g36
I00
S'^\x00\x00\x00r\x00\x00\x00'
p5009
tp5010
bsba(i__main__
FrameData
p5011
(dp5012
g6
g1378
sg8
g9
(g13
S'\x00\x00\x00\x00\x00\x00\x10@'
p5013
tp5014
Rp5015
sg19
I0
sg20
g21
(S'\x07\xdd\t\x1d\x13\x0e#\x03\x86\xcf'
p5016
tp5017
Rp5018
sg25
I0
sg26
g27
(g28
(I0
tp5019
g30
tp5020
Rp5021
(I1
(I2
tp5022
g36
I00
S'\\\x00\x00\x00r\x00\x00\x00'
p5023
tp5024
bsba(i__main__
FrameData
p5025
(dp5026
g6
g1378
sg8
g9
(g13
S'\x00\x00\x00\x00\x00\x00\x08@'
p5027
tp5028
Rp5029
sg19
I0
sg20
g21
(S'\x07\xdd\t\x1d\x13\x0e#\x05T\xdc'
p5030
tp5031
Rp5032
sg25
I0
sg26
g27
(g28
(I0
tp5033
g30
tp5034
Rp5035
(I1
(I2
tp5036
g36
I00
S']\x00\x00\x00r\x00\x00\x00'
p5037
tp5038
bsba(i__main__
FrameData
p5039
(dp5040
g6
g1378
sg8
g9
(g13
S'\x00\x00\x00\x00\x00\x00\x00@'
p5041
tp5042
Rp5043
sg19
I0
sg20
g21
(S'\x07\xdd\t\x1d\x13\x0e#\x05\xd9\xcd'
p5044
tp5045
Rp5046
sg25
I0
sg26
g27
(g28
(I0
tp5047
g30
tp5048
Rp5049
(I1
(I2
tp5050
g36
I00
S'^\x00\x00\x00r\x00\x00\x00'
p5051
tp5052
bsba(i__main__
FrameData
p5053
(dp5054
g6
g1378
sg8
g9
(g13
S'\x00\x00\x00\x00\x00\x00\xf0?'
p5055
tp5056
Rp5057
sg19
I0
sg20
g21
(S'\x07\xdd\t\x1d\x13\x0e#\x06\xb4|'
p5058
tp5059
Rp5060
sg25
I0
sg26
g27
(g28
(I0
tp5061
g30
tp5062
Rp5063
(I1
(I2
tp5064
g36
I00
S'_\x00\x00\x00r\x00\x00\x00'
p5065
tp5066
bsba(i__main__
FrameData
p5067
(dp5068
g6
g1378
sg8
g9
(g13
S'\xcd;\x7ff\x9e\xa0\xf6?'
p5069
tp5070
Rp5071
sg19
I0
sg20
g21
(S'\x07\xdd\t\x1d\x13\x0e#\x08\xa4J'
p5072
tp5073
Rp5074
sg25
I0
sg26
g27
(g28
(I0
tp5075
g30
tp5076
Rp5077
(I1
(I2
tp5078
g36
I00
S'_\x00\x00\x00q\x00\x00\x00'
p5079
tp5080
bsba(i__main__
FrameData
p5081
(dp5082
g6
g1378
sg8
g9
(g13
S'\xa8\xf4\x97\x9bw\xe3\x01@'
p5083
tp5084
Rp5085
sg19
I0
sg20
g21
(S'\x07\xdd\t\x1d\x13\x0e#\t F'
p5086
tp5087
Rp5088
sg25
I0
sg26
g27
(g28
(I0
tp5089
g30
tp5090
Rp5091
(I1
(I2
tp5092
g36
I00
S'_\x00\x00\x00p\x00\x00\x00'
p5093
tp5094
bsba(i__main__
FrameData
p5095
(dp5096
g6
g1378
sg8
g9
(g13
S'\x07\xed\xaff\x0f~\x10@'
p5097
tp5098
Rp5099
sg19
I0
sg20
g21
(S'\x07\xdd\t\x1d\x13\x0e#\td\xbb'
p5100
tp5101
Rp5102
sg25
I0
sg26
g27
(g28
(I0
tp5103
g30
tp5104
Rp5105
(I1
(I2
tp5106
g36
I00
S'_\x00\x00\x00n\x00\x00\x00'
p5107
tp5108
bsba(i__main__
FrameData
p5109
(dp5110
g6
g1378
sg8
g9
(g13
S'9\xdcc\xb3\xbfT\x18@'
p5111
tp5112
Rp5113
sg19
I0
sg20
g21
(S'\x07\xdd\t\x1d\x13\x0e#\t\xa5\xb5'
p5114
tp5115
Rp5116
sg25
I0
sg26
g27
(g28
(I0
tp5117
g30
tp5118
Rp5119
(I1
(I2
tp5120
g36
I00
S'_\x00\x00\x00l\x00\x00\x00'
p5121
tp5122
bsba(i__main__
FrameData
p5123
(dp5124
g6
g1378
sg8
g9
(g13
S'\xc0\n\x1f\x00\xc6H\x1c@'
p5125
tp5126
Rp5127
sg19
I0
sg20
g21
(S'\x07\xdd\t\x1d\x13\x0e#\t\xe2\x86'
p5128
tp5129
Rp5130
sg25
I0
sg26
g27
(g28
(I0
tp5131
g30
tp5132
Rp5133
(I1
(I2
tp5134
g36
I00
S'_\x00\x00\x00k\x00\x00\x00'
p5135
tp5136
bsba(i__main__
FrameData
p5137
(dp5138
g6
g1378
sg8
g9
(g13
S'$\xf8\xd9p[\x1c"@'
p5139
tp5140
Rp5141
sg19
I0
sg20
g21
(S"\x07\xdd\t\x1d\x13\x0e#\n'W"
p5142
tp5143
Rp5144
sg25
I0
sg26
g27
(g28
(I0
tp5145
g30
tp5146
Rp5147
(I1
(I2
tp5148
g36
I00
S'_\x00\x00\x00i\x00\x00\x00'
p5149
tp5150
bsba(i__main__
FrameData
p5151
(dp5152
g6
g1378
sg8
g9
(g13
S'\xf0)#L\x89\x19$@'
p5153
tp5154
Rp5155
sg19
I0
sg20
g21
(S'\x07\xdd\t\x1d\x13\x0e#\ncv'
p5156
tp5157
Rp5158
sg25
I0
sg26
g27
(g28
(I0
tp5159
g30
tp5160
Rp5161
(I1
(I2
tp5162
g36
I00
S'_\x00\x00\x00h\x00\x00\x00'
p5163
tp5164
bsba(i__main__
FrameData
p5165
(dp5166
g6
g1378
sg8
g9
(g13
S'H\xaa*\x8f9\x17&@'
p5167
tp5168
Rp5169
sg19
I0
sg20
g21
(S'\x07\xdd\t\x1d\x13\x0e#\n\xa4\x8f'
p5170
tp5171
Rp5172
sg25
I0
sg26
g27
(g28
(I0
tp5173
g30
tp5174
Rp5175
(I1
(I2
tp5176
g36
I00
S'_\x00\x00\x00g\x00\x00\x00'
p5177
tp5178
bsba(i__main__
FrameData
p5179
(dp5180
g6
g1378
sg8
g9
(g13
S'&5w\xe2K\x15(@'
p5181
tp5182
Rp5183
sg19
I0
sg20
g21
(S'\x07\xdd\t\x1d\x13\x0e#\n\xe9#'
p5184
tp5185
Rp5186
sg25
I0
sg26
g27
(g28
(I0
tp5187
g30
tp5188
Rp5189
(I1
(I2
tp5190
g36
I00
S'_\x00\x00\x00f\x00\x00\x00'
p5191
tp5192
bsba(i__main__
FrameData
p5193
(dp5194
g6
g1378
sg8
g9
(g13
S'\x00\x00\x00\x00\x00\x00,@'
p5195
tp5196
Rp5197
sg19
I0
sg20
g21
(S'\x07\xdd\t\x1d\x13\x0e#\x0b.\xc2'
p5198
tp5199
Rp5200
sg25
I0
sg26
g27
(g28
(I0
tp5201
g30
tp5202
Rp5203
(I1
(I2
tp5204
g36
I00
S'`\x00\x00\x00d\x00\x00\x00'
p5205
tp5206
bsba(i__main__
FrameData
p5207
(dp5208
g6
g1378
sg8
g9
(g13
S'\x00\x00\x00\x00\x00\x00.@'
p5209
tp5210
Rp5211
sg19
I0
sg20
g21
(S'\x07\xdd\t\x1d\x13\x0e#\x0bp;'
p5212
tp5213
Rp5214
sg25
I0
sg26
g27
(g28
(I0
tp5215
g30
tp5216
Rp5217
(I1
(I2
tp5218
g36
I00
S'`\x00\x00\x00c\x00\x00\x00'
p5219
tp5220
bsba(i__main__
FrameData
p5221
(dp5222
g6
g1378
sg8
g9
(g13
S'\x00\x00\x00\x00\x00\x000@'
p5223
tp5224
Rp5225
sg19
I0
sg20
g21
(S'\x07\xdd\t\x1d\x13\x0e#\x0b\xab`'
p5226
tp5227
Rp5228
sg25
I0
sg26
g27
(g28
(I0
tp5229
g30
tp5230
Rp5231
(I1
(I2
tp5232
g36
I00
S'`\x00\x00\x00b\x00\x00\x00'
p5233
tp5234
bsba(i__main__
FrameData
p5235
(dp5236
g6
g1378
sg8
g9
(g13
S'\x00\x00\x00\x00\x00\x001@'
p5237
tp5238
Rp5239
sg19
I0
sg20
g21
(S'\x07\xdd\t\x1d\x13\x0e#\x0b\xef\xeb'
p5240
tp5241
Rp5242
sg25
I0
sg26
g27
(g28
(I0
tp5243
g30
tp5244
Rp5245
(I1
(I2
tp5246
g36
I00
S'`\x00\x00\x00a\x00\x00\x00'
p5247
tp5248
bsba(i__main__
FrameData
p5249
(dp5250
g6
g1378
sg8
g9
(g13
S'\x00\x00\x00\x00\x00\x002@'
p5251
tp5252
Rp5253
sg19
I0
sg20
g21
(S'\x07\xdd\t\x1d\x13\x0e#\x0cm\xc0'
p5254
tp5255
Rp5256
sg25
I0
sg26
g27
(g28
(I0
tp5257
g30
tp5258
Rp5259
(I1
(I2
tp5260
g36
I00
S'`\x00\x00\x00`\x00\x00\x00'
p5261
tp5262
bsba(i__main__
FrameData
p5263
(dp5264
g6
g1378
sg8
g9
(g13
S'8\xd8\xbc\n\x1b\x072@'
p5265
tp5266
Rp5267
sg19
I0
sg20
g21
(S'\x07\xdd\t\x1d\x13\x0e#\x0c\xb2$'
p5268
tp5269
Rp5270
sg25
I0
sg26
g27
(g28
(I0
tp5271
g30
tp5272
Rp5273
(I1
(I2
tp5274
g36
I00
S'a\x00\x00\x00`\x00\x00\x00'
p5275
tp5276
bsba(i__main__
FrameData
p5277
(dp5278
g6
g1378
sg8
g9
(g13
S'\xc3\xe7Zp\xbb\x063@'
p5279
tp5280
Rp5281
sg19
I0
sg20
g21
(S'\x07\xdd\t\x1d\x13\x0e#\x0c\xf2}'
p5282
tp5283
Rp5284
sg25
I0
sg26
g27
(g28
(I0
tp5285
g30
tp5286
Rp5287
(I1
(I2
tp5288
g36
I00
S'a\x00\x00\x00_\x00\x00\x00'
p5289
tp5290
bsba(i__main__
FrameData
p5291
(dp5292
g6
g1378
sg8
g9
(g13
S'\xf0)#L\x89\x194@'
p5293
tp5294
Rp5295
sg19
I0
sg20
g21
(S'\x07\xdd\t\x1d\x13\x0e#\r3\x06'
p5296
tp5297
Rp5298
sg25
I0
sg26
g27
(g28
(I0
tp5299
g30
tp5300
Rp5301
(I1
(I2
tp5302
g36
I00
S'b\x00\x00\x00^\x00\x00\x00'
p5303
tp5304
bsba(i__main__
FrameData
p5305
(dp5306
g6
g1926
sg8
g9
(g13
S'bVc}\x9d\xb23@'
p5307
tp5308
Rp5309
sg19
I0
sg20
g21
(S'\x07\xdd\t\x1d\x13\x0e#\rr\xd0'
p5310
tp5311
Rp5312
sg25
I0
sg26
g27
(g28
(I0
tp5313
g30
tp5314
Rp5315
(I1
(I2
tp5316
g36
I00
S'b\x00\x00\x00]\x00\x00\x00'
p5317
tp5318
bsba(i__main__
FrameData
p5319
(dp5320
g6
g1926
sg8
g9
(g13
S'5 \x89\xa6\xcd\xc92@'
p5321
tp5322
Rp5323
sg19
I0
sg20
g21
(S'\x07\xdd\t\x1d\x13\x0e#\r\xb8\xbd'
p5324
tp5325
Rp5326
sg25
I0
sg26
g27
(g28
(I0
tp5327
g30
tp5328
Rp5329
(I1
(I2
tp5330
g36
I00
S'b\x00\x00\x00\\\x00\x00\x00'
p5331
tp5332
bsba(i__main__
FrameData
p5333
(dp5334
g6
g1926
sg8
g9
(g13
S"v\xa3~{\xce'0@"
p5335
tp5336
Rp5337
sg19
I0
sg20
g21
(S'\x07\xdd\t\x1d\x13\x0e#\r\xfdU'
p5338
tp5339
Rp5340
sg25
I0
sg26
g27
(g28
(I0
tp5341
g30
tp5342
Rp5343
(I1
(I2
tp5344
g36
I00
S'd\x00\x00\x00Z\x00\x00\x00'
p5345
tp5346
bsba(i__main__
FrameData
p5347
(dp5348
g6
g1926
sg8
g9
(g13
S'p\xc4\x9d9\x8dv.@'
p5349
tp5350
Rp5351
sg19
I0
sg20
g21
(S'\x07\xdd\t\x1d\x13\x0e#\x0e6z'
p5352
tp5353
Rp5354
sg25
I0
sg26
g27
(g28
(I0
tp5355
g30
tp5356
Rp5357
(I1
(I2
tp5358
g36
I00
S'd\x00\x00\x00Y\x00\x00\x00'
p5359
tp5360
bsba(i__main__
FrameData
p5361
(dp5362
g6
g1926
sg8
g9
(g13
S'\xf7\x80Aq\xb9\xa2,@'
p5363
tp5364
Rp5365
sg19
I0
sg20
g21
(S'\x07\xdd\t\x1d\x13\x0e#\x0ewB'
p5366
tp5367
Rp5368
sg25
I0
sg26
g27
(g28
(I0
tp5369
g30
tp5370
Rp5371
(I1
(I2
tp5372
g36
I00
S'd\x00\x00\x00X\x00\x00\x00'
p5373
tp5374
bsba(i__main__
FrameData
p5375
(dp5376
g6
g1926
sg8
g9
(g13
S'\x00\x00\x00\x00\x00\x00*@'
p5377
tp5378
Rp5379
sg19
I0
sg20
g21
(S'\x07\xdd\t\x1d\x13\x0e#\x0e\xbb\xf9'
p5380
tp5381
Rp5382
sg25
I0
sg26
g27
(g28
(I0
tp5383
g30
tp5384
Rp5385
(I1
(I2
tp5386
g36
I00
S'e\x00\x00\x00W\x00\x00\x00'
p5387
tp5388
bsba(i__main__
FrameData
p5389
(dp5390
g6
g1926
sg8
g9
(g13
S'\xd2\xf1}\x82U\\&@'
p5391
tp5392
Rp5393
sg19
I0
sg20
g21
(S'\x07\xdd\t\x1d\x13\x0e#\x0e\xfc\x8b'
p5394
tp5395
Rp5396
sg25
I0
sg26
g27
(g28
(I0
tp5397
g30
tp5398
Rp5399
(I1
(I2
tp5400
g36
I00
S'e\x00\x00\x00U\x00\x00\x00'
p5401
tp5402
bsba(i__main__
FrameData
p5403
(dp5404
g6
g1926
sg8
g9
(g13
S'bVc}\x9d\xb2#@'
p5405
tp5406
Rp5407
sg19
I0
sg20
g21
(S'\x07\xdd\t\x1d\x13\x0e#\x0f><'
p5408
tp5409
Rp5410
sg25
I0
sg26
g27
(g28
(I0
tp5411
g30
tp5412
Rp5413
(I1
(I2
tp5414
g36
I00
S'f\x00\x00\x00T\x00\x00\x00'
p5415
tp5416
bsba(i__main__
FrameData
p5417
(dp5418
g6
g1926
sg8
g9
(g13
S'~\xc4#,B\xf9"@'
p5419
tp5420
Rp5421
sg19
I0
sg20
g21
(S'\x07\xdd\t\x1d\x13\x0e$\x00<\xec'
p5422
tp5423
Rp5424
sg25
I0
sg26
g27
(g28
(I0
tp5425
g30
tp5426
Rp5427
(I1
(I2
tp5428
g36
I00
S'g\x00\x00\x00T\x00\x00\x00'
p5429
tp5430
bsba(i__main__
FrameData
p5431
(dp5432
g6
g1926
sg8
g9
(g13
S'p\xc4\x9d9\x8dv\x1e@'
p5433
tp5434
Rp5435
sg19
I0
sg20
g21
(S'\x07\xdd\t\x1d\x13\x0e$\x00\xbc\xfd'
p5436
tp5437
Rp5438
sg25
I0
sg26
g27
(g28
(I0
tp5439
g30
tp5440
Rp5441
(I1
(I2
tp5442
g36
I00
S'g\x00\x00\x00R\x00\x00\x00'
p5443
tp5444
bsba(i__main__
FrameData
p5445
(dp5446
g6
g1926
sg8
g9
(g13
S'S[\xda:XL\x19@'
p5447
tp5448
Rp5449
sg19
I0
sg20
g21
(S'\x07\xdd\t\x1d\x13\x0e$\x00\xfe\t'
p5450
tp5451
Rp5452
sg25
I0
sg26
g27
(g28
(I0
tp5453
g30
tp5454
Rp5455
(I1
(I2
tp5456
g36
I00
S'h\x00\x00\x00Q\x00\x00\x00'
p5457
tp5458
bsba(i__main__
FrameData
p5459
(dp5460
g6
g1926
sg8
g9
(g13
S'\xf3\xd9\xa8\xa4h\x8a\x15@'
p5461
tp5462
Rp5463
sg19
I0
sg20
g21
(S'\x07\xdd\t\x1d\x13\x0e$\x01CQ'
p5464
tp5465
Rp5466
sg25
I0
sg26
g27
(g28
(I0
tp5467
g30
tp5468
Rp5469
(I1
(I2
tp5470
g36
I00
S'h\x00\x00\x00P\x00\x00\x00'
p5471
tp5472
bsba(i__main__
FrameData
p5473
(dp5474
g6
g1926
sg8
g9
(g13
S'\xf6/\x12_ee\x14@'
p5475
tp5476
Rp5477
sg19
I0
sg20
g21
(S'\x07\xdd\t\x1d\x13\x0e$\x01\x8ag'
p5478
tp5479
Rp5480
sg25
I0
sg26
g27
(g28
(I0
tp5481
g30
tp5482
Rp5483
(I1
(I2
tp5484
g36
I00
S'i\x00\x00\x00P\x00\x00\x00'
p5485
tp5486
bsba(i__main__
FrameData
p5487
(dp5488
g6
g1926
sg8
g9
(g13
S'\x00\x00\x00\x00\x00\x00\x08@'
p5489
tp5490
Rp5491
sg19
I0
sg20
g21
(S'\x07\xdd\t\x1d\x13\x0e$\x02L\xc9'
p5492
tp5493
Rp5494
sg25
I0
sg26
g27
(g28
(I0
tp5495
g30
tp5496
Rp5497
(I1
(I2
tp5498
g36
I00
S'j\x00\x00\x00N\x00\x00\x00'
p5499
tp5500
bsba(i__main__
FrameData
p5501
(dp5502
g6
g1926
sg8
g9
(g13
S'\x00\x00\x00\x00\x00\x00\x00@'
p5503
tp5504
Rp5505
sg19
I0
sg20
g21
(S'\x07\xdd\t\x1d\x13\x0e$\x02\x85\xd9'
p5506
tp5507
Rp5508
sg25
I0
sg26
g27
(g28
(I0
tp5509
g30
tp5510
Rp5511
(I1
(I2
tp5512
g36
I00
S'j\x00\x00\x00M\x00\x00\x00'
p5513
tp5514
bsba(i__main__
FrameData
p5515
(dp5516
g6
g1926
sg8
g9
(g13
S'\x00\x00\x00\x00\x00\x00\x00\x00'
p5517
tp5518
Rp5519
sg19
I0
sg20
g21
(S'\x07\xdd\t\x1d\x13\x0e$\x02\xc6\xa1'
p5520
tp5521
Rp5522
sg25
I0
sg26
g27
(g28
(I0
tp5523
g30
tp5524
Rp5525
(I1
(I2
tp5526
g36
I00
S'j\x00\x00\x00K\x00\x00\x00'
p5527
tp5528
bsba(i__main__
FrameData
p5529
(dp5530
g6
g1926
sg8
g9
(g13
S'\x00\x00\x00\x00\x00\x00\xf0?'
p5531
tp5532
Rp5533
sg19
I0
sg20
g21
(S'\x07\xdd\t\x1d\x13\x0e$\x03\x0e\xda'
p5534
tp5535
Rp5536
sg25
I0
sg26
g27
(g28
(I0
tp5537
g30
tp5538
Rp5539
(I1
(I2
tp5540
g36
I00
S'j\x00\x00\x00J\x00\x00\x00'
p5541
tp5542
bsba(i__main__
FrameData
p5543
(dp5544
g6
g1926
sg8
g9
(g13
S'\xcd;\x7ff\x9e\xa0\xf6?'
p5545
tp5546
Rp5547
sg19
I0
sg20
g21
(S'\x07\xdd\t\x1d\x13\x0e$\x03HP'
p5548
tp5549
Rp5550
sg25
I0
sg26
g27
(g28
(I0
tp5551
g30
tp5552
Rp5553
(I1
(I2
tp5554
g36
I00
S'k\x00\x00\x00J\x00\x00\x00'
p5555
tp5556
bsba(i__main__
FrameData
p5557
(dp5558
g6
g1926
sg8
g9
(g13
S'\xa8\xf4\x97\x9bw\xe3\x01@'
p5559
tp5560
Rp5561
sg19
I0
sg20
g21
(S'\x07\xdd\t\x1d\x13\x0e$\x03\x8d\x91'
p5562
tp5563
Rp5564
sg25
I0
sg26
g27
(g28
(I0
tp5565
g30
tp5566
Rp5567
(I1
(I2
tp5568
g36
I00
S'k\x00\x00\x00I\x00\x00\x00'
p5569
tp5570
bsba(i__main__
FrameData
p5571
(dp5572
g6
g1926
sg8
g9
(g13
S'\xcd;\x7ff\x9e\xa0\xf6?'
p5573
tp5574
Rp5575
sg19
I0
sg20
g21
(S'\x07\xdd\t\x1d\x13\x0e$\x06\x17\x9b'
p5576
tp5577
Rp5578
sg25
I0
sg26
g27
(g28
(I0
tp5579
g30
tp5580
Rp5581
(I1
(I2
tp5582
g36
I00
S'k\x00\x00\x00J\x00\x00\x00'
p5583
tp5584
bsbasS'_fileName'
p5585
S'training/trajectory2013-09-29_19:14:23.052319'
p5586
sS'word'
p5587
S'microsoft'
p5588
sb.