(i__main__
SwypeTrajectory
p0
(dp1
S'_frameDataList'
p2
(lp3
(i__main__
FrameData
p4
(dp5
S'closestLetter'
p6
S'r'
p7
sS'letterDistance'
p8
cnumpy.core.multiarray
scalar
p9
(cnumpy
dtype
p10
(S'f8'
p11
I0
I1
tp12
Rp13
(I3
S'<'
p14
NNNI-1
I-1
I0
tp15
bS'\xf6/\x12_ee\x14@'
p16
tp17
Rp18
sS'accel'
p19
I0
sS'time'
p20
cdatetime
datetime
p21
(S'\x07\xdd\t\x1d\x13\x12\x1e\x0c\xea\x02'
p22
tp23
Rp24
sS'velocity'
p25
I0
sS'position'
p26
cnumpy.core.multiarray
_reconstruct
p27
(cnumpy
ndarray
p28
(I0
tp29
S'b'
p30
tp31
Rp32
(I1
(I2
tp33
g10
(S'i4'
p34
I0
I1
tp35
Rp36
(I3
S'<'
p37
NNNI-1
I-1
I0
tp38
bI00
S'S\x00\x00\x00F\x00\x00\x00'
p39
tp40
bsba(i__main__
FrameData
p41
(dp42
g6
g7
sg8
g9
(g13
S'\xf6/\x12_ee\x14@'
p43
tp44
Rp45
sg19
I0
sg20
g21
(S'\x07\xdd\t\x1d\x13\x12\x1e\r9\x1c'
p46
tp47
Rp48
sg25
I0
sg26
g27
(g28
(I0
tp49
g30
tp50
Rp51
(I1
(I2
tp52
g36
I00
S'W\x00\x00\x00J\x00\x00\x00'
p53
tp54
bsba(i__main__
FrameData
p55
(dp56
g6
g7
sg8
g9
(g13
S'~\xc4#,B\xf9"@'
p57
tp58
Rp59
sg19
I0
sg20
g21
(S'\x07\xdd\t\x1d\x13\x12\x1e\rm0'
p60
tp61
Rp62
sg25
I0
sg26
g27
(g28
(I0
tp63
g30
tp64
Rp65
(I1
(I2
tp66
g36
I00
S'[\x00\x00\x00N\x00\x00\x00'
p67
tp68
bsba(i__main__
FrameData
p69
(dp70
g6
g7
sg8
g9
(g13
S'\xb9e(k\xee\xc8+@'
p71
tp72
Rp73
sg19
I0
sg20
g21
(S'\x07\xdd\t\x1d\x13\x12\x1e\r\xb8\xdf'
p74
tp75
Rp76
sg25
I0
sg26
g27
(g28
(I0
tp77
g30
tp78
Rp79
(I1
(I2
tp80
g36
I00
S'^\x00\x00\x00R\x00\x00\x00'
p81
tp82
bsba(i__main__
FrameData
p83
(dp84
g6
S't'
p85
sg8
g9
(g13
S'\xef\rI\xf1\xf33+@'
p86
tp87
Rp88
sg19
I0
sg20
g21
(S'\x07\xdd\t\x1d\x13\x12\x1e\r\xf2I'
p89
tp90
Rp91
sg25
I0
sg26
g27
(g28
(I0
tp92
g30
tp93
Rp94
(I1
(I2
tp95
g36
I00
S'_\x00\x00\x00S\x00\x00\x00'
p96
tp97
bsba(i__main__
FrameData
p98
(dp99
g6
g85
sg8
g9
(g13
S'/\xa4\xe3\\m\xbb-@'
p100
tp101
Rp102
sg19
I0
sg20
g21
(S'\x07\xdd\t\x1d\x13\x12\x1e\x0e=*'
p103
tp104
Rp105
sg25
I0
sg26
g27
(g28
(I0
tp106
g30
tp107
Rp108
(I1
(I2
tp109
g36
I00
S'_\x00\x00\x00U\x00\x00\x00'
p110
tp111
bsba(i__main__
FrameData
p112
(dp113
g6
g85
sg8
g9
(g13
S'\xc0\n\x1f\x00\xc6H,@'
p114
tp115
Rp116
sg19
I0
sg20
g21
(S'\x07\xdd\t\x1d\x13\x12\x1e\x0eqx'
p117
tp118
Rp119
sg25
I0
sg26
g27
(g28
(I0
tp120
g30
tp121
Rp122
(I1
(I2
tp123
g36
I00
S'`\x00\x00\x00U\x00\x00\x00'
p124
tp125
bsba(i__main__
FrameData
p126
(dp127
g6
g85
sg8
g9
(g13
S'htN\x17\xb2=/@'
p128
tp129
Rp130
sg19
I0
sg20
g21
(S'\x07\xdd\t\x1d\x13\x12\x1e\x0e\xcbB'
p131
tp132
Rp133
sg25
I0
sg26
g27
(g28
(I0
tp134
g30
tp135
Rp136
(I1
(I2
tp137
g36
I00
S'`\x00\x00\x00W\x00\x00\x00'
p138
tp139
bsba(i__main__
FrameData
p140
(dp141
g6
g85
sg8
g9
(g13
S'\xf3YaD+\xd8,@'
p142
tp143
Rp144
sg19
I0
sg20
g21
(S'\x07\xdd\t\x1d\x13\x12\x1e\x0f\x00\x12'
p145
tp146
Rp147
sg25
I0
sg26
g27
(g28
(I0
tp148
g30
tp149
Rp150
(I1
(I2
tp151
g36
I00
S'b\x00\x00\x00W\x00\x00\x00'
p152
tp153
bsba(i__main__
FrameData
p154
(dp155
g6
g85
sg8
g9
(g13
S'\xb9e(k\xee\xc8+@'
p156
tp157
Rp158
sg19
I0
sg20
g21
(S'\x07\xdd\t\x1d\x13\x12\x1e\x0f9\xe4'
p159
tp160
Rp161
sg25
I0
sg26
g27
(g28
(I0
tp162
g30
tp163
Rp164
(I1
(I2
tp165
g36
I00
S'c\x00\x00\x00W\x00\x00\x00'
p166
tp167
bsba(i__main__
FrameData
p168
(dp169
g6
g85
sg8
g9
(g13
S'\xef\rI\xf1\xf33+@'
p170
tp171
Rp172
sg19
I0
sg20
g21
(S'\x07\xdd\t\x1d\x13\x12\x1f\x00E\xd9'
p173
tp174
Rp175
sg25
I0
sg26
g27
(g28
(I0
tp176
g30
tp177
Rp178
(I1
(I2
tp179
g36
I00
S'f\x00\x00\x00X\x00\x00\x00'
p180
tp181
bsba(i__main__
FrameData
p182
(dp183
g6
g85
sg8
g9
(g13
S')\x03\xec/C\x12,@'
p184
tp185
Rp186
sg19
I0
sg20
g21
(S'\x07\xdd\t\x1d\x13\x12\x1f\x00\x80O'
p187
tp188
Rp189
sg25
I0
sg26
g27
(g28
(I0
tp190
g30
tp191
Rp192
(I1
(I2
tp193
g36
I00
S'k\x00\x00\x00Y\x00\x00\x00'
p194
tp195
bsba(i__main__
FrameData
p196
(dp197
g6
g85
sg8
g9
(g13
S'\xd0\xbaa?\xe0\x1f0@'
p198
tp199
Rp200
sg19
I0
sg20
g21
(S'\x07\xdd\t\x1d\x13\x12\x1f\x00\xc2r'
p201
tp202
Rp203
sg25
I0
sg26
g27
(g28
(I0
tp204
g30
tp205
Rp206
(I1
(I2
tp207
g36
I00
S'r\x00\x00\x00Y\x00\x00\x00'
p208
tp209
bsba(i__main__
FrameData
p210
(dp211
g6
S'y'
p212
sg8
g9
(g13
S'\xc5Bl?W\x87.@'
p213
tp214
Rp215
sg19
I0
sg20
g21
(S'\x07\xdd\t\x1d\x13\x12\x1f\x00\xfa\xf5'
p216
tp217
Rp218
sg25
I0
sg26
g27
(g28
(I0
tp219
g30
tp220
Rp221
(I1
(I2
tp222
g36
I00
S'z\x00\x00\x00Z\x00\x00\x00'
p223
tp224
bsba(i__main__
FrameData
p225
(dp226
g6
g212
sg8
g9
(g13
S'\xde4\xda\xfeNN*@'
p227
tp228
Rp229
sg19
I0
sg20
g21
(S'\x07\xdd\t\x1d\x13\x12\x1f\x01?t'
p230
tp231
Rp232
sg25
I0
sg26
g27
(g28
(I0
tp233
g30
tp234
Rp235
(I1
(I2
tp236
g36
I00
S'\x80\x00\x00\x00Z\x00\x00\x00'
p237
tp238
bsba(i__main__
FrameData
p239
(dp240
g6
g212
sg8
g9
(g13
S'\xbc\xfdP\xb5U\xdb+@'
p241
tp242
Rp243
sg19
I0
sg20
g21
(S'\x07\xdd\t\x1d\x13\x12\x1f\x01|\xd2'
p244
tp245
Rp246
sg25
I0
sg26
g27
(g28
(I0
tp247
g30
tp248
Rp249
(I1
(I2
tp250
g36
I00
S'\x87\x00\x00\x00Z\x00\x00\x00'
p251
tp252
bsba(i__main__
FrameData
p253
(dp254
g6
g212
sg8
g9
(g13
S"'\xf2\x90In\x9f/@"
p255
tp256
Rp257
sg19
I0
sg20
g21
(S'\x07\xdd\t\x1d\x13\x12\x1f\x01\xd8\xf5'
p258
tp259
Rp260
sg25
I0
sg26
g27
(g28
(I0
tp261
g30
tp262
Rp263
(I1
(I2
tp264
g36
I00
S'\x8b\x00\x00\x00Z\x00\x00\x00'
p265
tp266
bsba(i__main__
FrameData
p267
(dp268
g6
g212
sg8
g9
(g13
S')\x9ah\xdd\x85\x071@'
p269
tp270
Rp271
sg19
I0
sg20
g21
(S'\x07\xdd\t\x1d\x13\x12\x1f\x01\xfe\xb4'
p272
tp273
Rp274
sg25
I0
sg26
g27
(g28
(I0
tp275
g30
tp276
Rp277
(I1
(I2
tp278
g36
I00
S'\x8d\x00\x00\x00Z\x00\x00\x00'
p279
tp280
bsba(i__main__
FrameData
p281
(dp282
g6
S'u'
p283
sg8
g9
(g13
S'\xbf\x8f+\t\x89[2@'
p284
tp285
Rp286
sg19
I0
sg20
g21
(S'\x07\xdd\t\x1d\x13\x12\x1f\x02M\xd1'
p287
tp288
Rp289
sg25
I0
sg26
g27
(g28
(I0
tp290
g30
tp291
Rp292
(I1
(I2
tp293
g36
I00
S'\x8f\x00\x00\x00Z\x00\x00\x00'
p294
tp295
bsba(i__main__
FrameData
p296
(dp297
g6
g283
sg8
g9
(g13
S'\xa8\xf4\x97\x9bw\xe31@'
p298
tp299
Rp300
sg19
I0
sg20
g21
(S'\x07\xdd\t\x1d\x13\x12\x1f\x02\x96\x02'
p301
tp302
Rp303
sg25
I0
sg26
g27
(g28
(I0
tp304
g30
tp305
Rp306
(I1
(I2
tp307
g36
I00
S'\x90\x00\x00\x00Z\x00\x00\x00'
p308
tp309
bsba(i__main__
FrameData
p310
(dp311
g6
g283
sg8
g9
(g13
S'\xa3\x14\xae\xa8\x87\x161@'
p312
tp313
Rp314
sg19
I0
sg20
g21
(S'\x07\xdd\t\x1d\x13\x12\x1f\x02\xc2\x04'
p315
tp316
Rp317
sg25
I0
sg26
g27
(g28
(I0
tp318
g30
tp319
Rp320
(I1
(I2
tp321
g36
I00
S'\x92\x00\x00\x00Z\x00\x00\x00'
p322
tp323
bsba(i__main__
FrameData
p324
(dp325
g6
g283
sg8
g9
(g13
S'\x07\xed\xaff\x0f~0@'
p326
tp327
Rp328
sg19
I0
sg20
g21
(S'\x07\xdd\t\x1d\x13\x12\x1f\x03\x11\xa9'
p329
tp330
Rp331
sg25
I0
sg26
g27
(g28
(I0
tp332
g30
tp333
Rp334
(I1
(I2
tp335
g36
I00
S'\x94\x00\x00\x00Z\x00\x00\x00'
p336
tp337
bsba(i__main__
FrameData
p338
(dp339
g6
g283
sg8
g9
(g13
S'[y\xf7F\xf7C.@'
p340
tp341
Rp342
sg19
I0
sg20
g21
(S'\x07\xdd\t\x1d\x13\x12\x1f\x03C\xd3'
p343
tp344
Rp345
sg25
I0
sg26
g27
(g28
(I0
tp346
g30
tp347
Rp348
(I1
(I2
tp349
g36
I00
S'\x96\x00\x00\x00Y\x00\x00\x00'
p350
tp351
bsba(i__main__
FrameData
p352
(dp353
g6
g283
sg8
g9
(g13
S')\x03\xec/C\x12,@'
p354
tp355
Rp356
sg19
I0
sg20
g21
(S'\x07\xdd\t\x1d\x13\x12\x1f\x03\x88\x8e'
p357
tp358
Rp359
sg25
I0
sg26
g27
(g28
(I0
tp360
g30
tp361
Rp362
(I1
(I2
tp363
g36
I00
S'\x99\x00\x00\x00X\x00\x00\x00'
p364
tp365
bsba(i__main__
FrameData
p366
(dp367
g6
g283
sg8
g9
(g13
S'8H\x9b\x97\xee\xae*@'
p368
tp369
Rp370
sg19
I0
sg20
g21
(S'\x07\xdd\t\x1d\x13\x12\x1f\x03\xde\xe4'
p371
tp372
Rp373
sg25
I0
sg26
g27
(g28
(I0
tp374
g30
tp375
Rp376
(I1
(I2
tp377
g36
I00
S'\x9b\x00\x00\x00W\x00\x00\x00'
p378
tp379
bsba(i__main__
FrameData
p380
(dp381
g6
g283
sg8
g9
(g13
S'\xfc\xeeci3\xd5*@'
p382
tp383
Rp384
sg19
I0
sg20
g21
(S'\x07\xdd\t\x1d\x13\x12\x1f\x04\x06 '
p385
tp386
Rp387
sg25
I0
sg26
g27
(g28
(I0
tp388
g30
tp389
Rp390
(I1
(I2
tp391
g36
I00
S'\x9e\x00\x00\x00V\x00\x00\x00'
p392
tp393
bsba(i__main__
FrameData
p394
(dp395
g6
g283
sg8
g9
(g13
S'\xef\rI\xf1\xf33+@'
p396
tp397
Rp398
sg19
I0
sg20
g21
(S'\x07\xdd\t\x1d\x13\x12\x1f\x04G\xf5'
p399
tp400
Rp401
sg25
I0
sg26
g27
(g28
(I0
tp402
g30
tp403
Rp404
(I1
(I2
tp405
g36
I00
S'\xa0\x00\x00\x00U\x00\x00\x00'
p406
tp407
bsba(i__main__
FrameData
p408
(dp409
g6
g283
sg8
g9
(g13
S'/\xa4\xe3\\m\xbb-@'
p410
tp411
Rp412
sg19
I0
sg20
g21
(S'\x07\xdd\t\x1d\x13\x12\x1f\x04\x8f\xa2'
p413
tp414
Rp415
sg25
I0
sg26
g27
(g28
(I0
tp416
g30
tp417
Rp418
(I1
(I2
tp419
g36
I00
S'\xa3\x00\x00\x00T\x00\x00\x00'
p420
tp421
bsba(i__main__
FrameData
p422
(dp423
g6
S'i'
p424
sg8
g9
(g13
S'\xef\rI\xf1\xf33+@'
p425
tp426
Rp427
sg19
I0
sg20
g21
(S'\x07\xdd\t\x1d\x13\x12\x1f\x04\xca\x8c'
p428
tp429
Rp430
sg25
I0
sg26
g27
(g28
(I0
tp431
g30
tp432
Rp433
(I1
(I2
tp434
g36
I00
S'\xa7\x00\x00\x00S\x00\x00\x00'
p435
tp436
bsba(i__main__
FrameData
p437
(dp438
g6
g424
sg8
g9
(g13
S'\xcd;\x7ff\x9e\xa0&@'
p439
tp440
Rp441
sg19
I0
sg20
g21
(S'\x07\xdd\t\x1d\x13\x12\x1f\x05\x15\t'
p442
tp443
Rp444
sg25
I0
sg26
g27
(g28
(I0
tp445
g30
tp446
Rp447
(I1
(I2
tp448
g36
I00
S'\xaa\x00\x00\x00S\x00\x00\x00'
p449
tp450
bsba(i__main__
FrameData
p451
(dp452
g6
g424
sg8
g9
(g13
S'\x9a.\x90!hp"@'
p453
tp454
Rp455
sg19
I0
sg20
g21
(S'\x07\xdd\t\x1d\x13\x12\x1f\x05S<'
p456
tp457
Rp458
sg25
I0
sg26
g27
(g28
(I0
tp459
g30
tp460
Rp461
(I1
(I2
tp462
g36
I00
S'\xac\x00\x00\x00R\x00\x00\x00'
p463
tp464
bsba(i__main__
FrameData
p465
(dp466
g6
g424
sg8
g9
(g13
S'\xd0\xbaa?\xe0\x1f @'
p467
tp468
Rp469
sg19
I0
sg20
g21
(S'\x07\xdd\t\x1d\x13\x12\x1f\x05\xb2\x04'
p470
tp471
Rp472
sg25
I0
sg26
g27
(g28
(I0
tp473
g30
tp474
Rp475
(I1
(I2
tp476
g36
I00
S'\xae\x00\x00\x00R\x00\x00\x00'
p477
tp478
bsba(i__main__
FrameData
p479
(dp480
g6
g424
sg8
g9
(g13
S'\xe9\xfbv \xd5\x1e\x1d@'
p481
tp482
Rp483
sg19
I0
sg20
g21
(S'\x07\xdd\t\x1d\x13\x12\x1f\x06(\x82'
p484
tp485
Rp486
sg25
I0
sg26
g27
(g28
(I0
tp487
g30
tp488
Rp489
(I1
(I2
tp490
g36
I00
S'\xb0\x00\x00\x00R\x00\x00\x00'
p491
tp492
bsba(i__main__
FrameData
p493
(dp494
g6
g424
sg8
g9
(g13
S'\xc0\n\x1f\x00\xc6H\x1c@'
p495
tp496
Rp497
sg19
I0
sg20
g21
(S'\x07\xdd\t\x1d\x13\x12\x1f\x06u\x90'
p498
tp499
Rp500
sg25
I0
sg26
g27
(g28
(I0
tp501
g30
tp502
Rp503
(I1
(I2
tp504
g36
I00
S'\xb1\x00\x00\x00R\x00\x00\x00'
p505
tp506
bsba(i__main__
FrameData
p507
(dp508
g6
g424
sg8
g9
(g13
S'\x00\x00\x00\x00\x00\x00\x18@'
p509
tp510
Rp511
sg19
I0
sg20
g21
(S'\x07\xdd\t\x1d\x13\x12\x1f\x06\x9c\xc4'
p512
tp513
Rp514
sg25
I0
sg26
g27
(g28
(I0
tp515
g30
tp516
Rp517
(I1
(I2
tp518
g36
I00
S'\xb2\x00\x00\x00Q\x00\x00\x00'
p519
tp520
bsba(i__main__
FrameData
p521
(dp522
g6
g424
sg8
g9
(g13
S'9\xdcc\xb3\xbfT\x18@'
p523
tp524
Rp525
sg19
I0
sg20
g21
(S'\x07\xdd\t\x1d\x13\x12\x1f\x06\xd4\x94'
p526
tp527
Rp528
sg25
I0
sg26
g27
(g28
(I0
tp529
g30
tp530
Rp531
(I1
(I2
tp532
g36
I00
S'\xb3\x00\x00\x00Q\x00\x00\x00'
p533
tp534
bsba(i__main__
FrameData
p535
(dp536
g6
g424
sg8
g9
(g13
S'\xf3\xd9\xa8\xa4h\x8a\x15@'
p537
tp538
Rp539
sg19
I0
sg20
g21
(S'\x07\xdd\t\x1d\x13\x12\x1f\x078\xe7'
p540
tp541
Rp542
sg25
I0
sg26
g27
(g28
(I0
tp543
g30
tp544
Rp545
(I1
(I2
tp546
g36
I00
S'\xb4\x00\x00\x00P\x00\x00\x00'
p547
tp548
bsba(i__main__
FrameData
p549
(dp550
g6
g424
sg8
g9
(g13
S'\xa2\xa3\xb3\r\xe5R\x17@'
p551
tp552
Rp553
sg19
I0
sg20
g21
(S'\x07\xdd\t\x1d\x13\x12\x1f\x07^\xcf'
p554
tp555
Rp556
sg25
I0
sg26
g27
(g28
(I0
tp557
g30
tp558
Rp559
(I1
(I2
tp560
g36
I00
S'\xb5\x00\x00\x00P\x00\x00\x00'
p561
tp562
bsba(i__main__
FrameData
p563
(dp564
g6
g424
sg8
g9
(g13
S'\x00\x00\x00\x00\x00\x00\x14@'
p565
tp566
Rp567
sg19
I0
sg20
g21
(S'\x07\xdd\t\x1d\x13\x12\x1f\x07\xa2\xbd'
p568
tp569
Rp570
sg25
I0
sg26
g27
(g28
(I0
tp571
g30
tp572
Rp573
(I1
(I2
tp574
g36
I00
S'\xb5\x00\x00\x00O\x00\x00\x00'
p575
tp576
bsba(i__main__
FrameData
p577
(dp578
g6
g424
sg8
g9
(g13
S'\x00\xff\x9f\x99\xcc\x9c\x19@'
p579
tp580
Rp581
sg19
I0
sg20
g21
(S'\x07\xdd\t\x1d\x13\x12\x1f\x07\xfc\x91'
p582
tp583
Rp584
sg25
I0
sg26
g27
(g28
(I0
tp585
g30
tp586
Rp587
(I1
(I2
tp588
g36
I00
S'\xb7\x00\x00\x00O\x00\x00\x00'
p589
tp590
bsba(i__main__
FrameData
p591
(dp592
g6
g424
sg8
g9
(g13
S'\xd0\xbaa?\xe0\x1f @'
p593
tp594
Rp595
sg19
I0
sg20
g21
(S'\x07\xdd\t\x1d\x13\x12\x1f\x08#g'
p596
tp597
Rp598
sg25
I0
sg26
g27
(g28
(I0
tp599
g30
tp600
Rp601
(I1
(I2
tp602
g36
I00
S'\xb9\x00\x00\x00O\x00\x00\x00'
p603
tp604
bsba(i__main__
FrameData
p605
(dp606
g6
g424
sg8
g9
(g13
S'bVc}\x9d\xb2#@'
p607
tp608
Rp609
sg19
I0
sg20
g21
(S'\x07\xdd\t\x1d\x13\x12\x1f\x08q,'
p610
tp611
Rp612
sg25
I0
sg26
g27
(g28
(I0
tp613
g30
tp614
Rp615
(I1
(I2
tp616
g36
I00
S'\xbb\x00\x00\x00O\x00\x00\x00'
p617
tp618
bsba(i__main__
FrameData
p619
(dp620
g6
g424
sg8
g9
(g13
S'\xeb\x12\xb2\xbb\xb2\xcd&@'
p621
tp622
Rp623
sg19
I0
sg20
g21
(S'\x07\xdd\t\x1d\x13\x12\x1f\x08\xbf\xb2'
p624
tp625
Rp626
sg25
I0
sg26
g27
(g28
(I0
tp627
g30
tp628
Rp629
(I1
(I2
tp630
g36
I00
S'\xbd\x00\x00\x00N\x00\x00\x00'
p631
tp632
bsba(i__main__
FrameData
p633
(dp634
g6
S'o'
p635
sg8
g9
(g13
S'\xeb\x12\xb2\xbb\xb2\xcd&@'
p636
tp637
Rp638
sg19
I0
sg20
g21
(S'\x07\xdd\t\x1d\x13\x12\x1f\x08\xe0;'
p639
tp640
Rp641
sg25
I0
sg26
g27
(g28
(I0
tp642
g30
tp643
Rp644
(I1
(I2
tp645
g36
I00
S'\xbf\x00\x00\x00N\x00\x00\x00'
p646
tp647
bsba(i__main__
FrameData
p648
(dp649
g6
g635
sg8
g9
(g13
S'7\xf9\xcf\xdao\xe1$@'
p650
tp651
Rp652
sg19
I0
sg20
g21
(S'\x07\xdd\t\x1d\x13\x12\x1f\t4\xd4'
p653
tp654
Rp655
sg25
I0
sg26
g27
(g28
(I0
tp656
g30
tp657
Rp658
(I1
(I2
tp659
g36
I00
S'\xc0\x00\x00\x00N\x00\x00\x00'
p660
tp661
bsba(i__main__
FrameData
p662
(dp663
g6
g635
sg8
g9
(g13
S'\x9a.\x90!hp"@'
p664
tp665
Rp666
sg19
I0
sg20
g21
(S'\x07\xdd\t\x1d\x13\x12\x1f\t\x82\xf3'
p667
tp668
Rp669
sg25
I0
sg26
g27
(g28
(I0
tp670
g30
tp671
Rp672
(I1
(I2
tp673
g36
I00
S'\xc1\x00\x00\x00M\x00\x00\x00'
p674
tp675
bsba(i__main__
FrameData
p676
(dp677
g6
g635
sg8
g9
(g13
S'\x07\xed\xaff\x0f~ @'
p678
tp679
Rp680
sg19
I0
sg20
g21
(S'\x07\xdd\t\x1d\x13\x12\x1f\t\xa8\xd9'
p681
tp682
Rp683
sg25
I0
sg26
g27
(g28
(I0
tp684
g30
tp685
Rp686
(I1
(I2
tp687
g36
I00
S'\xc2\x00\x00\x00M\x00\x00\x00'
p688
tp689
bsba(i__main__
FrameData
p690
(dp691
g6
g635
sg8
g9
(g13
S'\xe9\xfbv \xd5\x1e\x1d@'
p692
tp693
Rp694
sg19
I0
sg20
g21
(S'\x07\xdd\t\x1d\x13\x12\x1f\t\xf7\xd0'
p695
tp696
Rp697
sg25
I0
sg26
g27
(g28
(I0
tp698
g30
tp699
Rp700
(I1
(I2
tp701
g36
I00
S'\xc3\x00\x00\x00M\x00\x00\x00'
p702
tp703
bsba(i__main__
FrameData
p704
(dp705
g6
g635
sg8
g9
(g13
S'\xc0\n\x1f\x00\xc6H\x1c@'
p706
tp707
Rp708
sg19
I0
sg20
g21
(S'\x07\xdd\t\x1d\x13\x12\x1f\nF\x9c'
p709
tp710
Rp711
sg25
I0
sg26
g27
(g28
(I0
tp712
g30
tp713
Rp714
(I1
(I2
tp715
g36
I00
S'\xc3\x00\x00\x00L\x00\x00\x00'
p716
tp717
bsba(i__main__
FrameData
p718
(dp719
g6
g635
sg8
g9
(g13
S'\xf6/\x12_ee\x14@'
p720
tp721
Rp722
sg19
I0
sg20
g21
(S'\x07\xdd\t\x1d\x13\x12\x1f\nl-'
p723
tp724
Rp725
sg25
I0
sg26
g27
(g28
(I0
tp726
g30
tp727
Rp728
(I1
(I2
tp729
g36
I00
S'\xc5\x00\x00\x00L\x00\x00\x00'
p730
tp731
bsba(i__main__
FrameData
p732
(dp733
g6
g635
sg8
g9
(g13
S'\x00\x00\x00\x00\x00\x00\x08@'
p734
tp735
Rp736
sg19
I0
sg20
g21
(S'\x07\xdd\t\x1d\x13\x12\x1f\x0b\t\x80'
p737
tp738
Rp739
sg25
I0
sg26
g27
(g28
(I0
tp740
g30
tp741
Rp742
(I1
(I2
tp743
g36
I00
S'\xc7\x00\x00\x00K\x00\x00\x00'
p744
tp745
bsba(i__main__
FrameData
p746
(dp747
g6
g635
sg8
g9
(g13
S'\xa8\xf4\x97\x9bw\xe3\x01@'
p748
tp749
Rp750
sg19
I0
sg20
g21
(S'\x07\xdd\t\x1d\x13\x12\x1f\x0b+\x06'
p751
tp752
Rp753
sg25
I0
sg26
g27
(g28
(I0
tp754
g30
tp755
Rp756
(I1
(I2
tp757
g36
I00
S'\xc8\x00\x00\x00J\x00\x00\x00'
p758
tp759
bsba(i__main__
FrameData
p760
(dp761
g6
g635
sg8
g9
(g13
S'\xcd;\x7ff\x9e\xa0\xf6?'
p762
tp763
Rp764
sg19
I0
sg20
g21
(S'\x07\xdd\t\x1d\x13\x12\x1f\x0b~\xac'
p765
tp766
Rp767
sg25
I0
sg26
g27
(g28
(I0
tp768
g30
tp769
Rp770
(I1
(I2
tp771
g36
I00
S'\xc9\x00\x00\x00J\x00\x00\x00'
p772
tp773
bsba(i__main__
FrameData
p774
(dp775
g6
g635
sg8
g9
(g13
S'\x00\x00\x00\x00\x00\x00\xf0?'
p776
tp777
Rp778
sg19
I0
sg20
g21
(S'\x07\xdd\t\x1d\x13\x12\x1f\x0b\xcb\xa6'
p779
tp780
Rp781
sg25
I0
sg26
g27
(g28
(I0
tp782
g30
tp783
Rp784
(I1
(I2
tp785
g36
I00
S'\xca\x00\x00\x00J\x00\x00\x00'
p786
tp787
bsba(i__main__
FrameData
p788
(dp789
g6
g635
sg8
g9
(g13
S'\xcd;\x7ff\x9e\xa0\xf6?'
p790
tp791
Rp792
sg19
I0
sg20
g21
(S'\x07\xdd\t\x1d\x13\x12\x1f\x0b\xf3\xe3'
p793
tp794
Rp795
sg25
I0
sg26
g27
(g28
(I0
tp796
g30
tp797
Rp798
(I1
(I2
tp799
g36
I00
S'\xcb\x00\x00\x00J\x00\x00\x00'
p800
tp801
bsba(i__main__
FrameData
p802
(dp803
g6
g635
sg8
g9
(g13
S'\xa8\xf4\x97\x9bw\xe3\x01@'
p804
tp805
Rp806
sg19
I0
sg20
g21
(S'\x07\xdd\t\x1d\x13\x12\x1f\x0cA\xe9'
p807
tp808
Rp809
sg25
I0
sg26
g27
(g28
(I0
tp810
g30
tp811
Rp812
(I1
(I2
tp813
g36
I00
S'\xcc\x00\x00\x00J\x00\x00\x00'
p814
tp815
bsba(i__main__
FrameData
p816
(dp817
g6
g635
sg8
g9
(g13
S'\xf3YaD+\xd8\x0c@'
p818
tp819
Rp820
sg19
I0
sg20
g21
(S'\x07\xdd\t\x1d\x13\x12\x1f\x0c\xb7$'
p821
tp822
Rp823
sg25
I0
sg26
g27
(g28
(I0
tp824
g30
tp825
Rp826
(I1
(I2
tp827
g36
I00
S'\xcd\x00\x00\x00I\x00\x00\x00'
p828
tp829
bsba(i__main__
FrameData
p830
(dp831
g6
g635
sg8
g9
(g13
S'\xa8\xf4\x97\x9bw\xe3\x11@'
p832
tp833
Rp834
sg19
I0
sg20
g21
(S'\x07\xdd\t\x1d\x13\x12\x1f\x0c\xff\xf0'
p835
tp836
Rp837
sg25
I0
sg26
g27
(g28
(I0
tp838
g30
tp839
Rp840
(I1
(I2
tp841
g36
I00
S'\xce\x00\x00\x00I\x00\x00\x00'
p842
tp843
bsba(i__main__
FrameData
p844
(dp845
g6
g635
sg8
g9
(g13
S'\xf3\xd9\xa8\xa4h\x8a\x15@'
p846
tp847
Rp848
sg19
I0
sg20
g21
(S'\x07\xdd\t\x1d\x13\x12\x1f\rzk'
p849
tp850
Rp851
sg25
I0
sg26
g27
(g28
(I0
tp852
g30
tp853
Rp854
(I1
(I2
tp855
g36
I00
S'\xcf\x00\x00\x00I\x00\x00\x00'
p856
tp857
bsba(i__main__
FrameData
p858
(dp859
g6
g635
sg8
g9
(g13
S'\xa8\xf4\x97\x9bw\xe3\x11@'
p860
tp861
Rp862
sg19
I0
sg20
g21
(S'\x07\xdd\t\x1d\x13\x12 \x01\r\xba'
p863
tp864
Rp865
sg25
I0
sg26
g27
(g28
(I0
tp866
g30
tp867
Rp868
(I1
(I2
tp869
g36
I00
S'\xce\x00\x00\x00I\x00\x00\x00'
p870
tp871
bsba(i__main__
FrameData
p872
(dp873
g6
g635
sg8
g9
(g13
S'\xa8\xf4\x97\x9bw\xe3\x01@'
p874
tp875
Rp876
sg19
I0
sg20
g21
(S'\x07\xdd\t\x1d\x13\x12 \x01\x93\x87'
p877
tp878
Rp879
sg25
I0
sg26
g27
(g28
(I0
tp880
g30
tp881
Rp882
(I1
(I2
tp883
g36
I00
S'\xcc\x00\x00\x00J\x00\x00\x00'
p884
tp885
bsba(i__main__
FrameData
p886
(dp887
g6
g635
sg8
g9
(g13
S'\x00\x00\x00\x00\x00\x00\xf0?'
p888
tp889
Rp890
sg19
I0
sg20
g21
(S'\x07\xdd\t\x1d\x13\x12 \x01\xe1\xad'
p891
tp892
Rp893
sg25
I0
sg26
g27
(g28
(I0
tp894
g30
tp895
Rp896
(I1
(I2
tp897
g36
I00
S'\xcb\x00\x00\x00K\x00\x00\x00'
p898
tp899
bsba(i__main__
FrameData
p900
(dp901
g6
g635
sg8
g9
(g13
S'\x00\x00\x00\x00\x00\x00\xf0?'
p902
tp903
Rp904
sg19
I0
sg20
g21
(S'\x07\xdd\t\x1d\x13\x12 \x02\x11\xa4'
p905
tp906
Rp907
sg25
I0
sg26
g27
(g28
(I0
tp908
g30
tp909
Rp910
(I1
(I2
tp911
g36
I00
S'\xc9\x00\x00\x00K\x00\x00\x00'
p912
tp913
bsba(i__main__
FrameData
p914
(dp915
g6
g635
sg8
g9
(g13
S'\xa8\xf4\x97\x9bw\xe3\x01@'
p916
tp917
Rp918
sg19
I0
sg20
g21
(S'\x07\xdd\t\x1d\x13\x12 \x02G\xf7'
p919
tp920
Rp921
sg25
I0
sg26
g27
(g28
(I0
tp922
g30
tp923
Rp924
(I1
(I2
tp925
g36
I00
S'\xc8\x00\x00\x00L\x00\x00\x00'
p926
tp927
bsba(i__main__
FrameData
p928
(dp929
g6
g635
sg8
g9
(g13
S'\x07\xed\xaff\x0f~\x10@'
p930
tp931
Rp932
sg19
I0
sg20
g21
(S'\x07\xdd\t\x1d\x13\x12 \x02\x87/'
p933
tp934
Rp935
sg25
I0
sg26
g27
(g28
(I0
tp936
g30
tp937
Rp938
(I1
(I2
tp939
g36
I00
S'\xc6\x00\x00\x00L\x00\x00\x00'
p940
tp941
bsba(i__main__
FrameData
p942
(dp943
g6
g635
sg8
g9
(g13
S'S[\xda:XL\x19@'
p944
tp945
Rp946
sg19
I0
sg20
g21
(S'\x07\xdd\t\x1d\x13\x12 \x02\xd6\x94'
p947
tp948
Rp949
sg25
I0
sg26
g27
(g28
(I0
tp950
g30
tp951
Rp952
(I1
(I2
tp953
g36
I00
S'\xc4\x00\x00\x00M\x00\x00\x00'
p954
tp955
bsba(i__main__
FrameData
p956
(dp957
g6
g635
sg8
g9
(g13
S'\xe9\xfbv \xd5\x1e\x1d@'
p958
tp959
Rp960
sg19
I0
sg20
g21
(S'\x07\xdd\t\x1d\x13\x12 \x03\x15)'
p961
tp962
Rp963
sg25
I0
sg26
g27
(g28
(I0
tp964
g30
tp965
Rp966
(I1
(I2
tp967
g36
I00
S'\xc3\x00\x00\x00M\x00\x00\x00'
p968
tp969
bsba(i__main__
FrameData
p970
(dp971
g6
g635
sg8
g9
(g13
S'bVc}\x9d\xb2#@'
p972
tp973
Rp974
sg19
I0
sg20
g21
(S'\x07\xdd\t\x1d\x13\x12 \x03X\xf0'
p975
tp976
Rp977
sg25
I0
sg26
g27
(g28
(I0
tp978
g30
tp979
Rp980
(I1
(I2
tp981
g36
I00
S'\xc1\x00\x00\x00O\x00\x00\x00'
p982
tp983
bsba(i__main__
FrameData
p984
(dp985
g6
g635
sg8
g9
(g13
S'lNy\x00\x85*(@'
p986
tp987
Rp988
sg19
I0
sg20
g21
(S'\x07\xdd\t\x1d\x13\x12 \x03\x8d\x8c'
p989
tp990
Rp991
sg25
I0
sg26
g27
(g28
(I0
tp992
g30
tp993
Rp994
(I1
(I2
tp995
g36
I00
S'\xbf\x00\x00\x00P\x00\x00\x00'
p996
tp997
bsba(i__main__
FrameData
p998
(dp999
g6
g424
sg8
g9
(g13
S'\xe4\x10\xe4sW\x0f)@'
p1000
tp1001
Rp1002
sg19
I0
sg20
g21
(S'\x07\xdd\t\x1d\x13\x12 \x03\xe0\x15'
p1003
tp1004
Rp1005
sg25
I0
sg26
g27
(g28
(I0
tp1006
g30
tp1007
Rp1008
(I1
(I2
tp1009
g36
I00
S'\xbd\x00\x00\x00Q\x00\x00\x00'
p1010
tp1011
bsba(i__main__
FrameData
p1012
(dp1013
g6
g424
sg8
g9
(g13
S'\xeb\x12\xb2\xbb\xb2\xcd&@'
p1014
tp1015
Rp1016
sg19
I0
sg20
g21
(S'\x07\xdd\t\x1d\x13\x12 \x04&r'
p1017
tp1018
Rp1019
sg25
I0
sg26
g27
(g28
(I0
tp1020
g30
tp1021
Rp1022
(I1
(I2
tp1023
g36
I00
S'\xbb\x00\x00\x00R\x00\x00\x00'
p1024
tp1025
bsba(i__main__
FrameData
p1026
(dp1027
g6
g424
sg8
g9
(g13
S'\xeb\x12\xb2\xbb\xb2\xcd&@'
p1028
tp1029
Rp1030
sg19
I0
sg20
g21
(S'\x07\xdd\t\x1d\x13\x12 \x04S\xe8'
p1031
tp1032
Rp1033
sg25
I0
sg26
g27
(g28
(I0
tp1034
g30
tp1035
Rp1036
(I1
(I2
tp1037
g36
I00
S'\xb9\x00\x00\x00T\x00\x00\x00'
p1038
tp1039
bsba(i__main__
FrameData
p1040
(dp1041
g6
g424
sg8
g9
(g13
S'\xeb\x12\xb2\xbb\xb2\xcd&@'
p1042
tp1043
Rp1044
sg19
I0
sg20
g21
(S'\x07\xdd\t\x1d\x13\x12 \x04\x96\xd4'
p1045
tp1046
Rp1047
sg25
I0
sg26
g27
(g28
(I0
tp1048
g30
tp1049
Rp1050
(I1
(I2
tp1051
g36
I00
S'\xb5\x00\x00\x00V\x00\x00\x00'
p1052
tp1053
bsba(i__main__
FrameData
p1054
(dp1055
g6
g424
sg8
g9
(g13
S'Qf\x99\xcb\xa9\x13*@'
p1056
tp1057
Rp1058
sg19
I0
sg20
g21
(S'\x07\xdd\t\x1d\x13\x12 \x04\xf1\x94'
p1059
tp1060
Rp1061
sg25
I0
sg26
g27
(g28
(I0
tp1062
g30
tp1063
Rp1064
(I1
(I2
tp1065
g36
I00
S'\xb1\x00\x00\x00X\x00\x00\x00'
p1066
tp1067
bsba(i__main__
FrameData
p1068
(dp1069
g6
g424
sg8
g9
(g13
S'\x07\xed\xaff\x0f~0@'
p1070
tp1071
Rp1072
sg19
I0
sg20
g21
(S'\x07\xdd\t\x1d\x13\x12 \x05\x19<'
p1073
tp1074
Rp1075
sg25
I0
sg26
g27
(g28
(I0
tp1076
g30
tp1077
Rp1078
(I1
(I2
tp1079
g36
I00
S'\xae\x00\x00\x00[\x00\x00\x00'
p1080
tp1081
bsba(i__main__
FrameData
p1082
(dp1083
g6
S'j'
p1084
sg8
g9
(g13
S'\x00\x00\x00\x00\x00\x004@'
p1085
tp1086
Rp1087
sg19
I0
sg20
g21
(S'\x07\xdd\t\x1d\x13\x12 \x05]\xb5'
p1088
tp1089
Rp1090
sg25
I0
sg26
g27
(g28
(I0
tp1091
g30
tp1092
Rp1093
(I1
(I2
tp1094
g36
I00
S'\xa7\x00\x00\x00^\x00\x00\x00'
p1095
tp1096
bsba(i__main__
FrameData
p1097
(dp1098
g6
g1084
sg8
g9
(g13
S'\xb9\xbaF\xca+~1@'
p1099
tp1100
Rp1101
sg19
I0
sg20
g21
(S'\x07\xdd\t\x1d\x13\x12 \x05\xad\x10'
p1102
tp1103
Rp1104
sg25
I0
sg26
g27
(g28
(I0
tp1105
g30
tp1106
Rp1107
(I1
(I2
tp1108
g36
I00
S'\x9e\x00\x00\x00c\x00\x00\x00'
p1109
tp1110
bsba(i__main__
FrameData
p1111
(dp1112
g6
S'h'
p1113
sg8
g9
(g13
S'\xfc\xeeci3\xd5*@'
p1114
tp1115
Rp1116
sg19
I0
sg20
g21
(S'\x07\xdd\t\x1d\x13\x12 \x05\xfb\x08'
p1117
tp1118
Rp1119
sg25
I0
sg26
g27
(g28
(I0
tp1120
g30
tp1121
Rp1122
(I1
(I2
tp1123
g36
I00
S'\x96\x00\x00\x00f\x00\x00\x00'
p1124
tp1125
bsba(i__main__
FrameData
p1126
(dp1127
g6
S'g'
p1128
sg8
g9
(g13
S'\xd2\xf1}\x82U\\&@'
p1129
tp1130
Rp1131
sg19
I0
sg20
g21
(S'\x07\xdd\t\x1d\x13\x12 \x06\x18\xb4'
p1132
tp1133
Rp1134
sg25
I0
sg26
g27
(g28
(I0
tp1135
g30
tp1136
Rp1137
(I1
(I2
tp1138
g36
I00
S'\x82\x00\x00\x00m\x00\x00\x00'
p1139
tp1140
bsba(i__main__
FrameData
p1141
(dp1142
g6
g1128
sg8
g9
(g13
S'9\xdcc\xb3\xbfT\x18@'
p1143
tp1144
Rp1145
sg19
I0
sg20
g21
(S'\x07\xdd\t\x1d\x13\x12 \x06q\x90'
p1146
tp1147
Rp1148
sg25
I0
sg26
g27
(g28
(I0
tp1149
g30
tp1150
Rp1151
(I1
(I2
tp1152
g36
I00
S'r\x00\x00\x00q\x00\x00\x00'
p1153
tp1154
bsba(i__main__
FrameData
p1155
(dp1156
g6
S'f'
p1157
sg8
g9
(g13
S'\x07\xed\xaff\x0f~ @'
p1158
tp1159
Rp1160
sg19
I0
sg20
g21
(S'\x07\xdd\t\x1d\x13\x12 \x06\xad\x99'
p1161
tp1162
Rp1163
sg25
I0
sg26
g27
(g28
(I0
tp1164
g30
tp1165
Rp1166
(I1
(I2
tp1167
g36
I00
S'h\x00\x00\x00t\x00\x00\x00'
p1168
tp1169
bsba(i__main__
FrameData
p1170
(dp1171
g6
g1157
sg8
g9
(g13
S'\x07\xed\xaff\x0f~\x10@'
p1172
tp1173
Rp1174
sg19
I0
sg20
g21
(S'\x07\xdd\t\x1d\x13\x12 \x06\xe6\x81'
p1175
tp1176
Rp1177
sg25
I0
sg26
g27
(g28
(I0
tp1178
g30
tp1179
Rp1180
(I1
(I2
tp1181
g36
I00
S'_\x00\x00\x00v\x00\x00\x00'
p1182
tp1183
bsba(i__main__
FrameData
p1184
(dp1185
g6
g1157
sg8
g9
(g13
S'N\x017\xfac4!@'
p1186
tp1187
Rp1188
sg19
I0
sg20
g21
(S'\x07\xdd\t\x1d\x13\x12 \x07#='
p1189
tp1190
Rp1191
sg25
I0
sg26
g27
(g28
(I0
tp1192
g30
tp1193
Rp1194
(I1
(I2
tp1195
g36
I00
S'Y\x00\x00\x00w\x00\x00\x00'
p1196
tp1197
bsba(i__main__
FrameData
p1198
(dp1199
g6
g1157
sg8
g9
(g13
S'\xd2\xf1}\x82U\\&@'
p1200
tp1201
Rp1202
sg19
I0
sg20
g21
(S'\x07\xdd\t\x1d\x13\x12 \x07q\x82'
p1203
tp1204
Rp1205
sg25
I0
sg26
g27
(g28
(I0
tp1206
g30
tp1207
Rp1208
(I1
(I2
tp1209
g36
I00
S'V\x00\x00\x00w\x00\x00\x00'
p1210
tp1211
bsba(i__main__
FrameData
p1212
(dp1213
g6
S'd'
p1214
sg8
g9
(g13
S'\xe4\x10\xe4sW\x0f)@'
p1215
tp1216
Rp1217
sg19
I0
sg20
g21
(S'\x07\xdd\t\x1d\x13\x12 \x07\xbec'
p1218
tp1219
Rp1220
sg25
I0
sg26
g27
(g28
(I0
tp1221
g30
tp1222
Rp1223
(I1
(I2
tp1224
g36
I00
S'T\x00\x00\x00w\x00\x00\x00'
p1225
tp1226
bsba(i__main__
FrameData
p1227
(dp1228
g6
g1214
sg8
g9
(g13
S'w\x03Is \xa2%@'
p1229
tp1230
Rp1231
sg19
I0
sg20
g21
(S'\x07\xdd\t\x1d\x13\x12 \x07\xe5\x94'
p1232
tp1233
Rp1234
sg25
I0
sg26
g27
(g28
(I0
tp1235
g30
tp1236
Rp1237
(I1
(I2
tp1238
g36
I00
S'R\x00\x00\x00w\x00\x00\x00'
p1239
tp1240
bsba(i__main__
FrameData
p1241
(dp1242
g6
g1214
sg8
g9
(g13
S'N\x017\xfac4!@'
p1243
tp1244
Rp1245
sg19
I0
sg20
g21
(S'\x07\xdd\t\x1d\x13\x12 \x084\xca'
p1246
tp1247
Rp1248
sg25
I0
sg26
g27
(g28
(I0
tp1249
g30
tp1250
Rp1251
(I1
(I2
tp1252
g36
I00
S'N\x00\x00\x00x\x00\x00\x00'
p1253
tp1254
bsba(i__main__
FrameData
p1255
(dp1256
g6
g1214
sg8
g9
(g13
S'\x00\x00\x00\x00\x00\x00\x1c@'
p1257
tp1258
Rp1259
sg19
I0
sg20
g21
(S'\x07\xdd\t\x1d\x13\x12 \x08\x82\xc0'
p1260
tp1261
Rp1262
sg25
I0
sg26
g27
(g28
(I0
tp1263
g30
tp1264
Rp1265
(I1
(I2
tp1266
g36
I00
S'I\x00\x00\x00x\x00\x00\x00'
p1267
tp1268
bsba(i__main__
FrameData
p1269
(dp1270
g6
g1214
sg8
g9
(g13
S'N\x017\xfac4!@'
p1271
tp1272
Rp1273
sg19
I0
sg20
g21
(S'\x07\xdd\t\x1d\x13\x12 \x08\xaa\x0f'
p1274
tp1275
Rp1276
sg25
I0
sg26
g27
(g28
(I0
tp1277
g30
tp1278
Rp1279
(I1
(I2
tp1280
g36
I00
S'D\x00\x00\x00x\x00\x00\x00'
p1281
tp1282
bsba(i__main__
FrameData
p1283
(dp1284
g6
g1214
sg8
g9
(g13
S'&5w\xe2K\x15(@'
p1285
tp1286
Rp1287
sg19
I0
sg20
g21
(S'\x07\xdd\t\x1d\x13\x12 \x08\xf8 '
p1288
tp1289
Rp1290
sg25
I0
sg26
g27
(g28
(I0
tp1291
g30
tp1292
Rp1293
(I1
(I2
tp1294
g36
I00
S'@\x00\x00\x00y\x00\x00\x00'
p1295
tp1296
bsba(i__main__
FrameData
p1297
(dp1298
g6
S's'
p1299
sg8
g9
(g13
S'\xef\rI\xf1\xf33+@'
p1300
tp1301
Rp1302
sg19
I0
sg20
g21
(S'\x07\xdd\t\x1d\x13\x12 \tF\x82'
p1303
tp1304
Rp1305
sg25
I0
sg26
g27
(g28
(I0
tp1306
g30
tp1307
Rp1308
(I1
(I2
tp1309
g36
I00
S'<\x00\x00\x00y\x00\x00\x00'
p1310
tp1311
bsba(i__main__
FrameData
p1312
(dp1313
g6
g1299
sg8
g9
(g13
S'\x00\xff\x9f\x99\xcc\x9c)@'
p1314
tp1315
Rp1316
sg19
I0
sg20
g21
(S'\x07\xdd\t\x1d\x13\x12 \tle'
p1317
tp1318
Rp1319
sg25
I0
sg26
g27
(g28
(I0
tp1320
g30
tp1321
Rp1322
(I1
(I2
tp1323
g36
I00
S';\x00\x00\x00y\x00\x00\x00'
p1324
tp1325
bsba(i__main__
FrameData
p1326
(dp1327
g6
g1299
sg8
g9
(g13
S'&5w\xe2K\x15(@'
p1328
tp1329
Rp1330
sg19
I0
sg20
g21
(S'\x07\xdd\t\x1d\x13\x12 \t\xba\x84'
p1331
tp1332
Rp1333
sg25
I0
sg26
g27
(g28
(I0
tp1334
g30
tp1335
Rp1336
(I1
(I2
tp1337
g36
I00
S':\x00\x00\x00y\x00\x00\x00'
p1338
tp1339
bsba(i__main__
FrameData
p1340
(dp1341
g6
g1299
sg8
g9
(g13
S'\xcd;\x7ff\x9e\xa0&@'
p1342
tp1343
Rp1344
sg19
I0
sg20
g21
(S'\x07\xdd\t\x1d\x13\x12 \n\t\x98'
p1345
tp1346
Rp1347
sg25
I0
sg26
g27
(g28
(I0
tp1348
g30
tp1349
Rp1350
(I1
(I2
tp1351
g36
I00
S'9\x00\x00\x00y\x00\x00\x00'
p1352
tp1353
bsba(i__main__
FrameData
p1354
(dp1355
g6
g1299
sg8
g9
(g13
S'6\xd0\xd2x\xa2B%@'
p1356
tp1357
Rp1358
sg19
I0
sg20
g21
(S'\x07\xdd\t\x1d\x13\x12 \n,\xa8'
p1359
tp1360
Rp1361
sg25
I0
sg26
g27
(g28
(I0
tp1362
g30
tp1363
Rp1364
(I1
(I2
tp1365
g36
I00
S'8\x00\x00\x00y\x00\x00\x00'
p1366
tp1367
bsba(i__main__
FrameData
p1368
(dp1369
g6
g1299
sg8
g9
(g13
S'\x00\x00\x00\x00\x00\x00$@'
p1370
tp1371
Rp1372
sg19
I0
sg20
g21
(S'\x07\xdd\t\x1d\x13\x12 \n~\xce'
p1373
tp1374
Rp1375
sg25
I0
sg26
g27
(g28
(I0
tp1376
g30
tp1377
Rp1378
(I1
(I2
tp1379
g36
I00
S'7\x00\x00\x00y\x00\x00\x00'
p1380
tp1381
bsba(i__main__
FrameData
p1382
(dp1383
g6
g1299
sg8
g9
(g13
S'A\x87b\xc62\xde"@'
p1384
tp1385
Rp1386
sg19
I0
sg20
g21
(S'\x07\xdd\t\x1d\x13\x12 \n\xcb\x97'
p1387
tp1388
Rp1389
sg25
I0
sg26
g27
(g28
(I0
tp1390
g30
tp1391
Rp1392
(I1
(I2
tp1393
g36
I00
S'6\x00\x00\x00y\x00\x00\x00'
p1394
tp1395
bsba(i__main__
FrameData
p1396
(dp1397
g6
g1299
sg8
g9
(g13
S'\xfc\xeeci3\xd5\x1a@'
p1398
tp1399
Rp1400
sg19
I0
sg20
g21
(S'\x07\xdd\t\x1d\x13\x12 \n\xf3\xf0'
p1401
tp1402
Rp1403
sg25
I0
sg26
g27
(g28
(I0
tp1404
g30
tp1405
Rp1406
(I1
(I2
tp1407
g36
I00
S'4\x00\x00\x00w\x00\x00\x00'
p1408
tp1409
bsba(i__main__
FrameData
p1410
(dp1411
g6
g1299
sg8
g9
(g13
S'9\xdcc\xb3\xbfT\x18@'
p1412
tp1413
Rp1414
sg19
I0
sg20
g21
(S'\x07\xdd\t\x1d\x13\x12 \x0bB\x07'
p1415
tp1416
Rp1417
sg25
I0
sg26
g27
(g28
(I0
tp1418
g30
tp1419
Rp1420
(I1
(I2
tp1421
g36
I00
S'2\x00\x00\x00w\x00\x00\x00'
p1422
tp1423
bsba(i__main__
FrameData
p1424
(dp1425
g6
g1299
sg8
g9
(g13
S'\x00\x00\x00\x00\x00\x00\x18@'
p1426
tp1427
Rp1428
sg19
I0
sg20
g21
(S'\x07\xdd\t\x1d\x13\x12 \x0b\x90\x0b'
p1429
tp1430
Rp1431
sg25
I0
sg26
g27
(g28
(I0
tp1432
g30
tp1433
Rp1434
(I1
(I2
tp1435
g36
I00
S'1\x00\x00\x00w\x00\x00\x00'
p1436
tp1437
bsba(i__main__
FrameData
p1438
(dp1439
g6
g1299
sg8
g9
(g13
S'\xa2\xa3\xb3\r\xe5R\x17@'
p1440
tp1441
Rp1442
sg19
I0
sg20
g21
(S'\x07\xdd\t\x1d\x13\x12 \x0b\xb6+'
p1443
tp1444
Rp1445
sg25
I0
sg26
g27
(g28
(I0
tp1446
g30
tp1447
Rp1448
(I1
(I2
tp1449
g36
I00
S'.\x00\x00\x00v\x00\x00\x00'
p1450
tp1451
bsba(i__main__
FrameData
p1452
(dp1453
g6
g1299
sg8
g9
(g13
S'\xd0\xbaa?\xe0\x1f @'
p1454
tp1455
Rp1456
sg19
I0
sg20
g21
(S'\x07\xdd\t\x1d\x13\x12 \x0b\xf7F'
p1457
tp1458
Rp1459
sg25
I0
sg26
g27
(g28
(I0
tp1460
g30
tp1461
Rp1462
(I1
(I2
tp1463
g36
I00
S'*\x00\x00\x00u\x00\x00\x00'
p1464
tp1465
bsba(i__main__
FrameData
p1466
(dp1467
g6
g1299
sg8
g9
(g13
S'7\xf9\xcf\xdao\xe1$@'
p1468
tp1469
Rp1470
sg19
I0
sg20
g21
(S'\x07\xdd\t\x1d\x13\x12 \x0cT&'
p1471
tp1472
Rp1473
sg25
I0
sg26
g27
(g28
(I0
tp1474
g30
tp1475
Rp1476
(I1
(I2
tp1477
g36
I00
S"'\x00\x00\x00t\x00\x00\x00"
p1478
tp1479
bsba(i__main__
FrameData
p1480
(dp1481
g6
S'a'
p1482
sg8
g9
(g13
S'8H\x9b\x97\xee\xae*@'
p1483
tp1484
Rp1485
sg19
I0
sg20
g21
(S'\x07\xdd\t\x1d\x13\x12 \x0cy\xae'
p1486
tp1487
Rp1488
sg25
I0
sg26
g27
(g28
(I0
tp1489
g30
tp1490
Rp1491
(I1
(I2
tp1492
g36
I00
S'$\x00\x00\x00t\x00\x00\x00'
p1493
tp1494
bsba(i__main__
FrameData
p1495
(dp1496
g6
g1482
sg8
g9
(g13
S'\xf6/\x12_ee$@'
p1497
tp1498
Rp1499
sg19
I0
sg20
g21
(S'\x07\xdd\t\x1d\x13\x12 \x0c\xc8\x93'
p1500
tp1501
Rp1502
sg25
I0
sg26
g27
(g28
(I0
tp1503
g30
tp1504
Rp1505
(I1
(I2
tp1506
g36
I00
S'!\x00\x00\x00s\x00\x00\x00'
p1507
tp1508
bsba(i__main__
FrameData
p1509
(dp1510
g6
g1482
sg8
g9
(g13
S'\x9a.\x90!hp"@'
p1511
tp1512
Rp1513
sg19
I0
sg20
g21
(S'\x07\xdd\t\x1d\x13\x12 \r\x15\xc0'
p1514
tp1515
Rp1516
sg25
I0
sg26
g27
(g28
(I0
tp1517
g30
tp1518
Rp1519
(I1
(I2
tp1520
g36
I00
S' \x00\x00\x00s\x00\x00\x00'
p1521
tp1522
bsba(i__main__
FrameData
p1523
(dp1524
g6
g1482
sg8
g9
(g13
S'\x07\xed\xaff\x0f~ @'
p1525
tp1526
Rp1527
sg19
I0
sg20
g21
(S'\x07\xdd\t\x1d\x13\x12 \r=\xcc'
p1528
tp1529
Rp1530
sg25
I0
sg26
g27
(g28
(I0
tp1531
g30
tp1532
Rp1533
(I1
(I2
tp1534
g36
I00
S'\x1f\x00\x00\x00s\x00\x00\x00'
p1535
tp1536
bsba(i__main__
FrameData
p1537
(dp1538
g6
g1482
sg8
g9
(g13
S'\x00\x00\x00\x00\x00\x00 @'
p1539
tp1540
Rp1541
sg19
I0
sg20
g21
(S'\x07\xdd\t\x1d\x13\x12 \r\x8cA'
p1542
tp1543
Rp1544
sg25
I0
sg26
g27
(g28
(I0
tp1545
g30
tp1546
Rp1547
(I1
(I2
tp1548
g36
I00
S'\x1f\x00\x00\x00q\x00\x00\x00'
p1549
tp1550
bsba(i__main__
FrameData
p1551
(dp1552
g6
g1482
sg8
g9
(g13
S'\x00\x00\x00\x00\x00\x00\x18@'
p1553
tp1554
Rp1555
sg19
I0
sg20
g21
(S'\x07\xdd\t\x1d\x13\x12 \r\xda\r'
p1556
tp1557
Rp1558
sg25
I0
sg26
g27
(g28
(I0
tp1559
g30
tp1560
Rp1561
(I1
(I2
tp1562
g36
I00
S'\x1d\x00\x00\x00q\x00\x00\x00'
p1563
tp1564
bsba(i__main__
FrameData
p1565
(dp1566
g6
g1482
sg8
g9
(g13
S'\x00\x00\x00\x00\x00\x00\x14@'
p1567
tp1568
Rp1569
sg19
I0
sg20
g21
(S'\x07\xdd\t\x1d\x13\x12 \x0e\x00<'
p1570
tp1571
Rp1572
sg25
I0
sg26
g27
(g28
(I0
tp1573
g30
tp1574
Rp1575
(I1
(I2
tp1576
g36
I00
S'\x1c\x00\x00\x00q\x00\x00\x00'
p1577
tp1578
bsba(i__main__
FrameData
p1579
(dp1580
g6
g1482
sg8
g9
(g13
S'\x07\xed\xaff\x0f~\x10@'
p1581
tp1582
Rp1583
sg19
I0
sg20
g21
(S'\x07\xdd\t\x1d\x13\x12 \x0e\x9d6'
p1584
tp1585
Rp1586
sg25
I0
sg26
g27
(g28
(I0
tp1587
g30
tp1588
Rp1589
(I1
(I2
tp1590
g36
I00
S'\x1b\x00\x00\x00p\x00\x00\x00'
p1591
tp1592
bsba(i__main__
FrameData
p1593
(dp1594
g6
g1482
sg8
g9
(g13
S'S[\xda:XL\t@'
p1595
tp1596
Rp1597
sg19
I0
sg20
g21
(S'\x07\xdd\t\x1d\x13\x12 \x0e\xc4\xce'
p1598
tp1599
Rp1600
sg25
I0
sg26
g27
(g28
(I0
tp1601
g30
tp1602
Rp1603
(I1
(I2
tp1604
g36
I00
S'\x1a\x00\x00\x00p\x00\x00\x00'
p1605
tp1606
bsba(i__main__
FrameData
p1607
(dp1608
g6
g1482
sg8
g9
(g13
S'\xa8\xf4\x97\x9bw\xe3\x01@'
p1609
tp1610
Rp1611
sg19
I0
sg20
g21
(S'\x07\xdd\t\x1d\x13\x12 \x0f\x11\xfc'
p1612
tp1613
Rp1614
sg25
I0
sg26
g27
(g28
(I0
tp1615
g30
tp1616
Rp1617
(I1
(I2
tp1618
g36
I00
S'\x19\x00\x00\x00p\x00\x00\x00'
p1619
tp1620
bsba(i__main__
FrameData
p1621
(dp1622
g6
g1482
sg8
g9
(g13
S'\xcd;\x7ff\x9e\xa0\x06@'
p1623
tp1624
Rp1625
sg19
I0
sg20
g21
(S'\x07\xdd\t\x1d\x13\x12!\x00\x05+'
p1626
tp1627
Rp1628
sg25
I0
sg26
g27
(g28
(I0
tp1629
g30
tp1630
Rp1631
(I1
(I2
tp1632
g36
I00
S'\x19\x00\x00\x00o\x00\x00\x00'
p1633
tp1634
bsba(i__main__
FrameData
p1635
(dp1636
g6
g1482
sg8
g9
(g13
S'\xa8\xf4\x97\x9bw\xe3\x01@'
p1637
tp1638
Rp1639
sg19
I0
sg20
g21
(S'\x07\xdd\t\x1d\x13\x12!\x00\xa2S'
p1640
tp1641
Rp1642
sg25
I0
sg26
g27
(g28
(I0
tp1643
g30
tp1644
Rp1645
(I1
(I2
tp1646
g36
I00
S'\x18\x00\x00\x00o\x00\x00\x00'
p1647
tp1648
bsba(i__main__
FrameData
p1649
(dp1650
g6
g1482
sg8
g9
(g13
S'\xcd;\x7ff\x9e\xa0\x06@'
p1651
tp1652
Rp1653
sg19
I0
sg20
g21
(S'\x07\xdd\t\x1d\x13\x12!\x03\xb0\x00'
p1654
tp1655
Rp1656
sg25
I0
sg26
g27
(g28
(I0
tp1657
g30
tp1658
Rp1659
(I1
(I2
tp1660
g36
I00
S'\x19\x00\x00\x00o\x00\x00\x00'
p1661
tp1662
bsba(i__main__
FrameData
p1663
(dp1664
g6
g1482
sg8
g9
(g13
S'\xf3YaD+\xd8\x0c@'
p1665
tp1666
Rp1667
sg19
I0
sg20
g21
(S'\x07\xdd\t\x1d\x13\x12!\x03\xd7\x8d'
p1668
tp1669
Rp1670
sg25
I0
sg26
g27
(g28
(I0
tp1671
g30
tp1672
Rp1673
(I1
(I2
tp1674
g36
I00
S'\x1a\x00\x00\x00o\x00\x00\x00'
p1675
tp1676
bsba(i__main__
FrameData
p1677
(dp1678
g6
g1482
sg8
g9
(g13
S'\xa8\xf4\x97\x9bw\xe3\x11@'
p1679
tp1680
Rp1681
sg19
I0
sg20
g21
(S'\x07\xdd\t\x1d\x13\x12!\x04s\x16'
p1682
tp1683
Rp1684
sg25
I0
sg26
g27
(g28
(I0
tp1685
g30
tp1686
Rp1687
(I1
(I2
tp1688
g36
I00
S'\x1b\x00\x00\x00o\x00\x00\x00'
p1689
tp1690
bsba(i__main__
FrameData
p1691
(dp1692
g6
g1482
sg8
g9
(g13
S'\xf3\xd9\xa8\xa4h\x8a\x15@'
p1693
tp1694
Rp1695
sg19
I0
sg20
g21
(S'\x07\xdd\t\x1d\x13\x12!\x04\x99\x07'
p1696
tp1697
Rp1698
sg25
I0
sg26
g27
(g28
(I0
tp1699
g30
tp1700
Rp1701
(I1
(I2
tp1702
g36
I00
S'\x1c\x00\x00\x00o\x00\x00\x00'
p1703
tp1704
bsba(i__main__
FrameData
p1705
(dp1706
g6
g1482
sg8
g9
(g13
S'\x07\xed\xaff\x0f~ @'
p1707
tp1708
Rp1709
sg19
I0
sg20
g21
(S'\x07\xdd\t\x1d\x13\x12!\x04\xe8\x8c'
p1710
tp1711
Rp1712
sg25
I0
sg26
g27
(g28
(I0
tp1713
g30
tp1714
Rp1715
(I1
(I2
tp1716
g36
I00
S'\x1f\x00\x00\x00o\x00\x00\x00'
p1717
tp1718
bsba(i__main__
FrameData
p1719
(dp1720
g6
g1482
sg8
g9
(g13
S'\xde4\xda\xfeNN*@'
p1721
tp1722
Rp1723
sg19
I0
sg20
g21
(S'\x07\xdd\t\x1d\x13\x12!\x056\xad'
p1724
tp1725
Rp1726
sg25
I0
sg26
g27
(g28
(I0
tp1727
g30
tp1728
Rp1729
(I1
(I2
tp1730
g36
I00
S'$\x00\x00\x00o\x00\x00\x00'
p1731
tp1732
bsba(i__main__
FrameData
p1733
(dp1734
g6
g1299
sg8
g9
(g13
S'\xd2\xf1}\x82U\\&@'
p1735
tp1736
Rp1737
sg19
I0
sg20
g21
(S'\x07\xdd\t\x1d\x13\x12!\x05_\x13'
p1738
tp1739
Rp1740
sg25
I0
sg26
g27
(g28
(I0
tp1741
g30
tp1742
Rp1743
(I1
(I2
tp1744
g36
I00
S'&\x00\x00\x00o\x00\x00\x00'
p1745
tp1746
bsba(i__main__
FrameData
p1747
(dp1748
g6
g1299
sg8
g9
(g13
S'\x07\xed\xaff\x0f~ @'
p1749
tp1750
Rp1751
sg19
I0
sg20
g21
(S'\x07\xdd\t\x1d\x13\x12!\x05\xab\xc2'
p1752
tp1753
Rp1754
sg25
I0
sg26
g27
(g28
(I0
tp1755
g30
tp1756
Rp1757
(I1
(I2
tp1758
g36
I00
S')\x00\x00\x00o\x00\x00\x00'
p1759
tp1760
bsba(i__main__
FrameData
p1761
(dp1762
g6
g1299
sg8
g9
(g13
S'\xf3\xd9\xa8\xa4h\x8a\x15@'
p1763
tp1764
Rp1765
sg19
I0
sg20
g21
(S'\x07\xdd\t\x1d\x13\x12!\x05\xe0^'
p1766
tp1767
Rp1768
sg25
I0
sg26
g27
(g28
(I0
tp1769
g30
tp1770
Rp1771
(I1
(I2
tp1772
g36
I00
S',\x00\x00\x00o\x00\x00\x00'
p1773
tp1774
bsba(i__main__
FrameData
p1775
(dp1776
g6
g1299
sg8
g9
(g13
S'\xd9l\xdf\xccv\xf8\x10@'
p1777
tp1778
Rp1779
sg19
I0
sg20
g21
(S'\x07\xdd\t\x1d\x13\x12!\x06",'
p1780
tp1781
Rp1782
sg25
I0
sg26
g27
(g28
(I0
tp1783
g30
tp1784
Rp1785
(I1
(I2
tp1786
g36
I00
S'.\x00\x00\x00n\x00\x00\x00'
p1787
tp1788
bsba(i__main__
FrameData
p1789
(dp1790
g6
g1299
sg8
g9
(g13
S'\xf3YaD+\xd8\x0c@'
p1791
tp1792
Rp1793
sg19
I0
sg20
g21
(S'\x07\xdd\t\x1d\x13\x12!\x06p1'
p1794
tp1795
Rp1796
sg25
I0
sg26
g27
(g28
(I0
tp1797
g30
tp1798
Rp1799
(I1
(I2
tp1800
g36
I00
S'/\x00\x00\x00n\x00\x00\x00'
p1801
tp1802
bsba(i__main__
FrameData
p1803
(dp1804
g6
g1299
sg8
g9
(g13
S'\x00\x00\x00\x00\x00\x00\x08@'
p1805
tp1806
Rp1807
sg19
I0
sg20
g21
(S'\x07\xdd\t\x1d\x13\x12!\x06\xbd('
p1808
tp1809
Rp1810
sg25
I0
sg26
g27
(g28
(I0
tp1811
g30
tp1812
Rp1813
(I1
(I2
tp1814
g36
I00
S'1\x00\x00\x00n\x00\x00\x00'
p1815
tp1816
bsba(i__main__
FrameData
p1817
(dp1818
g6
g1299
sg8
g9
(g13
S'\x07\xed\xaff\x0f~\x10@'
p1819
tp1820
Rp1821
sg19
I0
sg20
g21
(S'\x07\xdd\t\x1d\x13\x12!\x06\xe5\\'
p1822
tp1823
Rp1824
sg25
I0
sg26
g27
(g28
(I0
tp1825
g30
tp1826
Rp1827
(I1
(I2
tp1828
g36
I00
S'2\x00\x00\x00m\x00\x00\x00'
p1829
tp1830
bsba(i__main__
FrameData
p1831
(dp1832
g6
g1299
sg8
g9
(g13
S'\xa8\xf4\x97\x9bw\xe3\x11@'
p1833
tp1834
Rp1835
sg19
I0
sg20
g21
(S'\x07\xdd\t\x1d\x13\x12!\x072T'
p1836
tp1837
Rp1838
sg25
I0
sg26
g27
(g28
(I0
tp1839
g30
tp1840
Rp1841
(I1
(I2
tp1842
g36
I00
S'3\x00\x00\x00m\x00\x00\x00'
p1843
tp1844
bsba(i__main__
FrameData
p1845
(dp1846
g6
g1299
sg8
g9
(g13
S'\xa2\xa3\xb3\r\xe5R\x17@'
p1847
tp1848
Rp1849
sg19
I0
sg20
g21
(S'\x07\xdd\t\x1d\x13\x12!\x07f\x9b'
p1850
tp1851
Rp1852
sg25
I0
sg26
g27
(g28
(I0
tp1853
g30
tp1854
Rp1855
(I1
(I2
tp1856
g36
I00
S'4\x00\x00\x00l\x00\x00\x00'
p1857
tp1858
bsba(i__main__
FrameData
p1859
(dp1860
g6
g1299
sg8
g9
(g13
S'\x00\xff\x9f\x99\xcc\x9c\x19@'
p1861
tp1862
Rp1863
sg19
I0
sg20
g21
(S'\x07\xdd\t\x1d\x13\x12!\x07\xcf:'
p1864
tp1865
Rp1866
sg25
I0
sg26
g27
(g28
(I0
tp1867
g30
tp1868
Rp1869
(I1
(I2
tp1870
g36
I00
S'5\x00\x00\x00l\x00\x00\x00'
p1871
tp1872
bsba(i__main__
FrameData
p1873
(dp1874
g6
g1299
sg8
g9
(g13
S'\xc0\n\x1f\x00\xc6H\x1c@'
p1875
tp1876
Rp1877
sg19
I0
sg20
g21
(S'\x07\xdd\t\x1d\x13\x12!\x07\xf4\x89'
p1878
tp1879
Rp1880
sg25
I0
sg26
g27
(g28
(I0
tp1881
g30
tp1882
Rp1883
(I1
(I2
tp1884
g36
I00
S'6\x00\x00\x00l\x00\x00\x00'
p1885
tp1886
bsba(i__main__
FrameData
p1887
(dp1888
g6
g1299
sg8
g9
(g13
S'htN\x17\xb2=\x1f@'
p1889
tp1890
Rp1891
sg19
I0
sg20
g21
(S'\x07\xdd\t\x1d\x13\x12!\x084\xf0'
p1892
tp1893
Rp1894
sg25
I0
sg26
g27
(g28
(I0
tp1895
g30
tp1896
Rp1897
(I1
(I2
tp1898
g36
I00
S'7\x00\x00\x00l\x00\x00\x00'
p1899
tp1900
bsba(i__main__
FrameData
p1901
(dp1902
g6
g1299
sg8
g9
(g13
S'A\x87b\xc62\xde"@'
p1903
tp1904
Rp1905
sg19
I0
sg20
g21
(S'\x07\xdd\t\x1d\x13\x12!\x08mQ'
p1906
tp1907
Rp1908
sg25
I0
sg26
g27
(g28
(I0
tp1909
g30
tp1910
Rp1911
(I1
(I2
tp1912
g36
I00
S'9\x00\x00\x00l\x00\x00\x00'
p1913
tp1914
bsba(i__main__
FrameData
p1915
(dp1916
g6
g1299
sg8
g9
(g13
S'w\x03Is \xa2%@'
p1917
tp1918
Rp1919
sg19
I0
sg20
g21
(S'\x07\xdd\t\x1d\x13\x12!\x08\xb8\xfc'
p1920
tp1921
Rp1922
sg25
I0
sg26
g27
(g28
(I0
tp1923
g30
tp1924
Rp1925
(I1
(I2
tp1926
g36
I00
S':\x00\x00\x00k\x00\x00\x00'
p1927
tp1928
bsba(i__main__
FrameData
p1929
(dp1930
g6
g1299
sg8
g9
(g13
S"\xa2\xa3\xb3\r\xe5R'@"
p1931
tp1932
Rp1933
sg19
I0
sg20
g21
(S'\x07\xdd\t\x1d\x13\x12!\x08\xef}'
p1934
tp1935
Rp1936
sg25
I0
sg26
g27
(g28
(I0
tp1937
g30
tp1938
Rp1939
(I1
(I2
tp1940
g36
I00
S';\x00\x00\x00k\x00\x00\x00'
p1941
tp1942
bsba(i__main__
FrameData
p1943
(dp1944
g6
g1299
sg8
g9
(g13
S'\xfc\xeeci3\xd5*@'
p1945
tp1946
Rp1947
sg19
I0
sg20
g21
(S'\x07\xdd\t\x1d\x13\x12!\tU\x01'
p1948
tp1949
Rp1950
sg25
I0
sg26
g27
(g28
(I0
tp1951
g30
tp1952
Rp1953
(I1
(I2
tp1954
g36
I00
S'=\x00\x00\x00k\x00\x00\x00'
p1955
tp1956
bsba(i__main__
FrameData
p1957
(dp1958
g6
g1214
sg8
g9
(g13
S'\xe4\x10\xe4sW\x0f)@'
p1959
tp1960
Rp1961
sg19
I0
sg20
g21
(S'\x07\xdd\t\x1d\x13\x12!\ts\x0e'
p1962
tp1963
Rp1964
sg25
I0
sg26
g27
(g28
(I0
tp1965
g30
tp1966
Rp1967
(I1
(I2
tp1968
g36
I00
S'>\x00\x00\x00k\x00\x00\x00'
p1969
tp1970
bsba(i__main__
FrameData
p1971
(dp1972
g6
g1214
sg8
g9
(g13
S'w\x03Is \xa2%@'
p1973
tp1974
Rp1975
sg19
I0
sg20
g21
(S'\x07\xdd\t\x1d\x13\x12!\t\xc3\xf7'
p1976
tp1977
Rp1978
sg25
I0
sg26
g27
(g28
(I0
tp1979
g30
tp1980
Rp1981
(I1
(I2
tp1982
g36
I00
S'@\x00\x00\x00k\x00\x00\x00'
p1983
tp1984
bsba(i__main__
FrameData
p1985
(dp1986
g6
g1214
sg8
g9
(g13
S'\x00\x00\x00\x00\x00\x00$@'
p1987
tp1988
Rp1989
sg19
I0
sg20
g21
(S'\x07\xdd\t\x1d\x13\x12!\t\xf4\x93'
p1990
tp1991
Rp1992
sg25
I0
sg26
g27
(g28
(I0
tp1993
g30
tp1994
Rp1995
(I1
(I2
tp1996
g36
I00
S'A\x00\x00\x00k\x00\x00\x00'
p1997
tp1998
bsba(i__main__
FrameData
p1999
(dp2000
g6
g1214
sg8
g9
(g13
S'\x9a.\x90!hp"@'
p2001
tp2002
Rp2003
sg19
I0
sg20
g21
(S'\x07\xdd\t\x1d\x13\x12!\n7\x86'
p2004
tp2005
Rp2006
sg25
I0
sg26
g27
(g28
(I0
tp2007
g30
tp2008
Rp2009
(I1
(I2
tp2010
g36
I00
S'B\x00\x00\x00k\x00\x00\x00'
p2011
tp2012
bsba(i__main__
FrameData
p2013
(dp2014
g6
g1214
sg8
g9
(g13
S'\xd9l\xdf\xccv\xf8 @'
p2015
tp2016
Rp2017
sg19
I0
sg20
g21
(S'\x07\xdd\t\x1d\x13\x12!\n{i'
p2018
tp2019
Rp2020
sg25
I0
sg26
g27
(g28
(I0
tp2021
g30
tp2022
Rp2023
(I1
(I2
tp2024
g36
I00
S'C\x00\x00\x00k\x00\x00\x00'
p2025
tp2026
bsba(i__main__
FrameData
p2027
(dp2028
g6
g1214
sg8
g9
(g13
S'htN\x17\xb2=\x1f@'
p2029
tp2030
Rp2031
sg19
I0
sg20
g21
(S'\x07\xdd\t\x1d\x13\x12!\n\xccD'
p2032
tp2033
Rp2034
sg25
I0
sg26
g27
(g28
(I0
tp2035
g30
tp2036
Rp2037
(I1
(I2
tp2038
g36
I00
S'D\x00\x00\x00k\x00\x00\x00'
p2039
tp2040
bsba(i__main__
FrameData
p2041
(dp2042
g6
g1214
sg8
g9
(g13
S'\xf3YaD+\xd8\x1c@'
p2043
tp2044
Rp2045
sg19
I0
sg20
g21
(S'\x07\xdd\t\x1d\x13\x12!\n\xfa\xc5'
p2046
tp2047
Rp2048
sg25
I0
sg26
g27
(g28
(I0
tp2049
g30
tp2050
Rp2051
(I1
(I2
tp2052
g36
I00
S'E\x00\x00\x00k\x00\x00\x00'
p2053
tp2054
bsba(i__main__
FrameData
p2055
(dp2056
g6
g1214
sg8
g9
(g13
S'\xfc\xeeci3\xd5\x1a@'
p2057
tp2058
Rp2059
sg19
I0
sg20
g21
(S'\x07\xdd\t\x1d\x13\x12!\x0bIS'
p2060
tp2061
Rp2062
sg25
I0
sg26
g27
(g28
(I0
tp2063
g30
tp2064
Rp2065
(I1
(I2
tp2066
g36
I00
S'F\x00\x00\x00k\x00\x00\x00'
p2067
tp2068
bsba(i__main__
FrameData
p2069
(dp2070
g6
g1214
sg8
g9
(g13
S'S[\xda:XL\x19@'
p2071
tp2072
Rp2073
sg19
I0
sg20
g21
(S'\x07\xdd\t\x1d\x13\x12!\x0b\xbe\x1e'
p2074
tp2075
Rp2076
sg25
I0
sg26
g27
(g28
(I0
tp2077
g30
tp2078
Rp2079
(I1
(I2
tp2080
g36
I00
S'G\x00\x00\x00k\x00\x00\x00'
p2081
tp2082
bsba(i__main__
FrameData
p2083
(dp2084
g6
g1214
sg8
g9
(g13
S'\xf3\xd9\xa8\xa4h\x8a\x15@'
p2085
tp2086
Rp2087
sg19
I0
sg20
g21
(S'\x07\xdd\t\x1d\x13\x12"\x01\x9d\xf7'
p2088
tp2089
Rp2090
sg25
I0
sg26
g27
(g28
(I0
tp2091
g30
tp2092
Rp2093
(I1
(I2
tp2094
g36
I00
S'G\x00\x00\x00l\x00\x00\x00'
p2095
tp2096
bsba(i__main__
FrameData
p2097
(dp2098
g6
g1214
sg8
g9
(g13
S'\xa8\xf4\x97\x9bw\xe3\x11@'
p2099
tp2100
Rp2101
sg19
I0
sg20
g21
(S'\x07\xdd\t\x1d\x13\x12"\x02\x17.'
p2102
tp2103
Rp2104
sg25
I0
sg26
g27
(g28
(I0
tp2105
g30
tp2106
Rp2107
(I1
(I2
tp2108
g36
I00
S'G\x00\x00\x00m\x00\x00\x00'
p2109
tp2110
bsba(i__main__
FrameData
p2111
(dp2112
g6
g1214
sg8
g9
(g13
S'\x00\x00\x00\x00\x00\x00\x14@'
p2113
tp2114
Rp2115
sg19
I0
sg20
g21
(S'\x07\xdd\t\x1d\x13\x12"\x02]\xf3'
p2116
tp2117
Rp2118
sg25
I0
sg26
g27
(g28
(I0
tp2119
g30
tp2120
Rp2121
(I1
(I2
tp2122
g36
I00
S'F\x00\x00\x00m\x00\x00\x00'
p2123
tp2124
bsba(i__main__
FrameData
p2125
(dp2126
g6
g1214
sg8
g9
(g13
S'\xf3YaD+\xd8\x0c@'
p2127
tp2128
Rp2129
sg19
I0
sg20
g21
(S'\x07\xdd\t\x1d\x13\x12"\x02\xa6e'
p2130
tp2131
Rp2132
sg25
I0
sg26
g27
(g28
(I0
tp2133
g30
tp2134
Rp2135
(I1
(I2
tp2136
g36
I00
S'F\x00\x00\x00o\x00\x00\x00'
p2137
tp2138
bsba(i__main__
FrameData
p2139
(dp2140
g6
g1214
sg8
g9
(g13
S'\xa8\xf4\x97\x9bw\xe3\x11@'
p2141
tp2142
Rp2143
sg19
I0
sg20
g21
(S'\x07\xdd\t\x1d\x13\x12"\x02\xd9U'
p2144
tp2145
Rp2146
sg25
I0
sg26
g27
(g28
(I0
tp2147
g30
tp2148
Rp2149
(I1
(I2
tp2150
g36
I00
S'E\x00\x00\x00o\x00\x00\x00'
p2151
tp2152
bsba(i__main__
FrameData
p2153
(dp2154
g6
g1214
sg8
g9
(g13
S'\x07\xed\xaff\x0f~\x10@'
p2155
tp2156
Rp2157
sg19
I0
sg20
g21
(S'\x07\xdd\t\x1d\x13\x12"\x03\x1f\n'
p2158
tp2159
Rp2160
sg25
I0
sg26
g27
(g28
(I0
tp2161
g30
tp2162
Rp2163
(I1
(I2
tp2164
g36
I00
S'E\x00\x00\x00p\x00\x00\x00'
p2165
tp2166
bsba(i__main__
FrameData
p2167
(dp2168
g6
g1214
sg8
g9
(g13
S'9\xdcc\xb3\xbfT\x18@'
p2169
tp2170
Rp2171
sg19
I0
sg20
g21
(S'\x07\xdd\t\x1d\x13\x12"\x03`\xef'
p2172
tp2173
Rp2174
sg25
I0
sg26
g27
(g28
(I0
tp2175
g30
tp2176
Rp2177
(I1
(I2
tp2178
g36
I00
S'C\x00\x00\x00p\x00\x00\x00'
p2179
tp2180
bsba(i__main__
FrameData
p2181
(dp2182
g6
g1214
sg8
g9
(g13
S'\xc0\n\x1f\x00\xc6H\x1c@'
p2183
tp2184
Rp2185
sg19
I0
sg20
g21
(S'\x07\xdd\t\x1d\x13\x12"\x03\x9f\x9c'
p2186
tp2187
Rp2188
sg25
I0
sg26
g27
(g28
(I0
tp2189
g30
tp2190
Rp2191
(I1
(I2
tp2192
g36
I00
S'B\x00\x00\x00p\x00\x00\x00'
p2193
tp2194
bsba(i__main__
FrameData
p2195
(dp2196
g6
g1214
sg8
g9
(g13
S'\xd0\xbaa?\xe0\x1f @'
p2197
tp2198
Rp2199
sg19
I0
sg20
g21
(S'\x07\xdd\t\x1d\x13\x12"\x03\xdd\xfe'
p2200
tp2201
Rp2202
sg25
I0
sg26
g27
(g28
(I0
tp2203
g30
tp2204
Rp2205
(I1
(I2
tp2206
g36
I00
S'A\x00\x00\x00p\x00\x00\x00'
p2207
tp2208
bsba(i__main__
FrameData
p2209
(dp2210
g6
g1214
sg8
g9
(g13
S'$\xf8\xd9p[\x1c"@'
p2211
tp2212
Rp2213
sg19
I0
sg20
g21
(S'\x07\xdd\t\x1d\x13\x12"\x048\xd8'
p2214
tp2215
Rp2216
sg25
I0
sg26
g27
(g28
(I0
tp2217
g30
tp2218
Rp2219
(I1
(I2
tp2220
g36
I00
S'@\x00\x00\x00p\x00\x00\x00'
p2221
tp2222
bsba(i__main__
FrameData
p2223
(dp2224
g6
g1214
sg8
g9
(g13
S'\xf0)#L\x89\x19$@'
p2225
tp2226
Rp2227
sg19
I0
sg20
g21
(S'\x07\xdd\t\x1d\x13\x12"\x04`n'
p2228
tp2229
Rp2230
sg25
I0
sg26
g27
(g28
(I0
tp2231
g30
tp2232
Rp2233
(I1
(I2
tp2234
g36
I00
S'?\x00\x00\x00p\x00\x00\x00'
p2235
tp2236
bsba(i__main__
FrameData
p2237
(dp2238
g6
g1214
sg8
g9
(g13
S'\xf0)#L\x89\x19$@'
p2239
tp2240
Rp2241
sg19
I0
sg20
g21
(S'\x07\xdd\t\x1d\x13\x12"\x04\xb9\xa5'
p2242
tp2243
Rp2244
sg25
I0
sg26
g27
(g28
(I0
tp2245
g30
tp2246
Rp2247
(I1
(I2
tp2248
g36
I00
S'?\x00\x00\x00r\x00\x00\x00'
p2249
tp2250
bsba(i__main__
FrameData
p2251
(dp2252
g6
g1299
sg8
g9
(g13
S'&5w\xe2K\x15(@'
p2253
tp2254
Rp2255
sg19
I0
sg20
g21
(S'\x07\xdd\t\x1d\x13\x12"\x04\xf0\x87'
p2256
tp2257
Rp2258
sg25
I0
sg26
g27
(g28
(I0
tp2259
g30
tp2260
Rp2261
(I1
(I2
tp2262
g36
I00
S'=\x00\x00\x00r\x00\x00\x00'
p2263
tp2264
bsba(i__main__
FrameData
p2265
(dp2266
g6
g1299
sg8
g9
(g13
S'H\xaa*\x8f9\x17&@'
p2267
tp2268
Rp2269
sg19
I0
sg20
g21
(S'\x07\xdd\t\x1d\x13\x12"\x05%\r'
p2270
tp2271
Rp2272
sg25
I0
sg26
g27
(g28
(I0
tp2273
g30
tp2274
Rp2275
(I1
(I2
tp2276
g36
I00
S'<\x00\x00\x00r\x00\x00\x00'
p2277
tp2278
bsba(i__main__
FrameData
p2279
(dp2280
g6
g1299
sg8
g9
(g13
S'\xf0)#L\x89\x19$@'
p2281
tp2282
Rp2283
sg19
I0
sg20
g21
(S'\x07\xdd\t\x1d\x13\x12"\x05p\xf3'
p2284
tp2285
Rp2286
sg25
I0
sg26
g27
(g28
(I0
tp2287
g30
tp2288
Rp2289
(I1
(I2
tp2290
g36
I00
S';\x00\x00\x00r\x00\x00\x00'
p2291
tp2292
bsba(i__main__
FrameData
p2293
(dp2294
g6
g1299
sg8
g9
(g13
S'$\xf8\xd9p[\x1c"@'
p2295
tp2296
Rp2297
sg19
I0
sg20
g21
(S'\x07\xdd\t\x1d\x13\x12"\x05\xb1O'
p2298
tp2299
Rp2300
sg25
I0
sg26
g27
(g28
(I0
tp2301
g30
tp2302
Rp2303
(I1
(I2
tp2304
g36
I00
S':\x00\x00\x00r\x00\x00\x00'
p2305
tp2306
bsba(i__main__
FrameData
p2307
(dp2308
g6
g1299
sg8
g9
(g13
S'\xd0\xbaa?\xe0\x1f @'
p2309
tp2310
Rp2311
sg19
I0
sg20
g21
(S'\x07\xdd\t\x1d\x13\x12"\x05\xf11'
p2312
tp2313
Rp2314
sg25
I0
sg26
g27
(g28
(I0
tp2315
g30
tp2316
Rp2317
(I1
(I2
tp2318
g36
I00
S'9\x00\x00\x00r\x00\x00\x00'
p2319
tp2320
bsba(i__main__
FrameData
p2321
(dp2322
g6
g1299
sg8
g9
(g13
S'\xc0\n\x1f\x00\xc6H\x1c@'
p2323
tp2324
Rp2325
sg19
I0
sg20
g21
(S'\x07\xdd\t\x1d\x13\x12"\x06/\xa0'
p2326
tp2327
Rp2328
sg25
I0
sg26
g27
(g28
(I0
tp2329
g30
tp2330
Rp2331
(I1
(I2
tp2332
g36
I00
S'8\x00\x00\x00r\x00\x00\x00'
p2333
tp2334
bsba(i__main__
FrameData
p2335
(dp2336
g6
g1299
sg8
g9
(g13
S'9\xdcc\xb3\xbfT\x18@'
p2337
tp2338
Rp2339
sg19
I0
sg20
g21
(S'\x07\xdd\t\x1d\x13\x12"\x06ld'
p2340
tp2341
Rp2342
sg25
I0
sg26
g27
(g28
(I0
tp2343
g30
tp2344
Rp2345
(I1
(I2
tp2346
g36
I00
S'7\x00\x00\x00r\x00\x00\x00'
p2347
tp2348
bsba(i__main__
FrameData
p2349
(dp2350
g6
g1299
sg8
g9
(g13
S'\xf6/\x12_ee\x14@'
p2351
tp2352
Rp2353
sg19
I0
sg20
g21
(S'\x07\xdd\t\x1d\x13\x12"\x06\xeef'
p2354
tp2355
Rp2356
sg25
I0
sg26
g27
(g28
(I0
tp2357
g30
tp2358
Rp2359
(I1
(I2
tp2360
g36
I00
S'6\x00\x00\x00r\x00\x00\x00'
p2361
tp2362
bsba(i__main__
FrameData
p2363
(dp2364
g6
g1299
sg8
g9
(g13
S'\x07\xed\xaff\x0f~\x10@'
p2365
tp2366
Rp2367
sg19
I0
sg20
g21
(S'\x07\xdd\t\x1d\x13\x12"\x07q\xdc'
p2368
tp2369
Rp2370
sg25
I0
sg26
g27
(g28
(I0
tp2371
g30
tp2372
Rp2373
(I1
(I2
tp2374
g36
I00
S'5\x00\x00\x00r\x00\x00\x00'
p2375
tp2376
bsba(i__main__
FrameData
p2377
(dp2378
g6
g1299
sg8
g9
(g13
S'S[\xda:XL\t@'
p2379
tp2380
Rp2381
sg19
I0
sg20
g21
(S'\x07\xdd\t\x1d\x13\x12"\x08\x0c+'
p2382
tp2383
Rp2384
sg25
I0
sg26
g27
(g28
(I0
tp2385
g30
tp2386
Rp2387
(I1
(I2
tp2388
g36
I00
S'4\x00\x00\x00r\x00\x00\x00'
p2389
tp2390
bsba(i__main__
FrameData
p2391
(dp2392
g6
g1299
sg8
g9
(g13
S'\xa8\xf4\x97\x9bw\xe3\x01@'
p2393
tp2394
Rp2395
sg19
I0
sg20
g21
(S'\x07\xdd\t\x1d\x13\x12"\x08\x83?'
p2396
tp2397
Rp2398
sg25
I0
sg26
g27
(g28
(I0
tp2399
g30
tp2400
Rp2401
(I1
(I2
tp2402
g36
I00
S'3\x00\x00\x00r\x00\x00\x00'
p2403
tp2404
bsba(i__main__
FrameData
p2405
(dp2406
g6
g1299
sg8
g9
(g13
S'\xcd;\x7ff\x9e\xa0\xf6?'
p2407
tp2408
Rp2409
sg19
I0
sg20
g21
(S'\x07\xdd\t\x1d\x13\x12"\tE\xdf'
p2410
tp2411
Rp2412
sg25
I0
sg26
g27
(g28
(I0
tp2413
g30
tp2414
Rp2415
(I1
(I2
tp2416
g36
I00
S'2\x00\x00\x00r\x00\x00\x00'
p2417
tp2418
bsba(i__main__
FrameData
p2419
(dp2420
g6
g1299
sg8
g9
(g13
S'\x00\x00\x00\x00\x00\x00\xf0?'
p2421
tp2422
Rp2423
sg19
I0
sg20
g21
(S'\x07\xdd\t\x1d\x13\x12"\t\x84/'
p2424
tp2425
Rp2426
sg25
I0
sg26
g27
(g28
(I0
tp2427
g30
tp2428
Rp2429
(I1
(I2
tp2430
g36
I00
S'1\x00\x00\x00r\x00\x00\x00'
p2431
tp2432
bsba(i__main__
FrameData
p2433
(dp2434
g6
g1299
sg8
g9
(g13
S'\xcd;\x7ff\x9e\xa0\xf6?'
p2435
tp2436
Rp2437
sg19
I0
sg20
g21
(S'\x07\xdd\t\x1d\x13\x12"\n\x00\x1e'
p2438
tp2439
Rp2440
sg25
I0
sg26
g27
(g28
(I0
tp2441
g30
tp2442
Rp2443
(I1
(I2
tp2444
g36
I00
S'0\x00\x00\x00r\x00\x00\x00'
p2445
tp2446
bsba(i__main__
FrameData
p2447
(dp2448
g6
g1299
sg8
g9
(g13
S'\x00\x00\x00\x00\x00\x00\xf0?'
p2449
tp2450
Rp2451
sg19
I0
sg20
g21
(S'\x07\xdd\t\x1d\x13\x12#\x00\xb2\xcc'
p2452
tp2453
Rp2454
sg25
I0
sg26
g27
(g28
(I0
tp2455
g30
tp2456
Rp2457
(I1
(I2
tp2458
g36
I00
S'1\x00\x00\x00r\x00\x00\x00'
p2459
tp2460
bsba(i__main__
FrameData
p2461
(dp2462
g6
g1299
sg8
g9
(g13
S'\xcd;\x7ff\x9e\xa0\xf6?'
p2463
tp2464
Rp2465
sg19
I0
sg20
g21
(S'\x07\xdd\t\x1d\x13\x12#\x00\xd9\xd4'
p2466
tp2467
Rp2468
sg25
I0
sg26
g27
(g28
(I0
tp2469
g30
tp2470
Rp2471
(I1
(I2
tp2472
g36
I00
S'2\x00\x00\x00r\x00\x00\x00'
p2473
tp2474
bsba(i__main__
FrameData
p2475
(dp2476
g6
g1299
sg8
g9
(g13
S'\xa8\xf4\x97\x9bw\xe3\x01@'
p2477
tp2478
Rp2479
sg19
I0
sg20
g21
(S"\x07\xdd\t\x1d\x13\x12#\x01'\xb6"
p2480
tp2481
Rp2482
sg25
I0
sg26
g27
(g28
(I0
tp2483
g30
tp2484
Rp2485
(I1
(I2
tp2486
g36
I00
S'3\x00\x00\x00r\x00\x00\x00'
p2487
tp2488
bsba(i__main__
FrameData
p2489
(dp2490
g6
g1299
sg8
g9
(g13
S'S[\xda:XL\t@'
p2491
tp2492
Rp2493
sg19
I0
sg20
g21
(S'\x07\xdd\t\x1d\x13\x12#\x01n\xa5'
p2494
tp2495
Rp2496
sg25
I0
sg26
g27
(g28
(I0
tp2497
g30
tp2498
Rp2499
(I1
(I2
tp2500
g36
I00
S'4\x00\x00\x00r\x00\x00\x00'
p2501
tp2502
bsba(i__main__
FrameData
p2503
(dp2504
g6
g1299
sg8
g9
(g13
S'\x07\xed\xaff\x0f~\x10@'
p2505
tp2506
Rp2507
sg19
I0
sg20
g21
(S'\x07\xdd\t\x1d\x13\x12#\x01\x9d&'
p2508
tp2509
Rp2510
sg25
I0
sg26
g27
(g28
(I0
tp2511
g30
tp2512
Rp2513
(I1
(I2
tp2514
g36
I00
S'5\x00\x00\x00r\x00\x00\x00'
p2515
tp2516
bsba(i__main__
FrameData
p2517
(dp2518
g6
g1299
sg8
g9
(g13
S'9\xdcc\xb3\xbfT\x18@'
p2519
tp2520
Rp2521
sg19
I0
sg20
g21
(S'\x07\xdd\t\x1d\x13\x12#\x01\xeb\xeb'
p2522
tp2523
Rp2524
sg25
I0
sg26
g27
(g28
(I0
tp2525
g30
tp2526
Rp2527
(I1
(I2
tp2528
g36
I00
S'7\x00\x00\x00r\x00\x00\x00'
p2529
tp2530
bsba(i__main__
FrameData
p2531
(dp2532
g6
g1299
sg8
g9
(g13
S'\xc0\n\x1f\x00\xc6H\x1c@'
p2533
tp2534
Rp2535
sg19
I0
sg20
g21
(S'\x07\xdd\t\x1d\x13\x12#\x029\x84'
p2536
tp2537
Rp2538
sg25
I0
sg26
g27
(g28
(I0
tp2539
g30
tp2540
Rp2541
(I1
(I2
tp2542
g36
I00
S'8\x00\x00\x00r\x00\x00\x00'
p2543
tp2544
bsba(i__main__
FrameData
p2545
(dp2546
g6
g1299
sg8
g9
(g13
S'\xd0\xbaa?\xe0\x1f @'
p2547
tp2548
Rp2549
sg19
I0
sg20
g21
(S'\x07\xdd\t\x1d\x13\x12#\x02\xac\x16'
p2550
tp2551
Rp2552
sg25
I0
sg26
g27
(g28
(I0
tp2553
g30
tp2554
Rp2555
(I1
(I2
tp2556
g36
I00
S'9\x00\x00\x00r\x00\x00\x00'
p2557
tp2558
bsba(i__main__
FrameData
p2559
(dp2560
g6
g1299
sg8
g9
(g13
S'$\xf8\xd9p[\x1c"@'
p2561
tp2562
Rp2563
sg19
I0
sg20
g21
(S'\x07\xdd\t\x1d\x13\x12#\x02\xfc\xc8'
p2564
tp2565
Rp2566
sg25
I0
sg26
g27
(g28
(I0
tp2567
g30
tp2568
Rp2569
(I1
(I2
tp2570
g36
I00
S':\x00\x00\x00r\x00\x00\x00'
p2571
tp2572
bsba(i__main__
FrameData
p2573
(dp2574
g6
g1299
sg8
g9
(g13
S'\x00\x00\x00\x00\x00\x00$@'
p2575
tp2576
Rp2577
sg19
I0
sg20
g21
(S'\x07\xdd\t\x1d\x13\x12#\x03$L'
p2578
tp2579
Rp2580
sg25
I0
sg26
g27
(g28
(I0
tp2581
g30
tp2582
Rp2583
(I1
(I2
tp2584
g36
I00
S';\x00\x00\x00q\x00\x00\x00'
p2585
tp2586
bsba(i__main__
FrameData
p2587
(dp2588
g6
g1299
sg8
g9
(g13
S'\x00\x00\x00\x00\x00\x00&@'
p2589
tp2590
Rp2591
sg19
I0
sg20
g21
(S'\x07\xdd\t\x1d\x13\x12#\x03q\xf4'
p2592
tp2593
Rp2594
sg25
I0
sg26
g27
(g28
(I0
tp2595
g30
tp2596
Rp2597
(I1
(I2
tp2598
g36
I00
S'<\x00\x00\x00q\x00\x00\x00'
p2599
tp2600
bsba(i__main__
FrameData
p2601
(dp2602
g6
g1299
sg8
g9
(g13
S'&5w\xe2K\x15(@'
p2603
tp2604
Rp2605
sg19
I0
sg20
g21
(S'\x07\xdd\t\x1d\x13\x12#\x03\xbe\xee'
p2606
tp2607
Rp2608
sg25
I0
sg26
g27
(g28
(I0
tp2609
g30
tp2610
Rp2611
(I1
(I2
tp2612
g36
I00
S'=\x00\x00\x00p\x00\x00\x00'
p2613
tp2614
bsba(i__main__
FrameData
p2615
(dp2616
g6
g1214
sg8
g9
(g13
S'\xd2\xf1}\x82U\\&@'
p2617
tp2618
Rp2619
sg19
I0
sg20
g21
(S'\x07\xdd\t\x1d\x13\x12#\x03\xe8C'
p2620
tp2621
Rp2622
sg25
I0
sg26
g27
(g28
(I0
tp2623
g30
tp2624
Rp2625
(I1
(I2
tp2626
g36
I00
S'>\x00\x00\x00o\x00\x00\x00'
p2627
tp2628
bsba(i__main__
FrameData
p2629
(dp2630
g6
g1214
sg8
g9
(g13
S'~\xc4#,B\xf9"@'
p2631
tp2632
Rp2633
sg19
I0
sg20
g21
(S'\x07\xdd\t\x1d\x13\x12#\x041\xdb'
p2634
tp2635
Rp2636
sg25
I0
sg26
g27
(g28
(I0
tp2637
g30
tp2638
Rp2639
(I1
(I2
tp2640
g36
I00
S'@\x00\x00\x00n\x00\x00\x00'
p2641
tp2642
bsba(i__main__
FrameData
p2643
(dp2644
g6
g1214
sg8
g9
(g13
S'\xf3YaD+\xd8\x1c@'
p2645
tp2646
Rp2647
sg19
I0
sg20
g21
(S'\x07\xdd\t\x1d\x13\x12#\x04\x84\x8a'
p2648
tp2649
Rp2650
sg25
I0
sg26
g27
(g28
(I0
tp2651
g30
tp2652
Rp2653
(I1
(I2
tp2654
g36
I00
S'C\x00\x00\x00m\x00\x00\x00'
p2655
tp2656
bsba(i__main__
FrameData
p2657
(dp2658
g6
g1214
sg8
g9
(g13
S'\xe9\xfbv \xd5\x1e\x1d@'
p2659
tp2660
Rp2661
sg19
I0
sg20
g21
(S'\x07\xdd\t\x1d\x13\x12#\x04\xac\x0c'
p2662
tp2663
Rp2664
sg25
I0
sg26
g27
(g28
(I0
tp2665
g30
tp2666
Rp2667
(I1
(I2
tp2668
g36
I00
S'G\x00\x00\x00j\x00\x00\x00'
p2669
tp2670
bsba(i__main__
FrameData
p2671
(dp2672
g6
g1214
sg8
g9
(g13
S'\x00\x00\x00\x00\x00\x00 @'
p2673
tp2674
Rp2675
sg19
I0
sg20
g21
(S'\x07\xdd\t\x1d\x13\x12#\x04\xfa\xbc'
p2676
tp2677
Rp2678
sg25
I0
sg26
g27
(g28
(I0
tp2679
g30
tp2680
Rp2681
(I1
(I2
tp2682
g36
I00
S'I\x00\x00\x00i\x00\x00\x00'
p2683
tp2684
bsba(i__main__
FrameData
p2685
(dp2686
g6
g1214
sg8
g9
(g13
S'\x9a.\x90!hp"@'
p2687
tp2688
Rp2689
sg19
I0
sg20
g21
(S'\x07\xdd\t\x1d\x13\x12#\x05G\xa5'
p2690
tp2691
Rp2692
sg25
I0
sg26
g27
(g28
(I0
tp2693
g30
tp2694
Rp2695
(I1
(I2
tp2696
g36
I00
S'K\x00\x00\x00h\x00\x00\x00'
p2697
tp2698
bsba(i__main__
FrameData
p2699
(dp2700
g6
g1214
sg8
g9
(g13
S'\xfc\xeeci3\xd5*@'
p2701
tp2702
Rp2703
sg19
I0
sg20
g21
(S'\x07\xdd\t\x1d\x13\x12#\x05n\xc7'
p2704
tp2705
Rp2706
sg25
I0
sg26
g27
(g28
(I0
tp2707
g30
tp2708
Rp2709
(I1
(I2
tp2710
g36
I00
S'O\x00\x00\x00e\x00\x00\x00'
p2711
tp2712
bsba(i__main__
FrameData
p2713
(dp2714
g6
g1214
sg8
g9
(g13
S'8\xd8\xbc\n\x1b\x072@'
p2715
tp2716
Rp2717
sg19
I0
sg20
g21
(S'\x07\xdd\t\x1d\x13\x12#\x05\xc0`'
p2718
tp2719
Rp2720
sg25
I0
sg26
g27
(g28
(I0
tp2721
g30
tp2722
Rp2723
(I1
(I2
tp2724
g36
I00
S'S\x00\x00\x00b\x00\x00\x00'
p2725
tp2726
bsba(i__main__
FrameData
p2727
(dp2728
g6
g1157
sg8
g9
(g13
S'=\xf3\n\x8f\xe6\x1f4@'
p2729
tp2730
Rp2731
sg19
I0
sg20
g21
(S'\x07\xdd\t\x1d\x13\x12#\x05\xf5Q'
p2732
tp2733
Rp2734
sg25
I0
sg26
g27
(g28
(I0
tp2735
g30
tp2736
Rp2737
(I1
(I2
tp2738
g36
I00
S'W\x00\x00\x00`\x00\x00\x00'
p2739
tp2740
bsba(i__main__
FrameData
p2741
(dp2742
g6
g1157
sg8
g9
(g13
S'Mm\x9d\x8c\xc3\xec3@'
p2743
tp2744
Rp2745
sg19
I0
sg20
g21
(S'\x07\xdd\t\x1d\x13\x12#\x063\xf5'
p2746
tp2747
Rp2748
sg25
I0
sg26
g27
(g28
(I0
tp2749
g30
tp2750
Rp2751
(I1
(I2
tp2752
g36
I00
S'Z\x00\x00\x00_\x00\x00\x00'
p2753
tp2754
bsba(i__main__
FrameData
p2755
(dp2756
g6
g1157
sg8
g9
(g13
S'I\xe8[@\x93\x9d4@'
p2757
tp2758
Rp2759
sg19
I0
sg20
g21
(S'\x07\xdd\t\x1d\x13\x12#\x06x\xac'
p2760
tp2761
Rp2762
sg25
I0
sg26
g27
(g28
(I0
tp2763
g30
tp2764
Rp2765
(I1
(I2
tp2766
g36
I00
S'[\x00\x00\x00^\x00\x00\x00'
p2767
tp2768
bsba(i__main__
FrameData
p2769
(dp2770
g6
g7
sg8
g9
(g13
S'\x88\x80v\xd5\\\x974@'
p2771
tp2772
Rp2773
sg19
I0
sg20
g21
(S'\x07\xdd\t\x1d\x13\x12#\x06\xb8\xd1'
p2774
tp2775
Rp2776
sg25
I0
sg26
g27
(g28
(I0
tp2777
g30
tp2778
Rp2779
(I1
(I2
tp2780
g36
I00
S'\\\x00\x00\x00]\x00\x00\x00'
p2781
tp2782
bsba(i__main__
FrameData
p2783
(dp2784
g6
g7
sg8
g9
(g13
S'\xcey?\xdc\x9a?4@'
p2785
tp2786
Rp2787
sg19
I0
sg20
g21
(S'\x07\xdd\t\x1d\x13\x12#\x06\xf7\x92'
p2788
tp2789
Rp2790
sg25
I0
sg26
g27
(g28
(I0
tp2791
g30
tp2792
Rp2793
(I1
(I2
tp2794
g36
I00
S']\x00\x00\x00\\\x00\x00\x00'
p2795
tp2796
bsba(i__main__
FrameData
p2797
(dp2798
g6
g85
sg8
g9
(g13
S'\xcey?\xdc\x9a?4@'
p2799
tp2800
Rp2801
sg19
I0
sg20
g21
(S'\x07\xdd\t\x1d\x13\x12#\x07w\xfe'
p2802
tp2803
Rp2804
sg25
I0
sg26
g27
(g28
(I0
tp2805
g30
tp2806
Rp2807
(I1
(I2
tp2808
g36
I00
S'_\x00\x00\x00\\\x00\x00\x00'
p2809
tp2810
bsba(i__main__
FrameData
p2811
(dp2812
g6
g85
sg8
g9
(g13
S'A\x87b\xc62\xde2@'
p2813
tp2814
Rp2815
sg19
I0
sg20
g21
(S'\x07\xdd\t\x1d\x13\x12#\x07\xba\xbf'
p2816
tp2817
Rp2818
sg25
I0
sg26
g27
(g28
(I0
tp2819
g30
tp2820
Rp2821
(I1
(I2
tp2822
g36
I00
S'`\x00\x00\x00[\x00\x00\x00'
p2823
tp2824
bsba(i__main__
FrameData
p2825
(dp2826
g6
g85
sg8
g9
(g13
S'\xa8\xf4\x97\x9bw\xe31@'
p2827
tp2828
Rp2829
sg19
I0
sg20
g21
(S'\x07\xdd\t\x1d\x13\x12#\x08O\x0c'
p2830
tp2831
Rp2832
sg25
I0
sg26
g27
(g28
(I0
tp2833
g30
tp2834
Rp2835
(I1
(I2
tp2836
g36
I00
S'b\x00\x00\x00[\x00\x00\x00'
p2837
tp2838
bsba(i__main__
FrameData
p2839
(dp2840
g6
g85
sg8
g9
(g13
S'\x00\x00\x00\x00\x00\x001@'
p2841
tp2842
Rp2843
sg19
I0
sg20
g21
(S'\x07\xdd\t\x1d\x13\x12#\x08\x85{'
p2844
tp2845
Rp2846
sg25
I0
sg26
g27
(g28
(I0
tp2847
g30
tp2848
Rp2849
(I1
(I2
tp2850
g36
I00
S'b\x00\x00\x00Z\x00\x00\x00'
p2851
tp2852
bsba(i__main__
FrameData
p2853
(dp2854
g6
g85
sg8
g9
(g13
S'\xaa\xd9\xb1\xd3\x8d\x8d0@'
p2855
tp2856
Rp2857
sg19
I0
sg20
g21
(S'\x07\xdd\t\x1d\x13\x12#\x08\xca%'
p2858
tp2859
Rp2860
sg25
I0
sg26
g27
(g28
(I0
tp2861
g30
tp2862
Rp2863
(I1
(I2
tp2864
g36
I00
S'c\x00\x00\x00Z\x00\x00\x00'
p2865
tp2866
bsba(i__main__
FrameData
p2867
(dp2868
g6
g85
sg8
g9
(g13
S'p\xc4\x9d9\x8dv.@'
p2869
tp2870
Rp2871
sg19
I0
sg20
g21
(S'\x07\xdd\t\x1d\x13\x12#\t\x0f5'
p2872
tp2873
Rp2874
sg25
I0
sg26
g27
(g28
(I0
tp2875
g30
tp2876
Rp2877
(I1
(I2
tp2878
g36
I00
S'd\x00\x00\x00Y\x00\x00\x00'
p2879
tp2880
bsba(i__main__
FrameData
p2881
(dp2882
g6
g85
sg8
g9
(g13
S'/\xa4\xe3\\m\xbb-@'
p2883
tp2884
Rp2885
sg19
I0
sg20
g21
(S'\x07\xdd\t\x1d\x13\x12#\tM\xf3'
p2886
tp2887
Rp2888
sg25
I0
sg26
g27
(g28
(I0
tp2889
g30
tp2890
Rp2891
(I1
(I2
tp2892
g36
I00
S'e\x00\x00\x00Y\x00\x00\x00'
p2893
tp2894
bsba(i__main__
FrameData
p2895
(dp2896
g6
g85
sg8
g9
(g13
S'\x00\x00\x00\x00\x00\x00*@'
p2897
tp2898
Rp2899
sg19
I0
sg20
g21
(S'\x07\xdd\t\x1d\x13\x12#\t\x8dG'
p2900
tp2901
Rp2902
sg25
I0
sg26
g27
(g28
(I0
tp2903
g30
tp2904
Rp2905
(I1
(I2
tp2906
g36
I00
S'e\x00\x00\x00W\x00\x00\x00'
p2907
tp2908
bsba(i__main__
FrameData
p2909
(dp2910
g6
g85
sg8
g9
(g13
S'S[\xda:XL)@'
p2911
tp2912
Rp2913
sg19
I0
sg20
g21
(S'\x07\xdd\t\x1d\x13\x12#\t\xc4\xc1'
p2914
tp2915
Rp2916
sg25
I0
sg26
g27
(g28
(I0
tp2917
g30
tp2918
Rp2919
(I1
(I2
tp2920
g36
I00
S'f\x00\x00\x00W\x00\x00\x00'
p2921
tp2922
bsba(i__main__
FrameData
p2923
(dp2924
g6
g85
sg8
g9
(g13
S'\x8a\xe3\x07\x1a\x17\xbd(@'
p2925
tp2926
Rp2927
sg19
I0
sg20
g21
(S'\x07\xdd\t\x1d\x13\x12#\n\x07\xce'
p2928
tp2929
Rp2930
sg25
I0
sg26
g27
(g28
(I0
tp2931
g30
tp2932
Rp2933
(I1
(I2
tp2934
g36
I00
S'g\x00\x00\x00W\x00\x00\x00'
p2935
tp2936
bsba(i__main__
FrameData
p2937
(dp2938
g6
g85
sg8
g9
(g13
S'\xeb\x12\xb2\xbb\xb2\xcd&@'
p2939
tp2940
Rp2941
sg19
I0
sg20
g21
(S'\x07\xdd\t\x1d\x13\x12#\nG\xba'
p2942
tp2943
Rp2944
sg25
I0
sg26
g27
(g28
(I0
tp2945
g30
tp2946
Rp2947
(I1
(I2
tp2948
g36
I00
S'g\x00\x00\x00V\x00\x00\x00'
p2949
tp2950
bsba(i__main__
FrameData
p2951
(dp2952
g6
g85
sg8
g9
(g13
S'\xd2\xf1}\x82U\\&@'
p2953
tp2954
Rp2955
sg19
I0
sg20
g21
(S'\x07\xdd\t\x1d\x13\x12#\n\x95K'
p2956
tp2957
Rp2958
sg25
I0
sg26
g27
(g28
(I0
tp2959
g30
tp2960
Rp2961
(I1
(I2
tp2962
g36
I00
S'h\x00\x00\x00V\x00\x00\x00'
p2963
tp2964
bsba(i__main__
FrameData
p2965
(dp2966
g6
g85
sg8
g9
(g13
S'\x9a.\x90!hp"@'
p2967
tp2968
Rp2969
sg19
I0
sg20
g21
(S'\x07\xdd\t\x1d\x13\x12#\n\xc8\xb5'
p2970
tp2971
Rp2972
sg25
I0
sg26
g27
(g28
(I0
tp2973
g30
tp2974
Rp2975
(I1
(I2
tp2976
g36
I00
S'h\x00\x00\x00T\x00\x00\x00'
p2977
tp2978
bsba(i__main__
FrameData
p2979
(dp2980
g6
g85
sg8
g9
(g13
S'$\xf8\xd9p[\x1c"@'
p2981
tp2982
Rp2983
sg19
I0
sg20
g21
(S'\x07\xdd\t\x1d\x13\x12#\x0b\x11\x83'
p2984
tp2985
Rp2986
sg25
I0
sg26
g27
(g28
(I0
tp2987
g30
tp2988
Rp2989
(I1
(I2
tp2990
g36
I00
S'i\x00\x00\x00T\x00\x00\x00'
p2991
tp2992
bsba(i__main__
FrameData
p2993
(dp2994
g6
g85
sg8
g9
(g13
S'\xd0\xbaa?\xe0\x1f @'
p2995
tp2996
Rp2997
sg19
I0
sg20
g21
(S'\x07\xdd\t\x1d\x13\x12#\x0bZI'
p2998
tp2999
Rp3000
sg25
I0
sg26
g27
(g28
(I0
tp3001
g30
tp3002
Rp3003
(I1
(I2
tp3004
g36
I00
S'i\x00\x00\x00S\x00\x00\x00'
p3005
tp3006
bsba(i__main__
FrameData
p3007
(dp3008
g6
g85
sg8
g9
(g13
S'\x00\x00\x00\x00\x00\x00\x18@'
p3009
tp3010
Rp3011
sg19
I0
sg20
g21
(S'\x07\xdd\t\x1d\x13\x12#\x0b\xd6\x82'
p3012
tp3013
Rp3014
sg25
I0
sg26
g27
(g28
(I0
tp3015
g30
tp3016
Rp3017
(I1
(I2
tp3018
g36
I00
S'j\x00\x00\x00Q\x00\x00\x00'
p3019
tp3020
bsba(i__main__
FrameData
p3021
(dp3022
g6
g85
sg8
g9
(g13
S'\xf6/\x12_ee\x14@'
p3023
tp3024
Rp3025
sg19
I0
sg20
g21
(S'\x07\xdd\t\x1d\x13\x12#\x0c\x0e\xaa'
p3026
tp3027
Rp3028
sg25
I0
sg26
g27
(g28
(I0
tp3029
g30
tp3030
Rp3031
(I1
(I2
tp3032
g36
I00
S'k\x00\x00\x00P\x00\x00\x00'
p3033
tp3034
bsba(i__main__
FrameData
p3035
(dp3036
g6
g85
sg8
g9
(g13
S'\xcd;\x7ff\x9e\xa0\x06@'
p3037
tp3038
Rp3039
sg19
I0
sg20
g21
(S'\x07\xdd\t\x1d\x13\x12#\x0cqD'
p3040
tp3041
Rp3042
sg25
I0
sg26
g27
(g28
(I0
tp3043
g30
tp3044
Rp3045
(I1
(I2
tp3046
g36
I00
S'l\x00\x00\x00M\x00\x00\x00'
p3047
tp3048
bsba(i__main__
FrameData
p3049
(dp3050
g6
g85
sg8
g9
(g13
S'\xa8\xf4\x97\x9bw\xe3\x01@'
p3051
tp3052
Rp3053
sg19
I0
sg20
g21
(S'\x07\xdd\t\x1d\x13\x12#\x0c\x97\xe0'
p3054
tp3055
Rp3056
sg25
I0
sg26
g27
(g28
(I0
tp3057
g30
tp3058
Rp3059
(I1
(I2
tp3060
g36
I00
S'l\x00\x00\x00J\x00\x00\x00'
p3061
tp3062
bsba(i__main__
FrameData
p3063
(dp3064
g6
g85
sg8
g9
(g13
S'\xd9l\xdf\xccv\xf8\x10@'
p3065
tp3066
Rp3067
sg19
I0
sg20
g21
(S'\x07\xdd\t\x1d\x13\x12#\x0c\xd2K'
p3068
tp3069
Rp3070
sg25
I0
sg26
g27
(g28
(I0
tp3071
g30
tp3072
Rp3073
(I1
(I2
tp3074
g36
I00
S'm\x00\x00\x00H\x00\x00\x00'
p3075
tp3076
bsba(i__main__
FrameData
p3077
(dp3078
g6
g85
sg8
g9
(g13
S'\x00\xff\x9f\x99\xcc\x9c\x19@'
p3079
tp3080
Rp3081
sg19
I0
sg20
g21
(S'\x07\xdd\t\x1d\x13\x12#\r\x1c\xe6'
p3082
tp3083
Rp3084
sg25
I0
sg26
g27
(g28
(I0
tp3085
g30
tp3086
Rp3087
(I1
(I2
tp3088
g36
I00
S'n\x00\x00\x00F\x00\x00\x00'
p3089
tp3090
bsba(i__main__
FrameData
p3091
(dp3092
g6
g85
sg8
g9
(g13
S'\xc0\n\x1f\x00\xc6H\x1c@'
p3093
tp3094
Rp3095
sg19
I0
sg20
g21
(S'\x07\xdd\t\x1d\x13\x12#\r\\\x90'
p3096
tp3097
Rp3098
sg25
I0
sg26
g27
(g28
(I0
tp3099
g30
tp3100
Rp3101
(I1
(I2
tp3102
g36
I00
S'o\x00\x00\x00F\x00\x00\x00'
p3103
tp3104
bsba(i__main__
FrameData
p3105
(dp3106
g6
g85
sg8
g9
(g13
S'\x00\xff\x9f\x99\xcc\x9c\x19@'
p3107
tp3108
Rp3109
sg19
I0
sg20
g21
(S'\x07\xdd\t\x1d\x13\x12$\x01\xa3\x99'
p3110
tp3111
Rp3112
sg25
I0
sg26
g27
(g28
(I0
tp3113
g30
tp3114
Rp3115
(I1
(I2
tp3116
g36
I00
S'o\x00\x00\x00G\x00\x00\x00'
p3117
tp3118
bsba(i__main__
FrameData
p3119
(dp3120
g6
g85
sg8
g9
(g13
S'\xa2\xa3\xb3\r\xe5R\x17@'
p3121
tp3122
Rp3123
sg19
I0
sg20
g21
(S'\x07\xdd\t\x1d\x13\x12$\x01\xeb\x1c'
p3124
tp3125
Rp3126
sg25
I0
sg26
g27
(g28
(I0
tp3127
g30
tp3128
Rp3129
(I1
(I2
tp3130
g36
I00
S'o\x00\x00\x00H\x00\x00\x00'
p3131
tp3132
bsba(i__main__
FrameData
p3133
(dp3134
g6
g85
sg8
g9
(g13
S'\xd9l\xdf\xccv\xf8\x10@'
p3135
tp3136
Rp3137
sg19
I0
sg20
g21
(S'\x07\xdd\t\x1d\x13\x12$\x02:\x19'
p3138
tp3139
Rp3140
sg25
I0
sg26
g27
(g28
(I0
tp3141
g30
tp3142
Rp3143
(I1
(I2
tp3144
g36
I00
S'm\x00\x00\x00H\x00\x00\x00'
p3145
tp3146
bsba(i__main__
FrameData
p3147
(dp3148
g6
g85
sg8
g9
(g13
S'\xf3YaD+\xd8\x0c@'
p3149
tp3150
Rp3151
sg19
I0
sg20
g21
(S'\x07\xdd\t\x1d\x13\x12$\x02\x87V'
p3152
tp3153
Rp3154
sg25
I0
sg26
g27
(g28
(I0
tp3155
g30
tp3156
Rp3157
(I1
(I2
tp3158
g36
I00
S'm\x00\x00\x00I\x00\x00\x00'
p3159
tp3160
bsba(i__main__
FrameData
p3161
(dp3162
g6
g85
sg8
g9
(g13
S'S[\xda:XL\t@'
p3163
tp3164
Rp3165
sg19
I0
sg20
g21
(S'\x07\xdd\t\x1d\x13\x12$\x02\xadT'
p3166
tp3167
Rp3168
sg25
I0
sg26
g27
(g28
(I0
tp3169
g30
tp3170
Rp3171
(I1
(I2
tp3172
g36
I00
S'm\x00\x00\x00J\x00\x00\x00'
p3173
tp3174
bsba(i__main__
FrameData
p3175
(dp3176
g6
g85
sg8
g9
(g13
S'\x00\x00\x00\x00\x00\x00\x00@'
p3177
tp3178
Rp3179
sg19
I0
sg20
g21
(S'\x07\xdd\t\x1d\x13\x12$\x03Jh'
p3180
tp3181
Rp3182
sg25
I0
sg26
g27
(g28
(I0
tp3183
g30
tp3184
Rp3185
(I1
(I2
tp3186
g36
I00
S'l\x00\x00\x00K\x00\x00\x00'
p3187
tp3188
bsba(i__main__
FrameData
p3189
(dp3190
g6
g85
sg8
g9
(g13
S'\x00\x00\x00\x00\x00\x00\xf0?'
p3191
tp3192
Rp3193
sg19
I0
sg20
g21
(S'\x07\xdd\t\x1d\x13\x12$\x03\xbf\xaf'
p3194
tp3195
Rp3196
sg25
I0
sg26
g27
(g28
(I0
tp3197
g30
tp3198
Rp3199
(I1
(I2
tp3200
g36
I00
S'k\x00\x00\x00K\x00\x00\x00'
p3201
tp3202
bsba(i__main__
FrameData
p3203
(dp3204
g6
g85
sg8
g9
(g13
S'\x00\x00\x00\x00\x00\x00\xf0?'
p3205
tp3206
Rp3207
sg19
I0
sg20
g21
(S'\x07\xdd\t\x1d\x13\x12$\x04\x0e+'
p3208
tp3209
Rp3210
sg25
I0
sg26
g27
(g28
(I0
tp3211
g30
tp3212
Rp3213
(I1
(I2
tp3214
g36
I00
S'j\x00\x00\x00L\x00\x00\x00'
p3215
tp3216
bsba(i__main__
FrameData
p3217
(dp3218
g6
g85
sg8
g9
(g13
S'\xa8\xf4\x97\x9bw\xe3\x01@'
p3219
tp3220
Rp3221
sg19
I0
sg20
g21
(S'\x07\xdd\t\x1d\x13\x12$\x04s['
p3222
tp3223
Rp3224
sg25
I0
sg26
g27
(g28
(I0
tp3225
g30
tp3226
Rp3227
(I1
(I2
tp3228
g36
I00
S'h\x00\x00\x00L\x00\x00\x00'
p3229
tp3230
bsba(i__main__
FrameData
p3231
(dp3232
g6
g85
sg8
g9
(g13
S'\xf3YaD+\xd8\x0c@'
p3233
tp3234
Rp3235
sg19
I0
sg20
g21
(S'\x07\xdd\t\x1d\x13\x12$\x057W'
p3236
tp3237
Rp3238
sg25
I0
sg26
g27
(g28
(I0
tp3239
g30
tp3240
Rp3241
(I1
(I2
tp3242
g36
I00
S'g\x00\x00\x00M\x00\x00\x00'
p3243
tp3244
bsba(i__main__
FrameData
p3245
(dp3246
g6
g85
sg8
g9
(g13
S'\xa8\xf4\x97\x9bw\xe3\x11@'
p3247
tp3248
Rp3249
sg19
I0
sg20
g21
(S'\x07\xdd\t\x1d\x13\x12$\x05\x87\x82'
p3250
tp3251
Rp3252
sg25
I0
sg26
g27
(g28
(I0
tp3253
g30
tp3254
Rp3255
(I1
(I2
tp3256
g36
I00
S'f\x00\x00\x00M\x00\x00\x00'
p3257
tp3258
bsba(i__main__
FrameData
p3259
(dp3260
g6
g85
sg8
g9
(g13
S'\xf3\xd9\xa8\xa4h\x8a\x15@'
p3261
tp3262
Rp3263
sg19
I0
sg20
g21
(S'\x07\xdd\t\x1d\x13\x12$\x05\xf9J'
p3264
tp3265
Rp3266
sg25
I0
sg26
g27
(g28
(I0
tp3267
g30
tp3268
Rp3269
(I1
(I2
tp3270
g36
I00
S'e\x00\x00\x00M\x00\x00\x00'
p3271
tp3272
bsba(i__main__
FrameData
p3273
(dp3274
g6
g85
sg8
g9
(g13
S'S[\xda:XL\x19@'
p3275
tp3276
Rp3277
sg19
I0
sg20
g21
(S'\x07\xdd\t\x1d\x13\x12$\x06J\x8f'
p3278
tp3279
Rp3280
sg25
I0
sg26
g27
(g28
(I0
tp3281
g30
tp3282
Rp3283
(I1
(I2
tp3284
g36
I00
S'd\x00\x00\x00M\x00\x00\x00'
p3285
tp3286
bsba(i__main__
FrameData
p3287
(dp3288
g6
g85
sg8
g9
(g13
S'\xa3\x14\xae\xa8\x87\x16!@'
p3289
tp3290
Rp3291
sg19
I0
sg20
g21
(S'\x07\xdd\t\x1d\x13\x12$\x06\x81\xa6'
p3292
tp3293
Rp3294
sg25
I0
sg26
g27
(g28
(I0
tp3295
g30
tp3296
Rp3297
(I1
(I2
tp3298
g36
I00
S'b\x00\x00\x00N\x00\x00\x00'
p3299
tp3300
bsba(i__main__
FrameData
p3301
(dp3302
g6
g85
sg8
g9
(g13
S'~\xc4#,B\xf9"@'
p3303
tp3304
Rp3305
sg19
I0
sg20
g21
(S'\x07\xdd\t\x1d\x13\x12$\x06\xbf.'
p3306
tp3307
Rp3308
sg25
I0
sg26
g27
(g28
(I0
tp3309
g30
tp3310
Rp3311
(I1
(I2
tp3312
g36
I00
S'a\x00\x00\x00N\x00\x00\x00'
p3313
tp3314
bsba(i__main__
FrameData
p3315
(dp3316
g6
g85
sg8
g9
(g13
S'\xeb\x12\xb2\xbb\xb2\xcd&@'
p3317
tp3318
Rp3319
sg19
I0
sg20
g21
(S'\x07\xdd\t\x1d\x13\x12$\x07\r`'
p3320
tp3321
Rp3322
sg25
I0
sg26
g27
(g28
(I0
tp3323
g30
tp3324
Rp3325
(I1
(I2
tp3326
g36
I00
S'_\x00\x00\x00N\x00\x00\x00'
p3327
tp3328
bsba(i__main__
FrameData
p3329
(dp3330
g6
g7
sg8
g9
(g13
S'\xeb\x12\xb2\xbb\xb2\xcd&@'
p3331
tp3332
Rp3333
sg19
I0
sg20
g21
(S'\x07\xdd\t\x1d\x13\x12$\x07?T'
p3334
tp3335
Rp3336
sg25
I0
sg26
g27
(g28
(I0
tp3337
g30
tp3338
Rp3339
(I1
(I2
tp3340
g36
I00
S']\x00\x00\x00N\x00\x00\x00'
p3341
tp3342
bsba(i__main__
FrameData
p3343
(dp3344
g6
g7
sg8
g9
(g13
S'~\xc4#,B\xf9"@'
p3345
tp3346
Rp3347
sg19
I0
sg20
g21
(S'\x07\xdd\t\x1d\x13\x12$\x07\x80\xd9'
p3348
tp3349
Rp3350
sg25
I0
sg26
g27
(g28
(I0
tp3351
g30
tp3352
Rp3353
(I1
(I2
tp3354
g36
I00
S'[\x00\x00\x00N\x00\x00\x00'
p3355
tp3356
bsba(i__main__
FrameData
p3357
(dp3358
g6
g7
sg8
g9
(g13
S'p\xc4\x9d9\x8dv\x1e@'
p3359
tp3360
Rp3361
sg19
I0
sg20
g21
(S'\x07\xdd\t\x1d\x13\x12$\x07\xcf\xbd'
p3362
tp3363
Rp3364
sg25
I0
sg26
g27
(g28
(I0
tp3365
g30
tp3366
Rp3367
(I1
(I2
tp3368
g36
I00
S'Y\x00\x00\x00N\x00\x00\x00'
p3369
tp3370
bsba(i__main__
FrameData
p3371
(dp3372
g6
g7
sg8
g9
(g13
S'\xa2\xa3\xb3\r\xe5R\x17@'
p3373
tp3374
Rp3375
sg19
I0
sg20
g21
(S'\x07\xdd\t\x1d\x13\x12$\x08\x08r'
p3376
tp3377
Rp3378
sg25
I0
sg26
g27
(g28
(I0
tp3379
g30
tp3380
Rp3381
(I1
(I2
tp3382
g36
I00
S'W\x00\x00\x00N\x00\x00\x00'
p3383
tp3384
bsba(i__main__
FrameData
p3385
(dp3386
g6
g7
sg8
g9
(g13
S'\xd9l\xdf\xccv\xf8\x10@'
p3387
tp3388
Rp3389
sg19
I0
sg20
g21
(S'\x07\xdd\t\x1d\x13\x12$\x08M\x05'
p3390
tp3391
Rp3392
sg25
I0
sg26
g27
(g28
(I0
tp3393
g30
tp3394
Rp3395
(I1
(I2
tp3396
g36
I00
S'U\x00\x00\x00N\x00\x00\x00'
p3397
tp3398
bsba(i__main__
FrameData
p3399
(dp3400
g6
g7
sg8
g9
(g13
S'S[\xda:XL\t@'
p3401
tp3402
Rp3403
sg19
I0
sg20
g21
(S'\x07\xdd\t\x1d\x13\x12$\x08\x86\xd6'
p3404
tp3405
Rp3406
sg25
I0
sg26
g27
(g28
(I0
tp3407
g30
tp3408
Rp3409
(I1
(I2
tp3410
g36
I00
S'S\x00\x00\x00N\x00\x00\x00'
p3411
tp3412
bsba(i__main__
FrameData
p3413
(dp3414
g6
g7
sg8
g9
(g13
S'\x00\x00\x00\x00\x00\x00\x08@'
p3415
tp3416
Rp3417
sg19
I0
sg20
g21
(S'\x07\xdd\t\x1d\x13\x12$\x08\xccj'
p3418
tp3419
Rp3420
sg25
I0
sg26
g27
(g28
(I0
tp3421
g30
tp3422
Rp3423
(I1
(I2
tp3424
g36
I00
S'R\x00\x00\x00N\x00\x00\x00'
p3425
tp3426
bsba(i__main__
FrameData
p3427
(dp3428
g6
g7
sg8
g9
(g13
S'\xf3YaD+\xd8\x0c@'
p3429
tp3430
Rp3431
sg19
I0
sg20
g21
(S'\x07\xdd\t\x1d\x13\x12$\t\t\xf9'
p3432
tp3433
Rp3434
sg25
I0
sg26
g27
(g28
(I0
tp3435
g30
tp3436
Rp3437
(I1
(I2
tp3438
g36
I00
S'P\x00\x00\x00N\x00\x00\x00'
p3439
tp3440
bsba(i__main__
FrameData
p3441
(dp3442
g6
g7
sg8
g9
(g13
S'\xd9l\xdf\xccv\xf8\x10@'
p3443
tp3444
Rp3445
sg19
I0
sg20
g21
(S'\x07\xdd\t\x1d\x13\x12$\tJ\x80'
p3446
tp3447
Rp3448
sg25
I0
sg26
g27
(g28
(I0
tp3449
g30
tp3450
Rp3451
(I1
(I2
tp3452
g36
I00
S'O\x00\x00\x00N\x00\x00\x00'
p3453
tp3454
bsba(i__main__
FrameData
p3455
(dp3456
g6
g7
sg8
g9
(g13
S'\x00\x00\x00\x00\x00\x00\x14@'
p3457
tp3458
Rp3459
sg19
I0
sg20
g21
(S'\x07\xdd\t\x1d\x13\x12$\t\x8a\xb1'
p3460
tp3461
Rp3462
sg25
I0
sg26
g27
(g28
(I0
tp3463
g30
tp3464
Rp3465
(I1
(I2
tp3466
g36
I00
S'N\x00\x00\x00N\x00\x00\x00'
p3467
tp3468
bsba(i__main__
FrameData
p3469
(dp3470
g6
g7
sg8
g9
(g13
S'\xa2\xa3\xb3\r\xe5R\x17@'
p3471
tp3472
Rp3473
sg19
I0
sg20
g21
(S'\x07\xdd\t\x1d\x13\x12$\t\xcf\xfc'
p3474
tp3475
Rp3476
sg25
I0
sg26
g27
(g28
(I0
tp3477
g30
tp3478
Rp3479
(I1
(I2
tp3480
g36
I00
S'M\x00\x00\x00N\x00\x00\x00'
p3481
tp3482
bsba(i__main__
FrameData
p3483
(dp3484
g6
g7
sg8
g9
(g13
S'\xfc\xeeci3\xd5\x1a@'
p3485
tp3486
Rp3487
sg19
I0
sg20
g21
(S'\x07\xdd\t\x1d\x13\x12$\n\r\x81'
p3488
tp3489
Rp3490
sg25
I0
sg26
g27
(g28
(I0
tp3491
g30
tp3492
Rp3493
(I1
(I2
tp3494
g36
I00
S'L\x00\x00\x00N\x00\x00\x00'
p3495
tp3496
bsba(i__main__
FrameData
p3497
(dp3498
g6
g7
sg8
g9
(g13
S'p\xc4\x9d9\x8dv\x1e@'
p3499
tp3500
Rp3501
sg19
I0
sg20
g21
(S'\x07\xdd\t\x1d\x13\x12$\nU\xba'
p3502
tp3503
Rp3504
sg25
I0
sg26
g27
(g28
(I0
tp3505
g30
tp3506
Rp3507
(I1
(I2
tp3508
g36
I00
S'K\x00\x00\x00N\x00\x00\x00'
p3509
tp3510
bsba(i__main__
FrameData
p3511
(dp3512
g6
g7
sg8
g9
(g13
S'\xa3\x14\xae\xa8\x87\x16!@'
p3513
tp3514
Rp3515
sg19
I0
sg20
g21
(S'\x07\xdd\t\x1d\x13\x12$\n\x945'
p3516
tp3517
Rp3518
sg25
I0
sg26
g27
(g28
(I0
tp3519
g30
tp3520
Rp3521
(I1
(I2
tp3522
g36
I00
S'J\x00\x00\x00N\x00\x00\x00'
p3523
tp3524
bsba(i__main__
FrameData
p3525
(dp3526
g6
g7
sg8
g9
(g13
S'7\xf9\xcf\xdao\xe1$@'
p3527
tp3528
Rp3529
sg19
I0
sg20
g21
(S'\x07\xdd\t\x1d\x13\x12$\n\xf0e'
p3530
tp3531
Rp3532
sg25
I0
sg26
g27
(g28
(I0
tp3533
g30
tp3534
Rp3535
(I1
(I2
tp3536
g36
I00
S'H\x00\x00\x00N\x00\x00\x00'
p3537
tp3538
bsba(i__main__
FrameData
p3539
(dp3540
g6
g7
sg8
g9
(g13
S'\xeb\x12\xb2\xbb\xb2\xcd&@'
p3541
tp3542
Rp3543
sg19
I0
sg20
g21
(S'\x07\xdd\t\x1d\x13\x12$\x0b\x11\xc8'
p3544
tp3545
Rp3546
sg25
I0
sg26
g27
(g28
(I0
tp3547
g30
tp3548
Rp3549
(I1
(I2
tp3550
g36
I00
S'G\x00\x00\x00N\x00\x00\x00'
p3551
tp3552
bsba(i__main__
FrameData
p3553
(dp3554
g6
S'e'
p3555
sg8
g9
(g13
S'\xd2\xf1}\x82U\\&@'
p3556
tp3557
Rp3558
sg19
I0
sg20
g21
(S'\x07\xdd\t\x1d\x13\x12$\x0bd\xbf'
p3559
tp3560
Rp3561
sg25
I0
sg26
g27
(g28
(I0
tp3562
g30
tp3563
Rp3564
(I1
(I2
tp3565
g36
I00
S'F\x00\x00\x00N\x00\x00\x00'
p3566
tp3567
bsba(i__main__
FrameData
p3568
(dp3569
g6
g3555
sg8
g9
(g13
S'\xf0)#L\x89\x19$@'
p3570
tp3571
Rp3572
sg19
I0
sg20
g21
(S'\x07\xdd\t\x1d\x13\x12$\x0b\xb0\x9e'
p3573
tp3574
Rp3575
sg25
I0
sg26
g27
(g28
(I0
tp3576
g30
tp3577
Rp3578
(I1
(I2
tp3579
g36
I00
S'E\x00\x00\x00M\x00\x00\x00'
p3580
tp3581
bsba(i__main__
FrameData
p3582
(dp3583
g6
g3555
sg8
g9
(g13
S'$\xf8\xd9p[\x1c"@'
p3584
tp3585
Rp3586
sg19
I0
sg20
g21
(S'\x07\xdd\t\x1d\x13\x12$\x0b\xdb@'
p3587
tp3588
Rp3589
sg25
I0
sg26
g27
(g28
(I0
tp3590
g30
tp3591
Rp3592
(I1
(I2
tp3593
g36
I00
S'D\x00\x00\x00M\x00\x00\x00'
p3594
tp3595
bsba(i__main__
FrameData
p3596
(dp3597
g6
g3555
sg8
g9
(g13
S'\xd0\xbaa?\xe0\x1f @'
p3598
tp3599
Rp3600
sg19
I0
sg20
g21
(S'\x07\xdd\t\x1d\x13\x12$\x0c)\xf1'
p3601
tp3602
Rp3603
sg25
I0
sg26
g27
(g28
(I0
tp3604
g30
tp3605
Rp3606
(I1
(I2
tp3607
g36
I00
S'C\x00\x00\x00M\x00\x00\x00'
p3608
tp3609
bsba(i__main__
FrameData
p3610
(dp3611
g6
g3555
sg8
g9
(g13
S'\xc0\n\x1f\x00\xc6H\x1c@'
p3612
tp3613
Rp3614
sg19
I0
sg20
g21
(S'\x07\xdd\t\x1d\x13\x12$\x0c\x9c\xb5'
p3615
tp3616
Rp3617
sg25
I0
sg26
g27
(g28
(I0
tp3618
g30
tp3619
Rp3620
(I1
(I2
tp3621
g36
I00
S'B\x00\x00\x00M\x00\x00\x00'
p3622
tp3623
bsba(i__main__
FrameData
p3624
(dp3625
g6
g3555
sg8
g9
(g13
S'9\xdcc\xb3\xbfT\x18@'
p3626
tp3627
Rp3628
sg19
I0
sg20
g21
(S'\x07\xdd\t\x1d\x13\x12$\r\x1bg'
p3629
tp3630
Rp3631
sg25
I0
sg26
g27
(g28
(I0
tp3632
g30
tp3633
Rp3634
(I1
(I2
tp3635
g36
I00
S'A\x00\x00\x00M\x00\x00\x00'
p3636
tp3637
bsba(i__main__
FrameData
p3638
(dp3639
g6
g3555
sg8
g9
(g13
S'\xf6/\x12_ee\x14@'
p3640
tp3641
Rp3642
sg19
I0
sg20
g21
(S'\x07\xdd\t\x1d\x13\x12$\r\xe0/'
p3643
tp3644
Rp3645
sg25
I0
sg26
g27
(g28
(I0
tp3646
g30
tp3647
Rp3648
(I1
(I2
tp3649
g36
I00
S'@\x00\x00\x00M\x00\x00\x00'
p3650
tp3651
bsba(i__main__
FrameData
p3652
(dp3653
g6
g3555
sg8
g9
(g13
S'\xf6/\x12_ee\x14@'
p3654
tp3655
Rp3656
sg19
I0
sg20
g21
(S'\x07\xdd\t\x1d\x13\x12$\x0e%\xea'
p3657
tp3658
Rp3659
sg25
I0
sg26
g27
(g28
(I0
tp3660
g30
tp3661
Rp3662
(I1
(I2
tp3663
g36
I00
S'@\x00\x00\x00K\x00\x00\x00'
p3664
tp3665
bsba(i__main__
FrameData
p3666
(dp3667
g6
g3555
sg8
g9
(g13
S'\x07\xed\xaff\x0f~\x10@'
p3668
tp3669
Rp3670
sg19
I0
sg20
g21
(S'\x07\xdd\t\x1d\x13\x12$\x0e\xad\xa4'
p3671
tp3672
Rp3673
sg25
I0
sg26
g27
(g28
(I0
tp3674
g30
tp3675
Rp3676
(I1
(I2
tp3677
g36
I00
S'?\x00\x00\x00K\x00\x00\x00'
p3678
tp3679
bsba(i__main__
FrameData
p3680
(dp3681
g6
g3555
sg8
g9
(g13
S'\xa8\xf4\x97\x9bw\xe3\x11@'
p3682
tp3683
Rp3684
sg19
I0
sg20
g21
(S'\x07\xdd\t\x1d\x13\x12$\x0e\xe8y'
p3685
tp3686
Rp3687
sg25
I0
sg26
g27
(g28
(I0
tp3688
g30
tp3689
Rp3690
(I1
(I2
tp3691
g36
I00
S'?\x00\x00\x00J\x00\x00\x00'
p3692
tp3693
bsba(i__main__
FrameData
p3694
(dp3695
g6
g3555
sg8
g9
(g13
S'\xd9l\xdf\xccv\xf8\x10@'
p3696
tp3697
Rp3698
sg19
I0
sg20
g21
(S'\x07\xdd\t\x1d\x13\x12%\x00Bd'
p3699
tp3700
Rp3701
sg25
I0
sg26
g27
(g28
(I0
tp3702
g30
tp3703
Rp3704
(I1
(I2
tp3705
g36
I00
S'>\x00\x00\x00I\x00\x00\x00'
p3706
tp3707
bsba(i__main__
FrameData
p3708
(dp3709
g6
g3555
sg8
g9
(g13
S'\xa8\xf4\x97\x9bw\xe3\x11@'
p3710
tp3711
Rp3712
sg19
I0
sg20
g21
(S'\x07\xdd\t\x1d\x13\x12%\x03\x02\xe5'
p3713
tp3714
Rp3715
sg25
I0
sg26
g27
(g28
(I0
tp3716
g30
tp3717
Rp3718
(I1
(I2
tp3719
g36
I00
S'?\x00\x00\x00J\x00\x00\x00'
p3720
tp3721
bsba(i__main__
FrameData
p3722
(dp3723
g6
g3555
sg8
g9
(g13
S'\xf3\xd9\xa8\xa4h\x8a\x15@'
p3724
tp3725
Rp3726
sg19
I0
sg20
g21
(S'\x07\xdd\t\x1d\x13\x12%\x03xN'
p3727
tp3728
Rp3729
sg25
I0
sg26
g27
(g28
(I0
tp3730
g30
tp3731
Rp3732
(I1
(I2
tp3733
g36
I00
S'@\x00\x00\x00J\x00\x00\x00'
p3734
tp3735
bsba(i__main__
FrameData
p3736
(dp3737
g6
g3555
sg8
g9
(g13
S'\xf6/\x12_ee\x14@'
p3738
tp3739
Rp3740
sg19
I0
sg20
g21
(S'\x07\xdd\t\x1d\x13\x12%\x04\x15\x94'
p3741
tp3742
Rp3743
sg25
I0
sg26
g27
(g28
(I0
tp3744
g30
tp3745
Rp3746
(I1
(I2
tp3747
g36
I00
S'@\x00\x00\x00K\x00\x00\x00'
p3748
tp3749
bsba(i__main__
FrameData
p3750
(dp3751
g6
g3555
sg8
g9
(g13
S'\xc0\n\x1f\x00\xc6H\x1c@'
p3752
tp3753
Rp3754
sg19
I0
sg20
g21
(S'\x07\xdd\t\x1d\x13\x12%\x04\xd8\xc4'
p3755
tp3756
Rp3757
sg25
I0
sg26
g27
(g28
(I0
tp3758
g30
tp3759
Rp3760
(I1
(I2
tp3761
g36
I00
S'B\x00\x00\x00K\x00\x00\x00'
p3762
tp3763
bsba(i__main__
FrameData
p3764
(dp3765
g6
g3555
sg8
g9
(g13
S'\xd0\xbaa?\xe0\x1f @'
p3766
tp3767
Rp3768
sg19
I0
sg20
g21
(S'\x07\xdd\t\x1d\x13\x12%\x05NP'
p3769
tp3770
Rp3771
sg25
I0
sg26
g27
(g28
(I0
tp3772
g30
tp3773
Rp3774
(I1
(I2
tp3775
g36
I00
S'C\x00\x00\x00K\x00\x00\x00'
p3776
tp3777
bsba(i__main__
FrameData
p3778
(dp3779
g6
g3555
sg8
g9
(g13
S'$\xf8\xd9p[\x1c"@'
p3780
tp3781
Rp3782
sg19
I0
sg20
g21
(S'\x07\xdd\t\x1d\x13\x12%\x06\x05Y'
p3783
tp3784
Rp3785
sg25
I0
sg26
g27
(g28
(I0
tp3786
g30
tp3787
Rp3788
(I1
(I2
tp3789
g36
I00
S'D\x00\x00\x00K\x00\x00\x00'
p3790
tp3791
bsba(i__main__
FrameData
p3792
(dp3793
g6
g3555
sg8
g9
(g13
S'\xf0)#L\x89\x19$@'
p3794
tp3795
Rp3796
sg19
I0
sg20
g21
(S'\x07\xdd\t\x1d\x13\x12%\x06\xe5\x91'
p3797
tp3798
Rp3799
sg25
I0
sg26
g27
(g28
(I0
tp3800
g30
tp3801
Rp3802
(I1
(I2
tp3803
g36
I00
S'E\x00\x00\x00K\x00\x00\x00'
p3804
tp3805
bsba(i__main__
FrameData
p3806
(dp3807
g6
g3555
sg8
g9
(g13
S'H\xaa*\x8f9\x17&@'
p3808
tp3809
Rp3810
sg19
I0
sg20
g21
(S'\x07\xdd\t\x1d\x13\x12%\x07\x0b\x1d'
p3811
tp3812
Rp3813
sg25
I0
sg26
g27
(g28
(I0
tp3814
g30
tp3815
Rp3816
(I1
(I2
tp3817
g36
I00
S'F\x00\x00\x00K\x00\x00\x00'
p3818
tp3819
bsba(i__main__
FrameData
p3820
(dp3821
g6
g7
sg8
g9
(g13
S'\x00\x00\x00\x00\x00\x00&@'
p3822
tp3823
Rp3824
sg19
I0
sg20
g21
(S'\x07\xdd\t\x1d\x13\x12%\x07G\xe0'
p3825
tp3826
Rp3827
sg25
I0
sg26
g27
(g28
(I0
tp3828
g30
tp3829
Rp3830
(I1
(I2
tp3831
g36
I00
S'G\x00\x00\x00K\x00\x00\x00'
p3832
tp3833
bsba(i__main__
FrameData
p3834
(dp3835
g6
g7
sg8
g9
(g13
S'\x00\x00\x00\x00\x00\x00$@'
p3836
tp3837
Rp3838
sg19
I0
sg20
g21
(S'\x07\xdd\t\x1d\x13\x12%\x07\x8c\n'
p3839
tp3840
Rp3841
sg25
I0
sg26
g27
(g28
(I0
tp3842
g30
tp3843
Rp3844
(I1
(I2
tp3845
g36
I00
S'H\x00\x00\x00K\x00\x00\x00'
p3846
tp3847
bsba(i__main__
FrameData
p3848
(dp3849
g6
g7
sg8
g9
(g13
S'\x00\x00\x00\x00\x00\x00"@'
p3850
tp3851
Rp3852
sg19
I0
sg20
g21
(S'\x07\xdd\t\x1d\x13\x12%\x07\xcf{'
p3853
tp3854
Rp3855
sg25
I0
sg26
g27
(g28
(I0
tp3856
g30
tp3857
Rp3858
(I1
(I2
tp3859
g36
I00
S'I\x00\x00\x00K\x00\x00\x00'
p3860
tp3861
bsba(i__main__
FrameData
p3862
(dp3863
g6
g7
sg8
g9
(g13
S'\x00\x00\x00\x00\x00\x00 @'
p3864
tp3865
Rp3866
sg19
I0
sg20
g21
(S'\x07\xdd\t\x1d\x13\x12%\x08\x0c$'
p3867
tp3868
Rp3869
sg25
I0
sg26
g27
(g28
(I0
tp3870
g30
tp3871
Rp3872
(I1
(I2
tp3873
g36
I00
S'J\x00\x00\x00K\x00\x00\x00'
p3874
tp3875
bsba(i__main__
FrameData
p3876
(dp3877
g6
g7
sg8
g9
(g13
S'\x00\x00\x00\x00\x00\x00\x1c@'
p3878
tp3879
Rp3880
sg19
I0
sg20
g21
(S'\x07\xdd\t\x1d\x13\x12%\x08a\xbd'
p3881
tp3882
Rp3883
sg25
I0
sg26
g27
(g28
(I0
tp3884
g30
tp3885
Rp3886
(I1
(I2
tp3887
g36
I00
S'K\x00\x00\x00K\x00\x00\x00'
p3888
tp3889
bsba(i__main__
FrameData
p3890
(dp3891
g6
g7
sg8
g9
(g13
S'\x00\x00\x00\x00\x00\x00\x14@'
p3892
tp3893
Rp3894
sg19
I0
sg20
g21
(S'\x07\xdd\t\x1d\x13\x12%\x08\x92\xdf'
p3895
tp3896
Rp3897
sg25
I0
sg26
g27
(g28
(I0
tp3898
g30
tp3899
Rp3900
(I1
(I2
tp3901
g36
I00
S'M\x00\x00\x00K\x00\x00\x00'
p3902
tp3903
bsba(i__main__
FrameData
p3904
(dp3905
g6
g7
sg8
g9
(g13
S'\x00\x00\x00\x00\x00\x00\x10@'
p3906
tp3907
Rp3908
sg19
I0
sg20
g21
(S'\x07\xdd\t\x1d\x13\x12%\x08\xce\xe2'
p3909
tp3910
Rp3911
sg25
I0
sg26
g27
(g28
(I0
tp3912
g30
tp3913
Rp3914
(I1
(I2
tp3915
g36
I00
S'N\x00\x00\x00K\x00\x00\x00'
p3916
tp3917
bsba(i__main__
FrameData
p3918
(dp3919
g6
g7
sg8
g9
(g13
S'\x00\x00\x00\x00\x00\x00\x00@'
p3920
tp3921
Rp3922
sg19
I0
sg20
g21
(S'\x07\xdd\t\x1d\x13\x12%\t.\xff'
p3923
tp3924
Rp3925
sg25
I0
sg26
g27
(g28
(I0
tp3926
g30
tp3927
Rp3928
(I1
(I2
tp3929
g36
I00
S'P\x00\x00\x00K\x00\x00\x00'
p3930
tp3931
bsba(i__main__
FrameData
p3932
(dp3933
g6
g7
sg8
g9
(g13
S'\x00\x00\x00\x00\x00\x00\xf0?'
p3934
tp3935
Rp3936
sg19
I0
sg20
g21
(S'\x07\xdd\t\x1d\x13\x12%\t\x9f1'
p3937
tp3938
Rp3939
sg25
I0
sg26
g27
(g28
(I0
tp3940
g30
tp3941
Rp3942
(I1
(I2
tp3943
g36
I00
S'Q\x00\x00\x00K\x00\x00\x00'
p3944
tp3945
bsba(i__main__
FrameData
p3946
(dp3947
g6
g7
sg8
g9
(g13
S'\x00\x00\x00\x00\x00\x00\xf0?'
p3948
tp3949
Rp3950
sg19
I0
sg20
g21
(S'\x07\xdd\t\x1d\x13\x12%\t\xdf_'
p3951
tp3952
Rp3953
sg25
I0
sg26
g27
(g28
(I0
tp3954
g30
tp3955
Rp3956
(I1
(I2
tp3957
g36
I00
S'S\x00\x00\x00K\x00\x00\x00'
p3958
tp3959
bsba(i__main__
FrameData
p3960
(dp3961
g6
g7
sg8
g9
(g13
S'\x00\x00\x00\x00\x00\x00\x08@'
p3962
tp3963
Rp3964
sg19
I0
sg20
g21
(S'\x07\xdd\t\x1d\x13\x12%\n \x19'
p3965
tp3966
Rp3967
sg25
I0
sg26
g27
(g28
(I0
tp3968
g30
tp3969
Rp3970
(I1
(I2
tp3971
g36
I00
S'U\x00\x00\x00K\x00\x00\x00'
p3972
tp3973
bsba(i__main__
FrameData
p3974
(dp3975
g6
g7
sg8
g9
(g13
S'\x00\x00\x00\x00\x00\x00\x10@'
p3976
tp3977
Rp3978
sg19
I0
sg20
g21
(S'\x07\xdd\t\x1d\x13\x12%\nU\xd7'
p3979
tp3980
Rp3981
sg25
I0
sg26
g27
(g28
(I0
tp3982
g30
tp3983
Rp3984
(I1
(I2
tp3985
g36
I00
S'V\x00\x00\x00K\x00\x00\x00'
p3986
tp3987
bsba(i__main__
FrameData
p3988
(dp3989
g6
g7
sg8
g9
(g13
S'\x00\x00\x00\x00\x00\x00\x14@'
p3990
tp3991
Rp3992
sg19
I0
sg20
g21
(S'\x07\xdd\t\x1d\x13\x12%\n\xd9\x8d'
p3993
tp3994
Rp3995
sg25
I0
sg26
g27
(g28
(I0
tp3996
g30
tp3997
Rp3998
(I1
(I2
tp3999
g36
I00
S'W\x00\x00\x00K\x00\x00\x00'
p4000
tp4001
bsba(i__main__
FrameData
p4002
(dp4003
g6
g7
sg8
g9
(g13
S'\x00\x00\x00\x00\x00\x00\x10@'
p4004
tp4005
Rp4006
sg19
I0
sg20
g21
(S'\x07\xdd\t\x1d\x13\x12&\x01\xb4S'
p4007
tp4008
Rp4009
sg25
I0
sg26
g27
(g28
(I0
tp4010
g30
tp4011
Rp4012
(I1
(I2
tp4013
g36
I00
S'V\x00\x00\x00K\x00\x00\x00'
p4014
tp4015
bsbasS'_fileName'
p4016
S'training/trajectory2013-09-29_19:18:28.316716'
p4017
sS'word'
p4018
S'roadster'
p4019
sb.