(i__main__
SwypeTrajectory
p0
(dp1
S'_frameDataList'
p2
(lp3
(i__main__
FrameData
p4
(dp5
S'closestLetter'
p6
S'v'
p7
sS'letterDistance'
p8
cnumpy.core.multiarray
scalar
p9
(cnumpy
dtype
p10
(S'f8'
p11
I0
I1
tp12
Rp13
(I3
S'<'
p14
NNNI-1
I-1
I0
tp15
bS'\x00\x00\x00\x00\x00\x00\x10@'
p16
tp17
Rp18
sS'accel'
p19
I0
sS'time'
p20
cdatetime
datetime
p21
(S'\x07\xdd\t\x1d\x13\x11,\x08\x9fW'
p22
tp23
Rp24
sS'velocity'
p25
I0
sS'position'
p26
cnumpy.core.multiarray
_reconstruct
p27
(cnumpy
ndarray
p28
(I0
tp29
S'b'
p30
tp31
Rp32
(I1
(I2
tp33
g10
(S'i4'
p34
I0
I1
tp35
Rp36
(I3
S'<'
p37
NNNI-1
I-1
I0
tp38
bI00
S'q\x00\x00\x00\x97\x00\x00\x00'
p39
tp40
bsba(i__main__
FrameData
p41
(dp42
g6
g7
sg8
g9
(g13
S'\x00\x00\x00\x00\x00\x00"@'
p43
tp44
Rp45
sg19
I0
sg20
g21
(S'\x07\xdd\t\x1d\x13\x11,\x08\xe45'
p46
tp47
Rp48
sg25
I0
sg26
g27
(g28
(I0
tp49
g30
tp50
Rp51
(I1
(I2
tp52
g36
I00
S'q\x00\x00\x00\x92\x00\x00\x00'
p53
tp54
bsba(i__main__
FrameData
p55
(dp56
g6
g7
sg8
g9
(g13
S'\x00\x00\x00\x00\x00\x00*@'
p57
tp58
Rp59
sg19
I0
sg20
g21
(S'\x07\xdd\t\x1d\x13\x11,\t!\xd9'
p60
tp61
Rp62
sg25
I0
sg26
g27
(g28
(I0
tp63
g30
tp64
Rp65
(I1
(I2
tp66
g36
I00
S'q\x00\x00\x00\x8e\x00\x00\x00'
p67
tp68
bsba(i__main__
FrameData
p69
(dp70
g6
g7
sg8
g9
(g13
S'\x00\x00\x00\x00\x00\x000@'
p71
tp72
Rp73
sg19
I0
sg20
g21
(S'\x07\xdd\t\x1d\x13\x11,\tbH'
p74
tp75
Rp76
sg25
I0
sg26
g27
(g28
(I0
tp77
g30
tp78
Rp79
(I1
(I2
tp80
g36
I00
S'q\x00\x00\x00\x8b\x00\x00\x00'
p81
tp82
bsba(i__main__
FrameData
p83
(dp84
g6
g7
sg8
g9
(g13
S'\x00\x00\x00\x00\x00\x002@'
p85
tp86
Rp87
sg19
I0
sg20
g21
(S'\x07\xdd\t\x1d\x13\x11,\t\xa3\x81'
p88
tp89
Rp90
sg25
I0
sg26
g27
(g28
(I0
tp91
g30
tp92
Rp93
(I1
(I2
tp94
g36
I00
S'q\x00\x00\x00\x89\x00\x00\x00'
p95
tp96
bsba(i__main__
FrameData
p97
(dp98
g6
g7
sg8
g9
(g13
S'\x00\x00\x00\x00\x00\x004@'
p99
tp100
Rp101
sg19
I0
sg20
g21
(S'\x07\xdd\t\x1d\x13\x11,\t\xe9L'
p102
tp103
Rp104
sg25
I0
sg26
g27
(g28
(I0
tp105
g30
tp106
Rp107
(I1
(I2
tp108
g36
I00
S'q\x00\x00\x00\x87\x00\x00\x00'
p109
tp110
bsba(i__main__
FrameData
p111
(dp112
g6
S'g'
p113
sg8
g9
(g13
S'7\xf9\xcf\xdao\xe14@'
p114
tp115
Rp116
sg19
I0
sg20
g21
(S'\x07\xdd\t\x1d\x13\x11,\n-h'
p117
tp118
Rp119
sg25
I0
sg26
g27
(g28
(I0
tp120
g30
tp121
Rp122
(I1
(I2
tp123
g36
I00
S'r\x00\x00\x00\x86\x00\x00\x00'
p124
tp125
bsba(i__main__
FrameData
p126
(dp127
g6
g113
sg8
g9
(g13
S'W\xb2\xdb\x1a\x9a\xa53@'
p128
tp129
Rp130
sg19
I0
sg20
g21
(S'\x07\xdd\t\x1d\x13\x11,\nm\x8d'
p131
tp132
Rp133
sg25
I0
sg26
g27
(g28
(I0
tp134
g30
tp135
Rp136
(I1
(I2
tp137
g36
I00
S's\x00\x00\x00\x85\x00\x00\x00'
p138
tp139
bsba(i__main__
FrameData
p140
(dp141
g6
g113
sg8
g9
(g13
S'\x9a.\x90!hp2@'
p142
tp143
Rp144
sg19
I0
sg20
g21
(S'\x07\xdd\t\x1d\x13\x11,\n\xabk'
p145
tp146
Rp147
sg25
I0
sg26
g27
(g28
(I0
tp148
g30
tp149
Rp150
(I1
(I2
tp151
g36
I00
S't\x00\x00\x00\x84\x00\x00\x00'
p152
tp153
bsba(i__main__
FrameData
p154
(dp155
g6
g113
sg8
g9
(g13
S'\xfb\xefg\xc4>C1@'
p156
tp157
Rp158
sg19
I0
sg20
g21
(S'\x07\xdd\t\x1d\x13\x11,\n\xee\xe7'
p159
tp160
Rp161
sg25
I0
sg26
g27
(g28
(I0
tp162
g30
tp163
Rp164
(I1
(I2
tp165
g36
I00
S'u\x00\x00\x00\x83\x00\x00\x00'
p166
tp167
bsba(i__main__
FrameData
p168
(dp169
g6
g113
sg8
g9
(g13
S'\x10\xb3]\xc9`G0@'
p170
tp171
Rp172
sg19
I0
sg20
g21
(S'\x07\xdd\t\x1d\x13\x11,\x0b.a'
p173
tp174
Rp175
sg25
I0
sg26
g27
(g28
(I0
tp176
g30
tp177
Rp178
(I1
(I2
tp179
g36
I00
S'u\x00\x00\x00\x82\x00\x00\x00'
p180
tp181
bsba(i__main__
FrameData
p182
(dp183
g6
g113
sg8
g9
(g13
S'p`\xff\x00\xfe\x070@'
p184
tp185
Rp186
sg19
I0
sg20
g21
(S'\x07\xdd\t\x1d\x13\x11,\x0bnl'
p187
tp188
Rp189
sg25
I0
sg26
g27
(g28
(I0
tp190
g30
tp191
Rp192
(I1
(I2
tp193
g36
I00
S'w\x00\x00\x00\x82\x00\x00\x00'
p194
tp195
bsba(i__main__
FrameData
p196
(dp197
g6
g113
sg8
g9
(g13
S'\x00\x00\x00\x00\x00\x00,@'
p198
tp199
Rp200
sg19
I0
sg20
g21
(S'\x07\xdd\t\x1d\x13\x11,\x0b\xac\xda'
p201
tp202
Rp203
sg25
I0
sg26
g27
(g28
(I0
tp204
g30
tp205
Rp206
(I1
(I2
tp207
g36
I00
S'x\x00\x00\x00\x80\x00\x00\x00'
p208
tp209
bsba(i__main__
FrameData
p210
(dp211
g6
g113
sg8
g9
(g13
S'Qf\x99\xcb\xa9\x13*@'
p212
tp213
Rp214
sg19
I0
sg20
g21
(S'\x07\xdd\t\x1d\x13\x11,\x0b\xee\xcb'
p215
tp216
Rp217
sg25
I0
sg26
g27
(g28
(I0
tp218
g30
tp219
Rp220
(I1
(I2
tp221
g36
I00
S'y\x00\x00\x00\x7f\x00\x00\x00'
p222
tp223
bsba(i__main__
FrameData
p224
(dp225
g6
g113
sg8
g9
(g13
S'H\xaa*\x8f9\x17&@'
p226
tp227
Rp228
sg19
I0
sg20
g21
(S'\x07\xdd\t\x1d\x13\x11,\x0c/\x0c'
p229
tp230
Rp231
sg25
I0
sg26
g27
(g28
(I0
tp232
g30
tp233
Rp234
(I1
(I2
tp235
g36
I00
S'y\x00\x00\x00}\x00\x00\x00'
p236
tp237
bsba(i__main__
FrameData
p238
(dp239
g6
g113
sg8
g9
(g13
S'\xa3\x14\xae\xa8\x87\x16!@'
p240
tp241
Rp242
sg19
I0
sg20
g21
(S'\x07\xdd\t\x1d\x13\x11,\x0cz\x04'
p243
tp244
Rp245
sg25
I0
sg26
g27
(g28
(I0
tp246
g30
tp247
Rp248
(I1
(I2
tp249
g36
I00
S'{\x00\x00\x00z\x00\x00\x00'
p250
tp251
bsba(i__main__
FrameData
p252
(dp253
g6
g113
sg8
g9
(g13
S'N\x017\xfac4!@'
p254
tp255
Rp256
sg19
I0
sg20
g21
(S'\x07\xdd\t\x1d\x13\x11,\x0c\xb34'
p257
tp258
Rp259
sg25
I0
sg26
g27
(g28
(I0
tp260
g30
tp261
Rp262
(I1
(I2
tp263
g36
I00
S'}\x00\x00\x00y\x00\x00\x00'
p264
tp265
bsba(i__main__
FrameData
p266
(dp267
g6
g113
sg8
g9
(g13
S'N\x017\xfac4!@'
p268
tp269
Rp270
sg19
I0
sg20
g21
(S'\x07\xdd\t\x1d\x13\x11,\x0c\xf8\xa4'
p271
tp272
Rp273
sg25
I0
sg26
g27
(g28
(I0
tp274
g30
tp275
Rp276
(I1
(I2
tp277
g36
I00
S'\x7f\x00\x00\x00w\x00\x00\x00'
p278
tp279
bsba(i__main__
FrameData
p280
(dp281
g6
g113
sg8
g9
(g13
S'p\xc4\x9d9\x8dv\x1e@'
p282
tp283
Rp284
sg19
I0
sg20
g21
(S'\x07\xdd\t\x1d\x13\x11,\r6c'
p285
tp286
Rp287
sg25
I0
sg26
g27
(g28
(I0
tp288
g30
tp289
Rp290
(I1
(I2
tp291
g36
I00
S'\x7f\x00\x00\x00u\x00\x00\x00'
p292
tp293
bsba(i__main__
FrameData
p294
(dp295
g6
g113
sg8
g9
(g13
S'$\xf8\xd9p[\x1c"@'
p296
tp297
Rp298
sg19
I0
sg20
g21
(S'\x07\xdd\t\x1d\x13\x11,\ry\r'
p299
tp300
Rp301
sg25
I0
sg26
g27
(g28
(I0
tp302
g30
tp303
Rp304
(I1
(I2
tp305
g36
I00
S'\x81\x00\x00\x00s\x00\x00\x00'
p306
tp307
bsba(i__main__
FrameData
p308
(dp309
g6
g113
sg8
g9
(g13
S'9\xdcc\xb3\xbfT(@'
p310
tp311
Rp312
sg19
I0
sg20
g21
(S'\x07\xdd\t\x1d\x13\x11,\r\xb7\x9e'
p313
tp314
Rp315
sg25
I0
sg26
g27
(g28
(I0
tp316
g30
tp317
Rp318
(I1
(I2
tp319
g36
I00
S'\x84\x00\x00\x00p\x00\x00\x00'
p320
tp321
bsba(i__main__
FrameData
p322
(dp323
g6
S'h'
p324
sg8
g9
(g13
S'\xd2\xf1}\x82U\\&@'
p325
tp326
Rp327
sg19
I0
sg20
g21
(S'\x07\xdd\t\x1d\x13\x11,\r\xf8\x00'
p328
tp329
Rp330
sg25
I0
sg26
g27
(g28
(I0
tp331
g30
tp332
Rp333
(I1
(I2
tp334
g36
I00
S'\x86\x00\x00\x00m\x00\x00\x00'
p335
tp336
bsba(i__main__
FrameData
p337
(dp338
g6
g324
sg8
g9
(g13
S'6\xd0\xd2x\xa2B%@'
p339
tp340
Rp341
sg19
I0
sg20
g21
(S'\x07\xdd\t\x1d\x13\x11,\x0e<\x16'
p342
tp343
Rp344
sg25
I0
sg26
g27
(g28
(I0
tp345
g30
tp346
Rp347
(I1
(I2
tp348
g36
I00
S'\x89\x00\x00\x00j\x00\x00\x00'
p349
tp350
bsba(i__main__
FrameData
p351
(dp352
g6
g324
sg8
g9
(g13
S'w\x03Is \xa2%@'
p353
tp354
Rp355
sg19
I0
sg20
g21
(S'\x07\xdd\t\x1d\x13\x11,\x0ez\xd9'
p356
tp357
Rp358
sg25
I0
sg26
g27
(g28
(I0
tp359
g30
tp360
Rp361
(I1
(I2
tp362
g36
I00
S'\x8a\x00\x00\x00i\x00\x00\x00'
p363
tp364
bsba(i__main__
FrameData
p365
(dp366
g6
g324
sg8
g9
(g13
S'\xd2\xf1}\x82U\\&@'
p367
tp368
Rp369
sg19
I0
sg20
g21
(S'\x07\xdd\t\x1d\x13\x11,\x0e\xbf?'
p370
tp371
Rp372
sg25
I0
sg26
g27
(g28
(I0
tp373
g30
tp374
Rp375
(I1
(I2
tp376
g36
I00
S'\x8b\x00\x00\x00h\x00\x00\x00'
p377
tp378
bsba(i__main__
FrameData
p379
(dp380
g6
g324
sg8
g9
(g13
S')\x03\xec/C\x12,@'
p381
tp382
Rp383
sg19
I0
sg20
g21
(S'\x07\xdd\t\x1d\x13\x11,\x0e\xfd\xb4'
p384
tp385
Rp386
sg25
I0
sg26
g27
(g28
(I0
tp387
g30
tp388
Rp389
(I1
(I2
tp390
g36
I00
S'\x8f\x00\x00\x00d\x00\x00\x00'
p391
tp392
bsba(i__main__
FrameData
p393
(dp394
g6
g324
sg8
g9
(g13
S'p`\xff\x00\xfe\x070@'
p395
tp396
Rp397
sg19
I0
sg20
g21
(S'\x07\xdd\t\x1d\x13\x11,\x0fA\xf1'
p398
tp399
Rp400
sg25
I0
sg26
g27
(g28
(I0
tp401
g30
tp402
Rp403
(I1
(I2
tp404
g36
I00
S'\x91\x00\x00\x00b\x00\x00\x00'
p405
tp406
bsba(i__main__
FrameData
p407
(dp408
g6
g324
sg8
g9
(g13
S'/vo\xf2\x9ej3@'
p409
tp410
Rp411
sg19
I0
sg20
g21
(S'\x07\xdd\t\x1d\x13\x11-\x00>Z'
p412
tp413
Rp414
sg25
I0
sg26
g27
(g28
(I0
tp415
g30
tp416
Rp417
(I1
(I2
tp418
g36
I00
S'\x94\x00\x00\x00_\x00\x00\x00'
p419
tp420
bsba(i__main__
FrameData
p421
(dp422
g6
S'u'
p423
sg8
g9
(g13
S'\xf0)#L\x89\x194@'
p424
tp425
Rp426
sg19
I0
sg20
g21
(S'\x07\xdd\t\x1d\x13\x11-\x00\x82z'
p427
tp428
Rp429
sg25
I0
sg26
g27
(g28
(I0
tp430
g30
tp431
Rp432
(I1
(I2
tp433
g36
I00
S'\x96\x00\x00\x00^\x00\x00\x00'
p434
tp435
bsba(i__main__
FrameData
p436
(dp437
g6
g423
sg8
g9
(g13
S'\xc3\xe7Zp\xbb\x063@'
p438
tp439
Rp440
sg19
I0
sg20
g21
(S'\x07\xdd\t\x1d\x13\x11-\x00\xc1Q'
p441
tp442
Rp443
sg25
I0
sg26
g27
(g28
(I0
tp444
g30
tp445
Rp446
(I1
(I2
tp447
g36
I00
S'\x97\x00\x00\x00]\x00\x00\x00'
p448
tp449
bsba(i__main__
FrameData
p450
(dp451
g6
g423
sg8
g9
(g13
S'\x00\x00\x00\x00\x00\x002@'
p452
tp453
Rp454
sg19
I0
sg20
g21
(S'\x07\xdd\t\x1d\x13\x11-\x01\x064'
p455
tp456
Rp457
sg25
I0
sg26
g27
(g28
(I0
tp458
g30
tp459
Rp460
(I1
(I2
tp461
g36
I00
S'\x98\x00\x00\x00\\\x00\x00\x00'
p462
tp463
bsba(i__main__
FrameData
p464
(dp465
g6
g423
sg8
g9
(g13
S')\x9ah\xdd\x85\x071@'
p466
tp467
Rp468
sg19
I0
sg20
g21
(S'\x07\xdd\t\x1d\x13\x11-\x01DS'
p469
tp470
Rp471
sg25
I0
sg26
g27
(g28
(I0
tp472
g30
tp473
Rp474
(I1
(I2
tp475
g36
I00
S'\x99\x00\x00\x00[\x00\x00\x00'
p476
tp477
bsba(i__main__
FrameData
p478
(dp479
g6
g423
sg8
g9
(g13
S'\x10\xb3]\xc9`G0@'
p480
tp481
Rp482
sg19
I0
sg20
g21
(S'\x07\xdd\t\x1d\x13\x11-\x01\x83\x15'
p483
tp484
Rp485
sg25
I0
sg26
g27
(g28
(I0
tp486
g30
tp487
Rp488
(I1
(I2
tp489
g36
I00
S'\x9b\x00\x00\x00Z\x00\x00\x00'
p490
tp491
bsba(i__main__
FrameData
p492
(dp493
g6
g423
sg8
g9
(g13
S'/\xa4\xe3\\m\xbb-@'
p494
tp495
Rp496
sg19
I0
sg20
g21
(S'\x07\xdd\t\x1d\x13\x11-\x01\xc4\xb1'
p497
tp498
Rp499
sg25
I0
sg26
g27
(g28
(I0
tp500
g30
tp501
Rp502
(I1
(I2
tp503
g36
I00
S'\x9d\x00\x00\x00X\x00\x00\x00'
p504
tp505
bsba(i__main__
FrameData
p506
(dp507
g6
g423
sg8
g9
(g13
S'\xc5Bl?W\x87.@'
p508
tp509
Rp510
sg19
I0
sg20
g21
(S'\x07\xdd\t\x1d\x13\x11-\x02\x05\xc5'
p511
tp512
Rp513
sg25
I0
sg26
g27
(g28
(I0
tp514
g30
tp515
Rp516
(I1
(I2
tp517
g36
I00
S'\xa0\x00\x00\x00W\x00\x00\x00'
p518
tp519
bsba(i__main__
FrameData
p520
(dp521
g6
g423
sg8
g9
(g13
S'htN\x17\xb2=/@'
p522
tp523
Rp524
sg19
I0
sg20
g21
(S'\x07\xdd\t\x1d\x13\x11-\x02J!'
p525
tp526
Rp527
sg25
I0
sg26
g27
(g28
(I0
tp528
g30
tp529
Rp530
(I1
(I2
tp531
g36
I00
S'\xa2\x00\x00\x00V\x00\x00\x00'
p532
tp533
bsba(i__main__
FrameData
p534
(dp535
g6
g423
sg8
g9
(g13
S'9\xf2\xee\xcc\xd9\x1c/@'
p536
tp537
Rp538
sg19
I0
sg20
g21
(S'\x07\xdd\t\x1d\x13\x11-\x02\x88\xaf'
p539
tp540
Rp541
sg25
I0
sg26
g27
(g28
(I0
tp542
g30
tp543
Rp544
(I1
(I2
tp545
g36
I00
S'\xa3\x00\x00\x00U\x00\x00\x00'
p546
tp547
bsba(i__main__
FrameData
p548
(dp549
g6
g423
sg8
g9
(g13
S'\x10\xb3]\xc9`G0@'
p550
tp551
Rp552
sg19
I0
sg20
g21
(S'\x07\xdd\t\x1d\x13\x11-\x02\xca\xf1'
p553
tp554
Rp555
sg25
I0
sg26
g27
(g28
(I0
tp556
g30
tp557
Rp558
(I1
(I2
tp559
g36
I00
S'\xa4\x00\x00\x00U\x00\x00\x00'
p560
tp561
bsba(i__main__
FrameData
p562
(dp563
g6
S'i'
p564
sg8
g9
(g13
S'\x0f\xab\xa8Q\xb6f0@'
p565
tp566
Rp567
sg19
I0
sg20
g21
(S'\x07\xdd\t\x1d\x13\x11-\x03O\xee'
p568
tp569
Rp570
sg25
I0
sg26
g27
(g28
(I0
tp571
g30
tp572
Rp573
(I1
(I2
tp574
g36
I00
S'\xa5\x00\x00\x00U\x00\x00\x00'
p575
tp576
bsba(i__main__
FrameData
p577
(dp578
g6
g564
sg8
g9
(g13
S'htN\x17\xb2=/@'
p579
tp580
Rp581
sg19
I0
sg20
g21
(S'\x07\xdd\t\x1d\x13\x11-\x03\xd3&'
p582
tp583
Rp584
sg25
I0
sg26
g27
(g28
(I0
tp585
g30
tp586
Rp587
(I1
(I2
tp588
g36
I00
S'\xa6\x00\x00\x00U\x00\x00\x00'
p589
tp590
bsba(i__main__
FrameData
p591
(dp592
g6
g564
sg8
g9
(g13
S'?*\x98"\xe3l,@'
p593
tp594
Rp595
sg19
I0
sg20
g21
(S'\x07\xdd\t\x1d\x13\x11-\x04Q4'
p596
tp597
Rp598
sg25
I0
sg26
g27
(g28
(I0
tp599
g30
tp600
Rp601
(I1
(I2
tp602
g36
I00
S'\xa7\x00\x00\x00T\x00\x00\x00'
p603
tp604
bsba(i__main__
FrameData
p605
(dp606
g6
g564
sg8
g9
(g13
S'\xb4\xb8=iA\xe8*@'
p607
tp608
Rp609
sg19
I0
sg20
g21
(S'\x07\xdd\t\x1d\x13\x11-\x04\x94\x96'
p610
tp611
Rp612
sg25
I0
sg26
g27
(g28
(I0
tp613
g30
tp614
Rp615
(I1
(I2
tp616
g36
I00
S'\xa8\x00\x00\x00T\x00\x00\x00'
p617
tp618
bsba(i__main__
FrameData
p619
(dp620
g6
g564
sg8
g9
(g13
S'F\xc3\\\xa8\xc1i(@'
p621
tp622
Rp623
sg19
I0
sg20
g21
(S'\x07\xdd\t\x1d\x13\x11-\x04\xd39'
p624
tp625
Rp626
sg25
I0
sg26
g27
(g28
(I0
tp627
g30
tp628
Rp629
(I1
(I2
tp630
g36
I00
S'\xa8\x00\x00\x00R\x00\x00\x00'
p631
tp632
bsba(i__main__
FrameData
p633
(dp634
g6
g564
sg8
g9
(g13
S'\xeb\x12\xb2\xbb\xb2\xcd&@'
p635
tp636
Rp637
sg19
I0
sg20
g21
(S'\x07\xdd\t\x1d\x13\x11-\x05\x17\x80'
p638
tp639
Rp640
sg25
I0
sg26
g27
(g28
(I0
tp641
g30
tp642
Rp643
(I1
(I2
tp644
g36
I00
S'\xa9\x00\x00\x00R\x00\x00\x00'
p645
tp646
bsba(i__main__
FrameData
p647
(dp648
g6
g564
sg8
g9
(g13
S'\x88\x80v\xd5\\\x97$@'
p649
tp650
Rp651
sg19
I0
sg20
g21
(S'\x07\xdd\t\x1d\x13\x11-\x05V\x13'
p652
tp653
Rp654
sg25
I0
sg26
g27
(g28
(I0
tp655
g30
tp656
Rp657
(I1
(I2
tp658
g36
I00
S'\xa9\x00\x00\x00P\x00\x00\x00'
p659
tp660
bsba(i__main__
FrameData
p661
(dp662
g6
g564
sg8
g9
(g13
S'A\x87b\xc62\xde"@'
p663
tp664
Rp665
sg19
I0
sg20
g21
(S'\x07\xdd\t\x1d\x13\x11-\x05\xd9U'
p666
tp667
Rp668
sg25
I0
sg26
g27
(g28
(I0
tp669
g30
tp670
Rp671
(I1
(I2
tp672
g36
I00
S'\xaa\x00\x00\x00P\x00\x00\x00'
p673
tp674
bsba(i__main__
FrameData
p675
(dp676
g6
g564
sg8
g9
(g13
S'htN\x17\xb2=\x1f@'
p677
tp678
Rp679
sg19
I0
sg20
g21
(S'\x07\xdd\t\x1d\x13\x11-\x06\x1d\x85'
p680
tp681
Rp682
sg25
I0
sg26
g27
(g28
(I0
tp683
g30
tp684
Rp685
(I1
(I2
tp686
g36
I00
S'\xac\x00\x00\x00P\x00\x00\x00'
p687
tp688
bsba(i__main__
FrameData
p689
(dp690
g6
g564
sg8
g9
(g13
S'\xfc\xeeci3\xd5\x1a@'
p691
tp692
Rp693
sg19
I0
sg20
g21
(S'\x07\xdd\t\x1d\x13\x11-\x06]P'
p694
tp695
Rp696
sg25
I0
sg26
g27
(g28
(I0
tp697
g30
tp698
Rp699
(I1
(I2
tp700
g36
I00
S'\xac\x00\x00\x00N\x00\x00\x00'
p701
tp702
bsba(i__main__
FrameData
p703
(dp704
g6
g564
sg8
g9
(g13
S'\xf3\xd9\xa8\xa4h\x8a\x15@'
p705
tp706
Rp707
sg19
I0
sg20
g21
(S'\x07\xdd\t\x1d\x13\x11-\x06\x9d\x11'
p708
tp709
Rp710
sg25
I0
sg26
g27
(g28
(I0
tp711
g30
tp712
Rp713
(I1
(I2
tp714
g36
I00
S'\xad\x00\x00\x00M\x00\x00\x00'
p715
tp716
bsba(i__main__
FrameData
p717
(dp718
g6
g564
sg8
g9
(g13
S'\x07\xed\xaff\x0f~\x10@'
p719
tp720
Rp721
sg19
I0
sg20
g21
(S'\x07\xdd\t\x1d\x13\x11-\x06\xdf+'
p722
tp723
Rp724
sg25
I0
sg26
g27
(g28
(I0
tp725
g30
tp726
Rp727
(I1
(I2
tp728
g36
I00
S'\xae\x00\x00\x00L\x00\x00\x00'
p729
tp730
bsba(i__main__
FrameData
p731
(dp732
g6
g564
sg8
g9
(g13
S'\x00\x00\x00\x00\x00\x00\x00@'
p733
tp734
Rp735
sg19
I0
sg20
g21
(S'\x07\xdd\t\x1d\x13\x11-\x07b\x1b'
p736
tp737
Rp738
sg25
I0
sg26
g27
(g28
(I0
tp739
g30
tp740
Rp741
(I1
(I2
tp742
g36
I00
S'\xb0\x00\x00\x00K\x00\x00\x00'
p743
tp744
bsba(i__main__
FrameData
p745
(dp746
g6
g564
sg8
g9
(g13
S'\xa8\xf4\x97\x9bw\xe3\x01@'
p747
tp748
Rp749
sg19
I0
sg20
g21
(S'\x07\xdd\t\x1d\x13\x11-\x0c;\x7f'
p750
tp751
Rp752
sg25
I0
sg26
g27
(g28
(I0
tp753
g30
tp754
Rp755
(I1
(I2
tp756
g36
I00
S'\xb0\x00\x00\x00L\x00\x00\x00'
p757
tp758
bsba(i__main__
FrameData
p759
(dp760
g6
g564
sg8
g9
(g13
S'\xcd;\x7ff\x9e\xa0\x06@'
p761
tp762
Rp763
sg19
I0
sg20
g21
(S'\x07\xdd\t\x1d\x13\x11-\x0cz\n'
p764
tp765
Rp766
sg25
I0
sg26
g27
(g28
(I0
tp767
g30
tp768
Rp769
(I1
(I2
tp770
g36
I00
S'\xb0\x00\x00\x00M\x00\x00\x00'
p771
tp772
bsba(i__main__
FrameData
p773
(dp774
g6
g564
sg8
g9
(g13
S'\xf3YaD+\xd8\x0c@'
p775
tp776
Rp777
sg19
I0
sg20
g21
(S'\x07\xdd\t\x1d\x13\x11-\x0c\xbe['
p778
tp779
Rp780
sg25
I0
sg26
g27
(g28
(I0
tp781
g30
tp782
Rp783
(I1
(I2
tp784
g36
I00
S'\xb0\x00\x00\x00N\x00\x00\x00'
p785
tp786
bsba(i__main__
FrameData
p787
(dp788
g6
g564
sg8
g9
(g13
S'\xd9l\xdf\xccv\xf8\x10@'
p789
tp790
Rp791
sg19
I0
sg20
g21
(S'\x07\xdd\t\x1d\x13\x11-\rA\x8a'
p792
tp793
Rp794
sg25
I0
sg26
g27
(g28
(I0
tp795
g30
tp796
Rp797
(I1
(I2
tp798
g36
I00
S'\xaf\x00\x00\x00N\x00\x00\x00'
p799
tp800
bsba(i__main__
FrameData
p801
(dp802
g6
g564
sg8
g9
(g13
S'\x00\x00\x00\x00\x00\x00\x14@'
p803
tp804
Rp805
sg19
I0
sg20
g21
(S'\x07\xdd\t\x1d\x13\x11-\r\x7f\xf8'
p806
tp807
Rp808
sg25
I0
sg26
g27
(g28
(I0
tp809
g30
tp810
Rp811
(I1
(I2
tp812
g36
I00
S'\xaf\x00\x00\x00O\x00\x00\x00'
p813
tp814
bsba(i__main__
FrameData
p815
(dp816
g6
g564
sg8
g9
(g13
S'\xcd;\x7ff\x9e\xa0\x16@'
p817
tp818
Rp819
sg19
I0
sg20
g21
(S'\x07\xdd\t\x1d\x13\x11-\r\xbe\xac'
p820
tp821
Rp822
sg25
I0
sg26
g27
(g28
(I0
tp823
g30
tp824
Rp825
(I1
(I2
tp826
g36
I00
S'\xae\x00\x00\x00O\x00\x00\x00'
p827
tp828
bsba(i__main__
FrameData
p829
(dp830
g6
g564
sg8
g9
(g13
S'\xc0\n\x1f\x00\xc6H\x1c@'
p831
tp832
Rp833
sg19
I0
sg20
g21
(S'\x07\xdd\t\x1d\x13\x11-\x0e\x04\x0b'
p834
tp835
Rp836
sg25
I0
sg26
g27
(g28
(I0
tp837
g30
tp838
Rp839
(I1
(I2
tp840
g36
I00
S'\xad\x00\x00\x00P\x00\x00\x00'
p841
tp842
bsba(i__main__
FrameData
p843
(dp844
g6
g564
sg8
g9
(g13
S'N\x017\xfac4!@'
p845
tp846
Rp847
sg19
I0
sg20
g21
(S'\x07\xdd\t\x1d\x13\x11-\x0e\x85\xe3'
p848
tp849
Rp850
sg25
I0
sg26
g27
(g28
(I0
tp851
g30
tp852
Rp853
(I1
(I2
tp854
g36
I00
S'\xab\x00\x00\x00P\x00\x00\x00'
p855
tp856
bsba(i__main__
FrameData
p857
(dp858
g6
g564
sg8
g9
(g13
S'w\x03Is \xa2%@'
p859
tp860
Rp861
sg19
I0
sg20
g21
(S'\x07\xdd\t\x1d\x13\x11-\x0e\xc5\xc5'
p862
tp863
Rp864
sg25
I0
sg26
g27
(g28
(I0
tp865
g30
tp866
Rp867
(I1
(I2
tp868
g36
I00
S'\xa9\x00\x00\x00Q\x00\x00\x00'
p869
tp870
bsba(i__main__
FrameData
p871
(dp872
g6
g564
sg8
g9
(g13
S"\xa2\xa3\xb3\r\xe5R'@"
p873
tp874
Rp875
sg19
I0
sg20
g21
(S'\x07\xdd\t\x1d\x13\x11-\x0f\x08\xd9'
p876
tp877
Rp878
sg25
I0
sg26
g27
(g28
(I0
tp879
g30
tp880
Rp881
(I1
(I2
tp882
g36
I00
S'\xa8\x00\x00\x00Q\x00\x00\x00'
p883
tp884
bsba(i__main__
FrameData
p885
(dp886
g6
g564
sg8
g9
(g13
S'\xe4\x10\xe4sW\x0f)@'
p887
tp888
Rp889
sg19
I0
sg20
g21
(S'\x07\xdd\t\x1d\x13\x11.\x00\x059'
p890
tp891
Rp892
sg25
I0
sg26
g27
(g28
(I0
tp893
g30
tp894
Rp895
(I1
(I2
tp896
g36
I00
S'\xa7\x00\x00\x00Q\x00\x00\x00'
p897
tp898
bsba(i__main__
FrameData
p899
(dp900
g6
g564
sg8
g9
(g13
S'\xb2\xdb]\xe3\x96\x87-@'
p901
tp902
Rp903
sg19
I0
sg20
g21
(S'\x07\xdd\t\x1d\x13\x11.\x00I\x81'
p904
tp905
Rp906
sg25
I0
sg26
g27
(g28
(I0
tp907
g30
tp908
Rp909
(I1
(I2
tp910
g36
I00
S'\xa5\x00\x00\x00R\x00\x00\x00'
p911
tp912
bsba(i__main__
FrameData
p913
(dp914
g6
g423
sg8
g9
(g13
S'\xf3YaD+\xd8,@'
p915
tp916
Rp917
sg19
I0
sg20
g21
(S'\x07\xdd\t\x1d\x13\x11.\x00\x89L'
p918
tp919
Rp920
sg25
I0
sg26
g27
(g28
(I0
tp921
g30
tp922
Rp923
(I1
(I2
tp924
g36
I00
S'\xa4\x00\x00\x00R\x00\x00\x00'
p925
tp926
bsba(i__main__
FrameData
p927
(dp928
g6
g423
sg8
g9
(g13
S'\x00\xff\x9f\x99\xcc\x9c)@'
p929
tp930
Rp931
sg19
I0
sg20
g21
(S'\x07\xdd\t\x1d\x13\x11.\x00\xcc\xa9'
p932
tp933
Rp934
sg25
I0
sg26
g27
(g28
(I0
tp935
g30
tp936
Rp937
(I1
(I2
tp938
g36
I00
S'\xa2\x00\x00\x00R\x00\x00\x00'
p939
tp940
bsba(i__main__
FrameData
p941
(dp942
g6
g423
sg8
g9
(g13
S'\xcd;\x7ff\x9e\xa0&@'
p943
tp944
Rp945
sg19
I0
sg20
g21
(S'\x07\xdd\t\x1d\x13\x11.\x01J\xea'
p946
tp947
Rp948
sg25
I0
sg26
g27
(g28
(I0
tp949
g30
tp950
Rp951
(I1
(I2
tp952
g36
I00
S'\xa0\x00\x00\x00R\x00\x00\x00'
p953
tp954
bsba(i__main__
FrameData
p955
(dp956
g6
g423
sg8
g9
(g13
S'\xeb\x12\xb2\xbb\xb2\xcd&@'
p957
tp958
Rp959
sg19
I0
sg20
g21
(S'\x07\xdd\t\x1d\x13\x11.\x01\x8c('
p960
tp961
Rp962
sg25
I0
sg26
g27
(g28
(I0
tp963
g30
tp964
Rp965
(I1
(I2
tp966
g36
I00
S'\x9f\x00\x00\x00S\x00\x00\x00'
p967
tp968
bsba(i__main__
FrameData
p969
(dp970
g6
g423
sg8
g9
(g13
S'w\x03Is \xa2%@'
p971
tp972
Rp973
sg19
I0
sg20
g21
(S'\x07\xdd\t\x1d\x13\x11.\x01\xcc\xcb'
p974
tp975
Rp976
sg25
I0
sg26
g27
(g28
(I0
tp977
g30
tp978
Rp979
(I1
(I2
tp980
g36
I00
S'\x9e\x00\x00\x00S\x00\x00\x00'
p981
tp982
bsba(i__main__
FrameData
p983
(dp984
g6
g423
sg8
g9
(g13
S'\xd2\xf1}\x82U\\&@'
p985
tp986
Rp987
sg19
I0
sg20
g21
(S'\x07\xdd\t\x1d\x13\x11.\x02\x11\x1c'
p988
tp989
Rp990
sg25
I0
sg26
g27
(g28
(I0
tp991
g30
tp992
Rp993
(I1
(I2
tp994
g36
I00
S'\x9a\x00\x00\x00U\x00\x00\x00'
p995
tp996
bsba(i__main__
FrameData
p997
(dp998
g6
g423
sg8
g9
(g13
S'\x00\x00\x00\x00\x00\x00(@'
p999
tp1000
Rp1001
sg19
I0
sg20
g21
(S'\x07\xdd\t\x1d\x13\x11.\x02O\xb1'
p1002
tp1003
Rp1004
sg25
I0
sg26
g27
(g28
(I0
tp1005
g30
tp1006
Rp1007
(I1
(I2
tp1008
g36
I00
S'\x98\x00\x00\x00V\x00\x00\x00'
p1009
tp1010
bsba(i__main__
FrameData
p1011
(dp1012
g6
g423
sg8
g9
(g13
S'\xe9\xfbv \xd5\x1e-@'
p1013
tp1014
Rp1015
sg19
I0
sg20
g21
(S'\x07\xdd\t\x1d\x13\x11.\x02\x96$'
p1016
tp1017
Rp1018
sg25
I0
sg26
g27
(g28
(I0
tp1019
g30
tp1020
Rp1021
(I1
(I2
tp1022
g36
I00
S'\x94\x00\x00\x00X\x00\x00\x00'
p1023
tp1024
bsba(i__main__
FrameData
p1025
(dp1026
g6
g423
sg8
g9
(g13
S'\xa3\x14\xae\xa8\x87\x161@'
p1027
tp1028
Rp1029
sg19
I0
sg20
g21
(S'\x07\xdd\t\x1d\x13\x11.\x02\xd2\xeb'
p1030
tp1031
Rp1032
sg25
I0
sg26
g27
(g28
(I0
tp1033
g30
tp1034
Rp1035
(I1
(I2
tp1036
g36
I00
S'\x92\x00\x00\x00Z\x00\x00\x00'
p1037
tp1038
bsba(i__main__
FrameData
p1039
(dp1040
g6
g423
sg8
g9
(g13
S'\xa8\xf4\x97\x9bw\xe31@'
p1041
tp1042
Rp1043
sg19
I0
sg20
g21
(S'\x07\xdd\t\x1d\x13\x11.\x03\x17\t'
p1044
tp1045
Rp1046
sg25
I0
sg26
g27
(g28
(I0
tp1047
g30
tp1048
Rp1049
(I1
(I2
tp1050
g36
I00
S'\x90\x00\x00\x00Z\x00\x00\x00'
p1051
tp1052
bsba(i__main__
FrameData
p1053
(dp1054
g6
S'y'
p1055
sg8
g9
(g13
S'\x9a.\x90!hp2@'
p1056
tp1057
Rp1058
sg19
I0
sg20
g21
(S'\x07\xdd\t\x1d\x13\x11.\x03\x95\xd9'
p1059
tp1060
Rp1061
sg25
I0
sg26
g27
(g28
(I0
tp1062
g30
tp1063
Rp1064
(I1
(I2
tp1065
g36
I00
S'\x8e\x00\x00\x00[\x00\x00\x00'
p1066
tp1067
bsba(i__main__
FrameData
p1068
(dp1069
g6
g1055
sg8
g9
(g13
S'\xd5?\x80N\xf3\xcd1@'
p1070
tp1071
Rp1072
sg19
I0
sg20
g21
(S'\x07\xdd\t\x1d\x13\x11.\x03\xd8\x9a'
p1073
tp1074
Rp1075
sg25
I0
sg26
g27
(g28
(I0
tp1076
g30
tp1077
Rp1078
(I1
(I2
tp1079
g36
I00
S'\x8d\x00\x00\x00[\x00\x00\x00'
p1080
tp1081
bsba(i__main__
FrameData
p1082
(dp1083
g6
g1055
sg8
g9
(g13
S'N\x017\xfac41@'
p1084
tp1085
Rp1086
sg19
I0
sg20
g21
(S'\x07\xdd\t\x1d\x13\x11.\x04[\xc1'
p1087
tp1088
Rp1089
sg25
I0
sg26
g27
(g28
(I0
tp1090
g30
tp1091
Rp1092
(I1
(I2
tp1093
g36
I00
S'\x8c\x00\x00\x00[\x00\x00\x00'
p1094
tp1095
bsba(i__main__
FrameData
p1096
(dp1097
g6
g1055
sg8
g9
(g13
S'8\xd8\xbc\n\x1b\x072@'
p1098
tp1099
Rp1100
sg19
I0
sg20
g21
(S'\x07\xdd\t\x1d\x13\x11.\x04\x9f\xe0'
p1101
tp1102
Rp1103
sg25
I0
sg26
g27
(g28
(I0
tp1104
g30
tp1105
Rp1106
(I1
(I2
tp1107
g36
I00
S'\x8c\x00\x00\x00\\\x00\x00\x00'
p1108
tp1109
bsba(i__main__
FrameData
p1110
(dp1111
g6
g1055
sg8
g9
(g13
S'\x00\x00\x00\x00\x00\x001@'
p1112
tp1113
Rp1114
sg19
I0
sg20
g21
(S'\x07\xdd\t\x1d\x13\x11.\x05a\x7f'
p1115
tp1116
Rp1117
sg25
I0
sg26
g27
(g28
(I0
tp1118
g30
tp1119
Rp1120
(I1
(I2
tp1121
g36
I00
S'\x8a\x00\x00\x00\\\x00\x00\x00'
p1122
tp1123
bsba(i__main__
FrameData
p1124
(dp1125
g6
g1055
sg8
g9
(g13
S'\xaa\xd9\xb1\xd3\x8d\x8d0@'
p1126
tp1127
Rp1128
sg19
I0
sg20
g21
(S'\x07\xdd\t\x1d\x13\x11.\x05\xa0;'
p1129
tp1130
Rp1131
sg25
I0
sg26
g27
(g28
(I0
tp1132
g30
tp1133
Rp1134
(I1
(I2
tp1135
g36
I00
S'\x89\x00\x00\x00\\\x00\x00\x00'
p1136
tp1137
bsba(i__main__
FrameData
p1138
(dp1139
g6
g1055
sg8
g9
(g13
S'\xa3\x14\xae\xa8\x87\x161@'
p1140
tp1141
Rp1142
sg19
I0
sg20
g21
(S'\x07\xdd\t\x1d\x13\x11.\x05\xe4r'
p1143
tp1144
Rp1145
sg25
I0
sg26
g27
(g28
(I0
tp1146
g30
tp1147
Rp1148
(I1
(I2
tp1149
g36
I00
S'\x88\x00\x00\x00]\x00\x00\x00'
p1150
tp1151
bsba(i__main__
FrameData
p1152
(dp1153
g6
g1055
sg8
g9
(g13
S'>9\x15\x8cW\xc30@'
p1154
tp1155
Rp1156
sg19
I0
sg20
g21
(S'\x07\xdd\t\x1d\x13\x11.\x06#-'
p1157
tp1158
Rp1159
sg25
I0
sg26
g27
(g28
(I0
tp1160
g30
tp1161
Rp1162
(I1
(I2
tp1163
g36
I00
S'\x87\x00\x00\x00]\x00\x00\x00'
p1164
tp1165
bsba(i__main__
FrameData
p1166
(dp1167
g6
g1055
sg8
g9
(g13
S'\xa8y\x0c\t\xd9v1@'
p1168
tp1169
Rp1170
sg19
I0
sg20
g21
(S'\x07\xdd\t\x1d\x13\x11.\x06h\x92'
p1171
tp1172
Rp1173
sg25
I0
sg26
g27
(g28
(I0
tp1174
g30
tp1175
Rp1176
(I1
(I2
tp1177
g36
I00
S'\x86\x00\x00\x00^\x00\x00\x00'
p1178
tp1179
bsba(i__main__
FrameData
p1180
(dp1181
g6
g1055
sg8
g9
(g13
S'8\xd8\xbc\n\x1b\x072@'
p1182
tp1183
Rp1184
sg19
I0
sg20
g21
(S'\x07\xdd\t\x1d\x13\x11.\x06\xa7I'
p1185
tp1186
Rp1187
sg25
I0
sg26
g27
(g28
(I0
tp1188
g30
tp1189
Rp1190
(I1
(I2
tp1191
g36
I00
S'\x83\x00\x00\x00_\x00\x00\x00'
p1192
tp1193
bsba(i__main__
FrameData
p1194
(dp1195
g6
g1055
sg8
g9
(g13
S'8\xd8\xbc\n\x1b\x072@'
p1196
tp1197
Rp1198
sg19
I0
sg20
g21
(S'\x07\xdd\t\x1d\x13\x11.\x06\xe9;'
p1199
tp1200
Rp1201
sg25
I0
sg26
g27
(g28
(I0
tp1202
g30
tp1203
Rp1204
(I1
(I2
tp1205
g36
I00
S'\x81\x00\x00\x00_\x00\x00\x00'
p1206
tp1207
bsba(i__main__
FrameData
p1208
(dp1209
g6
g113
sg8
g9
(g13
S'5 \x89\xa6\xcd\xc92@'
p1210
tp1211
Rp1212
sg19
I0
sg20
g21
(S"\x07\xdd\t\x1d\x13\x11.\x07'\xc5"
p1213
tp1214
Rp1215
sg25
I0
sg26
g27
(g28
(I0
tp1216
g30
tp1217
Rp1218
(I1
(I2
tp1219
g36
I00
S'\x80\x00\x00\x00a\x00\x00\x00'
p1220
tp1221
bsba(i__main__
FrameData
p1222
(dp1223
g6
g113
sg8
g9
(g13
S'\x96`G\xb3\x80b2@'
p1224
tp1225
Rp1226
sg19
I0
sg20
g21
(S'\x07\xdd\t\x1d\x13\x11.\x07h\xb7'
p1227
tp1228
Rp1229
sg25
I0
sg26
g27
(g28
(I0
tp1230
g30
tp1231
Rp1232
(I1
(I2
tp1233
g36
I00
S'\x7f\x00\x00\x00a\x00\x00\x00'
p1234
tp1235
bsba(i__main__
FrameData
p1236
(dp1237
g6
g113
sg8
g9
(g13
S'8\xd8\xbc\n\x1b\x072@'
p1238
tp1239
Rp1240
sg19
I0
sg20
g21
(S'\x07\xdd\t\x1d\x13\x11.\x07\xea\xcd'
p1241
tp1242
Rp1243
sg25
I0
sg26
g27
(g28
(I0
tp1244
g30
tp1245
Rp1246
(I1
(I2
tp1247
g36
I00
S'~\x00\x00\x00a\x00\x00\x00'
p1248
tp1249
bsba(i__main__
FrameData
p1250
(dp1251
g6
g113
sg8
g9
(g13
S"v\xa3~{\xce'0@"
p1252
tp1253
Rp1254
sg19
I0
sg20
g21
(S'\x07\xdd\t\x1d\x13\x11.\x08mh'
p1255
tp1256
Rp1257
sg25
I0
sg26
g27
(g28
(I0
tp1258
g30
tp1259
Rp1260
(I1
(I2
tp1261
g36
I00
S'~\x00\x00\x00c\x00\x00\x00'
p1262
tp1263
bsba(i__main__
FrameData
p1264
(dp1265
g6
g113
sg8
g9
(g13
S'p\xc4\x9d9\x8dv.@'
p1266
tp1267
Rp1268
sg19
I0
sg20
g21
(S'\x07\xdd\t\x1d\x13\x11.\x08\xb2\xab'
p1269
tp1270
Rp1271
sg25
I0
sg26
g27
(g28
(I0
tp1272
g30
tp1273
Rp1274
(I1
(I2
tp1275
g36
I00
S'~\x00\x00\x00d\x00\x00\x00'
p1276
tp1277
bsba(i__main__
FrameData
p1278
(dp1279
g6
g113
sg8
g9
(g13
S'\xfc\xeeci3\xd5*@'
p1280
tp1281
Rp1282
sg19
I0
sg20
g21
(S'\x07\xdd\t\x1d\x13\x11.\x08\xf0\x90'
p1283
tp1284
Rp1285
sg25
I0
sg26
g27
(g28
(I0
tp1286
g30
tp1287
Rp1288
(I1
(I2
tp1289
g36
I00
S'~\x00\x00\x00f\x00\x00\x00'
p1290
tp1291
bsba(i__main__
FrameData
p1292
(dp1293
g6
g113
sg8
g9
(g13
S'lNy\x00\x85*(@'
p1294
tp1295
Rp1296
sg19
I0
sg20
g21
(S'\x07\xdd\t\x1d\x13\x11.\t4\xdf'
p1297
tp1298
Rp1299
sg25
I0
sg26
g27
(g28
(I0
tp1300
g30
tp1301
Rp1302
(I1
(I2
tp1303
g36
I00
S'}\x00\x00\x00g\x00\x00\x00'
p1304
tp1305
bsba(i__main__
FrameData
p1306
(dp1307
g6
g113
sg8
g9
(g13
S'\xf3\xd9\xa8\xa4h\x8a%@'
p1308
tp1309
Rp1310
sg19
I0
sg20
g21
(S'\x07\xdd\t\x1d\x13\x11.\ts\x9a'
p1311
tp1312
Rp1313
sg25
I0
sg26
g27
(g28
(I0
tp1314
g30
tp1315
Rp1316
(I1
(I2
tp1317
g36
I00
S'|\x00\x00\x00h\x00\x00\x00'
p1318
tp1319
bsba(i__main__
FrameData
p1320
(dp1321
g6
g113
sg8
g9
(g13
S'\xa8\xf4\x97\x9bw\xe3!@'
p1322
tp1323
Rp1324
sg19
I0
sg20
g21
(S'\x07\xdd\t\x1d\x13\x11.\t\xb8\x17'
p1325
tp1326
Rp1327
sg25
I0
sg26
g27
(g28
(I0
tp1328
g30
tp1329
Rp1330
(I1
(I2
tp1331
g36
I00
S'|\x00\x00\x00j\x00\x00\x00'
p1332
tp1333
bsba(i__main__
FrameData
p1334
(dp1335
g6
g113
sg8
g9
(g13
S'\xa3\x14\xae\xa8\x87\x16!@'
p1336
tp1337
Rp1338
sg19
I0
sg20
g21
(S'\x07\xdd\t\x1d\x13\x11.\t\xf6\xaa'
p1339
tp1340
Rp1341
sg25
I0
sg26
g27
(g28
(I0
tp1342
g30
tp1343
Rp1344
(I1
(I2
tp1345
g36
I00
S'{\x00\x00\x00j\x00\x00\x00'
p1346
tp1347
bsba(i__main__
FrameData
p1348
(dp1349
g6
g113
sg8
g9
(g13
S'S[\xda:XL\x19@'
p1350
tp1351
Rp1352
sg19
I0
sg20
g21
(S'\x07\xdd\t\x1d\x13\x11.\nyo'
p1353
tp1354
Rp1355
sg25
I0
sg26
g27
(g28
(I0
tp1356
g30
tp1357
Rp1358
(I1
(I2
tp1359
g36
I00
S'z\x00\x00\x00l\x00\x00\x00'
p1360
tp1361
bsba(i__main__
FrameData
p1362
(dp1363
g6
g113
sg8
g9
(g13
S'9\xdcc\xb3\xbfT\x18@'
p1364
tp1365
Rp1366
sg19
I0
sg20
g21
(S'\x07\xdd\t\x1d\x13\x11.\n\xfd\xd2'
p1367
tp1368
Rp1369
sg25
I0
sg26
g27
(g28
(I0
tp1370
g30
tp1371
Rp1372
(I1
(I2
tp1373
g36
I00
S'y\x00\x00\x00l\x00\x00\x00'
p1374
tp1375
bsba(i__main__
FrameData
p1376
(dp1377
g6
g113
sg8
g9
(g13
S'\x00\x00\x00\x00\x00\x00\x14@'
p1378
tp1379
Rp1380
sg19
I0
sg20
g21
(S'\x07\xdd\t\x1d\x13\x11.\x0b:\xfa'
p1381
tp1382
Rp1383
sg25
I0
sg26
g27
(g28
(I0
tp1384
g30
tp1385
Rp1386
(I1
(I2
tp1387
g36
I00
S'x\x00\x00\x00m\x00\x00\x00'
p1388
tp1389
bsba(i__main__
FrameData
p1390
(dp1391
g6
g113
sg8
g9
(g13
S'\x00\x00\x00\x00\x00\x00\x10@'
p1392
tp1393
Rp1394
sg19
I0
sg20
g21
(S'\x07\xdd\t\x1d\x13\x11.\x0b\x7ff'
p1395
tp1396
Rp1397
sg25
I0
sg26
g27
(g28
(I0
tp1398
g30
tp1399
Rp1400
(I1
(I2
tp1401
g36
I00
S'x\x00\x00\x00n\x00\x00\x00'
p1402
tp1403
bsba(i__main__
FrameData
p1404
(dp1405
g6
g113
sg8
g9
(g13
S'\xa8\xf4\x97\x9bw\xe3\x11@'
p1406
tp1407
Rp1408
sg19
I0
sg20
g21
(S'\x07\xdd\t\x1d\x13\x11.\x0b\xbe\x0e'
p1409
tp1410
Rp1411
sg25
I0
sg26
g27
(g28
(I0
tp1412
g30
tp1413
Rp1414
(I1
(I2
tp1415
g36
I00
S'v\x00\x00\x00n\x00\x00\x00'
p1416
tp1417
bsba(i__main__
FrameData
p1418
(dp1419
g6
g113
sg8
g9
(g13
S'\xd9l\xdf\xccv\xf8\x10@'
p1420
tp1421
Rp1422
sg19
I0
sg20
g21
(S'\x07\xdd\t\x1d\x13\x11.\x0c\x03u'
p1423
tp1424
Rp1425
sg25
I0
sg26
g27
(g28
(I0
tp1426
g30
tp1427
Rp1428
(I1
(I2
tp1429
g36
I00
S'u\x00\x00\x00o\x00\x00\x00'
p1430
tp1431
bsba(i__main__
FrameData
p1432
(dp1433
g6
g113
sg8
g9
(g13
S'\xa8\xf4\x97\x9bw\xe3\x11@'
p1434
tp1435
Rp1436
sg19
I0
sg20
g21
(S'\x07\xdd\t\x1d\x13\x11.\x0c@\xf4'
p1437
tp1438
Rp1439
sg25
I0
sg26
g27
(g28
(I0
tp1440
g30
tp1441
Rp1442
(I1
(I2
tp1443
g36
I00
S't\x00\x00\x00p\x00\x00\x00'
p1444
tp1445
bsba(i__main__
FrameData
p1446
(dp1447
g6
g113
sg8
g9
(g13
S'\x07\xed\xaff\x0f~\x10@'
p1448
tp1449
Rp1450
sg19
I0
sg20
g21
(S'\x07\xdd\t\x1d\x13\x11.\x0c\x87m'
p1451
tp1452
Rp1453
sg25
I0
sg26
g27
(g28
(I0
tp1454
g30
tp1455
Rp1456
(I1
(I2
tp1457
g36
I00
S't\x00\x00\x00q\x00\x00\x00'
p1458
tp1459
bsba(i__main__
FrameData
p1460
(dp1461
g6
g113
sg8
g9
(g13
S'\xf6/\x12_ee\x14@'
p1462
tp1463
Rp1464
sg19
I0
sg20
g21
(S'\x07\xdd\t\x1d\x13\x11.\r\x03\xde'
p1465
tp1466
Rp1467
sg25
I0
sg26
g27
(g28
(I0
tp1468
g30
tp1469
Rp1470
(I1
(I2
tp1471
g36
I00
S's\x00\x00\x00q\x00\x00\x00'
p1472
tp1473
bsba(i__main__
FrameData
p1474
(dp1475
g6
g113
sg8
g9
(g13
S'\xf3\xd9\xa8\xa4h\x8a\x15@'
p1476
tp1477
Rp1478
sg19
I0
sg20
g21
(S'\x07\xdd\t\x1d\x13\x11/\x00\xd2E'
p1479
tp1480
Rp1481
sg25
I0
sg26
g27
(g28
(I0
tp1482
g30
tp1483
Rp1484
(I1
(I2
tp1485
g36
I00
S's\x00\x00\x00p\x00\x00\x00'
p1486
tp1487
bsba(i__main__
FrameData
p1488
(dp1489
g6
g113
sg8
g9
(g13
S'\xf3YaD+\xd8\x0c@'
p1490
tp1491
Rp1492
sg19
I0
sg20
g21
(S'\x07\xdd\t\x1d\x13\x11/\x01\x17\x98'
p1493
tp1494
Rp1495
sg25
I0
sg26
g27
(g28
(I0
tp1496
g30
tp1497
Rp1498
(I1
(I2
tp1499
g36
I00
S'u\x00\x00\x00p\x00\x00\x00'
p1500
tp1501
bsba(i__main__
FrameData
p1502
(dp1503
g6
g113
sg8
g9
(g13
S'\xcd;\x7ff\x9e\xa0\x06@'
p1504
tp1505
Rp1506
sg19
I0
sg20
g21
(S'\x07\xdd\t\x1d\x13\x11/\x01U\x10'
p1507
tp1508
Rp1509
sg25
I0
sg26
g27
(g28
(I0
tp1510
g30
tp1511
Rp1512
(I1
(I2
tp1513
g36
I00
S'v\x00\x00\x00p\x00\x00\x00'
p1514
tp1515
bsba(i__main__
FrameData
p1516
(dp1517
g6
g113
sg8
g9
(g13
S'\xf3YaD+\xd8\x0c@'
p1518
tp1519
Rp1520
sg19
I0
sg20
g21
(S'\x07\xdd\t\x1d\x13\x11/\x01\x99l'
p1521
tp1522
Rp1523
sg25
I0
sg26
g27
(g28
(I0
tp1524
g30
tp1525
Rp1526
(I1
(I2
tp1527
g36
I00
S'v\x00\x00\x00o\x00\x00\x00'
p1528
tp1529
bsba(i__main__
FrameData
p1530
(dp1531
g6
g113
sg8
g9
(g13
S'\x00\x00\x00\x00\x00\x00\x08@'
p1532
tp1533
Rp1534
sg19
I0
sg20
g21
(S'\x07\xdd\t\x1d\x13\x11/\x01\xd9H'
p1535
tp1536
Rp1537
sg25
I0
sg26
g27
(g28
(I0
tp1538
g30
tp1539
Rp1540
(I1
(I2
tp1541
g36
I00
S'x\x00\x00\x00o\x00\x00\x00'
p1542
tp1543
bsba(i__main__
FrameData
p1544
(dp1545
g6
g113
sg8
g9
(g13
S'S[\xda:XL\t@'
p1546
tp1547
Rp1548
sg19
I0
sg20
g21
(S'\x07\xdd\t\x1d\x13\x11/\x02\x16\xc1'
p1549
tp1550
Rp1551
sg25
I0
sg26
g27
(g28
(I0
tp1552
g30
tp1553
Rp1554
(I1
(I2
tp1555
g36
I00
S'y\x00\x00\x00o\x00\x00\x00'
p1556
tp1557
bsba(i__main__
FrameData
p1558
(dp1559
g6
g113
sg8
g9
(g13
S'\x00\xff\x9f\x99\xcc\x9c\x19@'
p1560
tp1561
Rp1562
sg19
I0
sg20
g21
(S'\x07\xdd\t\x1d\x13\x11/\x02Z\xf6'
p1563
tp1564
Rp1565
sg25
I0
sg26
g27
(g28
(I0
tp1566
g30
tp1567
Rp1568
(I1
(I2
tp1569
g36
I00
S'|\x00\x00\x00m\x00\x00\x00'
p1570
tp1571
bsba(i__main__
FrameData
p1572
(dp1573
g6
g113
sg8
g9
(g13
S'ST\xaf\x99\x8a\xcc#@'
p1574
tp1575
Rp1576
sg19
I0
sg20
g21
(S'\x07\xdd\t\x1d\x13\x11/\x02\x99\xb5'
p1577
tp1578
Rp1579
sg25
I0
sg26
g27
(g28
(I0
tp1580
g30
tp1581
Rp1582
(I1
(I2
tp1583
g36
I00
S'\x7f\x00\x00\x00k\x00\x00\x00'
p1584
tp1585
bsba(i__main__
FrameData
p1586
(dp1587
g6
g113
sg8
g9
(g13
S'&5w\xe2K\x15(@'
p1588
tp1589
Rp1590
sg19
I0
sg20
g21
(S'\x07\xdd\t\x1d\x13\x11/\x02\xde\x17'
p1591
tp1592
Rp1593
sg25
I0
sg26
g27
(g28
(I0
tp1594
g30
tp1595
Rp1596
(I1
(I2
tp1597
g36
I00
S'\x81\x00\x00\x00j\x00\x00\x00'
p1598
tp1599
bsba(i__main__
FrameData
p1600
(dp1601
g6
g113
sg8
g9
(g13
S'?*\x98"\xe3l,@'
p1602
tp1603
Rp1604
sg19
I0
sg20
g21
(S'\x07\xdd\t\x1d\x13\x11/\x03\x1b\xa9'
p1605
tp1606
Rp1607
sg25
I0
sg26
g27
(g28
(I0
tp1608
g30
tp1609
Rp1610
(I1
(I2
tp1611
g36
I00
S'\x83\x00\x00\x00i\x00\x00\x00'
p1612
tp1613
bsba(i__main__
FrameData
p1614
(dp1615
g6
g113
sg8
g9
(g13
S'htN\x17\xb2=/@'
p1616
tp1617
Rp1618
sg19
I0
sg20
g21
(S'\x07\xdd\t\x1d\x13\x11/\x03^\xc8'
p1619
tp1620
Rp1621
sg25
I0
sg26
g27
(g28
(I0
tp1622
g30
tp1623
Rp1624
(I1
(I2
tp1625
g36
I00
S'\x84\x00\x00\x00h\x00\x00\x00'
p1626
tp1627
bsba(i__main__
FrameData
p1628
(dp1629
g6
g324
sg8
g9
(g13
S'\x00\x00\x00\x00\x00\x00.@'
p1630
tp1631
Rp1632
sg19
I0
sg20
g21
(S'\x07\xdd\t\x1d\x13\x11/\x03\x9f\x9d'
p1633
tp1634
Rp1635
sg25
I0
sg26
g27
(g28
(I0
tp1636
g30
tp1637
Rp1638
(I1
(I2
tp1639
g36
I00
S'\x87\x00\x00\x00f\x00\x00\x00'
p1640
tp1641
bsba(i__main__
FrameData
p1642
(dp1643
g6
g324
sg8
g9
(g13
S'\xc5Bl?W\x87.@'
p1644
tp1645
Rp1646
sg19
I0
sg20
g21
(S'\x07\xdd\t\x1d\x13\x11/\x03\xe3\xa1'
p1647
tp1648
Rp1649
sg25
I0
sg26
g27
(g28
(I0
tp1650
g30
tp1651
Rp1652
(I1
(I2
tp1653
g36
I00
S'\x88\x00\x00\x00e\x00\x00\x00'
p1654
tp1655
bsba(i__main__
FrameData
p1656
(dp1657
g6
g324
sg8
g9
(g13
S'\xf7\x80Aq\xb9\xa2,@'
p1658
tp1659
Rp1660
sg19
I0
sg20
g21
(S'\x07\xdd\t\x1d\x13\x11/\x04"\x8e'
p1661
tp1662
Rp1663
sg25
I0
sg26
g27
(g28
(I0
tp1664
g30
tp1665
Rp1666
(I1
(I2
tp1667
g36
I00
S'\x8a\x00\x00\x00e\x00\x00\x00'
p1668
tp1669
bsba(i__main__
FrameData
p1670
(dp1671
g6
g324
sg8
g9
(g13
S'/\xa4\xe3\\m\xbb-@'
p1672
tp1673
Rp1674
sg19
I0
sg20
g21
(S'\x07\xdd\t\x1d\x13\x11/\x04f\xec'
p1675
tp1676
Rp1677
sg25
I0
sg26
g27
(g28
(I0
tp1678
g30
tp1679
Rp1680
(I1
(I2
tp1681
g36
I00
S'\x8b\x00\x00\x00d\x00\x00\x00'
p1682
tp1683
bsba(i__main__
FrameData
p1684
(dp1685
g6
g324
sg8
g9
(g13
S'\xf2G\x9b\x0e\x18\x98.@'
p1686
tp1687
Rp1688
sg19
I0
sg20
g21
(S'\x07\xdd\t\x1d\x13\x11/\x04\xa5y'
p1689
tp1690
Rp1691
sg25
I0
sg26
g27
(g28
(I0
tp1692
g30
tp1693
Rp1694
(I1
(I2
tp1695
g36
I00
S'\x8d\x00\x00\x00c\x00\x00\x00'
p1696
tp1697
bsba(i__main__
FrameData
p1698
(dp1699
g6
g324
sg8
g9
(g13
S'\xaf_\x109\x0c\x11.@'
p1700
tp1701
Rp1702
sg19
I0
sg20
g21
(S'\x07\xdd\t\x1d\x13\x11/\x04\xe4"'
p1703
tp1704
Rp1705
sg25
I0
sg26
g27
(g28
(I0
tp1706
g30
tp1707
Rp1708
(I1
(I2
tp1709
g36
I00
S'\x8f\x00\x00\x00c\x00\x00\x00'
p1710
tp1711
bsba(i__main__
FrameData
p1712
(dp1713
g6
g324
sg8
g9
(g13
S'\x00\x00\x00\x00\x00\x00.@'
p1714
tp1715
Rp1716
sg19
I0
sg20
g21
(S'\x07\xdd\t\x1d\x13\x11/\x05%\x83'
p1717
tp1718
Rp1719
sg25
I0
sg26
g27
(g28
(I0
tp1720
g30
tp1721
Rp1722
(I1
(I2
tp1723
g36
I00
S'\x90\x00\x00\x00c\x00\x00\x00'
p1724
tp1725
bsba(i__main__
FrameData
p1726
(dp1727
g6
g324
sg8
g9
(g13
S'\xd0\xbaa?\xe0\x1f0@'
p1728
tp1729
Rp1730
sg19
I0
sg20
g21
(S'\x07\xdd\t\x1d\x13\x11/\x05g3'
p1731
tp1732
Rp1733
sg25
I0
sg26
g27
(g28
(I0
tp1734
g30
tp1735
Rp1736
(I1
(I2
tp1737
g36
I00
S'\x92\x00\x00\x00b\x00\x00\x00'
p1738
tp1739
bsba(i__main__
FrameData
p1740
(dp1741
g6
g324
sg8
g9
(g13
S'+\xe5\x8a\xc6\x8f?2@'
p1742
tp1743
Rp1744
sg19
I0
sg20
g21
(S'\x07\xdd\t\x1d\x13\x11/\x05\xac\xd6'
p1745
tp1746
Rp1747
sg25
I0
sg26
g27
(g28
(I0
tp1748
g30
tp1749
Rp1750
(I1
(I2
tp1751
g36
I00
S'\x93\x00\x00\x00`\x00\x00\x00'
p1752
tp1753
bsba(i__main__
FrameData
p1754
(dp1755
g6
g324
sg8
g9
(g13
S'Mm\x9d\x8c\xc3\xec3@'
p1756
tp1757
Rp1758
sg19
I0
sg20
g21
(S'\x07\xdd\t\x1d\x13\x11/\x05\xe8\xcb'
p1759
tp1760
Rp1761
sg25
I0
sg26
g27
(g28
(I0
tp1762
g30
tp1763
Rp1764
(I1
(I2
tp1765
g36
I00
S'\x96\x00\x00\x00_\x00\x00\x00'
p1766
tp1767
bsba(i__main__
FrameData
p1768
(dp1769
g6
g423
sg8
g9
(g13
S'\x00\x00\x00\x00\x00\x004@'
p1770
tp1771
Rp1772
sg19
I0
sg20
g21
(S'\x07\xdd\t\x1d\x13\x11/\x06-\x91'
p1773
tp1774
Rp1775
sg25
I0
sg26
g27
(g28
(I0
tp1776
g30
tp1777
Rp1778
(I1
(I2
tp1779
g36
I00
S'\x98\x00\x00\x00^\x00\x00\x00'
p1780
tp1781
bsba(i__main__
FrameData
p1782
(dp1783
g6
g423
sg8
g9
(g13
S'+\xe5\x8a\xc6\x8f?2@'
p1784
tp1785
Rp1786
sg19
I0
sg20
g21
(S'\x07\xdd\t\x1d\x13\x11/\x06mk'
p1787
tp1788
Rp1789
sg25
I0
sg26
g27
(g28
(I0
tp1790
g30
tp1791
Rp1792
(I1
(I2
tp1793
g36
I00
S'\x9b\x00\x00\x00\\\x00\x00\x00'
p1794
tp1795
bsba(i__main__
FrameData
p1796
(dp1797
g6
g423
sg8
g9
(g13
S'\xa3\x14\xae\xa8\x87\x161@'
p1798
tp1799
Rp1800
sg19
I0
sg20
g21
(S'\x07\xdd\t\x1d\x13\x11/\x06\xb2s'
p1801
tp1802
Rp1803
sg25
I0
sg26
g27
(g28
(I0
tp1804
g30
tp1805
Rp1806
(I1
(I2
tp1807
g36
I00
S'\x9e\x00\x00\x00Z\x00\x00\x00'
p1808
tp1809
bsba(i__main__
FrameData
p1810
(dp1811
g6
g423
sg8
g9
(g13
S'N\x017\xfac41@'
p1812
tp1813
Rp1814
sg19
I0
sg20
g21
(S'\x07\xdd\t\x1d\x13\x11/\x06\xf0&'
p1815
tp1816
Rp1817
sg25
I0
sg26
g27
(g28
(I0
tp1818
g30
tp1819
Rp1820
(I1
(I2
tp1821
g36
I00
S'\xa2\x00\x00\x00X\x00\x00\x00'
p1822
tp1823
bsba(i__main__
FrameData
p1824
(dp1825
g6
g423
sg8
g9
(g13
S'l\xd0\xe82\x1a\xb11@'
p1826
tp1827
Rp1828
sg19
I0
sg20
g21
(S'\x07\xdd\t\x1d\x13\x11/\x07/\xac'
p1829
tp1830
Rp1831
sg25
I0
sg26
g27
(g28
(I0
tp1832
g30
tp1833
Rp1834
(I1
(I2
tp1835
g36
I00
S'\xa4\x00\x00\x00W\x00\x00\x00'
p1836
tp1837
bsba(i__main__
FrameData
p1838
(dp1839
g6
g564
sg8
g9
(g13
S'9\xf2\xee\xcc\xd9\x1c/@'
p1840
tp1841
Rp1842
sg19
I0
sg20
g21
(S'\x07\xdd\t\x1d\x13\x11/\x07s\x04'
p1843
tp1844
Rp1845
sg25
I0
sg26
g27
(g28
(I0
tp1846
g30
tp1847
Rp1848
(I1
(I2
tp1849
g36
I00
S'\xa7\x00\x00\x00V\x00\x00\x00'
p1850
tp1851
bsba(i__main__
FrameData
p1852
(dp1853
g6
g564
sg8
g9
(g13
S'/\xa4\xe3\\m\xbb-@'
p1854
tp1855
Rp1856
sg19
I0
sg20
g21
(S'\x07\xdd\t\x1d\x13\x11/\x07\xb1\xb1'
p1857
tp1858
Rp1859
sg25
I0
sg26
g27
(g28
(I0
tp1860
g30
tp1861
Rp1862
(I1
(I2
tp1863
g36
I00
S'\xa8\x00\x00\x00V\x00\x00\x00'
p1864
tp1865
bsba(i__main__
FrameData
p1866
(dp1867
g6
g564
sg8
g9
(g13
S'F\xc3\\\xa8\xc1i(@'
p1868
tp1869
Rp1870
sg19
I0
sg20
g21
(S'\x07\xdd\t\x1d\x13\x11/\x07\xf5\xf1'
p1871
tp1872
Rp1873
sg25
I0
sg26
g27
(g28
(I0
tp1874
g30
tp1875
Rp1876
(I1
(I2
tp1877
g36
I00
S'\xab\x00\x00\x00U\x00\x00\x00'
p1878
tp1879
bsba(i__main__
FrameData
p1880
(dp1881
g6
g564
sg8
g9
(g13
S'\x88\x80v\xd5\\\x97$@'
p1882
tp1883
Rp1884
sg19
I0
sg20
g21
(S'\x07\xdd\t\x1d\x13\x11/\x084\x93'
p1885
tp1886
Rp1887
sg25
I0
sg26
g27
(g28
(I0
tp1888
g30
tp1889
Rp1890
(I1
(I2
tp1891
g36
I00
S'\xad\x00\x00\x00T\x00\x00\x00'
p1892
tp1893
bsba(i__main__
FrameData
p1894
(dp1895
g6
g564
sg8
g9
(g13
S'\x07\xed\xaff\x0f~ @'
p1896
tp1897
Rp1898
sg19
I0
sg20
g21
(S'\x07\xdd\t\x1d\x13\x11/\x08x\xc6'
p1899
tp1900
Rp1901
sg25
I0
sg26
g27
(g28
(I0
tp1902
g30
tp1903
Rp1904
(I1
(I2
tp1905
g36
I00
S'\xb0\x00\x00\x00S\x00\x00\x00'
p1906
tp1907
bsba(i__main__
FrameData
p1908
(dp1909
g6
g564
sg8
g9
(g13
S'9\xdcc\xb3\xbfT\x18@'
p1910
tp1911
Rp1912
sg19
I0
sg20
g21
(S'\x07\xdd\t\x1d\x13\x11/\x08\xb7{'
p1913
tp1914
Rp1915
sg25
I0
sg26
g27
(g28
(I0
tp1916
g30
tp1917
Rp1918
(I1
(I2
tp1919
g36
I00
S'\xb3\x00\x00\x00Q\x00\x00\x00'
p1920
tp1921
bsba(i__main__
FrameData
p1922
(dp1923
g6
g564
sg8
g9
(g13
S'\x00\xff\x9f\x99\xcc\x9c\x19@'
p1924
tp1925
Rp1926
sg19
I0
sg20
g21
(S'\x07\xdd\t\x1d\x13\x11/\x08\xfc\xf9'
p1927
tp1928
Rp1929
sg25
I0
sg26
g27
(g28
(I0
tp1930
g30
tp1931
Rp1932
(I1
(I2
tp1933
g36
I00
S'\xb6\x00\x00\x00P\x00\x00\x00'
p1934
tp1935
bsba(i__main__
FrameData
p1936
(dp1937
g6
g564
sg8
g9
(g13
S'\x00\xff\x9f\x99\xcc\x9c\x19@'
p1938
tp1939
Rp1940
sg19
I0
sg20
g21
(S'\x07\xdd\t\x1d\x13\x11/\t:}'
p1941
tp1942
Rp1943
sg25
I0
sg26
g27
(g28
(I0
tp1944
g30
tp1945
Rp1946
(I1
(I2
tp1947
g36
I00
S'\xb7\x00\x00\x00O\x00\x00\x00'
p1948
tp1949
bsba(i__main__
FrameData
p1950
(dp1951
g6
g564
sg8
g9
(g13
S'\xf3YaD+\xd8\x1c@'
p1952
tp1953
Rp1954
sg19
I0
sg20
g21
(S'\x07\xdd\t\x1d\x13\x11/\tz\xcb'
p1955
tp1956
Rp1957
sg25
I0
sg26
g27
(g28
(I0
tp1958
g30
tp1959
Rp1960
(I1
(I2
tp1961
g36
I00
S'\xb8\x00\x00\x00O\x00\x00\x00'
p1962
tp1963
bsba(i__main__
FrameData
p1964
(dp1965
g6
g564
sg8
g9
(g13
S'\xa3\x14\xae\xa8\x87\x16!@'
p1966
tp1967
Rp1968
sg19
I0
sg20
g21
(S'\x07\xdd\t\x1d\x13\x11/\t\xfe\t'
p1969
tp1970
Rp1971
sg25
I0
sg26
g27
(g28
(I0
tp1972
g30
tp1973
Rp1974
(I1
(I2
tp1975
g36
I00
S'\xba\x00\x00\x00N\x00\x00\x00'
p1976
tp1977
bsba(i__main__
FrameData
p1978
(dp1979
g6
g564
sg8
g9
(g13
S'~\xc4#,B\xf9"@'
p1980
tp1981
Rp1982
sg19
I0
sg20
g21
(S'\x07\xdd\t\x1d\x13\x11/\n@z'
p1983
tp1984
Rp1985
sg25
I0
sg26
g27
(g28
(I0
tp1986
g30
tp1987
Rp1988
(I1
(I2
tp1989
g36
I00
S'\xbb\x00\x00\x00N\x00\x00\x00'
p1990
tp1991
bsba(i__main__
FrameData
p1992
(dp1993
g6
g564
sg8
g9
(g13
S'\xf6/\x12_ee$@'
p1994
tp1995
Rp1996
sg19
I0
sg20
g21
(S'\x07\xdd\t\x1d\x13\x11/\n\x84\xcc'
p1997
tp1998
Rp1999
sg25
I0
sg26
g27
(g28
(I0
tp2000
g30
tp2001
Rp2002
(I1
(I2
tp2003
g36
I00
S'\xbc\x00\x00\x00M\x00\x00\x00'
p2004
tp2005
bsba(i__main__
FrameData
p2006
(dp2007
g6
g564
sg8
g9
(g13
S'\xd2\xf1}\x82U\\&@'
p2008
tp2009
Rp2010
sg19
I0
sg20
g21
(S'\x07\xdd\t\x1d\x13\x11/\n\xc3G'
p2011
tp2012
Rp2013
sg25
I0
sg26
g27
(g28
(I0
tp2014
g30
tp2015
Rp2016
(I1
(I2
tp2017
g36
I00
S'\xbd\x00\x00\x00M\x00\x00\x00'
p2018
tp2019
bsba(i__main__
FrameData
p2020
(dp2021
g6
S'o'
p2022
sg8
g9
(g13
S'\xd2\xf1}\x82U\\&@'
p2023
tp2024
Rp2025
sg19
I0
sg20
g21
(S'\x07\xdd\t\x1d\x13\x11/\x0b\x02\x04'
p2026
tp2027
Rp2028
sg25
I0
sg26
g27
(g28
(I0
tp2029
g30
tp2030
Rp2031
(I1
(I2
tp2032
g36
I00
S'\xbf\x00\x00\x00M\x00\x00\x00'
p2033
tp2034
bsba(i__main__
FrameData
p2035
(dp2036
g6
g2022
sg8
g9
(g13
S'\xf6/\x12_ee$@'
p2037
tp2038
Rp2039
sg19
I0
sg20
g21
(S'\x07\xdd\t\x1d\x13\x11/\x0bFE'
p2040
tp2041
Rp2042
sg25
I0
sg26
g27
(g28
(I0
tp2043
g30
tp2044
Rp2045
(I1
(I2
tp2046
g36
I00
S'\xc0\x00\x00\x00M\x00\x00\x00'
p2047
tp2048
bsba(i__main__
FrameData
p2049
(dp2050
g6
g2022
sg8
g9
(g13
S'\x9a.\x90!hp"@'
p2051
tp2052
Rp2053
sg19
I0
sg20
g21
(S'\x07\xdd\t\x1d\x13\x11/\x0b\xc7\xa7'
p2054
tp2055
Rp2056
sg25
I0
sg26
g27
(g28
(I0
tp2057
g30
tp2058
Rp2059
(I1
(I2
tp2060
g36
I00
S'\xc1\x00\x00\x00M\x00\x00\x00'
p2061
tp2062
bsba(i__main__
FrameData
p2063
(dp2064
g6
g2022
sg8
g9
(g13
S'\xc0\n\x1f\x00\xc6H\x1c@'
p2065
tp2066
Rp2067
sg19
I0
sg20
g21
(S'\x07\xdd\t\x1d\x13\x11/\x0c\x07\xe4'
p2068
tp2069
Rp2070
sg25
I0
sg26
g27
(g28
(I0
tp2071
g30
tp2072
Rp2073
(I1
(I2
tp2074
g36
I00
S'\xc3\x00\x00\x00L\x00\x00\x00'
p2075
tp2076
bsba(i__main__
FrameData
p2077
(dp2078
g6
g2022
sg8
g9
(g13
S'9\xdcc\xb3\xbfT\x18@'
p2079
tp2080
Rp2081
sg19
I0
sg20
g21
(S'\x07\xdd\t\x1d\x13\x11/\x0cLA'
p2082
tp2083
Rp2084
sg25
I0
sg26
g27
(g28
(I0
tp2085
g30
tp2086
Rp2087
(I1
(I2
tp2088
g36
I00
S'\xc4\x00\x00\x00L\x00\x00\x00'
p2089
tp2090
bsba(i__main__
FrameData
p2091
(dp2092
g6
g2022
sg8
g9
(g13
S'\xf6/\x12_ee\x14@'
p2093
tp2094
Rp2095
sg19
I0
sg20
g21
(S'\x07\xdd\t\x1d\x13\x11/\x0c\x8a\xeb'
p2096
tp2097
Rp2098
sg25
I0
sg26
g27
(g28
(I0
tp2099
g30
tp2100
Rp2101
(I1
(I2
tp2102
g36
I00
S'\xc5\x00\x00\x00L\x00\x00\x00'
p2103
tp2104
bsba(i__main__
FrameData
p2105
(dp2106
g6
g2022
sg8
g9
(g13
S'\xf6/\x12_ee\x14@'
p2107
tp2108
Rp2109
sg19
I0
sg20
g21
(S'\x07\xdd\t\x1d\x13\x11/\x0c\xcc\xcc'
p2110
tp2111
Rp2112
sg25
I0
sg26
g27
(g28
(I0
tp2113
g30
tp2114
Rp2115
(I1
(I2
tp2116
g36
I00
S'\xc5\x00\x00\x00J\x00\x00\x00'
p2117
tp2118
bsba(i__main__
FrameData
p2119
(dp2120
g6
g2022
sg8
g9
(g13
S'S[\xda:XL\t@'
p2121
tp2122
Rp2123
sg19
I0
sg20
g21
(S'\x07\xdd\t\x1d\x13\x11/\rRE'
p2124
tp2125
Rp2126
sg25
I0
sg26
g27
(g28
(I0
tp2127
g30
tp2128
Rp2129
(I1
(I2
tp2130
g36
I00
S'\xc7\x00\x00\x00J\x00\x00\x00'
p2131
tp2132
bsba(i__main__
FrameData
p2133
(dp2134
g6
g2022
sg8
g9
(g13
S'\xa8\xf4\x97\x9bw\xe3\x01@'
p2135
tp2136
Rp2137
sg19
I0
sg20
g21
(S'\x07\xdd\t\x1d\x13\x110\x00\x16&'
p2138
tp2139
Rp2140
sg25
I0
sg26
g27
(g28
(I0
tp2141
g30
tp2142
Rp2143
(I1
(I2
tp2144
g36
I00
S'\xc8\x00\x00\x00J\x00\x00\x00'
p2145
tp2146
bsba(i__main__
FrameData
p2147
(dp2148
g6
g2022
sg8
g9
(g13
S'\xcd;\x7ff\x9e\xa0\xf6?'
p2149
tp2150
Rp2151
sg19
I0
sg20
g21
(S'\x07\xdd\t\x1d\x13\x110\x00\x99:'
p2152
tp2153
Rp2154
sg25
I0
sg26
g27
(g28
(I0
tp2155
g30
tp2156
Rp2157
(I1
(I2
tp2158
g36
I00
S'\xc9\x00\x00\x00J\x00\x00\x00'
p2159
tp2160
bsba(i__main__
FrameData
p2161
(dp2162
g6
g2022
sg8
g9
(g13
S'\x00\x00\x00\x00\x00\x00\xf0?'
p2163
tp2164
Rp2165
sg19
I0
sg20
g21
(S'\x07\xdd\t\x1d\x13\x110\x00\xddk'
p2166
tp2167
Rp2168
sg25
I0
sg26
g27
(g28
(I0
tp2169
g30
tp2170
Rp2171
(I1
(I2
tp2172
g36
I00
S'\xca\x00\x00\x00J\x00\x00\x00'
p2173
tp2174
bsba(i__main__
FrameData
p2175
(dp2176
g6
g2022
sg8
g9
(g13
S'\xcd;\x7ff\x9e\xa0\xf6?'
p2177
tp2178
Rp2179
sg19
I0
sg20
g21
(S'\x07\xdd\t\x1d\x13\x110\x01\x1c\x01'
p2180
tp2181
Rp2182
sg25
I0
sg26
g27
(g28
(I0
tp2183
g30
tp2184
Rp2185
(I1
(I2
tp2186
g36
I00
S'\xcb\x00\x00\x00J\x00\x00\x00'
p2187
tp2188
bsba(i__main__
FrameData
p2189
(dp2190
g6
g2022
sg8
g9
(g13
S'\x00\x00\x00\x00\x00\x00\xf0?'
p2191
tp2192
Rp2193
sg19
I0
sg20
g21
(S'\x07\xdd\t\x1d\x13\x110\x03\xac\x12'
p2194
tp2195
Rp2196
sg25
I0
sg26
g27
(g28
(I0
tp2197
g30
tp2198
Rp2199
(I1
(I2
tp2200
g36
I00
S'\xca\x00\x00\x00J\x00\x00\x00'
p2201
tp2202
bsba(i__main__
FrameData
p2203
(dp2204
g6
g2022
sg8
g9
(g13
S'\xcd;\x7ff\x9e\xa0\xf6?'
p2205
tp2206
Rp2207
sg19
I0
sg20
g21
(S'\x07\xdd\t\x1d\x13\x110\x03\xe82'
p2208
tp2209
Rp2210
sg25
I0
sg26
g27
(g28
(I0
tp2211
g30
tp2212
Rp2213
(I1
(I2
tp2214
g36
I00
S'\xc9\x00\x00\x00J\x00\x00\x00'
p2215
tp2216
bsba(i__main__
FrameData
p2217
(dp2218
g6
g2022
sg8
g9
(g13
S'\xa8\xf4\x97\x9bw\xe3\x01@'
p2219
tp2220
Rp2221
sg19
I0
sg20
g21
(S'\x07\xdd\t\x1d\x13\x110\x04(n'
p2222
tp2223
Rp2224
sg25
I0
sg26
g27
(g28
(I0
tp2225
g30
tp2226
Rp2227
(I1
(I2
tp2228
g36
I00
S'\xc8\x00\x00\x00J\x00\x00\x00'
p2229
tp2230
bsba(i__main__
FrameData
p2231
(dp2232
g6
g2022
sg8
g9
(g13
S'\x07\xed\xaff\x0f~\x10@'
p2233
tp2234
Rp2235
sg19
I0
sg20
g21
(S'\x07\xdd\t\x1d\x13\x110\x04m\xa2'
p2236
tp2237
Rp2238
sg25
I0
sg26
g27
(g28
(I0
tp2239
g30
tp2240
Rp2241
(I1
(I2
tp2242
g36
I00
S'\xc6\x00\x00\x00J\x00\x00\x00'
p2243
tp2244
bsba(i__main__
FrameData
p2245
(dp2246
g6
g2022
sg8
g9
(g13
S'\xf6/\x12_ee\x14@'
p2247
tp2248
Rp2249
sg19
I0
sg20
g21
(S'\x07\xdd\t\x1d\x13\x110\x04\xb0\xa0'
p2250
tp2251
Rp2252
sg25
I0
sg26
g27
(g28
(I0
tp2253
g30
tp2254
Rp2255
(I1
(I2
tp2256
g36
I00
S'\xc5\x00\x00\x00J\x00\x00\x00'
p2257
tp2258
bsba(i__main__
FrameData
p2259
(dp2260
g6
g2022
sg8
g9
(g13
S'9\xdcc\xb3\xbfT\x18@'
p2261
tp2262
Rp2263
sg19
I0
sg20
g21
(S'\x07\xdd\t\x1d\x13\x110\x04\xefI'
p2264
tp2265
Rp2266
sg25
I0
sg26
g27
(g28
(I0
tp2267
g30
tp2268
Rp2269
(I1
(I2
tp2270
g36
I00
S'\xc4\x00\x00\x00J\x00\x00\x00'
p2271
tp2272
bsba(i__main__
FrameData
p2273
(dp2274
g6
g2022
sg8
g9
(g13
S'\x00\x00\x00\x00\x00\x00\x18@'
p2275
tp2276
Rp2277
sg19
I0
sg20
g21
(S'\x07\xdd\t\x1d\x13\x110\x05.\xff'
p2278
tp2279
Rp2280
sg25
I0
sg26
g27
(g28
(I0
tp2281
g30
tp2282
Rp2283
(I1
(I2
tp2284
g36
I00
S'\xc4\x00\x00\x00K\x00\x00\x00'
p2285
tp2286
bsba(i__main__
FrameData
p2287
(dp2288
g6
g2022
sg8
g9
(g13
S'\x00\x00\x00\x00\x00\x00 @'
p2289
tp2290
Rp2291
sg19
I0
sg20
g21
(S'\x07\xdd\t\x1d\x13\x110\x05rD'
p2292
tp2293
Rp2294
sg25
I0
sg26
g27
(g28
(I0
tp2295
g30
tp2296
Rp2297
(I1
(I2
tp2298
g36
I00
S'\xc2\x00\x00\x00K\x00\x00\x00'
p2299
tp2300
bsba(i__main__
FrameData
p2301
(dp2302
g6
g2022
sg8
g9
(g13
S'\x00\x00\x00\x00\x00\x00"@'
p2303
tp2304
Rp2305
sg19
I0
sg20
g21
(S'\x07\xdd\t\x1d\x13\x110\x05\xb0\xe0'
p2306
tp2307
Rp2308
sg25
I0
sg26
g27
(g28
(I0
tp2309
g30
tp2310
Rp2311
(I1
(I2
tp2312
g36
I00
S'\xc1\x00\x00\x00K\x00\x00\x00'
p2313
tp2314
bsba(i__main__
FrameData
p2315
(dp2316
g6
g2022
sg8
g9
(g13
S'\x9a.\x90!hp"@'
p2317
tp2318
Rp2319
sg19
I0
sg20
g21
(S'\x07\xdd\t\x1d\x13\x110\x05\xf6\xa0'
p2320
tp2321
Rp2322
sg25
I0
sg26
g27
(g28
(I0
tp2323
g30
tp2324
Rp2325
(I1
(I2
tp2326
g36
I00
S'\xc1\x00\x00\x00M\x00\x00\x00'
p2327
tp2328
bsba(i__main__
FrameData
p2329
(dp2330
g6
g564
sg8
g9
(g13
S'9\xdcc\xb3\xbfT(@'
p2331
tp2332
Rp2333
sg19
I0
sg20
g21
(S'\x07\xdd\t\x1d\x13\x110\x063\xe8'
p2334
tp2335
Rp2336
sg25
I0
sg26
g27
(g28
(I0
tp2337
g30
tp2338
Rp2339
(I1
(I2
tp2340
g36
I00
S'\xbe\x00\x00\x00M\x00\x00\x00'
p2341
tp2342
bsba(i__main__
FrameData
p2343
(dp2344
g6
g564
sg8
g9
(g13
S'~\xc4#,B\xf9"@'
p2345
tp2346
Rp2347
sg19
I0
sg20
g21
(S'\x07\xdd\t\x1d\x13\x110\x06t\x02'
p2348
tp2349
Rp2350
sg25
I0
sg26
g27
(g28
(I0
tp2351
g30
tp2352
Rp2353
(I1
(I2
tp2354
g36
I00
S'\xbb\x00\x00\x00N\x00\x00\x00'
p2355
tp2356
bsba(i__main__
FrameData
p2357
(dp2358
g6
g564
sg8
g9
(g13
S'\xf3YaD+\xd8\x1c@'
p2359
tp2360
Rp2361
sg19
I0
sg20
g21
(S'\x07\xdd\t\x1d\x13\x110\x06\xb7\xd8'
p2362
tp2363
Rp2364
sg25
I0
sg26
g27
(g28
(I0
tp2365
g30
tp2366
Rp2367
(I1
(I2
tp2368
g36
I00
S'\xb8\x00\x00\x00O\x00\x00\x00'
p2369
tp2370
bsba(i__main__
FrameData
p2371
(dp2372
g6
g564
sg8
g9
(g13
S'9\xdcc\xb3\xbfT\x18@'
p2373
tp2374
Rp2375
sg19
I0
sg20
g21
(S'\x07\xdd\t\x1d\x13\x110\x06\xf6\x9b'
p2376
tp2377
Rp2378
sg25
I0
sg26
g27
(g28
(I0
tp2379
g30
tp2380
Rp2381
(I1
(I2
tp2382
g36
I00
S'\xb1\x00\x00\x00Q\x00\x00\x00'
p2383
tp2384
bsba(i__main__
FrameData
p2385
(dp2386
g6
g564
sg8
g9
(g13
S'\xef\rI\xf1\xf33+@'
p2387
tp2388
Rp2389
sg19
I0
sg20
g21
(S'\x07\xdd\t\x1d\x13\x110\x079\xc4'
p2390
tp2391
Rp2392
sg25
I0
sg26
g27
(g28
(I0
tp2393
g30
tp2394
Rp2395
(I1
(I2
tp2396
g36
I00
S'\xa7\x00\x00\x00S\x00\x00\x00'
p2397
tp2398
bsba(i__main__
FrameData
p2399
(dp2400
g6
g423
sg8
g9
(g13
S'?*\x98"\xe3l,@'
p2401
tp2402
Rp2403
sg19
I0
sg20
g21
(S'\x07\xdd\t\x1d\x13\x110\x07xc'
p2404
tp2405
Rp2406
sg25
I0
sg26
g27
(g28
(I0
tp2407
g30
tp2408
Rp2409
(I1
(I2
tp2410
g36
I00
S'\xa1\x00\x00\x00U\x00\x00\x00'
p2411
tp2412
bsba(i__main__
FrameData
p2413
(dp2414
g6
g423
sg8
g9
(g13
S'\x00\x00\x00\x00\x00\x00(@'
p2415
tp2416
Rp2417
sg19
I0
sg20
g21
(S'\x07\xdd\t\x1d\x13\x110\x07\xbc\xb6'
p2418
tp2419
Rp2420
sg25
I0
sg26
g27
(g28
(I0
tp2421
g30
tp2422
Rp2423
(I1
(I2
tp2424
g36
I00
S'\x98\x00\x00\x00V\x00\x00\x00'
p2425
tp2426
bsba(i__main__
FrameData
p2427
(dp2428
g6
g423
sg8
g9
(g13
S'/\xa4\xe3\\m\xbb-@'
p2429
tp2430
Rp2431
sg19
I0
sg20
g21
(S'\x07\xdd\t\x1d\x13\x110\x07\xfbO'
p2432
tp2433
Rp2434
sg25
I0
sg26
g27
(g28
(I0
tp2435
g30
tp2436
Rp2437
(I1
(I2
tp2438
g36
I00
S'\x93\x00\x00\x00X\x00\x00\x00'
p2439
tp2440
bsba(i__main__
FrameData
p2441
(dp2442
g6
g1055
sg8
g9
(g13
S'\xd9l\xdf\xccv\xf80@'
p2443
tp2444
Rp2445
sg19
I0
sg20
g21
(S'\x07\xdd\t\x1d\x13\x110\x08@\xc5'
p2446
tp2447
Rp2448
sg25
I0
sg26
g27
(g28
(I0
tp2449
g30
tp2450
Rp2451
(I1
(I2
tp2452
g36
I00
S'\x8e\x00\x00\x00Y\x00\x00\x00'
p2453
tp2454
bsba(i__main__
FrameData
p2455
(dp2456
g6
g1055
sg8
g9
(g13
S'htN\x17\xb2=/@'
p2457
tp2458
Rp2459
sg19
I0
sg20
g21
(S'\x07\xdd\t\x1d\x13\x110\x08~x'
p2460
tp2461
Rp2462
sg25
I0
sg26
g27
(g28
(I0
tp2463
g30
tp2464
Rp2465
(I1
(I2
tp2466
g36
I00
S'\x8c\x00\x00\x00Y\x00\x00\x00'
p2467
tp2468
bsba(i__main__
FrameData
p2469
(dp2470
g6
g1055
sg8
g9
(g13
S'\xb2\xdb]\xe3\x96\x87-@'
p2471
tp2472
Rp2473
sg19
I0
sg20
g21
(S'\x07\xdd\t\x1d\x13\x110\x08\xc2\xd1'
p2474
tp2475
Rp2476
sg25
I0
sg26
g27
(g28
(I0
tp2477
g30
tp2478
Rp2479
(I1
(I2
tp2480
g36
I00
S'\x89\x00\x00\x00Z\x00\x00\x00'
p2481
tp2482
bsba(i__main__
FrameData
p2483
(dp2484
g6
g1055
sg8
g9
(g13
S'\xbc\xfdP\xb5U\xdb+@'
p2485
tp2486
Rp2487
sg19
I0
sg20
g21
(S'\x07\xdd\t\x1d\x13\x110\t\x03}'
p2488
tp2489
Rp2490
sg25
I0
sg26
g27
(g28
(I0
tp2491
g30
tp2492
Rp2493
(I1
(I2
tp2494
g36
I00
S'\x87\x00\x00\x00Z\x00\x00\x00'
p2495
tp2496
bsba(i__main__
FrameData
p2497
(dp2498
g6
g1055
sg8
g9
(g13
S'8H\x9b\x97\xee\xae*@'
p2499
tp2500
Rp2501
sg19
I0
sg20
g21
(S'\x07\xdd\t\x1d\x13\x110\tB\x95'
p2502
tp2503
Rp2504
sg25
I0
sg26
g27
(g28
(I0
tp2505
g30
tp2506
Rp2507
(I1
(I2
tp2508
g36
I00
S'\x85\x00\x00\x00Z\x00\x00\x00'
p2509
tp2510
bsba(i__main__
FrameData
p2511
(dp2512
g6
g1055
sg8
g9
(g13
S'Qf\x99\xcb\xa9\x13*@'
p2513
tp2514
Rp2515
sg19
I0
sg20
g21
(S'\x07\xdd\t\x1d\x13\x110\t\x84p'
p2516
tp2517
Rp2518
sg25
I0
sg26
g27
(g28
(I0
tp2519
g30
tp2520
Rp2521
(I1
(I2
tp2522
g36
I00
S'\x83\x00\x00\x00Z\x00\x00\x00'
p2523
tp2524
bsba(i__main__
FrameData
p2525
(dp2526
g6
g1055
sg8
g9
(g13
S'\x00\x00\x00\x00\x00\x00*@'
p2527
tp2528
Rp2529
sg19
I0
sg20
g21
(S'\x07\xdd\t\x1d\x13\x110\t\xc8\xb6'
p2530
tp2531
Rp2532
sg25
I0
sg26
g27
(g28
(I0
tp2533
g30
tp2534
Rp2535
(I1
(I2
tp2536
g36
I00
S'\x82\x00\x00\x00Z\x00\x00\x00'
p2537
tp2538
bsba(i__main__
FrameData
p2539
(dp2540
g6
g1055
sg8
g9
(g13
S'\xde4\xda\xfeNN*@'
p2541
tp2542
Rp2543
sg19
I0
sg20
g21
(S'\x07\xdd\t\x1d\x13\x110\n\x07N'
p2544
tp2545
Rp2546
sg25
I0
sg26
g27
(g28
(I0
tp2547
g30
tp2548
Rp2549
(I1
(I2
tp2550
g36
I00
S'\x80\x00\x00\x00Z\x00\x00\x00'
p2551
tp2552
bsba(i__main__
FrameData
p2553
(dp2554
g6
g1055
sg8
g9
(g13
S'\xef\rI\xf1\xf33+@'
p2555
tp2556
Rp2557
sg19
I0
sg20
g21
(S'\x07\xdd\t\x1d\x13\x110\nK\x86'
p2558
tp2559
Rp2560
sg25
I0
sg26
g27
(g28
(I0
tp2561
g30
tp2562
Rp2563
(I1
(I2
tp2564
g36
I00
S'~\x00\x00\x00Z\x00\x00\x00'
p2565
tp2566
bsba(i__main__
FrameData
p2567
(dp2568
g6
g1055
sg8
g9
(g13
S'\xbc\xfdP\xb5U\xdb+@'
p2569
tp2570
Rp2571
sg19
I0
sg20
g21
(S'\x07\xdd\t\x1d\x13\x110\n\x8bl'
p2572
tp2573
Rp2574
sg25
I0
sg26
g27
(g28
(I0
tp2575
g30
tp2576
Rp2577
(I1
(I2
tp2578
g36
I00
S'}\x00\x00\x00Z\x00\x00\x00'
p2579
tp2580
bsba(i__main__
FrameData
p2581
(dp2582
g6
g1055
sg8
g9
(g13
S'\xb2\xdb]\xe3\x96\x87-@'
p2583
tp2584
Rp2585
sg19
I0
sg20
g21
(S'\x07\xdd\t\x1d\x13\x110\n\xc8\xeb'
p2586
tp2587
Rp2588
sg25
I0
sg26
g27
(g28
(I0
tp2589
g30
tp2590
Rp2591
(I1
(I2
tp2592
g36
I00
S'{\x00\x00\x00Z\x00\x00\x00'
p2593
tp2594
bsba(i__main__
FrameData
p2595
(dp2596
g6
g1055
sg8
g9
(g13
S"'\xf2\x90In\x9f/@"
p2597
tp2598
Rp2599
sg19
I0
sg20
g21
(S'\x07\xdd\t\x1d\x13\x110\x0b\rG'
p2600
tp2601
Rp2602
sg25
I0
sg26
g27
(g28
(I0
tp2603
g30
tp2604
Rp2605
(I1
(I2
tp2606
g36
I00
S'y\x00\x00\x00Z\x00\x00\x00'
p2607
tp2608
bsba(i__main__
FrameData
p2609
(dp2610
g6
g1055
sg8
g9
(g13
S')\x9ah\xdd\x85\x071@'
p2611
tp2612
Rp2613
sg19
I0
sg20
g21
(S'\x07\xdd\t\x1d\x13\x110\x0bM*'
p2614
tp2615
Rp2616
sg25
I0
sg26
g27
(g28
(I0
tp2617
g30
tp2618
Rp2619
(I1
(I2
tp2620
g36
I00
S'w\x00\x00\x00Z\x00\x00\x00'
p2621
tp2622
bsba(i__main__
FrameData
p2623
(dp2624
g6
g1055
sg8
g9
(g13
S'\x96`G\xb3\x80b2@'
p2625
tp2626
Rp2627
sg19
I0
sg20
g21
(S'\x07\xdd\t\x1d\x13\x110\x0b\x8e\xbf'
p2628
tp2629
Rp2630
sg25
I0
sg26
g27
(g28
(I0
tp2631
g30
tp2632
Rp2633
(I1
(I2
tp2634
g36
I00
S'u\x00\x00\x00Z\x00\x00\x00'
p2635
tp2636
bsba(i__main__
FrameData
p2637
(dp2638
g6
S't'
p2639
sg8
g9
(g13
S'\x00\x00\x00\x00\x00\x001@'
p2640
tp2641
Rp2642
sg19
I0
sg20
g21
(S'\x07\xdd\t\x1d\x13\x110\x0b\xce\xdb'
p2643
tp2644
Rp2645
sg25
I0
sg26
g27
(g28
(I0
tp2646
g30
tp2647
Rp2648
(I1
(I2
tp2649
g36
I00
S'r\x00\x00\x00Z\x00\x00\x00'
p2650
tp2651
bsba(i__main__
FrameData
p2652
(dp2653
g6
g2639
sg8
g9
(g13
S"'\xf2\x90In\x9f/@"
p2654
tp2655
Rp2656
sg19
I0
sg20
g21
(S'\x07\xdd\t\x1d\x13\x110\x0c\x13&'
p2657
tp2658
Rp2659
sg25
I0
sg26
g27
(g28
(I0
tp2660
g30
tp2661
Rp2662
(I1
(I2
tp2663
g36
I00
S'o\x00\x00\x00Z\x00\x00\x00'
p2664
tp2665
bsba(i__main__
FrameData
p2666
(dp2667
g6
g2639
sg8
g9
(g13
S')\x03\xec/C\x12,@'
p2668
tp2669
Rp2670
sg19
I0
sg20
g21
(S'\x07\xdd\t\x1d\x13\x110\x0cQ\xdc'
p2671
tp2672
Rp2673
sg25
I0
sg26
g27
(g28
(I0
tp2674
g30
tp2675
Rp2676
(I1
(I2
tp2677
g36
I00
S'k\x00\x00\x00Y\x00\x00\x00'
p2678
tp2679
bsba(i__main__
FrameData
p2680
(dp2681
g6
g2639
sg8
g9
(g13
S'Qf\x99\xcb\xa9\x13*@'
p2682
tp2683
Rp2684
sg19
I0
sg20
g21
(S'\x07\xdd\t\x1d\x13\x110\x0c\x96\x15'
p2685
tp2686
Rp2687
sg25
I0
sg26
g27
(g28
(I0
tp2688
g30
tp2689
Rp2690
(I1
(I2
tp2691
g36
I00
S'i\x00\x00\x00X\x00\x00\x00'
p2692
tp2693
bsba(i__main__
FrameData
p2694
(dp2695
g6
g2639
sg8
g9
(g13
S'8H\x9b\x97\xee\xae*@'
p2696
tp2697
Rp2698
sg19
I0
sg20
g21
(S'\x07\xdd\t\x1d\x13\x110\x0c\xd2\xf6'
p2699
tp2700
Rp2701
sg25
I0
sg26
g27
(g28
(I0
tp2702
g30
tp2703
Rp2704
(I1
(I2
tp2705
g36
I00
S'g\x00\x00\x00X\x00\x00\x00'
p2706
tp2707
bsba(i__main__
FrameData
p2708
(dp2709
g6
g2639
sg8
g9
(g13
S'S[\xda:XL)@'
p2710
tp2711
Rp2712
sg19
I0
sg20
g21
(S'\x07\xdd\t\x1d\x13\x110\r\x15K'
p2713
tp2714
Rp2715
sg25
I0
sg26
g27
(g28
(I0
tp2716
g30
tp2717
Rp2718
(I1
(I2
tp2719
g36
I00
S'f\x00\x00\x00W\x00\x00\x00'
p2720
tp2721
bsba(i__main__
FrameData
p2722
(dp2723
g6
g2639
sg8
g9
(g13
S'\x00\x00\x00\x00\x00\x00*@'
p2724
tp2725
Rp2726
sg19
I0
sg20
g21
(S'\x07\xdd\t\x1d\x13\x110\rW\xa9'
p2727
tp2728
Rp2729
sg25
I0
sg26
g27
(g28
(I0
tp2730
g30
tp2731
Rp2732
(I1
(I2
tp2733
g36
I00
S'e\x00\x00\x00W\x00\x00\x00'
p2734
tp2735
bsba(i__main__
FrameData
p2736
(dp2737
g6
g2639
sg8
g9
(g13
S'\xfc\xeeci3\xd5*@'
p2738
tp2739
Rp2740
sg19
I0
sg20
g21
(S'\x07\xdd\t\x1d\x13\x110\r\x96\xaf'
p2741
tp2742
Rp2743
sg25
I0
sg26
g27
(g28
(I0
tp2744
g30
tp2745
Rp2746
(I1
(I2
tp2747
g36
I00
S'd\x00\x00\x00W\x00\x00\x00'
p2748
tp2749
bsba(i__main__
FrameData
p2750
(dp2751
g6
g2639
sg8
g9
(g13
S"\xa2\xa3\xb3\r\xe5R'@"
p2752
tp2753
Rp2754
sg19
I0
sg20
g21
(S'\x07\xdd\t\x1d\x13\x110\r\xd8\xb3'
p2755
tp2756
Rp2757
sg25
I0
sg26
g27
(g28
(I0
tp2758
g30
tp2759
Rp2760
(I1
(I2
tp2761
g36
I00
S'd\x00\x00\x00U\x00\x00\x00'
p2762
tp2763
bsba(i__main__
FrameData
p2764
(dp2765
g6
g2639
sg8
g9
(g13
S'F\xc3\\\xa8\xc1i(@'
p2766
tp2767
Rp2768
sg19
I0
sg20
g21
(S'\x07\xdd\t\x1d\x13\x110\x0e\x19N'
p2769
tp2770
Rp2771
sg25
I0
sg26
g27
(g28
(I0
tp2772
g30
tp2773
Rp2774
(I1
(I2
tp2775
g36
I00
S'c\x00\x00\x00U\x00\x00\x00'
p2776
tp2777
bsba(i__main__
FrameData
p2778
(dp2779
g6
g2639
sg8
g9
(g13
S'&5w\xe2K\x15(@'
p2780
tp2781
Rp2782
sg19
I0
sg20
g21
(S'\x07\xdd\t\x1d\x13\x110\x0e^\xd4'
p2783
tp2784
Rp2785
sg25
I0
sg26
g27
(g28
(I0
tp2786
g30
tp2787
Rp2788
(I1
(I2
tp2789
g36
I00
S'b\x00\x00\x00T\x00\x00\x00'
p2790
tp2791
bsba(i__main__
FrameData
p2792
(dp2793
g6
g2639
sg8
g9
(g13
S'F#O3\xb2t)@'
p2794
tp2795
Rp2796
sg19
I0
sg20
g21
(S'\x07\xdd\t\x1d\x13\x110\x0e\x9b\xf2'
p2797
tp2798
Rp2799
sg25
I0
sg26
g27
(g28
(I0
tp2800
g30
tp2801
Rp2802
(I1
(I2
tp2803
g36
I00
S'a\x00\x00\x00T\x00\x00\x00'
p2804
tp2805
bsba(i__main__
FrameData
p2806
(dp2807
g6
g2639
sg8
g9
(g13
S'\xb4\xb8=iA\xe8*@'
p2808
tp2809
Rp2810
sg19
I0
sg20
g21
(S'\x07\xdd\t\x1d\x13\x110\x0e\xe0\x0c'
p2811
tp2812
Rp2813
sg25
I0
sg26
g27
(g28
(I0
tp2814
g30
tp2815
Rp2816
(I1
(I2
tp2817
g36
I00
S'`\x00\x00\x00T\x00\x00\x00'
p2818
tp2819
bsba(i__main__
FrameData
p2820
(dp2821
g6
g2639
sg8
g9
(g13
S'F\xc3\\\xa8\xc1i(@'
p2822
tp2823
Rp2824
sg19
I0
sg20
g21
(S'\x07\xdd\t\x1d\x13\x110\x0f\x1e\xe1'
p2825
tp2826
Rp2827
sg25
I0
sg26
g27
(g28
(I0
tp2828
g30
tp2829
Rp2830
(I1
(I2
tp2831
g36
I00
S'`\x00\x00\x00R\x00\x00\x00'
p2832
tp2833
bsba(i__main__
FrameData
p2834
(dp2835
g6
S'r'
p2836
sg8
g9
(g13
S'\xb9e(k\xee\xc8+@'
p2837
tp2838
Rp2839
sg19
I0
sg20
g21
(S'\x07\xdd\t\x1d\x13\x111\x00!o'
p2840
tp2841
Rp2842
sg25
I0
sg26
g27
(g28
(I0
tp2843
g30
tp2844
Rp2845
(I1
(I2
tp2846
g36
I00
S'^\x00\x00\x00R\x00\x00\x00'
p2847
tp2848
bsba(i__main__
FrameData
p2849
(dp2850
g6
g2836
sg8
g9
(g13
S'\x00\x00\x00\x00\x00\x00*@'
p2851
tp2852
Rp2853
sg19
I0
sg20
g21
(S'\x07\xdd\t\x1d\x13\x111\x00_\xf4'
p2854
tp2855
Rp2856
sg25
I0
sg26
g27
(g28
(I0
tp2857
g30
tp2858
Rp2859
(I1
(I2
tp2860
g36
I00
S'^\x00\x00\x00P\x00\x00\x00'
p2861
tp2862
bsba(i__main__
FrameData
p2863
(dp2864
g6
g2836
sg8
g9
(g13
S'\xf3\xd9\xa8\xa4h\x8a%@'
p2865
tp2866
Rp2867
sg19
I0
sg20
g21
(S'\x07\xdd\t\x1d\x13\x111\x00\xe2\xe6'
p2868
tp2869
Rp2870
sg25
I0
sg26
g27
(g28
(I0
tp2871
g30
tp2872
Rp2873
(I1
(I2
tp2874
g36
I00
S'\\\x00\x00\x00O\x00\x00\x00'
p2875
tp2876
bsba(i__main__
FrameData
p2877
(dp2878
g6
g2836
sg8
g9
(g13
S'~\xc4#,B\xf9"@'
p2879
tp2880
Rp2881
sg19
I0
sg20
g21
(S'\x07\xdd\t\x1d\x13\x111\x01gx'
p2882
tp2883
Rp2884
sg25
I0
sg26
g27
(g28
(I0
tp2885
g30
tp2886
Rp2887
(I1
(I2
tp2888
g36
I00
S'[\x00\x00\x00N\x00\x00\x00'
p2889
tp2890
bsba(i__main__
FrameData
p2891
(dp2892
g6
g2836
sg8
g9
(g13
S'\x9a.\x90!hp"@'
p2893
tp2894
Rp2895
sg19
I0
sg20
g21
(S'\x07\xdd\t\x1d\x13\x111\x01\xa4{'
p2896
tp2897
Rp2898
sg25
I0
sg26
g27
(g28
(I0
tp2899
g30
tp2900
Rp2901
(I1
(I2
tp2902
g36
I00
S'[\x00\x00\x00M\x00\x00\x00'
p2903
tp2904
bsba(i__main__
FrameData
p2905
(dp2906
g6
g2836
sg8
g9
(g13
S'\x07\xed\xaff\x0f~ @'
p2907
tp2908
Rp2909
sg19
I0
sg20
g21
(S'\x07\xdd\t\x1d\x13\x111\x01\xe8\xba'
p2910
tp2911
Rp2912
sg25
I0
sg26
g27
(g28
(I0
tp2913
g30
tp2914
Rp2915
(I1
(I2
tp2916
g36
I00
S'Z\x00\x00\x00M\x00\x00\x00'
p2917
tp2918
bsba(i__main__
FrameData
p2919
(dp2920
g6
g2836
sg8
g9
(g13
S'\x00\x00\x00\x00\x00\x00 @'
p2921
tp2922
Rp2923
sg19
I0
sg20
g21
(S'\x07\xdd\t\x1d\x13\x111\x02k\xb7'
p2924
tp2925
Rp2926
sg25
I0
sg26
g27
(g28
(I0
tp2927
g30
tp2928
Rp2929
(I1
(I2
tp2930
g36
I00
S'Z\x00\x00\x00K\x00\x00\x00'
p2931
tp2932
bsba(i__main__
FrameData
p2933
(dp2934
g6
g2836
sg8
g9
(g13
S'\x00\x00\x00\x00\x00\x00\x1c@'
p2935
tp2936
Rp2937
sg19
I0
sg20
g21
(S'\x07\xdd\t\x1d\x13\x111\x02\xaaO'
p2938
tp2939
Rp2940
sg25
I0
sg26
g27
(g28
(I0
tp2941
g30
tp2942
Rp2943
(I1
(I2
tp2944
g36
I00
S'Y\x00\x00\x00K\x00\x00\x00'
p2945
tp2946
bsba(i__main__
FrameData
p2947
(dp2948
g6
g2836
sg8
g9
(g13
S'\x00\x00\x00\x00\x00\x00\x18@'
p2949
tp2950
Rp2951
sg19
I0
sg20
g21
(S'\x07\xdd\t\x1d\x13\x111\x03n5'
p2952
tp2953
Rp2954
sg25
I0
sg26
g27
(g28
(I0
tp2955
g30
tp2956
Rp2957
(I1
(I2
tp2958
g36
I00
S'X\x00\x00\x00K\x00\x00\x00'
p2959
tp2960
bsba(i__main__
FrameData
p2961
(dp2962
g6
g2836
sg8
g9
(g13
S'\x00\x00\x00\x00\x00\x00\x14@'
p2963
tp2964
Rp2965
sg19
I0
sg20
g21
(S'\x07\xdd\t\x1d\x13\x111\x03\xf4\xb5'
p2966
tp2967
Rp2968
sg25
I0
sg26
g27
(g28
(I0
tp2969
g30
tp2970
Rp2971
(I1
(I2
tp2972
g36
I00
S'W\x00\x00\x00K\x00\x00\x00'
p2973
tp2974
bsba(i__main__
FrameData
p2975
(dp2976
g6
g2836
sg8
g9
(g13
S'\x00\x00\x00\x00\x00\x00\x10@'
p2977
tp2978
Rp2979
sg19
I0
sg20
g21
(S'\x07\xdd\t\x1d\x13\x111\x04q\xf7'
p2980
tp2981
Rp2982
sg25
I0
sg26
g27
(g28
(I0
tp2983
g30
tp2984
Rp2985
(I1
(I2
tp2986
g36
I00
S'V\x00\x00\x00K\x00\x00\x00'
p2987
tp2988
bsba(i__main__
FrameData
p2989
(dp2990
g6
g2836
sg8
g9
(g13
S'\x00\x00\x00\x00\x00\x00\x08@'
p2991
tp2992
Rp2993
sg19
I0
sg20
g21
(S'\x07\xdd\t\x1d\x13\x111\x04\xf5F'
p2994
tp2995
Rp2996
sg25
I0
sg26
g27
(g28
(I0
tp2997
g30
tp2998
Rp2999
(I1
(I2
tp3000
g36
I00
S'U\x00\x00\x00K\x00\x00\x00'
p3001
tp3002
bsba(i__main__
FrameData
p3003
(dp3004
g6
g2836
sg8
g9
(g13
S'\x00\x00\x00\x00\x00\x00\x00@'
p3005
tp3006
Rp3007
sg19
I0
sg20
g21
(S'\x07\xdd\t\x1d\x13\x111\x05:i'
p3008
tp3009
Rp3010
sg25
I0
sg26
g27
(g28
(I0
tp3011
g30
tp3012
Rp3013
(I1
(I2
tp3014
g36
I00
S'T\x00\x00\x00K\x00\x00\x00'
p3015
tp3016
bsbasS'_fileName'
p3017
S'training/trajectory2013-09-29_19:17:39.222488'
p3018
sS'word'
p3019
S'vigor'
p3020
sb.