(i__main__
SwypeTrajectory
p0
(dp1
S'_frameDataList'
p2
(lp3
(i__main__
FrameData
p4
(dp5
S'closestLetter'
p6
S'r'
p7
sS'letterDistance'
p8
cnumpy.core.multiarray
scalar
p9
(cnumpy
dtype
p10
(S'f8'
p11
I0
I1
tp12
Rp13
(I3
S'<'
p14
NNNI-1
I-1
I0
tp15
bS'\xcd;\x7ff\x9e\xa0\x06@'
p16
tp17
Rp18
sS'accel'
p19
I0
sS'time'
p20
cdatetime
datetime
p21
(S'\x07\xdd\t\x1d\x13\x12:\x04\x82\xa9'
p22
tp23
Rp24
sS'velocity'
p25
I0
sS'position'
p26
cnumpy.core.multiarray
_reconstruct
p27
(cnumpy
ndarray
p28
(I0
tp29
S'b'
p30
tp31
Rp32
(I1
(I2
tp33
g10
(S'i4'
p34
I0
I1
tp35
Rp36
(I3
S'<'
p37
NNNI-1
I-1
I0
tp38
bI00
S'P\x00\x00\x00M\x00\x00\x00'
p39
tp40
bsba(i__main__
FrameData
p41
(dp42
g6
g7
sg8
g9
(g13
S'\xf3YaD+\xd8\x0c@'
p43
tp44
Rp45
sg19
I0
sg20
g21
(S'\x07\xdd\t\x1d\x13\x12:\x04\xa9\xf4'
p46
tp47
Rp48
sg25
I0
sg26
g27
(g28
(I0
tp49
g30
tp50
Rp51
(I1
(I2
tp52
g36
I00
S'P\x00\x00\x00N\x00\x00\x00'
p53
tp54
bsba(i__main__
FrameData
p55
(dp56
g6
g7
sg8
g9
(g13
S'\x00\x00\x00\x00\x00\x00\x14@'
p57
tp58
Rp59
sg19
I0
sg20
g21
(S'\x07\xdd\t\x1d\x13\x12:\x04\xf4k'
p60
tp61
Rp62
sg25
I0
sg26
g27
(g28
(I0
tp63
g30
tp64
Rp65
(I1
(I2
tp66
g36
I00
S'N\x00\x00\x00N\x00\x00\x00'
p67
tp68
bsba(i__main__
FrameData
p69
(dp70
g6
g7
sg8
g9
(g13
S'\xc0\n\x1f\x00\xc6H\x1c@'
p71
tp72
Rp73
sg19
I0
sg20
g21
(S'\x07\xdd\t\x1d\x13\x12:\x05F\xe5'
p74
tp75
Rp76
sg25
I0
sg26
g27
(g28
(I0
tp77
g30
tp78
Rp79
(I1
(I2
tp80
g36
I00
S'M\x00\x00\x00P\x00\x00\x00'
p81
tp82
bsba(i__main__
FrameData
p83
(dp84
g6
g7
sg8
g9
(g13
S'\x9a.\x90!hp"@'
p85
tp86
Rp87
sg19
I0
sg20
g21
(S'\x07\xdd\t\x1d\x13\x12:\x05m\x9e'
p88
tp89
Rp90
sg25
I0
sg26
g27
(g28
(I0
tp91
g30
tp92
Rp93
(I1
(I2
tp94
g36
I00
S'L\x00\x00\x00R\x00\x00\x00'
p95
tp96
bsba(i__main__
FrameData
p97
(dp98
g6
g7
sg8
g9
(g13
S'6\xd0\xd2x\xa2B%@'
p99
tp100
Rp101
sg19
I0
sg20
g21
(S'\x07\xdd\t\x1d\x13\x12:\x05\xbb\xd2'
p102
tp103
Rp104
sg25
I0
sg26
g27
(g28
(I0
tp105
g30
tp106
Rp107
(I1
(I2
tp108
g36
I00
S'K\x00\x00\x00S\x00\x00\x00'
p109
tp110
bsba(i__main__
FrameData
p111
(dp112
g6
g7
sg8
g9
(g13
S'\xeb\x12\xb2\xbb\xb2\xcd&@'
p113
tp114
Rp115
sg19
I0
sg20
g21
(S'\x07\xdd\t\x1d\x13\x12:\x06\n$'
p116
tp117
Rp118
sg25
I0
sg26
g27
(g28
(I0
tp119
g30
tp120
Rp121
(I1
(I2
tp122
g36
I00
S'K\x00\x00\x00T\x00\x00\x00'
p123
tp124
bsba(i__main__
FrameData
p125
(dp126
g6
g7
sg8
g9
(g13
S'F#O3\xb2t)@'
p127
tp128
Rp129
sg19
I0
sg20
g21
(S'\x07\xdd\t\x1d\x13\x12:\x06-\xcf'
p130
tp131
Rp132
sg25
I0
sg26
g27
(g28
(I0
tp133
g30
tp134
Rp135
(I1
(I2
tp136
g36
I00
S'I\x00\x00\x00T\x00\x00\x00'
p137
tp138
bsba(i__main__
FrameData
p139
(dp140
g6
g7
sg8
g9
(g13
S'/\xa4\xe3\\m\xbb-@'
p141
tp142
Rp143
sg19
I0
sg20
g21
(S'\x07\xdd\t\x1d\x13\x12:\x06\xb3z'
p144
tp145
Rp146
sg25
I0
sg26
g27
(g28
(I0
tp147
g30
tp148
Rp149
(I1
(I2
tp150
g36
I00
S'H\x00\x00\x00V\x00\x00\x00'
p151
tp152
bsba(i__main__
FrameData
p153
(dp154
g6
g7
sg8
g9
(g13
S'htN\x17\xb2=/@'
p155
tp156
Rp157
sg19
I0
sg20
g21
(S'\x07\xdd\t\x1d\x13\x12:\x06\xf1\xf9'
p158
tp159
Rp160
sg25
I0
sg26
g27
(g28
(I0
tp161
g30
tp162
Rp163
(I1
(I2
tp164
g36
I00
S'H\x00\x00\x00W\x00\x00\x00'
p165
tp166
bsba(i__main__
FrameData
p167
(dp168
g6
S'e'
p169
sg8
g9
(g13
S'9\xf2\xee\xcc\xd9\x1c/@'
p170
tp171
Rp172
sg19
I0
sg20
g21
(S'\x07\xdd\t\x1d\x13\x12:\x07>\xfc'
p173
tp174
Rp175
sg25
I0
sg26
g27
(g28
(I0
tp176
g30
tp177
Rp178
(I1
(I2
tp179
g36
I00
S'F\x00\x00\x00W\x00\x00\x00'
p180
tp181
bsba(i__main__
FrameData
p182
(dp183
g6
g169
sg8
g9
(g13
S'\x10\xb3]\xc9`G0@'
p184
tp185
Rp186
sg19
I0
sg20
g21
(S'\x07\xdd\t\x1d\x13\x12:\x07\x8f\xf9'
p187
tp188
Rp189
sg25
I0
sg26
g27
(g28
(I0
tp190
g30
tp191
Rp192
(I1
(I2
tp193
g36
I00
S'F\x00\x00\x00X\x00\x00\x00'
p194
tp195
bsba(i__main__
FrameData
p196
(dp197
g6
g169
sg8
g9
(g13
S'\x0f\xab\xa8Q\xb6f0@'
p198
tp199
Rp200
sg19
I0
sg20
g21
(S'\x07\xdd\t\x1d\x13\x12:\x07\xb73'
p201
tp202
Rp203
sg25
I0
sg26
g27
(g28
(I0
tp204
g30
tp205
Rp206
(I1
(I2
tp207
g36
I00
S'E\x00\x00\x00Y\x00\x00\x00'
p208
tp209
bsba(i__main__
FrameData
p210
(dp211
g6
g169
sg8
g9
(g13
S'\xb9\x93\xe1k\xb0\xa40@'
p212
tp213
Rp214
sg19
I0
sg20
g21
(S'\x07\xdd\t\x1d\x13\x12:\x08T&'
p215
tp216
Rp217
sg25
I0
sg26
g27
(g28
(I0
tp218
g30
tp219
Rp220
(I1
(I2
tp221
g36
I00
S'D\x00\x00\x00Z\x00\x00\x00'
p222
tp223
bsba(i__main__
FrameData
p224
(dp225
g6
g169
sg8
g9
(g13
S'\x00\x00\x00\x00\x00\x001@'
p226
tp227
Rp228
sg19
I0
sg20
g21
(S'\x07\xdd\t\x1d\x13\x12:\x08z\x81'
p229
tp230
Rp231
sg25
I0
sg26
g27
(g28
(I0
tp232
g30
tp233
Rp234
(I1
(I2
tp235
g36
I00
S'C\x00\x00\x00[\x00\x00\x00'
p236
tp237
bsba(i__main__
FrameData
p238
(dp239
g6
g169
sg8
g9
(g13
S'\xa8y\x0c\t\xd9v1@'
p240
tp241
Rp242
sg19
I0
sg20
g21
(S'\x07\xdd\t\x1d\x13\x12:\x08\xc8\x8d'
p243
tp244
Rp245
sg25
I0
sg26
g27
(g28
(I0
tp246
g30
tp247
Rp248
(I1
(I2
tp249
g36
I00
S'B\x00\x00\x00\\\x00\x00\x00'
p250
tp251
bsba(i__main__
FrameData
p252
(dp253
g6
g169
sg8
g9
(g13
S'8\xd8\xbc\n\x1b\x072@'
p254
tp255
Rp256
sg19
I0
sg20
g21
(S'\x07\xdd\t\x1d\x13\x12:\t\x03\x97'
p257
tp258
Rp259
sg25
I0
sg26
g27
(g28
(I0
tp260
g30
tp261
Rp262
(I1
(I2
tp263
g36
I00
S'A\x00\x00\x00]\x00\x00\x00'
p264
tp265
bsba(i__main__
FrameData
p266
(dp267
g6
g169
sg8
g9
(g13
S'X(/\x84y\xae2@'
p268
tp269
Rp270
sg19
I0
sg20
g21
(S'\x07\xdd\t\x1d\x13\x12:\t>&'
p271
tp272
Rp273
sg25
I0
sg26
g27
(g28
(I0
tp274
g30
tp275
Rp276
(I1
(I2
tp277
g36
I00
S'@\x00\x00\x00^\x00\x00\x00'
p278
tp279
bsba(i__main__
FrameData
p280
(dp281
g6
g169
sg8
g9
(g13
S'\xbd\xec\x81\x93G94@'
p282
tp283
Rp284
sg19
I0
sg20
g21
(S'\x07\xdd\t\x1d\x13\x12:\t\x8d\xbc'
p285
tp286
Rp287
sg25
I0
sg26
g27
(g28
(I0
tp288
g30
tp289
Rp290
(I1
(I2
tp291
g36
I00
S'>\x00\x00\x00`\x00\x00\x00'
p292
tp293
bsba(i__main__
FrameData
p294
(dp295
g6
S's'
p296
sg8
g9
(g13
S'\x00\x00\x00\x00\x00\x004@'
p297
tp298
Rp299
sg19
I0
sg20
g21
(S"\x07\xdd\t\x1d\x13\x12:\t\xc0'"
p300
tp301
Rp302
sg25
I0
sg26
g27
(g28
(I0
tp303
g30
tp304
Rp305
(I1
(I2
tp306
g36
I00
S'=\x00\x00\x00a\x00\x00\x00'
p307
tp308
bsba(i__main__
FrameData
p309
(dp310
g6
g296
sg8
g9
(g13
S'u\x85\x18\x11\xe0\x992@'
p311
tp312
Rp313
sg19
I0
sg20
g21
(S'\x07\xdd\t\x1d\x13\x12:\n\x002'
p314
tp315
Rp316
sg25
I0
sg26
g27
(g28
(I0
tp317
g30
tp318
Rp319
(I1
(I2
tp320
g36
I00
S'<\x00\x00\x00b\x00\x00\x00'
p321
tp322
bsba(i__main__
FrameData
p323
(dp324
g6
g296
sg8
g9
(g13
S'\x0f\xab\xa8Q\xb6f0@'
p325
tp326
Rp327
sg19
I0
sg20
g21
(S'\x07\xdd\t\x1d\x13\x12:\nC\x88'
p328
tp329
Rp330
sg25
I0
sg26
g27
(g28
(I0
tp331
g30
tp332
Rp333
(I1
(I2
tp334
g36
I00
S';\x00\x00\x00d\x00\x00\x00'
p335
tp336
bsba(i__main__
FrameData
p337
(dp338
g6
g296
sg8
g9
(g13
S'\x00\x00\x00\x00\x00\x00.@'
p339
tp340
Rp341
sg19
I0
sg20
g21
(S'\x07\xdd\t\x1d\x13\x12:\n\x9dy'
p342
tp343
Rp344
sg25
I0
sg26
g27
(g28
(I0
tp345
g30
tp346
Rp347
(I1
(I2
tp348
g36
I00
S':\x00\x00\x00e\x00\x00\x00'
p349
tp350
bsba(i__main__
FrameData
p351
(dp352
g6
g296
sg8
g9
(g13
S'\xef\rI\xf1\xf33+@'
p353
tp354
Rp355
sg19
I0
sg20
g21
(S'\x07\xdd\t\x1d\x13\x12:\n\xc3w'
p356
tp357
Rp358
sg25
I0
sg26
g27
(g28
(I0
tp359
g30
tp360
Rp361
(I1
(I2
tp362
g36
I00
S'9\x00\x00\x00f\x00\x00\x00'
p363
tp364
bsba(i__main__
FrameData
p365
(dp366
g6
g296
sg8
g9
(g13
S'Qf\x99\xcb\xa9\x13*@'
p367
tp368
Rp369
sg19
I0
sg20
g21
(S'\x07\xdd\t\x1d\x13\x12:\x0b\x11B'
p370
tp371
Rp372
sg25
I0
sg26
g27
(g28
(I0
tp373
g30
tp374
Rp375
(I1
(I2
tp376
g36
I00
S'8\x00\x00\x00f\x00\x00\x00'
p377
tp378
bsba(i__main__
FrameData
p379
(dp380
g6
g296
sg8
g9
(g13
S"\xa2\xa3\xb3\r\xe5R'@"
p381
tp382
Rp383
sg19
I0
sg20
g21
(S'\x07\xdd\t\x1d\x13\x12:\x0bQ\xee'
p384
tp385
Rp386
sg25
I0
sg26
g27
(g28
(I0
tp387
g30
tp388
Rp389
(I1
(I2
tp390
g36
I00
S'7\x00\x00\x00g\x00\x00\x00'
p391
tp392
bsba(i__main__
FrameData
p393
(dp394
g6
g296
sg8
g9
(g13
S'\x88\x80v\xd5\\\x97$@'
p395
tp396
Rp397
sg19
I0
sg20
g21
(S'\x07\xdd\t\x1d\x13\x12:\x0b\x87\x9f'
p398
tp399
Rp400
sg25
I0
sg26
g27
(g28
(I0
tp401
g30
tp402
Rp403
(I1
(I2
tp404
g36
I00
S'6\x00\x00\x00h\x00\x00\x00'
p405
tp406
bsba(i__main__
FrameData
p407
(dp408
g6
g296
sg8
g9
(g13
S'\xa3\x14\xae\xa8\x87\x16!@'
p409
tp410
Rp411
sg19
I0
sg20
g21
(S'\x07\xdd\t\x1d\x13\x12:\x0b\xd5\xcf'
p412
tp413
Rp414
sg25
I0
sg26
g27
(g28
(I0
tp415
g30
tp416
Rp417
(I1
(I2
tp418
g36
I00
S'4\x00\x00\x00i\x00\x00\x00'
p419
tp420
bsba(i__main__
FrameData
p421
(dp422
g6
g296
sg8
g9
(g13
S'\xfc\xeeci3\xd5\x1a@'
p423
tp424
Rp425
sg19
I0
sg20
g21
(S'\x07\xdd\t\x1d\x13\x12:\x0c$\x16'
p426
tp427
Rp428
sg25
I0
sg26
g27
(g28
(I0
tp429
g30
tp430
Rp431
(I1
(I2
tp432
g36
I00
S'4\x00\x00\x00k\x00\x00\x00'
p433
tp434
bsba(i__main__
FrameData
p435
(dp436
g6
g296
sg8
g9
(g13
S'9\xdcc\xb3\xbfT\x18@'
p437
tp438
Rp439
sg19
I0
sg20
g21
(S'\x07\xdd\t\x1d\x13\x12:\x0c`\xe6'
p440
tp441
Rp442
sg25
I0
sg26
g27
(g28
(I0
tp443
g30
tp444
Rp445
(I1
(I2
tp446
g36
I00
S'2\x00\x00\x00k\x00\x00\x00'
p447
tp448
bsba(i__main__
FrameData
p449
(dp450
g6
g296
sg8
g9
(g13
S'\x00\x00\x00\x00\x00\x00\x14@'
p451
tp452
Rp453
sg19
I0
sg20
g21
(S'\x07\xdd\t\x1d\x13\x12:\x0c\x93\x83'
p454
tp455
Rp456
sg25
I0
sg26
g27
(g28
(I0
tp457
g30
tp458
Rp459
(I1
(I2
tp460
g36
I00
S'1\x00\x00\x00l\x00\x00\x00'
p461
tp462
bsba(i__main__
FrameData
p463
(dp464
g6
g296
sg8
g9
(g13
S'\x07\xed\xaff\x0f~\x10@'
p465
tp466
Rp467
sg19
I0
sg20
g21
(S'\x07\xdd\t\x1d\x13\x12:\x0c\xd4\xf8'
p468
tp469
Rp470
sg25
I0
sg26
g27
(g28
(I0
tp471
g30
tp472
Rp473
(I1
(I2
tp474
g36
I00
S'0\x00\x00\x00m\x00\x00\x00'
p475
tp476
bsba(i__main__
FrameData
p477
(dp478
g6
g296
sg8
g9
(g13
S'\x00\x00\x00\x00\x00\x00\x14@'
p479
tp480
Rp481
sg19
I0
sg20
g21
(S'\x07\xdd\t\x1d\x13\x12:\r\x0f\x0b'
p482
tp483
Rp484
sg25
I0
sg26
g27
(g28
(I0
tp485
g30
tp486
Rp487
(I1
(I2
tp488
g36
I00
S'.\x00\x00\x00m\x00\x00\x00'
p489
tp490
bsba(i__main__
FrameData
p491
(dp492
g6
g296
sg8
g9
(g13
S'\xf3YaD+\xd8\x0c@'
p493
tp494
Rp495
sg19
I0
sg20
g21
(S'\x07\xdd\t\x1d\x13\x12:\r\xa9P'
p496
tp497
Rp498
sg25
I0
sg26
g27
(g28
(I0
tp499
g30
tp500
Rp501
(I1
(I2
tp502
g36
I00
S'.\x00\x00\x00o\x00\x00\x00'
p503
tp504
bsba(i__main__
FrameData
p505
(dp506
g6
g296
sg8
g9
(g13
S'\xa8\xf4\x97\x9bw\xe3\x11@'
p507
tp508
Rp509
sg19
I0
sg20
g21
(S'\x07\xdd\t\x1d\x13\x12:\r\xd2e'
p510
tp511
Rp512
sg25
I0
sg26
g27
(g28
(I0
tp513
g30
tp514
Rp515
(I1
(I2
tp516
g36
I00
S'-\x00\x00\x00o\x00\x00\x00'
p517
tp518
bsba(i__main__
FrameData
p519
(dp520
g6
g296
sg8
g9
(g13
S'\xf6/\x12_ee\x14@'
p521
tp522
Rp523
sg19
I0
sg20
g21
(S'\x07\xdd\t\x1d\x13\x12:\x0e\x1fy'
p524
tp525
Rp526
sg25
I0
sg26
g27
(g28
(I0
tp527
g30
tp528
Rp529
(I1
(I2
tp530
g36
I00
S',\x00\x00\x00p\x00\x00\x00'
p531
tp532
bsba(i__main__
FrameData
p533
(dp534
g6
g296
sg8
g9
(g13
S'9\xdcc\xb3\xbfT\x18@'
p535
tp536
Rp537
sg19
I0
sg20
g21
(S'\x07\xdd\t\x1d\x13\x12:\x0e\xba\xd2'
p538
tp539
Rp540
sg25
I0
sg26
g27
(g28
(I0
tp541
g30
tp542
Rp543
(I1
(I2
tp544
g36
I00
S'+\x00\x00\x00p\x00\x00\x00'
p545
tp546
bsba(i__main__
FrameData
p547
(dp548
g6
g296
sg8
g9
(g13
S'\xc0\n\x1f\x00\xc6H\x1c@'
p549
tp550
Rp551
sg19
I0
sg20
g21
(S'\x07\xdd\t\x1d\x13\x12:\x0e\xe3X'
p552
tp553
Rp554
sg25
I0
sg26
g27
(g28
(I0
tp555
g30
tp556
Rp557
(I1
(I2
tp558
g36
I00
S'*\x00\x00\x00p\x00\x00\x00'
p559
tp560
bsba(i__main__
FrameData
p561
(dp562
g6
g296
sg8
g9
(g13
S'\x00\x00\x00\x00\x00\x00 @'
p563
tp564
Rp565
sg19
I0
sg20
g21
(S'\x07\xdd\t\x1d\x13\x12:\x0f1\xf8'
p566
tp567
Rp568
sg25
I0
sg26
g27
(g28
(I0
tp569
g30
tp570
Rp571
(I1
(I2
tp572
g36
I00
S')\x00\x00\x00q\x00\x00\x00'
p573
tp574
bsba(i__main__
FrameData
p575
(dp576
g6
g296
sg8
g9
(g13
S'\x00\x00\x00\x00\x00\x00"@'
p577
tp578
Rp579
sg19
I0
sg20
g21
(S'\x07\xdd\t\x1d\x13\x12;\x00\x1c\xde'
p580
tp581
Rp582
sg25
I0
sg26
g27
(g28
(I0
tp583
g30
tp584
Rp585
(I1
(I2
tp586
g36
I00
S'(\x00\x00\x00q\x00\x00\x00'
p587
tp588
bsba(i__main__
FrameData
p589
(dp590
g6
g296
sg8
g9
(g13
S'\x00\x00\x00\x00\x00\x00$@'
p591
tp592
Rp593
sg19
I0
sg20
g21
(S'\x07\xdd\t\x1d\x13\x12;\x00d\x15'
p594
tp595
Rp596
sg25
I0
sg26
g27
(g28
(I0
tp597
g30
tp598
Rp599
(I1
(I2
tp600
g36
I00
S"'\x00\x00\x00q\x00\x00\x00"
p601
tp602
bsba(i__main__
FrameData
p603
(dp604
g6
g296
sg8
g9
(g13
S'\x00\x00\x00\x00\x00\x00&@'
p605
tp606
Rp607
sg19
I0
sg20
g21
(S'\x07\xdd\t\x1d\x13\x12;\x00\x9bA'
p608
tp609
Rp610
sg25
I0
sg26
g27
(g28
(I0
tp611
g30
tp612
Rp613
(I1
(I2
tp614
g36
I00
S'&\x00\x00\x00q\x00\x00\x00'
p615
tp616
bsba(i__main__
FrameData
p617
(dp618
g6
g296
sg8
g9
(g13
S'\x00\x00\x00\x00\x00\x00(@'
p619
tp620
Rp621
sg19
I0
sg20
g21
(S'\x07\xdd\t\x1d\x13\x12;\x01\x01\x03'
p622
tp623
Rp624
sg25
I0
sg26
g27
(g28
(I0
tp625
g30
tp626
Rp627
(I1
(I2
tp628
g36
I00
S'%\x00\x00\x00q\x00\x00\x00'
p629
tp630
bsba(i__main__
FrameData
p631
(dp632
g6
S'a'
p633
sg8
g9
(g13
S'\x00\x00\x00\x00\x00\x00*@'
p634
tp635
Rp636
sg19
I0
sg20
g21
(S'\x07\xdd\t\x1d\x13\x12;\x01&\x0c'
p637
tp638
Rp639
sg25
I0
sg26
g27
(g28
(I0
tp640
g30
tp641
Rp642
(I1
(I2
tp643
g36
I00
S'$\x00\x00\x00q\x00\x00\x00'
p644
tp645
bsba(i__main__
FrameData
p646
(dp647
g6
g633
sg8
g9
(g13
S'\x00\x00\x00\x00\x00\x00(@'
p648
tp649
Rp650
sg19
I0
sg20
g21
(S'\x07\xdd\t\x1d\x13\x12;\x01v\x8b'
p651
tp652
Rp653
sg25
I0
sg26
g27
(g28
(I0
tp654
g30
tp655
Rp656
(I1
(I2
tp657
g36
I00
S'#\x00\x00\x00q\x00\x00\x00'
p658
tp659
bsba(i__main__
FrameData
p660
(dp661
g6
g633
sg8
g9
(g13
S'\x00\x00\x00\x00\x00\x00$@'
p662
tp663
Rp664
sg19
I0
sg20
g21
(S'\x07\xdd\t\x1d\x13\x12;\x01\xb5\x88'
p665
tp666
Rp667
sg25
I0
sg26
g27
(g28
(I0
tp668
g30
tp669
Rp670
(I1
(I2
tp671
g36
I00
S'!\x00\x00\x00q\x00\x00\x00'
p672
tp673
bsba(i__main__
FrameData
p674
(dp675
g6
g633
sg8
g9
(g13
S'$\xf8\xd9p[\x1c"@'
p676
tp677
Rp678
sg19
I0
sg20
g21
(S'\x07\xdd\t\x1d\x13\x12;\x01\xea\xb0'
p679
tp680
Rp681
sg25
I0
sg26
g27
(g28
(I0
tp682
g30
tp683
Rp684
(I1
(I2
tp685
g36
I00
S' \x00\x00\x00r\x00\x00\x00'
p686
tp687
bsba(i__main__
FrameData
p688
(dp689
g6
g633
sg8
g9
(g13
S'\xd0\xbaa?\xe0\x1f @'
p690
tp691
Rp692
sg19
I0
sg20
g21
(S'\x07\xdd\t\x1d\x13\x12;\x028\xb3'
p693
tp694
Rp695
sg25
I0
sg26
g27
(g28
(I0
tp696
g30
tp697
Rp698
(I1
(I2
tp699
g36
I00
S'\x1f\x00\x00\x00r\x00\x00\x00'
p700
tp701
bsba(i__main__
FrameData
p702
(dp703
g6
g633
sg8
g9
(g13
S'\xc0\n\x1f\x00\xc6H\x1c@'
p704
tp705
Rp706
sg19
I0
sg20
g21
(S'\x07\xdd\t\x1d\x13\x12;\x02s\xcf'
p707
tp708
Rp709
sg25
I0
sg26
g27
(g28
(I0
tp710
g30
tp711
Rp712
(I1
(I2
tp713
g36
I00
S'\x1e\x00\x00\x00r\x00\x00\x00'
p714
tp715
bsba(i__main__
FrameData
p716
(dp717
g6
g633
sg8
g9
(g13
S'9\xdcc\xb3\xbfT\x18@'
p718
tp719
Rp720
sg19
I0
sg20
g21
(S'\x07\xdd\t\x1d\x13\x12;\x02\xb4T'
p721
tp722
Rp723
sg25
I0
sg26
g27
(g28
(I0
tp724
g30
tp725
Rp726
(I1
(I2
tp727
g36
I00
S'\x1d\x00\x00\x00r\x00\x00\x00'
p728
tp729
bsba(i__main__
FrameData
p730
(dp731
g6
g633
sg8
g9
(g13
S'\xf6/\x12_ee\x14@'
p732
tp733
Rp734
sg19
I0
sg20
g21
(S'\x07\xdd\t\x1d\x13\x12;\x02\xe8\xa1'
p735
tp736
Rp737
sg25
I0
sg26
g27
(g28
(I0
tp738
g30
tp739
Rp740
(I1
(I2
tp741
g36
I00
S'\x1c\x00\x00\x00r\x00\x00\x00'
p742
tp743
bsba(i__main__
FrameData
p744
(dp745
g6
g633
sg8
g9
(g13
S'\x07\xed\xaff\x0f~\x10@'
p746
tp747
Rp748
sg19
I0
sg20
g21
(S'\x07\xdd\t\x1d\x13\x12;\x03/\xed'
p749
tp750
Rp751
sg25
I0
sg26
g27
(g28
(I0
tp752
g30
tp753
Rp754
(I1
(I2
tp755
g36
I00
S'\x1b\x00\x00\x00r\x00\x00\x00'
p756
tp757
bsba(i__main__
FrameData
p758
(dp759
g6
g633
sg8
g9
(g13
S'S[\xda:XL\t@'
p760
tp761
Rp762
sg19
I0
sg20
g21
(S'\x07\xdd\t\x1d\x13\x12;\x03m8'
p763
tp764
Rp765
sg25
I0
sg26
g27
(g28
(I0
tp766
g30
tp767
Rp768
(I1
(I2
tp769
g36
I00
S'\x1a\x00\x00\x00r\x00\x00\x00'
p770
tp771
bsba(i__main__
FrameData
p772
(dp773
g6
g633
sg8
g9
(g13
S'\xa8\xf4\x97\x9bw\xe3\x01@'
p774
tp775
Rp776
sg19
I0
sg20
g21
(S'\x07\xdd\t\x1d\x13\x12;\x03\xac\x08'
p777
tp778
Rp779
sg25
I0
sg26
g27
(g28
(I0
tp780
g30
tp781
Rp782
(I1
(I2
tp783
g36
I00
S'\x19\x00\x00\x00r\x00\x00\x00'
p784
tp785
bsba(i__main__
FrameData
p786
(dp787
g6
g633
sg8
g9
(g13
S'\xcd;\x7ff\x9e\xa0\xf6?'
p788
tp789
Rp790
sg19
I0
sg20
g21
(S'\x07\xdd\t\x1d\x13\x12;\x03\xea\x83'
p791
tp792
Rp793
sg25
I0
sg26
g27
(g28
(I0
tp794
g30
tp795
Rp796
(I1
(I2
tp797
g36
I00
S'\x18\x00\x00\x00r\x00\x00\x00'
p798
tp799
bsba(i__main__
FrameData
p800
(dp801
g6
g633
sg8
g9
(g13
S'\x00\x00\x00\x00\x00\x00\xf0?'
p802
tp803
Rp804
sg19
I0
sg20
g21
(S'\x07\xdd\t\x1d\x13\x12;\x04\x87\xa0'
p805
tp806
Rp807
sg25
I0
sg26
g27
(g28
(I0
tp808
g30
tp809
Rp810
(I1
(I2
tp811
g36
I00
S'\x17\x00\x00\x00r\x00\x00\x00'
p812
tp813
bsba(i__main__
FrameData
p814
(dp815
g6
g633
sg8
g9
(g13
S'\xcd;\x7ff\x9e\xa0\xf6?'
p816
tp817
Rp818
sg19
I0
sg20
g21
(S'\x07\xdd\t\x1d\x13\x12;\x05J\xe4'
p819
tp820
Rp821
sg25
I0
sg26
g27
(g28
(I0
tp822
g30
tp823
Rp824
(I1
(I2
tp825
g36
I00
S'\x16\x00\x00\x00r\x00\x00\x00'
p826
tp827
bsba(i__main__
FrameData
p828
(dp829
g6
g633
sg8
g9
(g13
S'\x00\x00\x00\x00\x00\x00\xf0?'
p830
tp831
Rp832
sg19
I0
sg20
g21
(S'\x07\xdd\t\x1d\x13\x13\x00\x0bd\xed'
p833
tp834
Rp835
sg25
I0
sg26
g27
(g28
(I0
tp836
g30
tp837
Rp838
(I1
(I2
tp839
g36
I00
S'\x17\x00\x00\x00r\x00\x00\x00'
p840
tp841
bsba(i__main__
FrameData
p842
(dp843
g6
g633
sg8
g9
(g13
S'\xcd;\x7ff\x9e\xa0\xf6?'
p844
tp845
Rp846
sg19
I0
sg20
g21
(S'\x07\xdd\t\x1d\x13\x13\x00\x0b\xda\xd7'
p847
tp848
Rp849
sg25
I0
sg26
g27
(g28
(I0
tp850
g30
tp851
Rp852
(I1
(I2
tp853
g36
I00
S'\x18\x00\x00\x00r\x00\x00\x00'
p854
tp855
bsba(i__main__
FrameData
p856
(dp857
g6
g633
sg8
g9
(g13
S'\xa8\xf4\x97\x9bw\xe3\x01@'
p858
tp859
Rp860
sg19
I0
sg20
g21
(S'\x07\xdd\t\x1d\x13\x13\x00\x0c(\xfd'
p861
tp862
Rp863
sg25
I0
sg26
g27
(g28
(I0
tp864
g30
tp865
Rp866
(I1
(I2
tp867
g36
I00
S'\x19\x00\x00\x00r\x00\x00\x00'
p868
tp869
bsba(i__main__
FrameData
p870
(dp871
g6
g633
sg8
g9
(g13
S'\x00\x00\x00\x00\x00\x00\x14@'
p872
tp873
Rp874
sg19
I0
sg20
g21
(S'\x07\xdd\t\x1d\x13\x13\x00\x0cv\xe5'
p875
tp876
Rp877
sg25
I0
sg26
g27
(g28
(I0
tp878
g30
tp879
Rp880
(I1
(I2
tp881
g36
I00
S'\x1c\x00\x00\x00q\x00\x00\x00'
p882
tp883
bsba(i__main__
FrameData
p884
(dp885
g6
g633
sg8
g9
(g13
S'\xd0\xbaa?\xe0\x1f @'
p886
tp887
Rp888
sg19
I0
sg20
g21
(S'\x07\xdd\t\x1d\x13\x13\x00\x0c\x9e1'
p889
tp890
Rp891
sg25
I0
sg26
g27
(g28
(I0
tp892
g30
tp893
Rp894
(I1
(I2
tp895
g36
I00
S'\x1f\x00\x00\x00p\x00\x00\x00'
p896
tp897
bsba(i__main__
FrameData
p898
(dp899
g6
g633
sg8
g9
(g13
S'\x8a\xe3\x07\x1a\x17\xbd(@'
p900
tp901
Rp902
sg19
I0
sg20
g21
(S'\x07\xdd\t\x1d\x13\x13\x00\x0c\xdfD'
p903
tp904
Rp905
sg25
I0
sg26
g27
(g28
(I0
tp906
g30
tp907
Rp908
(I1
(I2
tp909
g36
I00
S'#\x00\x00\x00n\x00\x00\x00'
p910
tp911
bsba(i__main__
FrameData
p912
(dp913
g6
g296
sg8
g9
(g13
S'\xa8\xf4\x97\x9bw\xe3!@'
p914
tp915
Rp916
sg19
I0
sg20
g21
(S'\x07\xdd\t\x1d\x13\x13\x00\r:\x86'
p917
tp918
Rp919
sg25
I0
sg26
g27
(g28
(I0
tp920
g30
tp921
Rp922
(I1
(I2
tp923
g36
I00
S')\x00\x00\x00m\x00\x00\x00'
p924
tp925
bsba(i__main__
FrameData
p926
(dp927
g6
g296
sg8
g9
(g13
S'\xe9\xfbv \xd5\x1e\x1d@'
p928
tp929
Rp930
sg19
I0
sg20
g21
(S'\x07\xdd\t\x1d\x13\x13\x00\ra\xf4'
p931
tp932
Rp933
sg25
I0
sg26
g27
(g28
(I0
tp934
g30
tp935
Rp936
(I1
(I2
tp937
g36
I00
S'/\x00\x00\x00j\x00\x00\x00'
p938
tp939
bsba(i__main__
FrameData
p940
(dp941
g6
g296
sg8
g9
(g13
S'bVc}\x9d\xb2#@'
p942
tp943
Rp944
sg19
I0
sg20
g21
(S'\x07\xdd\t\x1d\x13\x13\x00\r\xaf\xd8'
p945
tp946
Rp947
sg25
I0
sg26
g27
(g28
(I0
tp948
g30
tp949
Rp950
(I1
(I2
tp951
g36
I00
S'5\x00\x00\x00h\x00\x00\x00'
p952
tp953
bsba(i__main__
FrameData
p954
(dp955
g6
g296
sg8
g9
(g13
S'/\xa4\xe3\\m\xbb-@'
p956
tp957
Rp958
sg19
I0
sg20
g21
(S'\x07\xdd\t\x1d\x13\x13\x00\r\xfc\xec'
p959
tp960
Rp961
sg25
I0
sg26
g27
(g28
(I0
tp962
g30
tp963
Rp964
(I1
(I2
tp965
g36
I00
S';\x00\x00\x00f\x00\x00\x00'
p966
tp967
bsba(i__main__
FrameData
p968
(dp969
g6
S'd'
p970
sg8
g9
(g13
S'\xc5Bl?W\x87.@'
p971
tp972
Rp973
sg19
I0
sg20
g21
(S'\x07\xdd\t\x1d\x13\x13\x00\x0e$\xf2'
p974
tp975
Rp976
sg25
I0
sg26
g27
(g28
(I0
tp977
g30
tp978
Rp979
(I1
(I2
tp980
g36
I00
S'A\x00\x00\x00d\x00\x00\x00'
p981
tp982
bsba(i__main__
FrameData
p983
(dp984
g6
g970
sg8
g9
(g13
S'\xc0\n\x1f\x00\xc6H,@'
p985
tp986
Rp987
sg19
I0
sg20
g21
(S'\x07\xdd\t\x1d\x13\x13\x00\x0et\x06'
p988
tp989
Rp990
sg25
I0
sg26
g27
(g28
(I0
tp991
g30
tp992
Rp993
(I1
(I2
tp994
g36
I00
S'G\x00\x00\x00c\x00\x00\x00'
p995
tp996
bsba(i__main__
FrameData
p997
(dp998
g6
g970
sg8
g9
(g13
S'\x00\x00\x00\x00\x00\x00,@'
p999
tp1000
Rp1001
sg19
I0
sg20
g21
(S'\x07\xdd\t\x1d\x13\x13\x00\x0e\xc1o'
p1002
tp1003
Rp1004
sg25
I0
sg26
g27
(g28
(I0
tp1005
g30
tp1006
Rp1007
(I1
(I2
tp1008
g36
I00
S'I\x00\x00\x00c\x00\x00\x00'
p1009
tp1010
bsba(i__main__
FrameData
p1011
(dp1012
g6
g970
sg8
g9
(g13
S'\xc0\n\x1f\x00\xc6H,@'
p1013
tp1014
Rp1015
sg19
I0
sg20
g21
(S'\x07\xdd\t\x1d\x13\x13\x00\x0e\xe8P'
p1016
tp1017
Rp1018
sg25
I0
sg26
g27
(g28
(I0
tp1019
g30
tp1020
Rp1021
(I1
(I2
tp1022
g36
I00
S'K\x00\x00\x00c\x00\x00\x00'
p1023
tp1024
bsba(i__main__
FrameData
p1025
(dp1026
g6
g970
sg8
g9
(g13
S'\xf2G\x9b\x0e\x18\x98.@'
p1027
tp1028
Rp1029
sg19
I0
sg20
g21
(S'\x07\xdd\t\x1d\x13\x13\x00\x0f7\x0c'
p1030
tp1031
Rp1032
sg25
I0
sg26
g27
(g28
(I0
tp1033
g30
tp1034
Rp1035
(I1
(I2
tp1036
g36
I00
S'L\x00\x00\x00b\x00\x00\x00'
p1037
tp1038
bsba(i__main__
FrameData
p1039
(dp1040
g6
g970
sg8
g9
(g13
S'\xa8\xf4\x97\x9bw\xe31@'
p1041
tp1042
Rp1043
sg19
I0
sg20
g21
(S'\x07\xdd\t\x1d\x13\x13\x01\x00C+'
p1044
tp1045
Rp1046
sg25
I0
sg26
g27
(g28
(I0
tp1047
g30
tp1048
Rp1049
(I1
(I2
tp1050
g36
I00
S'Q\x00\x00\x00a\x00\x00\x00'
p1051
tp1052
bsba(i__main__
FrameData
p1053
(dp1054
g6
g970
sg8
g9
(g13
S'A\x87b\xc62\xde2@'
p1055
tp1056
Rp1057
sg19
I0
sg20
g21
(S'\x07\xdd\t\x1d\x13\x13\x01\x00\x91\xaa'
p1058
tp1059
Rp1060
sg25
I0
sg26
g27
(g28
(I0
tp1061
g30
tp1062
Rp1063
(I1
(I2
tp1064
g36
I00
S'S\x00\x00\x00a\x00\x00\x00'
p1065
tp1066
bsba(i__main__
FrameData
p1067
(dp1068
g6
S'f'
p1069
sg8
g9
(g13
S'\x88\x80v\xd5\\\x974@'
p1070
tp1071
Rp1072
sg19
I0
sg20
g21
(S'\x07\xdd\t\x1d\x13\x13\x01\x00\xb7\xde'
p1073
tp1074
Rp1075
sg25
I0
sg26
g27
(g28
(I0
tp1076
g30
tp1077
Rp1078
(I1
(I2
tp1079
g36
I00
S'V\x00\x00\x00`\x00\x00\x00'
p1080
tp1081
bsba(i__main__
FrameData
p1082
(dp1083
g6
g1069
sg8
g9
(g13
S'bVc}\x9d\xb23@'
p1084
tp1085
Rp1086
sg19
I0
sg20
g21
(S'\x07\xdd\t\x1d\x13\x13\x01\x01\x05\xc2'
p1087
tp1088
Rp1089
sg25
I0
sg26
g27
(g28
(I0
tp1090
g30
tp1091
Rp1092
(I1
(I2
tp1093
g36
I00
S'X\x00\x00\x00`\x00\x00\x00'
p1094
tp1095
bsba(i__main__
FrameData
p1096
(dp1097
g6
g1069
sg8
g9
(g13
S'VT\xdbd.P3@'
p1098
tp1099
Rp1100
sg19
I0
sg20
g21
(S'\x07\xdd\t\x1d\x13\x13\x01\x01T\xdf'
p1101
tp1102
Rp1103
sg25
I0
sg26
g27
(g28
(I0
tp1104
g30
tp1105
Rp1106
(I1
(I2
tp1107
g36
I00
S'Y\x00\x00\x00`\x00\x00\x00'
p1108
tp1109
bsba(i__main__
FrameData
p1110
(dp1111
g6
g1069
sg8
g9
(g13
S'W\xb2\xdb\x1a\x9a\xa53@'
p1112
tp1113
Rp1114
sg19
I0
sg20
g21
(S'\x07\xdd\t\x1d\x13\x13\x01\x01{\x0e'
p1115
tp1116
Rp1117
sg25
I0
sg26
g27
(g28
(I0
tp1118
g30
tp1119
Rp1120
(I1
(I2
tp1121
g36
I00
S'[\x00\x00\x00_\x00\x00\x00'
p1122
tp1123
bsba(i__main__
FrameData
p1124
(dp1125
g6
g1069
sg8
g9
(g13
S'\xc9\xe0>!B<3@'
p1126
tp1127
Rp1128
sg19
I0
sg20
g21
(S'\x07\xdd\t\x1d\x13\x13\x01\x01\xb03'
p1129
tp1130
Rp1131
sg25
I0
sg26
g27
(g28
(I0
tp1132
g30
tp1133
Rp1134
(I1
(I2
tp1135
g36
I00
S']\x00\x00\x00_\x00\x00\x00'
p1136
tp1137
bsba(i__main__
FrameData
p1138
(dp1139
g6
g1069
sg8
g9
(g13
S'\x00\x00\x00\x00\x00\x004@'
p1140
tp1141
Rp1142
sg19
I0
sg20
g21
(S'\x07\xdd\t\x1d\x13\x13\x01\x01\xf7\xbe'
p1143
tp1144
Rp1145
sg25
I0
sg26
g27
(g28
(I0
tp1146
g30
tp1147
Rp1148
(I1
(I2
tp1149
g36
I00
S'`\x00\x00\x00^\x00\x00\x00'
p1150
tp1151
bsba(i__main__
FrameData
p1152
(dp1153
g6
g1069
sg8
g9
(g13
S'\xbd\xec\x81\x93G94@'
p1154
tp1155
Rp1156
sg19
I0
sg20
g21
(S'\x07\xdd\t\x1d\x13\x13\x01\x02K\xd6'
p1157
tp1158
Rp1159
sg25
I0
sg26
g27
(g28
(I0
tp1160
g30
tp1161
Rp1162
(I1
(I2
tp1163
g36
I00
S'c\x00\x00\x00^\x00\x00\x00'
p1164
tp1165
bsba(i__main__
FrameData
p1166
(dp1167
g6
S't'
p1168
sg8
g9
(g13
S'+\xe5\x8a\xc6\x8f?2@'
p1169
tp1170
Rp1171
sg19
I0
sg20
g21
(S'\x07\xdd\t\x1d\x13\x13\x01\x02\xbd\xde'
p1172
tp1173
Rp1174
sg25
I0
sg26
g27
(g28
(I0
tp1175
g30
tp1176
Rp1177
(I1
(I2
tp1178
g36
I00
S'g\x00\x00\x00]\x00\x00\x00'
p1179
tp1180
bsba(i__main__
FrameData
p1181
(dp1182
g6
g1168
sg8
g9
(g13
S'$\xf8\xd9p[\x1c2@'
p1183
tp1184
Rp1185
sg19
I0
sg20
g21
(S'\x07\xdd\t\x1d\x13\x13\x01\x03\x00\x81'
p1186
tp1187
Rp1188
sg25
I0
sg26
g27
(g28
(I0
tp1189
g30
tp1190
Rp1191
(I1
(I2
tp1192
g36
I00
S'h\x00\x00\x00]\x00\x00\x00'
p1193
tp1194
bsba(i__main__
FrameData
p1195
(dp1196
g6
g1168
sg8
g9
(g13
S'\x00\x00\x00\x00\x00\x002@'
p1197
tp1198
Rp1199
sg19
I0
sg20
g21
(S'\x07\xdd\t\x1d\x13\x13\x01\x037g'
p1200
tp1201
Rp1202
sg25
I0
sg26
g27
(g28
(I0
tp1203
g30
tp1204
Rp1205
(I1
(I2
tp1206
g36
I00
S'j\x00\x00\x00]\x00\x00\x00'
p1207
tp1208
bsba(i__main__
FrameData
p1209
(dp1210
g6
g1168
sg8
g9
(g13
S'$\xf8\xd9p[\x1c2@'
p1211
tp1212
Rp1213
sg19
I0
sg20
g21
(S'\x07\xdd\t\x1d\x13\x13\x01\x03~_'
p1214
tp1215
Rp1216
sg25
I0
sg26
g27
(g28
(I0
tp1217
g30
tp1218
Rp1219
(I1
(I2
tp1220
g36
I00
S'l\x00\x00\x00]\x00\x00\x00'
p1221
tp1222
bsba(i__main__
FrameData
p1223
(dp1224
g6
g1168
sg8
g9
(g13
S'VT\xdbd.P3@'
p1225
tp1226
Rp1227
sg19
I0
sg20
g21
(S'\x07\xdd\t\x1d\x13\x13\x01\x03\xda\xfb'
p1228
tp1229
Rp1230
sg25
I0
sg26
g27
(g28
(I0
tp1231
g30
tp1232
Rp1233
(I1
(I2
tp1234
g36
I00
S'q\x00\x00\x00]\x00\x00\x00'
p1235
tp1236
bsba(i__main__
FrameData
p1237
(dp1238
g6
S'y'
p1239
sg8
g9
(g13
S'I\xe8[@\x93\x9d4@'
p1240
tp1241
Rp1242
sg19
I0
sg20
g21
(S'\x07\xdd\t\x1d\x13\x13\x01\x03\xfc8'
p1243
tp1244
Rp1245
sg25
I0
sg26
g27
(g28
(I0
tp1246
g30
tp1247
Rp1248
(I1
(I2
tp1249
g36
I00
S'u\x00\x00\x00]\x00\x00\x00'
p1250
tp1251
bsba(i__main__
FrameData
p1252
(dp1253
g6
g1239
sg8
g9
(g13
S'/vo\xf2\x9ej3@'
p1254
tp1255
Rp1256
sg19
I0
sg20
g21
(S'\x07\xdd\t\x1d\x13\x13\x01\x04A\x8e'
p1257
tp1258
Rp1259
sg25
I0
sg26
g27
(g28
(I0
tp1260
g30
tp1261
Rp1262
(I1
(I2
tp1263
g36
I00
S'w\x00\x00\x00]\x00\x00\x00'
p1264
tp1265
bsba(i__main__
FrameData
p1266
(dp1267
g6
g1239
sg8
g9
(g13
S'\xa8y\x0c\t\xd9v1@'
p1268
tp1269
Rp1270
sg19
I0
sg20
g21
(S'\x07\xdd\t\x1d\x13\x13\x01\x04\x84%'
p1271
tp1272
Rp1273
sg25
I0
sg26
g27
(g28
(I0
tp1274
g30
tp1275
Rp1276
(I1
(I2
tp1277
g36
I00
S'{\x00\x00\x00]\x00\x00\x00'
p1278
tp1279
bsba(i__main__
FrameData
p1280
(dp1281
g6
g1239
sg8
g9
(g13
S'\xa3\x14\xae\xa8\x87\x161@'
p1282
tp1283
Rp1284
sg19
I0
sg20
g21
(S'\x07\xdd\t\x1d\x13\x13\x01\x04\xbfa'
p1285
tp1286
Rp1287
sg25
I0
sg26
g27
(g28
(I0
tp1288
g30
tp1289
Rp1290
(I1
(I2
tp1291
g36
I00
S'|\x00\x00\x00]\x00\x00\x00'
p1292
tp1293
bsba(i__main__
FrameData
p1294
(dp1295
g6
g1239
sg8
g9
(g13
S'\x07\xed\xaff\x0f~0@'
p1296
tp1297
Rp1298
sg19
I0
sg20
g21
(S'\x07\xdd\t\x1d\x13\x13\x01\x05\x0cy'
p1299
tp1300
Rp1301
sg25
I0
sg26
g27
(g28
(I0
tp1302
g30
tp1303
Rp1304
(I1
(I2
tp1305
g36
I00
S'~\x00\x00\x00]\x00\x00\x00'
p1306
tp1307
bsba(i__main__
FrameData
p1308
(dp1309
g6
g1239
sg8
g9
(g13
S'\xd0\xbaa?\xe0\x1f0@'
p1310
tp1311
Rp1312
sg19
I0
sg20
g21
(S'\x07\xdd\t\x1d\x13\x13\x01\x05Z\xf0'
p1313
tp1314
Rp1315
sg25
I0
sg26
g27
(g28
(I0
tp1316
g30
tp1317
Rp1318
(I1
(I2
tp1319
g36
I00
S'\x80\x00\x00\x00]\x00\x00\x00'
p1320
tp1321
bsba(i__main__
FrameData
p1322
(dp1323
g6
g1239
sg8
g9
(g13
S'\x10\xb3]\xc9`G0@'
p1324
tp1325
Rp1326
sg19
I0
sg20
g21
(S'\x07\xdd\t\x1d\x13\x13\x01\x05\x82\x8e'
p1327
tp1328
Rp1329
sg25
I0
sg26
g27
(g28
(I0
tp1330
g30
tp1331
Rp1332
(I1
(I2
tp1333
g36
I00
S'\x85\x00\x00\x00]\x00\x00\x00'
p1334
tp1335
bsba(i__main__
FrameData
p1336
(dp1337
g6
g1239
sg8
g9
(g13
S'\x07\xed\xaff\x0f~0@'
p1338
tp1339
Rp1340
sg19
I0
sg20
g21
(S'\x07\xdd\t\x1d\x13\x13\x01\x05\xdc\x88'
p1341
tp1342
Rp1343
sg25
I0
sg26
g27
(g28
(I0
tp1344
g30
tp1345
Rp1346
(I1
(I2
tp1347
g36
I00
S'\x86\x00\x00\x00]\x00\x00\x00'
p1348
tp1349
bsba(i__main__
FrameData
p1350
(dp1351
g6
g1239
sg8
g9
(g13
S'\xa3\x14\xae\xa8\x87\x161@'
p1352
tp1353
Rp1354
sg19
I0
sg20
g21
(S'\x07\xdd\t\x1d\x13\x13\x01\x06\x14\xd6'
p1355
tp1356
Rp1357
sg25
I0
sg26
g27
(g28
(I0
tp1358
g30
tp1359
Rp1360
(I1
(I2
tp1361
g36
I00
S'\x88\x00\x00\x00]\x00\x00\x00'
p1362
tp1363
bsba(i__main__
FrameData
p1364
(dp1365
g6
g1239
sg8
g9
(g13
S'\xa8\xf4\x97\x9bw\xe31@'
p1366
tp1367
Rp1368
sg19
I0
sg20
g21
(S'\x07\xdd\t\x1d\x13\x13\x01\x06H\xaa'
p1369
tp1370
Rp1371
sg25
I0
sg26
g27
(g28
(I0
tp1372
g30
tp1373
Rp1374
(I1
(I2
tp1375
g36
I00
S'\x8a\x00\x00\x00]\x00\x00\x00'
p1376
tp1377
bsba(i__main__
FrameData
p1378
(dp1379
g6
g1239
sg8
g9
(g13
S'\xbf\x8f+\t\x89[2@'
p1380
tp1381
Rp1382
sg19
I0
sg20
g21
(S'\x07\xdd\t\x1d\x13\x13\x01\x06\x92\xd8'
p1383
tp1384
Rp1385
sg25
I0
sg26
g27
(g28
(I0
tp1386
g30
tp1387
Rp1388
(I1
(I2
tp1389
g36
I00
S'\x8b\x00\x00\x00]\x00\x00\x00'
p1390
tp1391
bsba(i__main__
FrameData
p1392
(dp1393
g6
g1239
sg8
g9
(g13
S'\x00\x00\x00\x00\x00\x004@'
p1394
tp1395
Rp1396
sg19
I0
sg20
g21
(S'\x07\xdd\t\x1d\x13\x13\x01\x06\xd0\x9c'
p1397
tp1398
Rp1399
sg25
I0
sg26
g27
(g28
(I0
tp1400
g30
tp1401
Rp1402
(I1
(I2
tp1403
g36
I00
S'\x8e\x00\x00\x00]\x00\x00\x00'
p1404
tp1405
bsba(i__main__
FrameData
p1406
(dp1407
g6
S'u'
p1408
sg8
g9
(g13
S'I\xe8[@\x93\x9d4@'
p1409
tp1410
Rp1411
sg19
I0
sg20
g21
(S'\x07\xdd\t\x1d\x13\x13\x01\x07\x10;'
p1412
tp1413
Rp1414
sg25
I0
sg26
g27
(g28
(I0
tp1415
g30
tp1416
Rp1417
(I1
(I2
tp1418
g36
I00
S'\x90\x00\x00\x00]\x00\x00\x00'
p1419
tp1420
bsba(i__main__
FrameData
p1421
(dp1422
g6
g1408
sg8
g9
(g13
S'\xf6/\x12_ee4@'
p1423
tp1424
Rp1425
sg19
I0
sg20
g21
(S'\x07\xdd\t\x1d\x13\x13\x01\x07M:'
p1426
tp1427
Rp1428
sg25
I0
sg26
g27
(g28
(I0
tp1429
g30
tp1430
Rp1431
(I1
(I2
tp1432
g36
I00
S'\x94\x00\x00\x00^\x00\x00\x00'
p1433
tp1434
bsba(i__main__
FrameData
p1435
(dp1436
g6
S'h'
p1437
sg8
g9
(g13
S'\xcey?\xdc\x9a?4@'
p1438
tp1439
Rp1440
sg19
I0
sg20
g21
(S'\x07\xdd\t\x1d\x13\x13\x01\x07\xa5\x17'
p1441
tp1442
Rp1443
sg25
I0
sg26
g27
(g28
(I0
tp1444
g30
tp1445
Rp1446
(I1
(I2
tp1447
g36
I00
S'\x97\x00\x00\x00_\x00\x00\x00'
p1448
tp1449
bsba(i__main__
FrameData
p1450
(dp1451
g6
g1437
sg8
g9
(g13
S'\x88\x80v\xd5\\\x974@'
p1452
tp1453
Rp1454
sg19
I0
sg20
g21
(S'\x07\xdd\t\x1d\x13\x13\x01\x07\xce\xab'
p1455
tp1456
Rp1457
sg25
I0
sg26
g27
(g28
(I0
tp1458
g30
tp1459
Rp1460
(I1
(I2
tp1461
g36
I00
S'\x9a\x00\x00\x00`\x00\x00\x00'
p1462
tp1463
bsba(i__main__
FrameData
p1464
(dp1465
g6
g1437
sg8
g9
(g13
S'u\xa6<oS\x185@'
p1466
tp1467
Rp1468
sg19
I0
sg20
g21
(S'\x07\xdd\t\x1d\x13\x13\x01\x08\x15\xf8'
p1469
tp1470
Rp1471
sg25
I0
sg26
g27
(g28
(I0
tp1472
g30
tp1473
Rp1474
(I1
(I2
tp1475
g36
I00
S'\x9b\x00\x00\x00`\x00\x00\x00'
p1476
tp1477
bsba(i__main__
FrameData
p1478
(dp1479
g6
S'j'
p1480
sg8
g9
(g13
S'u\xa6<oS\x185@'
p1481
tp1482
Rp1483
sg19
I0
sg20
g21
(S'\x07\xdd\t\x1d\x13\x13\x01\x08g\xb0'
p1484
tp1485
Rp1486
sg25
I0
sg26
g27
(g28
(I0
tp1487
g30
tp1488
Rp1489
(I1
(I2
tp1490
g36
I00
S'\x9c\x00\x00\x00`\x00\x00\x00'
p1491
tp1492
bsba(i__main__
FrameData
p1493
(dp1494
g6
g1480
sg8
g9
(g13
S'/vo\xf2\x9ej3@'
p1495
tp1496
Rp1497
sg19
I0
sg20
g21
(S'\x07\xdd\t\x1d\x13\x13\x01\x08\xa5h'
p1498
tp1499
Rp1500
sg25
I0
sg26
g27
(g28
(I0
tp1501
g30
tp1502
Rp1503
(I1
(I2
tp1504
g36
I00
S'\x9c\x00\x00\x00b\x00\x00\x00'
p1505
tp1506
bsba(i__main__
FrameData
p1507
(dp1508
g6
g1480
sg8
g9
(g13
S'A\x87b\xc62\xde2@'
p1509
tp1510
Rp1511
sg19
I0
sg20
g21
(S'\x07\xdd\t\x1d\x13\x13\x01\t\x1d\xea'
p1512
tp1513
Rp1514
sg25
I0
sg26
g27
(g28
(I0
tp1515
g30
tp1516
Rp1517
(I1
(I2
tp1518
g36
I00
S'\x9d\x00\x00\x00b\x00\x00\x00'
p1519
tp1520
bsba(i__main__
FrameData
p1521
(dp1522
g6
g1480
sg8
g9
(g13
S'\xa8\xf4\x97\x9bw\xe31@'
p1523
tp1524
Rp1525
sg19
I0
sg20
g21
(S'\x07\xdd\t\x1d\x13\x13\x01\tat'
p1526
tp1527
Rp1528
sg25
I0
sg26
g27
(g28
(I0
tp1529
g30
tp1530
Rp1531
(I1
(I2
tp1532
g36
I00
S'\x9f\x00\x00\x00b\x00\x00\x00'
p1533
tp1534
bsba(i__main__
FrameData
p1535
(dp1536
g6
g1480
sg8
g9
(g13
S'\xa8y\x0c\t\xd9v1@'
p1537
tp1538
Rp1539
sg19
I0
sg20
g21
(S'\x07\xdd\t\x1d\x13\x13\x01\t\xde~'
p1540
tp1541
Rp1542
sg25
I0
sg26
g27
(g28
(I0
tp1543
g30
tp1544
Rp1545
(I1
(I2
tp1546
g36
I00
S'\xa0\x00\x00\x00b\x00\x00\x00'
p1547
tp1548
bsba(i__main__
FrameData
p1549
(dp1550
g6
g1480
sg8
g9
(g13
S'\xa3\x14\xae\xa8\x87\x161@'
p1551
tp1552
Rp1553
sg19
I0
sg20
g21
(S'\x07\xdd\t\x1d\x13\x13\x01\n\x1d\x1d'
p1554
tp1555
Rp1556
sg25
I0
sg26
g27
(g28
(I0
tp1557
g30
tp1558
Rp1559
(I1
(I2
tp1560
g36
I00
S'\xa1\x00\x00\x00b\x00\x00\x00'
p1561
tp1562
bsba(i__main__
FrameData
p1563
(dp1564
g6
g1480
sg8
g9
(g13
S'>9\x15\x8cW\xc30@'
p1565
tp1566
Rp1567
sg19
I0
sg20
g21
(S'\x07\xdd\t\x1d\x13\x13\x01\nZ\xad'
p1568
tp1569
Rp1570
sg25
I0
sg26
g27
(g28
(I0
tp1571
g30
tp1572
Rp1573
(I1
(I2
tp1574
g36
I00
S'\xa2\x00\x00\x00b\x00\x00\x00'
p1575
tp1576
bsba(i__main__
FrameData
p1577
(dp1578
g6
g1480
sg8
g9
(g13
S'\xb3\xa73\xa0`\x0c/@'
p1579
tp1580
Rp1581
sg19
I0
sg20
g21
(S'\x07\xdd\t\x1d\x13\x13\x01\n\x9a\xde'
p1582
tp1583
Rp1584
sg25
I0
sg26
g27
(g28
(I0
tp1585
g30
tp1586
Rp1587
(I1
(I2
tp1588
g36
I00
S'\xa3\x00\x00\x00c\x00\x00\x00'
p1589
tp1590
bsba(i__main__
FrameData
p1591
(dp1592
g6
g1480
sg8
g9
(g13
S'[y\xf7F\xf7C.@'
p1593
tp1594
Rp1595
sg19
I0
sg20
g21
(S'\x07\xdd\t\x1d\x13\x13\x01\n\xe3\xa6'
p1596
tp1597
Rp1598
sg25
I0
sg26
g27
(g28
(I0
tp1599
g30
tp1600
Rp1601
(I1
(I2
tp1602
g36
I00
S'\xa5\x00\x00\x00c\x00\x00\x00'
p1603
tp1604
bsba(i__main__
FrameData
p1605
(dp1606
g6
g1480
sg8
g9
(g13
S'\xaf_\x109\x0c\x11.@'
p1607
tp1608
Rp1609
sg19
I0
sg20
g21
(S'\x07\xdd\t\x1d\x13\x13\x01\x0b&F'
p1610
tp1611
Rp1612
sg25
I0
sg26
g27
(g28
(I0
tp1613
g30
tp1614
Rp1615
(I1
(I2
tp1616
g36
I00
S'\xa6\x00\x00\x00c\x00\x00\x00'
p1617
tp1618
bsba(i__main__
FrameData
p1619
(dp1620
g6
g1480
sg8
g9
(g13
S'\x00\x00\x00\x00\x00\x00.@'
p1621
tp1622
Rp1623
sg19
I0
sg20
g21
(S'\x07\xdd\t\x1d\x13\x13\x01\x0bt\xa6'
p1624
tp1625
Rp1626
sg25
I0
sg26
g27
(g28
(I0
tp1627
g30
tp1628
Rp1629
(I1
(I2
tp1630
g36
I00
S'\xa7\x00\x00\x00c\x00\x00\x00'
p1631
tp1632
bsba(i__main__
FrameData
p1633
(dp1634
g6
g1480
sg8
g9
(g13
S'[y\xf7F\xf7C.@'
p1635
tp1636
Rp1637
sg19
I0
sg20
g21
(S'\x07\xdd\t\x1d\x13\x13\x01\x0b\xec\xa0'
p1638
tp1639
Rp1640
sg25
I0
sg26
g27
(g28
(I0
tp1641
g30
tp1642
Rp1643
(I1
(I2
tp1644
g36
I00
S'\xa9\x00\x00\x00c\x00\x00\x00'
p1645
tp1646
bsba(i__main__
FrameData
p1647
(dp1648
g6
g1480
sg8
g9
(g13
S'\xf2G\x9b\x0e\x18\x98.@'
p1649
tp1650
Rp1651
sg19
I0
sg20
g21
(S'\x07\xdd\t\x1d\x13\x13\x01\x0c"\xcf'
p1652
tp1653
Rp1654
sg25
I0
sg26
g27
(g28
(I0
tp1655
g30
tp1656
Rp1657
(I1
(I2
tp1658
g36
I00
S'\xaa\x00\x00\x00c\x00\x00\x00'
p1659
tp1660
bsba(i__main__
FrameData
p1661
(dp1662
g6
g1480
sg8
g9
(g13
S'/\xa4\xe3\\m\xbb-@'
p1663
tp1664
Rp1665
sg19
I0
sg20
g21
(S'\x07\xdd\t\x1d\x13\x13\x01\x0c\x87\xda'
p1666
tp1667
Rp1668
sg25
I0
sg26
g27
(g28
(I0
tp1669
g30
tp1670
Rp1671
(I1
(I2
tp1672
g36
I00
S'\xac\x00\x00\x00d\x00\x00\x00'
p1673
tp1674
bsba(i__main__
FrameData
p1675
(dp1676
g6
g1480
sg8
g9
(g13
S'&\xecIP\x11N/@'
p1677
tp1678
Rp1679
sg19
I0
sg20
g21
(S'\x07\xdd\t\x1d\x13\x13\x01\x0c\xad\x06'
p1680
tp1681
Rp1682
sg25
I0
sg26
g27
(g28
(I0
tp1683
g30
tp1684
Rp1685
(I1
(I2
tp1686
g36
I00
S'\xae\x00\x00\x00d\x00\x00\x00'
p1687
tp1688
bsba(i__main__
FrameData
p1689
(dp1690
g6
g1480
sg8
g9
(g13
S'\xc5Bl?W\x87.@'
p1691
tp1692
Rp1693
sg19
I0
sg20
g21
(S'\x07\xdd\t\x1d\x13\x13\x01\x0c\xeb\xa5'
p1694
tp1695
Rp1696
sg25
I0
sg26
g27
(g28
(I0
tp1697
g30
tp1698
Rp1699
(I1
(I2
tp1700
g36
I00
S'\xaf\x00\x00\x00e\x00\x00\x00'
p1701
tp1702
bsba(i__main__
FrameData
p1703
(dp1704
g6
g1480
sg8
g9
(g13
S"'\xf2\x90In\x9f/@"
p1705
tp1706
Rp1707
sg19
I0
sg20
g21
(S'\x07\xdd\t\x1d\x13\x13\x01\rK\x8a'
p1708
tp1709
Rp1710
sg25
I0
sg26
g27
(g28
(I0
tp1711
g30
tp1712
Rp1713
(I1
(I2
tp1714
g36
I00
S'\xb0\x00\x00\x00e\x00\x00\x00'
p1715
tp1716
bsba(i__main__
FrameData
p1717
(dp1718
g6
g1480
sg8
g9
(g13
S'\x0f\xab\xa8Q\xb6f0@'
p1719
tp1720
Rp1721
sg19
I0
sg20
g21
(S'\x07\xdd\t\x1d\x13\x13\x01\r\xbe\x82'
p1722
tp1723
Rp1724
sg25
I0
sg26
g27
(g28
(I0
tp1725
g30
tp1726
Rp1727
(I1
(I2
tp1728
g36
I00
S'\xb1\x00\x00\x00e\x00\x00\x00'
p1729
tp1730
bsba(i__main__
FrameData
p1731
(dp1732
g6
g1480
sg8
g9
(g13
S')\x9ah\xdd\x85\x071@'
p1733
tp1734
Rp1735
sg19
I0
sg20
g21
(S'\x07\xdd\t\x1d\x13\x13\x01\x0e\rr'
p1736
tp1737
Rp1738
sg25
I0
sg26
g27
(g28
(I0
tp1739
g30
tp1740
Rp1741
(I1
(I2
tp1742
g36
I00
S'\xb2\x00\x00\x00e\x00\x00\x00'
p1743
tp1744
bsba(i__main__
FrameData
p1745
(dp1746
g6
S'k'
p1747
sg8
g9
(g13
S'\x10\xb3]\xc9`G0@'
p1748
tp1749
Rp1750
sg19
I0
sg20
g21
(S'\x07\xdd\t\x1d\x13\x13\x01\x0e3\xd0'
p1751
tp1752
Rp1753
sg25
I0
sg26
g27
(g28
(I0
tp1754
g30
tp1755
Rp1756
(I1
(I2
tp1757
g36
I00
S'\xb3\x00\x00\x00f\x00\x00\x00'
p1758
tp1759
bsba(i__main__
FrameData
p1760
(dp1761
g6
g1747
sg8
g9
(g13
S'htN\x17\xb2=/@'
p1762
tp1763
Rp1764
sg19
I0
sg20
g21
(S'\x07\xdd\t\x1d\x13\x13\x01\x0e\x82\xc4'
p1765
tp1766
Rp1767
sg25
I0
sg26
g27
(g28
(I0
tp1768
g30
tp1769
Rp1770
(I1
(I2
tp1771
g36
I00
S'\xb4\x00\x00\x00f\x00\x00\x00'
p1772
tp1773
bsba(i__main__
FrameData
p1774
(dp1775
g6
g1747
sg8
g9
(g13
S'?*\x98"\xe3l,@'
p1776
tp1777
Rp1778
sg19
I0
sg20
g21
(S'\x07\xdd\t\x1d\x13\x13\x01\x0e\xc78'
p1779
tp1780
Rp1781
sg25
I0
sg26
g27
(g28
(I0
tp1782
g30
tp1783
Rp1784
(I1
(I2
tp1785
g36
I00
S'\xb5\x00\x00\x00g\x00\x00\x00'
p1786
tp1787
bsba(i__main__
FrameData
p1788
(dp1789
g6
g1747
sg8
g9
(g13
S'\xef\rI\xf1\xf33+@'
p1790
tp1791
Rp1792
sg19
I0
sg20
g21
(S'\x07\xdd\t\x1d\x13\x13\x01\x0f\x13\xb5'
p1793
tp1794
Rp1795
sg25
I0
sg26
g27
(g28
(I0
tp1796
g30
tp1797
Rp1798
(I1
(I2
tp1799
g36
I00
S'\xb6\x00\x00\x00g\x00\x00\x00'
p1800
tp1801
bsba(i__main__
FrameData
p1802
(dp1803
g6
g1747
sg8
g9
(g13
S"\xa2\xa3\xb3\r\xe5R'@"
p1804
tp1805
Rp1806
sg19
I0
sg20
g21
(S'\x07\xdd\t\x1d\x13\x13\x02\x00G,'
p1807
tp1808
Rp1809
sg25
I0
sg26
g27
(g28
(I0
tp1810
g30
tp1811
Rp1812
(I1
(I2
tp1813
g36
I00
S'\xb8\x00\x00\x00h\x00\x00\x00'
p1814
tp1815
bsba(i__main__
FrameData
p1816
(dp1817
g6
g1747
sg8
g9
(g13
S'\x88\x80v\xd5\\\x97$@'
p1818
tp1819
Rp1820
sg19
I0
sg20
g21
(S'\x07\xdd\t\x1d\x13\x13\x02\x00\x95~'
p1821
tp1822
Rp1823
sg25
I0
sg26
g27
(g28
(I0
tp1824
g30
tp1825
Rp1826
(I1
(I2
tp1827
g36
I00
S'\xb9\x00\x00\x00i\x00\x00\x00'
p1828
tp1829
bsba(i__main__
FrameData
p1830
(dp1831
g6
g1747
sg8
g9
(g13
S'bVc}\x9d\xb2#@'
p1832
tp1833
Rp1834
sg19
I0
sg20
g21
(S'\x07\xdd\t\x1d\x13\x13\x02\x00\xb5\xdb'
p1835
tp1836
Rp1837
sg25
I0
sg26
g27
(g28
(I0
tp1838
g30
tp1839
Rp1840
(I1
(I2
tp1841
g36
I00
S'\xba\x00\x00\x00i\x00\x00\x00'
p1842
tp1843
bsba(i__main__
FrameData
p1844
(dp1845
g6
g1747
sg8
g9
(g13
S'\xa3\x14\xae\xa8\x87\x16!@'
p1846
tp1847
Rp1848
sg19
I0
sg20
g21
(S'\x07\xdd\t\x1d\x13\x13\x02\x00\xfc='
p1849
tp1850
Rp1851
sg25
I0
sg26
g27
(g28
(I0
tp1852
g30
tp1853
Rp1854
(I1
(I2
tp1855
g36
I00
S'\xbb\x00\x00\x00j\x00\x00\x00'
p1856
tp1857
bsba(i__main__
FrameData
p1858
(dp1859
g6
g1747
sg8
g9
(g13
S'\xe9\xfbv \xd5\x1e\x1d@'
p1860
tp1861
Rp1862
sg19
I0
sg20
g21
(S'\x07\xdd\t\x1d\x13\x13\x02\x01y.'
p1863
tp1864
Rp1865
sg25
I0
sg26
g27
(g28
(I0
tp1866
g30
tp1867
Rp1868
(I1
(I2
tp1869
g36
I00
S'\xbc\x00\x00\x00k\x00\x00\x00'
p1870
tp1871
bsba(i__main__
FrameData
p1872
(dp1873
g6
g1747
sg8
g9
(g13
S'\xc0\n\x1f\x00\xc6H\x1c@'
p1874
tp1875
Rp1876
sg19
I0
sg20
g21
(S'\x07\xdd\t\x1d\x13\x13\x02\x01\xfb\xe4'
p1877
tp1878
Rp1879
sg25
I0
sg26
g27
(g28
(I0
tp1880
g30
tp1881
Rp1882
(I1
(I2
tp1883
g36
I00
S'\xbd\x00\x00\x00k\x00\x00\x00'
p1884
tp1885
bsba(i__main__
FrameData
p1886
(dp1887
g6
g1747
sg8
g9
(g13
S'\x00\x00\x00\x00\x00\x00\x18@'
p1888
tp1889
Rp1890
sg19
I0
sg20
g21
(S'\x07\xdd\t\x1d\x13\x13\x02\x02\x92n'
p1891
tp1892
Rp1893
sg25
I0
sg26
g27
(g28
(I0
tp1894
g30
tp1895
Rp1896
(I1
(I2
tp1897
g36
I00
S'\xbe\x00\x00\x00l\x00\x00\x00'
p1898
tp1899
bsba(i__main__
FrameData
p1900
(dp1901
g6
g1747
sg8
g9
(g13
S'9\xdcc\xb3\xbfT\x18@'
p1902
tp1903
Rp1904
sg19
I0
sg20
g21
(S'\x07\xdd\t\x1d\x13\x13\x02\x02\xc0\x81'
p1905
tp1906
Rp1907
sg25
I0
sg26
g27
(g28
(I0
tp1908
g30
tp1909
Rp1910
(I1
(I2
tp1911
g36
I00
S'\xbf\x00\x00\x00l\x00\x00\x00'
p1912
tp1913
bsba(i__main__
FrameData
p1914
(dp1915
g6
g1747
sg8
g9
(g13
S'\xf6/\x12_ee\x14@'
p1916
tp1917
Rp1918
sg19
I0
sg20
g21
(S'\x07\xdd\t\x1d\x13\x13\x02\x03\r\x82'
p1919
tp1920
Rp1921
sg25
I0
sg26
g27
(g28
(I0
tp1922
g30
tp1923
Rp1924
(I1
(I2
tp1925
g36
I00
S'\xbf\x00\x00\x00m\x00\x00\x00'
p1926
tp1927
bsba(i__main__
FrameData
p1928
(dp1929
g6
g1747
sg8
g9
(g13
S'\xa2\xa3\xb3\r\xe5R\x17@'
p1930
tp1931
Rp1932
sg19
I0
sg20
g21
(S'\x07\xdd\t\x1d\x13\x13\x02\x03\x83\xf8'
p1933
tp1934
Rp1935
sg25
I0
sg26
g27
(g28
(I0
tp1936
g30
tp1937
Rp1938
(I1
(I2
tp1939
g36
I00
S'\xc1\x00\x00\x00m\x00\x00\x00'
p1940
tp1941
bsba(i__main__
FrameData
p1942
(dp1943
g6
g1747
sg8
g9
(g13
S'\xcd;\x7ff\x9e\xa0\x16@'
p1944
tp1945
Rp1946
sg19
I0
sg20
g21
(S'\x07\xdd\t\x1d\x13\x13\x02\x04F\x01'
p1947
tp1948
Rp1949
sg25
I0
sg26
g27
(g28
(I0
tp1950
g30
tp1951
Rp1952
(I1
(I2
tp1953
g36
I00
S'\xc2\x00\x00\x00n\x00\x00\x00'
p1954
tp1955
bsba(i__main__
FrameData
p1956
(dp1957
g6
g1747
sg8
g9
(g13
S'\x00\x00\x00\x00\x00\x00\x14@'
p1958
tp1959
Rp1960
sg19
I0
sg20
g21
(S'\x07\xdd\t\x1d\x13\x13\x02\x08b\xd7'
p1961
tp1962
Rp1963
sg25
I0
sg26
g27
(g28
(I0
tp1964
g30
tp1965
Rp1966
(I1
(I2
tp1967
g36
I00
S'\xc1\x00\x00\x00n\x00\x00\x00'
p1968
tp1969
bsba(i__main__
FrameData
p1970
(dp1971
g6
g1747
sg8
g9
(g13
S'\xa8\xf4\x97\x9bw\xe3\x11@'
p1972
tp1973
Rp1974
sg19
I0
sg20
g21
(S'\x07\xdd\t\x1d\x13\x13\x02\x08\xad\xfc'
p1975
tp1976
Rp1977
sg25
I0
sg26
g27
(g28
(I0
tp1978
g30
tp1979
Rp1980
(I1
(I2
tp1981
g36
I00
S'\xc0\x00\x00\x00n\x00\x00\x00'
p1982
tp1983
bsba(i__main__
FrameData
p1984
(dp1985
g6
g1747
sg8
g9
(g13
S'\x07\xed\xaff\x0f~\x10@'
p1986
tp1987
Rp1988
sg19
I0
sg20
g21
(S'\x07\xdd\t\x1d\x13\x13\x02\x08\xeb\x86'
p1989
tp1990
Rp1991
sg25
I0
sg26
g27
(g28
(I0
tp1992
g30
tp1993
Rp1994
(I1
(I2
tp1995
g36
I00
S'\xbf\x00\x00\x00n\x00\x00\x00'
p1996
tp1997
bsba(i__main__
FrameData
p1998
(dp1999
g6
g1747
sg8
g9
(g13
S'\x00\x00\x00\x00\x00\x00\x10@'
p2000
tp2001
Rp2002
sg19
I0
sg20
g21
(S'\x07\xdd\t\x1d\x13\x13\x02\t)\xb2'
p2003
tp2004
Rp2005
sg25
I0
sg26
g27
(g28
(I0
tp2006
g30
tp2007
Rp2008
(I1
(I2
tp2009
g36
I00
S'\xbe\x00\x00\x00n\x00\x00\x00'
p2010
tp2011
bsba(i__main__
FrameData
p2012
(dp2013
g6
g1747
sg8
g9
(g13
S'\xa8\xf4\x97\x9bw\xe3\x11@'
p2014
tp2015
Rp2016
sg19
I0
sg20
g21
(S'\x07\xdd\t\x1d\x13\x13\x02\th\x8b'
p2017
tp2018
Rp2019
sg25
I0
sg26
g27
(g28
(I0
tp2020
g30
tp2021
Rp2022
(I1
(I2
tp2023
g36
I00
S'\xbc\x00\x00\x00n\x00\x00\x00'
p2024
tp2025
bsba(i__main__
FrameData
p2026
(dp2027
g6
g1747
sg8
g9
(g13
S'\x00\x00\x00\x00\x00\x00\x14@'
p2028
tp2029
Rp2030
sg19
I0
sg20
g21
(S'\x07\xdd\t\x1d\x13\x13\x02\t\xa6\xe0'
p2031
tp2032
Rp2033
sg25
I0
sg26
g27
(g28
(I0
tp2034
g30
tp2035
Rp2036
(I1
(I2
tp2037
g36
I00
S'\xbb\x00\x00\x00n\x00\x00\x00'
p2038
tp2039
bsba(i__main__
FrameData
p2040
(dp2041
g6
g1747
sg8
g9
(g13
S'\xa2\xa3\xb3\r\xe5R\x17@'
p2042
tp2043
Rp2044
sg19
I0
sg20
g21
(S'\x07\xdd\t\x1d\x13\x13\x02\t\xe5g'
p2045
tp2046
Rp2047
sg25
I0
sg26
g27
(g28
(I0
tp2048
g30
tp2049
Rp2050
(I1
(I2
tp2051
g36
I00
S'\xb9\x00\x00\x00o\x00\x00\x00'
p2052
tp2053
bsba(i__main__
FrameData
p2054
(dp2055
g6
g1747
sg8
g9
(g13
S'p\xc4\x9d9\x8dv\x1e@'
p2056
tp2057
Rp2058
sg19
I0
sg20
g21
(S'\x07\xdd\t\x1d\x13\x13\x02\n#\xe1'
p2059
tp2060
Rp2061
sg25
I0
sg26
g27
(g28
(I0
tp2062
g30
tp2063
Rp2064
(I1
(I2
tp2065
g36
I00
S'\xb7\x00\x00\x00o\x00\x00\x00'
p2066
tp2067
bsba(i__main__
FrameData
p2068
(dp2069
g6
g1747
sg8
g9
(g13
S'\x9a.\x90!hp"@'
p2070
tp2071
Rp2072
sg19
I0
sg20
g21
(S'\x07\xdd\t\x1d\x13\x13\x02\nb\x8c'
p2073
tp2074
Rp2075
sg25
I0
sg26
g27
(g28
(I0
tp2076
g30
tp2077
Rp2078
(I1
(I2
tp2079
g36
I00
S'\xb5\x00\x00\x00p\x00\x00\x00'
p2080
tp2081
bsba(i__main__
FrameData
p2082
(dp2083
g6
g1480
sg8
g9
(g13
S'H\xaa*\x8f9\x17&@'
p2084
tp2085
Rp2086
sg19
I0
sg20
g21
(S'\x07\xdd\t\x1d\x13\x13\x02\n\xa8\xa1'
p2087
tp2088
Rp2089
sg25
I0
sg26
g27
(g28
(I0
tp2090
g30
tp2091
Rp2092
(I1
(I2
tp2093
g36
I00
S'\xb2\x00\x00\x00q\x00\x00\x00'
p2094
tp2095
bsba(i__main__
FrameData
p2096
(dp2097
g6
g1480
sg8
g9
(g13
S'\x00\x00\x00\x00\x00\x00"@'
p2098
tp2099
Rp2100
sg19
I0
sg20
g21
(S'\x07\xdd\t\x1d\x13\x13\x02\n\xea\xba'
p2101
tp2102
Rp2103
sg25
I0
sg26
g27
(g28
(I0
tp2104
g30
tp2105
Rp2106
(I1
(I2
tp2107
g36
I00
S'\xb0\x00\x00\x00r\x00\x00\x00'
p2108
tp2109
bsba(i__main__
FrameData
p2110
(dp2111
g6
g1480
sg8
g9
(g13
S'9\xdcc\xb3\xbfT\x18@'
p2112
tp2113
Rp2114
sg19
I0
sg20
g21
(S'\x07\xdd\t\x1d\x13\x13\x02\x0b%\x90'
p2115
tp2116
Rp2117
sg25
I0
sg26
g27
(g28
(I0
tp2118
g30
tp2119
Rp2120
(I1
(I2
tp2121
g36
I00
S'\xad\x00\x00\x00s\x00\x00\x00'
p2122
tp2123
bsba(i__main__
FrameData
p2124
(dp2125
g6
g1480
sg8
g9
(g13
S'S[\xda:XL\t@'
p2126
tp2127
Rp2128
sg19
I0
sg20
g21
(S'\x07\xdd\t\x1d\x13\x13\x02\x0bg\x1b'
p2129
tp2130
Rp2131
sg25
I0
sg26
g27
(g28
(I0
tp2132
g30
tp2133
Rp2134
(I1
(I2
tp2135
g36
I00
S'\xaa\x00\x00\x00s\x00\x00\x00'
p2136
tp2137
bsba(i__main__
FrameData
p2138
(dp2139
g6
g1480
sg8
g9
(g13
S'\xa8\xf4\x97\x9bw\xe3\x01@'
p2140
tp2141
Rp2142
sg19
I0
sg20
g21
(S'\x07\xdd\t\x1d\x13\x13\x02\x0b\xa8\x0c'
p2143
tp2144
Rp2145
sg25
I0
sg26
g27
(g28
(I0
tp2146
g30
tp2147
Rp2148
(I1
(I2
tp2149
g36
I00
S'\xa9\x00\x00\x00s\x00\x00\x00'
p2150
tp2151
bsba(i__main__
FrameData
p2152
(dp2153
g6
g1480
sg8
g9
(g13
S'\x00\x00\x00\x00\x00\x00\xf0?'
p2154
tp2155
Rp2156
sg19
I0
sg20
g21
(S'\x07\xdd\t\x1d\x13\x13\x02\x0b\xe8\xea'
p2157
tp2158
Rp2159
sg25
I0
sg26
g27
(g28
(I0
tp2160
g30
tp2161
Rp2162
(I1
(I2
tp2163
g36
I00
S'\xa7\x00\x00\x00s\x00\x00\x00'
p2164
tp2165
bsba(i__main__
FrameData
p2166
(dp2167
g6
g1480
sg8
g9
(g13
S'\xa8\xf4\x97\x9bw\xe3\x01@'
p2168
tp2169
Rp2170
sg19
I0
sg20
g21
(S'\x07\xdd\t\x1d\x13\x13\x02\x0c.9'
p2171
tp2172
Rp2173
sg25
I0
sg26
g27
(g28
(I0
tp2174
g30
tp2175
Rp2176
(I1
(I2
tp2177
g36
I00
S'\xa5\x00\x00\x00s\x00\x00\x00'
p2178
tp2179
bsba(i__main__
FrameData
p2180
(dp2181
g6
g1480
sg8
g9
(g13
S'\xf6/\x12_ee\x14@'
p2182
tp2183
Rp2184
sg19
I0
sg20
g21
(S'\x07\xdd\t\x1d\x13\x13\x02\x0cn\x8b'
p2185
tp2186
Rp2187
sg25
I0
sg26
g27
(g28
(I0
tp2188
g30
tp2189
Rp2190
(I1
(I2
tp2191
g36
I00
S'\xa2\x00\x00\x00s\x00\x00\x00'
p2192
tp2193
bsba(i__main__
FrameData
p2194
(dp2195
g6
g1480
sg8
g9
(g13
S'9\xdcc\xb3\xbfT\x18@'
p2196
tp2197
Rp2198
sg19
I0
sg20
g21
(S'\x07\xdd\t\x1d\x13\x13\x02\x0c\xb0\xc1'
p2199
tp2200
Rp2201
sg25
I0
sg26
g27
(g28
(I0
tp2202
g30
tp2203
Rp2204
(I1
(I2
tp2205
g36
I00
S'\xa1\x00\x00\x00s\x00\x00\x00'
p2206
tp2207
bsba(i__main__
FrameData
p2208
(dp2209
g6
g1480
sg8
g9
(g13
S'\xd0\xbaa?\xe0\x1f @'
p2210
tp2211
Rp2212
sg19
I0
sg20
g21
(S'\x07\xdd\t\x1d\x13\x13\x02\x0c\xf4W'
p2213
tp2214
Rp2215
sg25
I0
sg26
g27
(g28
(I0
tp2216
g30
tp2217
Rp2218
(I1
(I2
tp2219
g36
I00
S'\x9f\x00\x00\x00s\x00\x00\x00'
p2220
tp2221
bsba(i__main__
FrameData
p2222
(dp2223
g6
g1480
sg8
g9
(g13
S'\xf0)#L\x89\x19$@'
p2224
tp2225
Rp2226
sg19
I0
sg20
g21
(S'\x07\xdd\t\x1d\x13\x13\x02\r5O'
p2227
tp2228
Rp2229
sg25
I0
sg26
g27
(g28
(I0
tp2230
g30
tp2231
Rp2232
(I1
(I2
tp2233
g36
I00
S'\x9d\x00\x00\x00s\x00\x00\x00'
p2234
tp2235
bsba(i__main__
FrameData
p2236
(dp2237
g6
g1437
sg8
g9
(g13
S'H\xaa*\x8f9\x17&@'
p2238
tp2239
Rp2240
sg19
I0
sg20
g21
(S'\x07\xdd\t\x1d\x13\x13\x02\rx\xf6'
p2241
tp2242
Rp2243
sg25
I0
sg26
g27
(g28
(I0
tp2244
g30
tp2245
Rp2246
(I1
(I2
tp2247
g36
I00
S'\x9b\x00\x00\x00s\x00\x00\x00'
p2248
tp2249
bsba(i__main__
FrameData
p2250
(dp2251
g6
g1437
sg8
g9
(g13
S'\xf0)#L\x89\x19$@'
p2252
tp2253
Rp2254
sg19
I0
sg20
g21
(S'\x07\xdd\t\x1d\x13\x13\x02\r\xb2\xe3'
p2255
tp2256
Rp2257
sg25
I0
sg26
g27
(g28
(I0
tp2258
g30
tp2259
Rp2260
(I1
(I2
tp2261
g36
I00
S'\x9a\x00\x00\x00s\x00\x00\x00'
p2262
tp2263
bsba(i__main__
FrameData
p2264
(dp2265
g6
g1437
sg8
g9
(g13
S'\xd0\xbaa?\xe0\x1f @'
p2266
tp2267
Rp2268
sg19
I0
sg20
g21
(S'\x07\xdd\t\x1d\x13\x13\x02\r\xf3\xe5'
p2269
tp2270
Rp2271
sg25
I0
sg26
g27
(g28
(I0
tp2272
g30
tp2273
Rp2274
(I1
(I2
tp2275
g36
I00
S'\x98\x00\x00\x00s\x00\x00\x00'
p2276
tp2277
bsba(i__main__
FrameData
p2278
(dp2279
g6
g1437
sg8
g9
(g13
S'\xf6/\x12_ee\x14@'
p2280
tp2281
Rp2282
sg19
I0
sg20
g21
(S'\x07\xdd\t\x1d\x13\x13\x02\x0e>J'
p2283
tp2284
Rp2285
sg25
I0
sg26
g27
(g28
(I0
tp2286
g30
tp2287
Rp2288
(I1
(I2
tp2289
g36
I00
S'\x95\x00\x00\x00s\x00\x00\x00'
p2290
tp2291
bsba(i__main__
FrameData
p2292
(dp2293
g6
g1437
sg8
g9
(g13
S'\xa8\xf4\x97\x9bw\xe3\x01@'
p2294
tp2295
Rp2296
sg19
I0
sg20
g21
(S'\x07\xdd\t\x1d\x13\x13\x02\x0ex!'
p2297
tp2298
Rp2299
sg25
I0
sg26
g27
(g28
(I0
tp2300
g30
tp2301
Rp2302
(I1
(I2
tp2303
g36
I00
S'\x92\x00\x00\x00s\x00\x00\x00'
p2304
tp2305
bsba(i__main__
FrameData
p2306
(dp2307
g6
g1437
sg8
g9
(g13
S'\xcd;\x7ff\x9e\xa0\xf6?'
p2308
tp2309
Rp2310
sg19
I0
sg20
g21
(S'\x07\xdd\t\x1d\x13\x13\x02\x0e\xb9\n'
p2311
tp2312
Rp2313
sg25
I0
sg26
g27
(g28
(I0
tp2314
g30
tp2315
Rp2316
(I1
(I2
tp2317
g36
I00
S'\x8f\x00\x00\x00s\x00\x00\x00'
p2318
tp2319
bsba(i__main__
FrameData
p2320
(dp2321
g6
g1437
sg8
g9
(g13
S'\xf6/\x12_ee\x14@'
p2322
tp2323
Rp2324
sg19
I0
sg20
g21
(S'\x07\xdd\t\x1d\x13\x13\x02\x0e\xf9L'
p2325
tp2326
Rp2327
sg25
I0
sg26
g27
(g28
(I0
tp2328
g30
tp2329
Rp2330
(I1
(I2
tp2331
g36
I00
S'\x8b\x00\x00\x00s\x00\x00\x00'
p2332
tp2333
bsba(i__main__
FrameData
p2334
(dp2335
g6
g1437
sg8
g9
(g13
S'\xd0\xbaa?\xe0\x1f @'
p2336
tp2337
Rp2338
sg19
I0
sg20
g21
(S'\x07\xdd\t\x1d\x13\x13\x02\x0f:@'
p2339
tp2340
Rp2341
sg25
I0
sg26
g27
(g28
(I0
tp2342
g30
tp2343
Rp2344
(I1
(I2
tp2345
g36
I00
S'\x88\x00\x00\x00s\x00\x00\x00'
p2346
tp2347
bsba(i__main__
FrameData
p2348
(dp2349
g6
S'g'
p2350
sg8
g9
(g13
S'&5w\xe2K\x15(@'
p2351
tp2352
Rp2353
sg19
I0
sg20
g21
(S'\x07\xdd\t\x1d\x13\x13\x03\x00=f'
p2354
tp2355
Rp2356
sg25
I0
sg26
g27
(g28
(I0
tp2357
g30
tp2358
Rp2359
(I1
(I2
tp2360
g36
I00
S'\x84\x00\x00\x00s\x00\x00\x00'
p2361
tp2362
bsba(i__main__
FrameData
p2363
(dp2364
g6
g2350
sg8
g9
(g13
S'\xf0)#L\x89\x19$@'
p2365
tp2366
Rp2367
sg19
I0
sg20
g21
(S'\x07\xdd\t\x1d\x13\x13\x03\x00\x7f\x8b'
p2368
tp2369
Rp2370
sg25
I0
sg26
g27
(g28
(I0
tp2371
g30
tp2372
Rp2373
(I1
(I2
tp2374
g36
I00
S'\x82\x00\x00\x00s\x00\x00\x00'
p2375
tp2376
bsba(i__main__
FrameData
p2377
(dp2378
g6
g2350
sg8
g9
(g13
S'\xc0\n\x1f\x00\xc6H\x1c@'
p2379
tp2380
Rp2381
sg19
I0
sg20
g21
(S'\x07\xdd\t\x1d\x13\x13\x03\x00\xbc?'
p2382
tp2383
Rp2384
sg25
I0
sg26
g27
(g28
(I0
tp2385
g30
tp2386
Rp2387
(I1
(I2
tp2388
g36
I00
S'\x7f\x00\x00\x00s\x00\x00\x00'
p2389
tp2390
bsba(i__main__
FrameData
p2391
(dp2392
g6
g2350
sg8
g9
(g13
S'S[\xda:XL\t@'
p2393
tp2394
Rp2395
sg19
I0
sg20
g21
(S'\x07\xdd\t\x1d\x13\x13\x03\x01\x03\xaf'
p2396
tp2397
Rp2398
sg25
I0
sg26
g27
(g28
(I0
tp2399
g30
tp2400
Rp2401
(I1
(I2
tp2402
g36
I00
S'{\x00\x00\x00s\x00\x00\x00'
p2403
tp2404
bsba(i__main__
FrameData
p2405
(dp2406
g6
g2350
sg8
g9
(g13
S'\x00\x00\x00\x00\x00\x00\xf0?'
p2407
tp2408
Rp2409
sg19
I0
sg20
g21
(S'\x07\xdd\t\x1d\x13\x13\x03\x01B9'
p2410
tp2411
Rp2412
sg25
I0
sg26
g27
(g28
(I0
tp2413
g30
tp2414
Rp2415
(I1
(I2
tp2416
g36
I00
S'x\x00\x00\x00s\x00\x00\x00'
p2417
tp2418
bsba(i__main__
FrameData
p2419
(dp2420
g6
g2350
sg8
g9
(g13
S'\x07\xed\xaff\x0f~\x10@'
p2421
tp2422
Rp2423
sg19
I0
sg20
g21
(S'\x07\xdd\t\x1d\x13\x13\x03\x01\x80\xb6'
p2424
tp2425
Rp2426
sg25
I0
sg26
g27
(g28
(I0
tp2427
g30
tp2428
Rp2429
(I1
(I2
tp2430
g36
I00
S't\x00\x00\x00s\x00\x00\x00'
p2431
tp2432
bsba(i__main__
FrameData
p2433
(dp2434
g6
g2350
sg8
g9
(g13
S'\x00\x00\x00\x00\x00\x00\x1c@'
p2435
tp2436
Rp2437
sg19
I0
sg20
g21
(S'\x07\xdd\t\x1d\x13\x13\x03\x01\xca\xb7'
p2438
tp2439
Rp2440
sg25
I0
sg26
g27
(g28
(I0
tp2441
g30
tp2442
Rp2443
(I1
(I2
tp2444
g36
I00
S'q\x00\x00\x00r\x00\x00\x00'
p2445
tp2446
bsba(i__main__
FrameData
p2447
(dp2448
g6
g2350
sg8
g9
(g13
S'\xf0)#L\x89\x19$@'
p2449
tp2450
Rp2451
sg19
I0
sg20
g21
(S'\x07\xdd\t\x1d\x13\x13\x03\x02\x03\x81'
p2452
tp2453
Rp2454
sg25
I0
sg26
g27
(g28
(I0
tp2455
g30
tp2456
Rp2457
(I1
(I2
tp2458
g36
I00
S'n\x00\x00\x00q\x00\x00\x00'
p2459
tp2460
bsba(i__main__
FrameData
p2461
(dp2462
g6
g1069
sg8
g9
(g13
S'\xd2\xf1}\x82U\\&@'
p2463
tp2464
Rp2465
sg19
I0
sg20
g21
(S'\x07\xdd\t\x1d\x13\x13\x03\x02F\xc3'
p2466
tp2467
Rp2468
sg25
I0
sg26
g27
(g28
(I0
tp2469
g30
tp2470
Rp2471
(I1
(I2
tp2472
g36
I00
S'k\x00\x00\x00p\x00\x00\x00'
p2473
tp2474
bsba(i__main__
FrameData
p2475
(dp2476
g6
g1069
sg8
g9
(g13
S'\x9a.\x90!hp"@'
p2477
tp2478
Rp2479
sg19
I0
sg20
g21
(S'\x07\xdd\t\x1d\x13\x13\x03\x02\x87\xe9'
p2480
tp2481
Rp2482
sg25
I0
sg26
g27
(g28
(I0
tp2483
g30
tp2484
Rp2485
(I1
(I2
tp2486
g36
I00
S'i\x00\x00\x00p\x00\x00\x00'
p2487
tp2488
bsba(i__main__
FrameData
p2489
(dp2490
g6
g1069
sg8
g9
(g13
S'\xf3YaD+\xd8\x1c@'
p2491
tp2492
Rp2493
sg19
I0
sg20
g21
(S'\x07\xdd\t\x1d\x13\x13\x03\x02\xc7y'
p2494
tp2495
Rp2496
sg25
I0
sg26
g27
(g28
(I0
tp2497
g30
tp2498
Rp2499
(I1
(I2
tp2500
g36
I00
S'f\x00\x00\x00n\x00\x00\x00'
p2501
tp2502
bsba(i__main__
FrameData
p2503
(dp2504
g6
g1069
sg8
g9
(g13
S'\x00\xff\x9f\x99\xcc\x9c\x19@'
p2505
tp2506
Rp2507
sg19
I0
sg20
g21
(S'\x07\xdd\t\x1d\x13\x13\x03\x03\r\xa4'
p2508
tp2509
Rp2510
sg25
I0
sg26
g27
(g28
(I0
tp2511
g30
tp2512
Rp2513
(I1
(I2
tp2514
g36
I00
S'd\x00\x00\x00m\x00\x00\x00'
p2515
tp2516
bsba(i__main__
FrameData
p2517
(dp2518
g6
g1069
sg8
g9
(g13
S'S[\xda:XL\x19@'
p2519
tp2520
Rp2521
sg19
I0
sg20
g21
(S'\x07\xdd\t\x1d\x13\x13\x03\x03N\x85'
p2522
tp2523
Rp2524
sg25
I0
sg26
g27
(g28
(I0
tp2525
g30
tp2526
Rp2527
(I1
(I2
tp2528
g36
I00
S'b\x00\x00\x00l\x00\x00\x00'
p2529
tp2530
bsba(i__main__
FrameData
p2531
(dp2532
g6
g1069
sg8
g9
(g13
S'\xc0\n\x1f\x00\xc6H\x1c@'
p2533
tp2534
Rp2535
sg19
I0
sg20
g21
(S'\x07\xdd\t\x1d\x13\x13\x03\x03\x90\xb6'
p2536
tp2537
Rp2538
sg25
I0
sg26
g27
(g28
(I0
tp2539
g30
tp2540
Rp2541
(I1
(I2
tp2542
g36
I00
S'a\x00\x00\x00k\x00\x00\x00'
p2543
tp2544
bsba(i__main__
FrameData
p2545
(dp2546
g6
g1069
sg8
g9
(g13
S'\xd0\xbaa?\xe0\x1f @'
p2547
tp2548
Rp2549
sg19
I0
sg20
g21
(S'\x07\xdd\t\x1d\x13\x13\x03\x03\xd4b'
p2550
tp2551
Rp2552
sg25
I0
sg26
g27
(g28
(I0
tp2553
g30
tp2554
Rp2555
(I1
(I2
tp2556
g36
I00
S'_\x00\x00\x00j\x00\x00\x00'
p2557
tp2558
bsba(i__main__
FrameData
p2559
(dp2560
g6
g1069
sg8
g9
(g13
S'\x9a.\x90!hp"@'
p2561
tp2562
Rp2563
sg19
I0
sg20
g21
(S'\x07\xdd\t\x1d\x13\x13\x03\x04\x0b\xb1'
p2564
tp2565
Rp2566
sg25
I0
sg26
g27
(g28
(I0
tp2567
g30
tp2568
Rp2569
(I1
(I2
tp2570
g36
I00
S'^\x00\x00\x00i\x00\x00\x00'
p2571
tp2572
bsba(i__main__
FrameData
p2573
(dp2574
g6
g1069
sg8
g9
(g13
S'\xf3\xd9\xa8\xa4h\x8a%@'
p2575
tp2576
Rp2577
sg19
I0
sg20
g21
(S'\x07\xdd\t\x1d\x13\x13\x03\x04M\xff'
p2578
tp2579
Rp2580
sg25
I0
sg26
g27
(g28
(I0
tp2581
g30
tp2582
Rp2583
(I1
(I2
tp2584
g36
I00
S'\\\x00\x00\x00h\x00\x00\x00'
p2585
tp2586
bsba(i__main__
FrameData
p2587
(dp2588
g6
g1069
sg8
g9
(g13
S'lNy\x00\x85*(@'
p2589
tp2590
Rp2591
sg19
I0
sg20
g21
(S'\x07\xdd\t\x1d\x13\x13\x03\x04\x8fi'
p2592
tp2593
Rp2594
sg25
I0
sg26
g27
(g28
(I0
tp2595
g30
tp2596
Rp2597
(I1
(I2
tp2598
g36
I00
S'[\x00\x00\x00g\x00\x00\x00'
p2599
tp2600
bsba(i__main__
FrameData
p2601
(dp2602
g6
g1069
sg8
g9
(g13
S'\xbc\xfdP\xb5U\xdb+@'
p2603
tp2604
Rp2605
sg19
I0
sg20
g21
(S'\x07\xdd\t\x1d\x13\x13\x03\x04\xd2F'
p2606
tp2607
Rp2608
sg25
I0
sg26
g27
(g28
(I0
tp2609
g30
tp2610
Rp2611
(I1
(I2
tp2612
g36
I00
S'[\x00\x00\x00e\x00\x00\x00'
p2613
tp2614
bsba(i__main__
FrameData
p2615
(dp2616
g6
g1069
sg8
g9
(g13
S'&\xecIP\x11N/@'
p2617
tp2618
Rp2619
sg19
I0
sg20
g21
(S'\x07\xdd\t\x1d\x13\x13\x03\x05\x14]'
p2620
tp2621
Rp2622
sg25
I0
sg26
g27
(g28
(I0
tp2623
g30
tp2624
Rp2625
(I1
(I2
tp2626
g36
I00
S'Y\x00\x00\x00d\x00\x00\x00'
p2627
tp2628
bsba(i__main__
FrameData
p2629
(dp2630
g6
g1069
sg8
g9
(g13
S'\x00\x00\x00\x00\x00\x001@'
p2631
tp2632
Rp2633
sg19
I0
sg20
g21
(S'\x07\xdd\t\x1d\x13\x13\x03\x05V\xb1'
p2634
tp2635
Rp2636
sg25
I0
sg26
g27
(g28
(I0
tp2637
g30
tp2638
Rp2639
(I1
(I2
tp2640
g36
I00
S'X\x00\x00\x00c\x00\x00\x00'
p2641
tp2642
bsba(i__main__
FrameData
p2643
(dp2644
g6
g1069
sg8
g9
(g13
S'\xa8\xf4\x97\x9bw\xe31@'
p2645
tp2646
Rp2647
sg19
I0
sg20
g21
(S'\x07\xdd\t\x1d\x13\x13\x03\x05\x98\xd3'
p2648
tp2649
Rp2650
sg25
I0
sg26
g27
(g28
(I0
tp2651
g30
tp2652
Rp2653
(I1
(I2
tp2654
g36
I00
S'X\x00\x00\x00b\x00\x00\x00'
p2655
tp2656
bsba(i__main__
FrameData
p2657
(dp2658
g6
g1069
sg8
g9
(g13
S'\xc9\xe0>!B<3@'
p2659
tp2660
Rp2661
sg19
I0
sg20
g21
(S'\x07\xdd\t\x1d\x13\x13\x03\x05\xdb\n'
p2662
tp2663
Rp2664
sg25
I0
sg26
g27
(g28
(I0
tp2665
g30
tp2666
Rp2667
(I1
(I2
tp2668
g36
I00
S'W\x00\x00\x00a\x00\x00\x00'
p2669
tp2670
bsba(i__main__
FrameData
p2671
(dp2672
g6
g1069
sg8
g9
(g13
S'\x88\x80v\xd5\\\x974@'
p2673
tp2674
Rp2675
sg19
I0
sg20
g21
(S'\x07\xdd\t\x1d\x13\x13\x03\x06\x1eh'
p2676
tp2677
Rp2678
sg25
I0
sg26
g27
(g28
(I0
tp2679
g30
tp2680
Rp2681
(I1
(I2
tp2682
g36
I00
S'V\x00\x00\x00`\x00\x00\x00'
p2683
tp2684
bsba(i__main__
FrameData
p2685
(dp2686
g6
g7
sg8
g9
(g13
S'\xbd\xec\x81\x93G94@'
p2687
tp2688
Rp2689
sg19
I0
sg20
g21
(S'\x07\xdd\t\x1d\x13\x13\x03\x06_\xad'
p2690
tp2691
Rp2692
sg25
I0
sg26
g27
(g28
(I0
tp2693
g30
tp2694
Rp2695
(I1
(I2
tp2696
g36
I00
S'U\x00\x00\x00_\x00\x00\x00'
p2697
tp2698
bsba(i__main__
FrameData
p2699
(dp2700
g6
g7
sg8
g9
(g13
S'\xc9\xe0>!B<3@'
p2701
tp2702
Rp2703
sg19
I0
sg20
g21
(S'\x07\xdd\t\x1d\x13\x13\x03\x06\x98z'
p2704
tp2705
Rp2706
sg25
I0
sg26
g27
(g28
(I0
tp2707
g30
tp2708
Rp2709
(I1
(I2
tp2710
g36
I00
S'U\x00\x00\x00^\x00\x00\x00'
p2711
tp2712
bsba(i__main__
FrameData
p2713
(dp2714
g6
g7
sg8
g9
(g13
S'8\xd8\xbc\n\x1b\x072@'
p2715
tp2716
Rp2717
sg19
I0
sg20
g21
(S'\x07\xdd\t\x1d\x13\x13\x03\x06\xe0\xde'
p2718
tp2719
Rp2720
sg25
I0
sg26
g27
(g28
(I0
tp2721
g30
tp2722
Rp2723
(I1
(I2
tp2724
g36
I00
S'S\x00\x00\x00]\x00\x00\x00'
p2725
tp2726
bsba(i__main__
FrameData
p2727
(dp2728
g6
g7
sg8
g9
(g13
S'\x00\x00\x00\x00\x00\x001@'
p2729
tp2730
Rp2731
sg19
I0
sg20
g21
(S'\x07\xdd\t\x1d\x13\x13\x03\x07\x1c\x87'
p2732
tp2733
Rp2734
sg25
I0
sg26
g27
(g28
(I0
tp2735
g30
tp2736
Rp2737
(I1
(I2
tp2738
g36
I00
S'R\x00\x00\x00\\\x00\x00\x00'
p2739
tp2740
bsba(i__main__
FrameData
p2741
(dp2742
g6
g7
sg8
g9
(g13
S'p`\xff\x00\xfe\x070@'
p2743
tp2744
Rp2745
sg19
I0
sg20
g21
(S'\x07\xdd\t\x1d\x13\x13\x03\x07^\xae'
p2746
tp2747
Rp2748
sg25
I0
sg26
g27
(g28
(I0
tp2749
g30
tp2750
Rp2751
(I1
(I2
tp2752
g36
I00
S'Q\x00\x00\x00[\x00\x00\x00'
p2753
tp2754
bsba(i__main__
FrameData
p2755
(dp2756
g6
g7
sg8
g9
(g13
S')\x03\xec/C\x12,@'
p2757
tp2758
Rp2759
sg19
I0
sg20
g21
(S'\x07\xdd\t\x1d\x13\x13\x03\x07\xa1\x0b'
p2760
tp2761
Rp2762
sg25
I0
sg26
g27
(g28
(I0
tp2763
g30
tp2764
Rp2765
(I1
(I2
tp2766
g36
I00
S'Q\x00\x00\x00Y\x00\x00\x00'
p2767
tp2768
bsba(i__main__
FrameData
p2769
(dp2770
g6
g7
sg8
g9
(g13
S'8H\x9b\x97\xee\xae*@'
p2771
tp2772
Rp2773
sg19
I0
sg20
g21
(S'\x07\xdd\t\x1d\x13\x13\x03\x07\xe3\x1c'
p2774
tp2775
Rp2776
sg25
I0
sg26
g27
(g28
(I0
tp2777
g30
tp2778
Rp2779
(I1
(I2
tp2780
g36
I00
S'O\x00\x00\x00X\x00\x00\x00'
p2781
tp2782
bsba(i__main__
FrameData
p2783
(dp2784
g6
g7
sg8
g9
(g13
S'S[\xda:XL)@'
p2785
tp2786
Rp2787
sg19
I0
sg20
g21
(S'\x07\xdd\t\x1d\x13\x13\x03\x08%d'
p2788
tp2789
Rp2790
sg25
I0
sg26
g27
(g28
(I0
tp2791
g30
tp2792
Rp2793
(I1
(I2
tp2794
g36
I00
S'N\x00\x00\x00W\x00\x00\x00'
p2795
tp2796
bsba(i__main__
FrameData
p2797
(dp2798
g6
g7
sg8
g9
(g13
S'\xf3\xd9\xa8\xa4h\x8a%@'
p2799
tp2800
Rp2801
sg19
I0
sg20
g21
(S'\x07\xdd\t\x1d\x13\x13\x03\x08h\x92'
p2802
tp2803
Rp2804
sg25
I0
sg26
g27
(g28
(I0
tp2805
g30
tp2806
Rp2807
(I1
(I2
tp2808
g36
I00
S'N\x00\x00\x00U\x00\x00\x00'
p2809
tp2810
bsba(i__main__
FrameData
p2811
(dp2812
g6
g7
sg8
g9
(g13
S'w\x03Is \xa2%@'
p2813
tp2814
Rp2815
sg19
I0
sg20
g21
(S'\x07\xdd\t\x1d\x13\x13\x03\x08\xa9\xe1'
p2816
tp2817
Rp2818
sg25
I0
sg26
g27
(g28
(I0
tp2819
g30
tp2820
Rp2821
(I1
(I2
tp2822
g36
I00
S'L\x00\x00\x00T\x00\x00\x00'
p2823
tp2824
bsba(i__main__
FrameData
p2825
(dp2826
g6
g7
sg8
g9
(g13
S'6\xd0\xd2x\xa2B%@'
p2827
tp2828
Rp2829
sg19
I0
sg20
g21
(S'\x07\xdd\t\x1d\x13\x13\x03\x08\xe2\xc9'
p2830
tp2831
Rp2832
sg25
I0
sg26
g27
(g28
(I0
tp2833
g30
tp2834
Rp2835
(I1
(I2
tp2836
g36
I00
S'K\x00\x00\x00S\x00\x00\x00'
p2837
tp2838
bsba(i__main__
FrameData
p2839
(dp2840
g6
g7
sg8
g9
(g13
S'ST\xaf\x99\x8a\xcc#@'
p2841
tp2842
Rp2843
sg19
I0
sg20
g21
(S'\x07\xdd\t\x1d\x13\x13\x03\t&B'
p2844
tp2845
Rp2846
sg25
I0
sg26
g27
(g28
(I0
tp2847
g30
tp2848
Rp2849
(I1
(I2
tp2850
g36
I00
S'K\x00\x00\x00R\x00\x00\x00'
p2851
tp2852
bsba(i__main__
FrameData
p2853
(dp2854
g6
g7
sg8
g9
(g13
S'\xeb\x12\xb2\xbb\xb2\xcd&@'
p2855
tp2856
Rp2857
sg19
I0
sg20
g21
(S'\x07\xdd\t\x1d\x13\x13\x03\tg\x0c'
p2858
tp2859
Rp2860
sg25
I0
sg26
g27
(g28
(I0
tp2861
g30
tp2862
Rp2863
(I1
(I2
tp2864
g36
I00
S'I\x00\x00\x00R\x00\x00\x00'
p2865
tp2866
bsba(i__main__
FrameData
p2867
(dp2868
g6
g7
sg8
g9
(g13
S'\xd2\xf1}\x82U\\&@'
p2869
tp2870
Rp2871
sg19
I0
sg20
g21
(S'\x07\xdd\t\x1d\x13\x13\x03\t\xa9.'
p2872
tp2873
Rp2874
sg25
I0
sg26
g27
(g28
(I0
tp2875
g30
tp2876
Rp2877
(I1
(I2
tp2878
g36
I00
S'H\x00\x00\x00P\x00\x00\x00'
p2879
tp2880
bsba(i__main__
FrameData
p2881
(dp2882
g6
g7
sg8
g9
(g13
S"\xe0\x11<m\xceh'@"
p2883
tp2884
Rp2885
sg19
I0
sg20
g21
(S'\x07\xdd\t\x1d\x13\x13\x03\t\xeb\xfe'
p2886
tp2887
Rp2888
sg25
I0
sg26
g27
(g28
(I0
tp2889
g30
tp2890
Rp2891
(I1
(I2
tp2892
g36
I00
S'G\x00\x00\x00O\x00\x00\x00'
p2893
tp2894
bsba(i__main__
FrameData
p2895
(dp2896
g6
g169
sg8
g9
(g13
S'\xd2\xf1}\x82U\\&@'
p2897
tp2898
Rp2899
sg19
I0
sg20
g21
(S'\x07\xdd\t\x1d\x13\x13\x03\n.\xd6'
p2900
tp2901
Rp2902
sg25
I0
sg26
g27
(g28
(I0
tp2903
g30
tp2904
Rp2905
(I1
(I2
tp2906
g36
I00
S'F\x00\x00\x00N\x00\x00\x00'
p2907
tp2908
bsba(i__main__
FrameData
p2909
(dp2910
g6
g169
sg8
g9
(g13
S'\xf6/\x12_ee$@'
p2911
tp2912
Rp2913
sg19
I0
sg20
g21
(S'\x07\xdd\t\x1d\x13\x13\x03\nj\x12'
p2914
tp2915
Rp2916
sg25
I0
sg26
g27
(g28
(I0
tp2917
g30
tp2918
Rp2919
(I1
(I2
tp2920
g36
I00
S'E\x00\x00\x00N\x00\x00\x00'
p2921
tp2922
bsba(i__main__
FrameData
p2923
(dp2924
g6
g169
sg8
g9
(g13
S'\x00\x00\x00\x00\x00\x00 @'
p2925
tp2926
Rp2927
sg19
I0
sg20
g21
(S'\x07\xdd\t\x1d\x13\x13\x03\n\xab\xac'
p2928
tp2929
Rp2930
sg25
I0
sg26
g27
(g28
(I0
tp2931
g30
tp2932
Rp2933
(I1
(I2
tp2934
g36
I00
S'C\x00\x00\x00L\x00\x00\x00'
p2935
tp2936
bsba(i__main__
FrameData
p2937
(dp2938
g6
g169
sg8
g9
(g13
S'\xc0\n\x1f\x00\xc6H\x1c@'
p2939
tp2940
Rp2941
sg19
I0
sg20
g21
(S'\x07\xdd\t\x1d\x13\x13\x03\n\xf4I'
p2942
tp2943
Rp2944
sg25
I0
sg26
g27
(g28
(I0
tp2945
g30
tp2946
Rp2947
(I1
(I2
tp2948
g36
I00
S'B\x00\x00\x00K\x00\x00\x00'
p2949
tp2950
bsba(i__main__
FrameData
p2951
(dp2952
g6
g169
sg8
g9
(g13
S'9\xdcc\xb3\xbfT\x18@'
p2953
tp2954
Rp2955
sg19
I0
sg20
g21
(S'\x07\xdd\t\x1d\x13\x13\x03\x0b4\x83'
p2956
tp2957
Rp2958
sg25
I0
sg26
g27
(g28
(I0
tp2959
g30
tp2960
Rp2961
(I1
(I2
tp2962
g36
I00
S'A\x00\x00\x00K\x00\x00\x00'
p2963
tp2964
bsba(i__main__
FrameData
p2965
(dp2966
g6
g169
sg8
g9
(g13
S'\xfc\xeeci3\xd5\x1a@'
p2967
tp2968
Rp2969
sg19
I0
sg20
g21
(S'\x07\xdd\t\x1d\x13\x13\x03\x0boX'
p2970
tp2971
Rp2972
sg25
I0
sg26
g27
(g28
(I0
tp2973
g30
tp2974
Rp2975
(I1
(I2
tp2976
g36
I00
S'A\x00\x00\x00I\x00\x00\x00'
p2977
tp2978
bsba(i__main__
FrameData
p2979
(dp2980
g6
g169
sg8
g9
(g13
S'\xa2\xa3\xb3\r\xe5R\x17@'
p2981
tp2982
Rp2983
sg19
I0
sg20
g21
(S'\x07\xdd\t\x1d\x13\x13\x03\x0b\xb1n'
p2984
tp2985
Rp2986
sg25
I0
sg26
g27
(g28
(I0
tp2987
g30
tp2988
Rp2989
(I1
(I2
tp2990
g36
I00
S'@\x00\x00\x00I\x00\x00\x00'
p2991
tp2992
bsba(i__main__
FrameData
p2993
(dp2994
g6
g169
sg8
g9
(g13
S'\xcd;\x7ff\x9e\xa0\x16@'
p2995
tp2996
Rp2997
sg19
I0
sg20
g21
(S'\x07\xdd\t\x1d\x13\x13\x03\x0b\xf3\x9b'
p2998
tp2999
Rp3000
sg25
I0
sg26
g27
(g28
(I0
tp3001
g30
tp3002
Rp3003
(I1
(I2
tp3004
g36
I00
S'?\x00\x00\x00H\x00\x00\x00'
p3005
tp3006
bsba(i__main__
FrameData
p3007
(dp3008
g6
g169
sg8
g9
(g13
S'\x00\x00\x00\x00\x00\x00\x14@'
p3009
tp3010
Rp3011
sg19
I0
sg20
g21
(S'\x07\xdd\t\x1d\x13\x13\x03\x0c7\x19'
p3012
tp3013
Rp3014
sg25
I0
sg26
g27
(g28
(I0
tp3015
g30
tp3016
Rp3017
(I1
(I2
tp3018
g36
I00
S'>\x00\x00\x00H\x00\x00\x00'
p3019
tp3020
bsba(i__main__
FrameData
p3021
(dp3022
g6
g169
sg8
g9
(g13
S'\xf3\xd9\xa8\xa4h\x8a\x15@'
p3023
tp3024
Rp3025
sg19
I0
sg20
g21
(S'\x07\xdd\t\x1d\x13\x13\x03\x0cx\x0e'
p3026
tp3027
Rp3028
sg25
I0
sg26
g27
(g28
(I0
tp3029
g30
tp3030
Rp3031
(I1
(I2
tp3032
g36
I00
S'=\x00\x00\x00G\x00\x00\x00'
p3033
tp3034
bsba(i__main__
FrameData
p3035
(dp3036
g6
g169
sg8
g9
(g13
S'\xf6/\x12_ee\x14@'
p3037
tp3038
Rp3039
sg19
I0
sg20
g21
(S'\x07\xdd\t\x1d\x13\x13\x03\x0c\xfd\xce'
p3040
tp3041
Rp3042
sg25
I0
sg26
g27
(g28
(I0
tp3043
g30
tp3044
Rp3045
(I1
(I2
tp3046
g36
I00
S'<\x00\x00\x00G\x00\x00\x00'
p3047
tp3048
bsba(i__main__
FrameData
p3049
(dp3050
g6
g169
sg8
g9
(g13
S'\x00\x00\x00\x00\x00\x00\x14@'
p3051
tp3052
Rp3053
sg19
I0
sg20
g21
(S'\x07\xdd\t\x1d\x13\x13\x03\r8\xc8'
p3054
tp3055
Rp3056
sg25
I0
sg26
g27
(g28
(I0
tp3057
g30
tp3058
Rp3059
(I1
(I2
tp3060
g36
I00
S';\x00\x00\x00G\x00\x00\x00'
p3061
tp3062
bsba(i__main__
FrameData
p3063
(dp3064
g6
g169
sg8
g9
(g13
S'\xc0\n\x1f\x00\xc6H\x1c@'
p3065
tp3066
Rp3067
sg19
I0
sg20
g21
(S'\x07\xdd\t\x1d\x13\x13\x03\r\xc4\x93'
p3068
tp3069
Rp3070
sg25
I0
sg26
g27
(g28
(I0
tp3071
g30
tp3072
Rp3073
(I1
(I2
tp3074
g36
I00
S':\x00\x00\x00E\x00\x00\x00'
p3075
tp3076
bsbasS'_fileName'
p3077
S'training/trajectory2013-09-29_19:18:52.374967'
p3078
sS'word'
p3079
S'rake'
p3080
sb.