(i__main__
SwypeTrajectory
p0
(dp1
S'_frameDataList'
p2
(lp3
(i__main__
FrameData
p4
(dp5
S'closestLetter'
p6
S'z'
p7
sS'letterDistance'
p8
cnumpy.core.multiarray
scalar
p9
(cnumpy
dtype
p10
(S'f8'
p11
I0
I1
tp12
Rp13
(I3
S'<'
p14
NNNI-1
I-1
I0
tp15
bS'\xcd;\x7ff\x9e\xa0\xf6?'
p16
tp17
Rp18
sS'accel'
p19
I0
sS'time'
p20
cdatetime
datetime
p21
(S'\x07\xdd\t\x1d\x13\x0e,\t\xa9\x82'
p22
tp23
Rp24
sS'velocity'
p25
I0
sS'position'
p26
cnumpy.core.multiarray
_reconstruct
p27
(cnumpy
ndarray
p28
(I0
tp29
S'b'
p30
tp31
Rp32
(I1
(I2
tp33
g10
(S'i4'
p34
I0
I1
tp35
Rp36
(I3
S'<'
p37
NNNI-1
I-1
I0
tp38
bI00
S'(\x00\x00\x00\x9c\x00\x00\x00'
p39
tp40
bsba(i__main__
FrameData
p41
(dp42
g6
g7
sg8
g9
(g13
S'\xa8\xf4\x97\x9bw\xe3\x01@'
p43
tp44
Rp45
sg19
I0
sg20
g21
(S'\x07\xdd\t\x1d\x13\x0e,\t\xe9\x91'
p46
tp47
Rp48
sg25
I0
sg26
g27
(g28
(I0
tp49
g30
tp50
Rp51
(I1
(I2
tp52
g36
I00
S'(\x00\x00\x00\x99\x00\x00\x00'
p53
tp54
bsba(i__main__
FrameData
p55
(dp56
g6
g7
sg8
g9
(g13
S'\xd0\xbaa?\xe0\x1f @'
p57
tp58
Rp59
sg19
I0
sg20
g21
(S'\x07\xdd\t\x1d\x13\x0e,\n+\x8a'
p60
tp61
Rp62
sg25
I0
sg26
g27
(g28
(I0
tp63
g30
tp64
Rp65
(I1
(I2
tp66
g36
I00
S'(\x00\x00\x00\x93\x00\x00\x00'
p67
tp68
bsba(i__main__
FrameData
p69
(dp70
g6
g7
sg8
g9
(g13
S'$\xf8\xd9p[\x1c2@'
p71
tp72
Rp73
sg19
I0
sg20
g21
(S'\x07\xdd\t\x1d\x13\x0e,\np3'
p74
tp75
Rp76
sg25
I0
sg26
g27
(g28
(I0
tp77
g30
tp78
Rp79
(I1
(I2
tp80
g36
I00
S'+\x00\x00\x00\x89\x00\x00\x00'
p81
tp82
bsba(i__main__
FrameData
p83
(dp84
g6
S's'
p85
sg8
g9
(g13
S'\xb3\xa73\xa0`\x0c/@'
p86
tp87
Rp88
sg19
I0
sg20
g21
(S'\x07\xdd\t\x1d\x13\x0e,\n\xaeG'
p89
tp90
Rp91
sg25
I0
sg26
g27
(g28
(I0
tp92
g30
tp93
Rp94
(I1
(I2
tp95
g36
I00
S'-\x00\x00\x00\x80\x00\x00\x00'
p96
tp97
bsba(i__main__
FrameData
p98
(dp99
g6
g85
sg8
g9
(g13
S'9\xdcc\xb3\xbfT\x18@'
p100
tp101
Rp102
sg19
I0
sg20
g21
(S'\x07\xdd\t\x1d\x13\x0e,\n\xf1\n'
p103
tp104
Rp105
sg25
I0
sg26
g27
(g28
(I0
tp106
g30
tp107
Rp108
(I1
(I2
tp109
g36
I00
S'2\x00\x00\x00w\x00\x00\x00'
p110
tp111
bsba(i__main__
FrameData
p112
(dp113
g6
g85
sg8
g9
(g13
S'\xa8\xf4\x97\x9bw\xe3\x11@'
p114
tp115
Rp116
sg19
I0
sg20
g21
(S'\x07\xdd\t\x1d\x13\x0e,\x0b4\xb2'
p117
tp118
Rp119
sg25
I0
sg26
g27
(g28
(I0
tp120
g30
tp121
Rp122
(I1
(I2
tp123
g36
I00
S'5\x00\x00\x00o\x00\x00\x00'
p124
tp125
bsba(i__main__
FrameData
p126
(dp127
g6
g85
sg8
g9
(g13
S'ST\xaf\x99\x8a\xcc#@'
p128
tp129
Rp130
sg19
I0
sg20
g21
(S'\x07\xdd\t\x1d\x13\x0e,\x0bra'
p131
tp132
Rp133
sg25
I0
sg26
g27
(g28
(I0
tp134
g30
tp135
Rp136
(I1
(I2
tp137
g36
I00
S'8\x00\x00\x00j\x00\x00\x00'
p138
tp139
bsba(i__main__
FrameData
p140
(dp141
g6
g85
sg8
g9
(g13
S'\x00\xff\x9f\x99\xcc\x9c)@'
p142
tp143
Rp144
sg19
I0
sg20
g21
(S'\x07\xdd\t\x1d\x13\x0e,\x0b\xb3#'
p145
tp146
Rp147
sg25
I0
sg26
g27
(g28
(I0
tp148
g30
tp149
Rp150
(I1
(I2
tp151
g36
I00
S'9\x00\x00\x00g\x00\x00\x00'
p152
tp153
bsba(i__main__
FrameData
p154
(dp155
g6
g85
sg8
g9
(g13
S'\xef\rI\xf1\xf33+@'
p156
tp157
Rp158
sg19
I0
sg20
g21
(S'\x07\xdd\t\x1d\x13\x0e,\x0b\xf94'
p159
tp160
Rp161
sg25
I0
sg26
g27
(g28
(I0
tp162
g30
tp163
Rp164
(I1
(I2
tp165
g36
I00
S'9\x00\x00\x00f\x00\x00\x00'
p166
tp167
bsba(i__main__
FrameData
p168
(dp169
g6
g85
sg8
g9
(g13
S'?*\x98"\xe3l,@'
p170
tp171
Rp172
sg19
I0
sg20
g21
(S'\x07\xdd\t\x1d\x13\x0e,\x0c7\x17'
p173
tp174
Rp175
sg25
I0
sg26
g27
(g28
(I0
tp176
g30
tp177
Rp178
(I1
(I2
tp179
g36
I00
S':\x00\x00\x00f\x00\x00\x00'
p180
tp181
bsba(i__main__
FrameData
p182
(dp183
g6
g85
sg8
g9
(g13
S"'\xf2\x90In\x9f/@"
p184
tp185
Rp186
sg19
I0
sg20
g21
(S'\x07\xdd\t\x1d\x13\x0e,\x0cx\x83'
p187
tp188
Rp189
sg25
I0
sg26
g27
(g28
(I0
tp190
g30
tp191
Rp192
(I1
(I2
tp193
g36
I00
S':\x00\x00\x00d\x00\x00\x00'
p194
tp195
bsba(i__main__
FrameData
p196
(dp197
g6
g85
sg8
g9
(g13
S'\xb9\x93\xe1k\xb0\xa40@'
p198
tp199
Rp200
sg19
I0
sg20
g21
(S'\x07\xdd\t\x1d\x13\x0e,\x0c\xb94'
p201
tp202
Rp203
sg25
I0
sg26
g27
(g28
(I0
tp204
g30
tp205
Rp206
(I1
(I2
tp207
g36
I00
S':\x00\x00\x00c\x00\x00\x00'
p208
tp209
bsba(i__main__
FrameData
p210
(dp211
g6
g85
sg8
g9
(g13
S'8\xd8\xbc\n\x1b\x072@'
p212
tp213
Rp214
sg19
I0
sg20
g21
(S'\x07\xdd\t\x1d\x13\x0e,\x0c\xfbS'
p215
tp216
Rp217
sg25
I0
sg26
g27
(g28
(I0
tp218
g30
tp219
Rp220
(I1
(I2
tp221
g36
I00
S';\x00\x00\x00b\x00\x00\x00'
p222
tp223
bsba(i__main__
FrameData
p224
(dp225
g6
g85
sg8
g9
(g13
S'A\x87b\xc62\xde2@'
p226
tp227
Rp228
sg19
I0
sg20
g21
(S'\x07\xdd\t\x1d\x13\x0e,\r?\xb7'
p229
tp230
Rp231
sg25
I0
sg26
g27
(g28
(I0
tp232
g30
tp233
Rp234
(I1
(I2
tp235
g36
I00
S';\x00\x00\x00a\x00\x00\x00'
p236
tp237
bsba(i__main__
FrameData
p238
(dp239
g6
g85
sg8
g9
(g13
S':\xf0c\xf6\x1b\xb93@'
p240
tp241
Rp242
sg19
I0
sg20
g21
(S'\x07\xdd\t\x1d\x13\x0e,\r}\xa3'
p243
tp244
Rp245
sg25
I0
sg26
g27
(g28
(I0
tp246
g30
tp247
Rp248
(I1
(I2
tp249
g36
I00
S';\x00\x00\x00`\x00\x00\x00'
p250
tp251
bsba(i__main__
FrameData
p252
(dp253
g6
S'e'
p254
sg8
g9
(g13
S'\x00\x00\x00\x00\x00\x001@'
p255
tp256
Rp257
sg19
I0
sg20
g21
(S'\x07\xdd\t\x1d\x13\x0e,\r\xbf\xd3'
p258
tp259
Rp260
sg25
I0
sg26
g27
(g28
(I0
tp261
g30
tp262
Rp263
(I1
(I2
tp264
g36
I00
S';\x00\x00\x00]\x00\x00\x00'
p265
tp266
bsba(i__main__
FrameData
p267
(dp268
g6
g254
sg8
g9
(g13
S'\x00\x00\x00\x00\x00\x000@'
p269
tp270
Rp271
sg19
I0
sg20
g21
(S'\x07\xdd\t\x1d\x13\x0e,\x0e\x02`'
p272
tp273
Rp274
sg25
I0
sg26
g27
(g28
(I0
tp275
g30
tp276
Rp277
(I1
(I2
tp278
g36
I00
S';\x00\x00\x00\\\x00\x00\x00'
p279
tp280
bsba(i__main__
FrameData
p281
(dp282
g6
g254
sg8
g9
(g13
S'&5w\xe2K\x15(@'
p283
tp284
Rp285
sg19
I0
sg20
g21
(S'\x07\xdd\t\x1d\x13\x0e,\x0e@\xd5'
p286
tp287
Rp288
sg25
I0
sg26
g27
(g28
(I0
tp289
g30
tp290
Rp291
(I1
(I2
tp292
g36
I00
S'<\x00\x00\x00X\x00\x00\x00'
p293
tp294
bsba(i__main__
FrameData
p295
(dp296
g6
g254
sg8
g9
(g13
S'\xf6/\x12_ee$@'
p297
tp298
Rp299
sg19
I0
sg20
g21
(S'\x07\xdd\t\x1d\x13\x0e,\x0e\x847'
p300
tp301
Rp302
sg25
I0
sg26
g27
(g28
(I0
tp303
g30
tp304
Rp305
(I1
(I2
tp306
g36
I00
S'=\x00\x00\x00V\x00\x00\x00'
p307
tp308
bsba(i__main__
FrameData
p309
(dp310
g6
g254
sg8
g9
(g13
S'\x9a.\x90!hp"@'
p311
tp312
Rp313
sg19
I0
sg20
g21
(S'\x07\xdd\t\x1d\x13\x0e,\x0e\xc1\xfa'
p314
tp315
Rp316
sg25
I0
sg26
g27
(g28
(I0
tp317
g30
tp318
Rp319
(I1
(I2
tp320
g36
I00
S'=\x00\x00\x00U\x00\x00\x00'
p321
tp322
bsba(i__main__
FrameData
p323
(dp324
g6
g254
sg8
g9
(g13
S'\xe9\xfbv \xd5\x1e\x1d@'
p325
tp326
Rp327
sg19
I0
sg20
g21
(S'\x07\xdd\t\x1d\x13\x0e-\x00\x02\xc9'
p328
tp329
Rp330
sg25
I0
sg26
g27
(g28
(I0
tp331
g30
tp332
Rp333
(I1
(I2
tp334
g36
I00
S'=\x00\x00\x00S\x00\x00\x00'
p335
tp336
bsba(i__main__
FrameData
p337
(dp338
g6
g254
sg8
g9
(g13
S'p\xc4\x9d9\x8dv\x1e@'
p339
tp340
Rp341
sg19
I0
sg20
g21
(S'\x07\xdd\t\x1d\x13\x0e-\x00F\xcc'
p342
tp343
Rp344
sg25
I0
sg26
g27
(g28
(I0
tp345
g30
tp346
Rp347
(I1
(I2
tp348
g36
I00
S'>\x00\x00\x00S\x00\x00\x00'
p349
tp350
bsba(i__main__
FrameData
p351
(dp352
g6
g254
sg8
g9
(g13
S'\xfc\xeeci3\xd5\x1a@'
p353
tp354
Rp355
sg19
I0
sg20
g21
(S'\x07\xdd\t\x1d\x13\x0e-\x00\x87z'
p356
tp357
Rp358
sg25
I0
sg26
g27
(g28
(I0
tp359
g30
tp360
Rp361
(I1
(I2
tp362
g36
I00
S'>\x00\x00\x00R\x00\x00\x00'
p363
tp364
bsba(i__main__
FrameData
p365
(dp366
g6
g254
sg8
g9
(g13
S'\x00\x00\x00\x00\x00\x00\x14@'
p367
tp368
Rp369
sg19
I0
sg20
g21
(S'\x07\xdd\t\x1d\x13\x0e-\x00\xca\xd4'
p370
tp371
Rp372
sg25
I0
sg26
g27
(g28
(I0
tp373
g30
tp374
Rp375
(I1
(I2
tp376
g36
I00
S'>\x00\x00\x00P\x00\x00\x00'
p377
tp378
bsba(i__main__
FrameData
p379
(dp380
g6
g254
sg8
g9
(g13
S'\xf3YaD+\xd8\x0c@'
p381
tp382
Rp383
sg19
I0
sg20
g21
(S'\x07\xdd\t\x1d\x13\x0e-\x01\x08\xb1'
p384
tp385
Rp386
sg25
I0
sg26
g27
(g28
(I0
tp387
g30
tp388
Rp389
(I1
(I2
tp390
g36
I00
S'>\x00\x00\x00N\x00\x00\x00'
p391
tp392
bsba(i__main__
FrameData
p393
(dp394
g6
g254
sg8
g9
(g13
S'S[\xda:XL\t@'
p395
tp396
Rp397
sg19
I0
sg20
g21
(S'\x07\xdd\t\x1d\x13\x0e-\x01\x89\xaa'
p398
tp399
Rp400
sg25
I0
sg26
g27
(g28
(I0
tp401
g30
tp402
Rp403
(I1
(I2
tp404
g36
I00
S'>\x00\x00\x00M\x00\x00\x00'
p405
tp406
bsba(i__main__
FrameData
p407
(dp408
g6
g254
sg8
g9
(g13
S'\x00\x00\x00\x00\x00\x00\x08@'
p409
tp410
Rp411
sg19
I0
sg20
g21
(S'\x07\xdd\t\x1d\x13\x0e-\x01\xcd\x17'
p412
tp413
Rp414
sg25
I0
sg26
g27
(g28
(I0
tp415
g30
tp416
Rp417
(I1
(I2
tp418
g36
I00
S'>\x00\x00\x00L\x00\x00\x00'
p419
tp420
bsba(i__main__
FrameData
p421
(dp422
g6
g254
sg8
g9
(g13
S'S[\xda:XL\t@'
p423
tp424
Rp425
sg19
I0
sg20
g21
(S'\x07\xdd\t\x1d\x13\x0e-\x02N\x17'
p426
tp427
Rp428
sg25
I0
sg26
g27
(g28
(I0
tp429
g30
tp430
Rp431
(I1
(I2
tp432
g36
I00
S'>\x00\x00\x00K\x00\x00\x00'
p433
tp434
bsba(i__main__
FrameData
p435
(dp436
g6
g254
sg8
g9
(g13
S'\xa8\xf4\x97\x9bw\xe3\x11@'
p437
tp438
Rp439
sg19
I0
sg20
g21
(S'\x07\xdd\t\x1d\x13\x0e-\x02\x91\xc4'
p440
tp441
Rp442
sg25
I0
sg26
g27
(g28
(I0
tp443
g30
tp444
Rp445
(I1
(I2
tp446
g36
I00
S'?\x00\x00\x00J\x00\x00\x00'
p447
tp448
bsba(i__main__
FrameData
p449
(dp450
g6
g254
sg8
g9
(g13
S'\x00\x00\x00\x00\x00\x00\x14@'
p451
tp452
Rp453
sg19
I0
sg20
g21
(S'\x07\xdd\t\x1d\x13\x0e-\x02\xd1\x85'
p454
tp455
Rp456
sg25
I0
sg26
g27
(g28
(I0
tp457
g30
tp458
Rp459
(I1
(I2
tp460
g36
I00
S'?\x00\x00\x00I\x00\x00\x00'
p461
tp462
bsba(i__main__
FrameData
p463
(dp464
g6
g254
sg8
g9
(g13
S'\xa2\xa3\xb3\r\xe5R\x17@'
p465
tp466
Rp467
sg19
I0
sg20
g21
(S'\x07\xdd\t\x1d\x13\x0e-\x03T\xf6'
p468
tp469
Rp470
sg25
I0
sg26
g27
(g28
(I0
tp471
g30
tp472
Rp473
(I1
(I2
tp474
g36
I00
S'@\x00\x00\x00I\x00\x00\x00'
p475
tp476
bsba(i__main__
FrameData
p477
(dp478
g6
g254
sg8
g9
(g13
S'\xfc\xeeci3\xd5\x1a@'
p479
tp480
Rp481
sg19
I0
sg20
g21
(S'\x07\xdd\t\x1d\x13\x0e-\x07\xea\xcb'
p482
tp483
Rp484
sg25
I0
sg26
g27
(g28
(I0
tp485
g30
tp486
Rp487
(I1
(I2
tp488
g36
I00
S'A\x00\x00\x00I\x00\x00\x00'
p489
tp490
bsba(i__main__
FrameData
p491
(dp492
g6
g254
sg8
g9
(g13
S'\xc0\n\x1f\x00\xc6H\x1c@'
p493
tp494
Rp495
sg19
I0
sg20
g21
(S'\x07\xdd\t\x1d\x13\x0e-\x08.\x04'
p496
tp497
Rp498
sg25
I0
sg26
g27
(g28
(I0
tp499
g30
tp500
Rp501
(I1
(I2
tp502
g36
I00
S'B\x00\x00\x00K\x00\x00\x00'
p503
tp504
bsba(i__main__
FrameData
p505
(dp506
g6
S'r'
p507
sg8
g9
(g13
S'\xeb\x12\xb2\xbb\xb2\xcd&@'
p508
tp509
Rp510
sg19
I0
sg20
g21
(S'\x07\xdd\t\x1d\x13\x0e-\x08k\xcb'
p511
tp512
Rp513
sg25
I0
sg26
g27
(g28
(I0
tp514
g30
tp515
Rp516
(I1
(I2
tp517
g36
I00
S'G\x00\x00\x00N\x00\x00\x00'
p518
tp519
bsba(i__main__
FrameData
p520
(dp521
g6
g507
sg8
g9
(g13
S'\xd9l\xdf\xccv\xf8 @'
p522
tp523
Rp524
sg19
I0
sg20
g21
(S'\x07\xdd\t\x1d\x13\x0e-\x08\xaf\x03'
p525
tp526
Rp527
sg25
I0
sg26
g27
(g28
(I0
tp528
g30
tp529
Rp530
(I1
(I2
tp531
g36
I00
S'L\x00\x00\x00Q\x00\x00\x00'
p532
tp533
bsba(i__main__
FrameData
p534
(dp535
g6
g507
sg8
g9
(g13
S'$\xf8\xd9p[\x1c"@'
p536
tp537
Rp538
sg19
I0
sg20
g21
(S'\x07\xdd\t\x1d\x13\x0e-\x08\xeeX'
p539
tp540
Rp541
sg25
I0
sg26
g27
(g28
(I0
tp542
g30
tp543
Rp544
(I1
(I2
tp545
g36
I00
S'Q\x00\x00\x00T\x00\x00\x00'
p546
tp547
bsba(i__main__
FrameData
p548
(dp549
g6
g507
sg8
g9
(g13
S'\x8a\xe3\x07\x1a\x17\xbd(@'
p550
tp551
Rp552
sg19
I0
sg20
g21
(S'\x07\xdd\t\x1d\x13\x0e-\t0\x94'
p553
tp554
Rp555
sg25
I0
sg26
g27
(g28
(I0
tp556
g30
tp557
Rp558
(I1
(I2
tp559
g36
I00
S'U\x00\x00\x00W\x00\x00\x00'
p560
tp561
bsba(i__main__
FrameData
p562
(dp563
g6
g507
sg8
g9
(g13
S'\xef\rI\xf1\xf33+@'
p564
tp565
Rp566
sg19
I0
sg20
g21
(S'\x07\xdd\t\x1d\x13\x0e-\tpX'
p567
tp568
Rp569
sg25
I0
sg26
g27
(g28
(I0
tp570
g30
tp571
Rp572
(I1
(I2
tp573
g36
I00
S'V\x00\x00\x00X\x00\x00\x00'
p574
tp575
bsba(i__main__
FrameData
p576
(dp577
g6
g507
sg8
g9
(g13
S'/\xa4\xe3\\m\xbb-@'
p578
tp579
Rp580
sg19
I0
sg20
g21
(S'\x07\xdd\t\x1d\x13\x0e-\t\xb2\x85'
p581
tp582
Rp583
sg25
I0
sg26
g27
(g28
(I0
tp584
g30
tp585
Rp586
(I1
(I2
tp587
g36
I00
S'W\x00\x00\x00Y\x00\x00\x00'
p588
tp589
bsba(i__main__
FrameData
p590
(dp591
g6
g507
sg8
g9
(g13
S'&\xecIP\x11N/@'
p592
tp593
Rp594
sg19
I0
sg20
g21
(S'\x07\xdd\t\x1d\x13\x0e-\t\xf4\xce'
p595
tp596
Rp597
sg25
I0
sg26
g27
(g28
(I0
tp598
g30
tp599
Rp600
(I1
(I2
tp601
g36
I00
S'Y\x00\x00\x00Y\x00\x00\x00'
p602
tp603
bsba(i__main__
FrameData
p604
(dp605
g6
g507
sg8
g9
(g13
S'\x00\x00\x00\x00\x00\x001@'
p606
tp607
Rp608
sg19
I0
sg20
g21
(S'\x07\xdd\t\x1d\x13\x0e-\n8!'
p609
tp610
Rp611
sg25
I0
sg26
g27
(g28
(I0
tp612
g30
tp613
Rp614
(I1
(I2
tp615
g36
I00
S'Z\x00\x00\x00Z\x00\x00\x00'
p616
tp617
bsba(i__main__
FrameData
p618
(dp619
g6
g507
sg8
g9
(g13
S':\xf0c\xf6\x1b\xb93@'
p620
tp621
Rp622
sg19
I0
sg20
g21
(S'\x07\xdd\t\x1d\x13\x0e-\nv\x13'
p623
tp624
Rp625
sg25
I0
sg26
g27
(g28
(I0
tp626
g30
tp627
Rp628
(I1
(I2
tp629
g36
I00
S'\\\x00\x00\x00\\\x00\x00\x00'
p630
tp631
bsba(i__main__
FrameData
p632
(dp633
g6
g507
sg8
g9
(g13
S'u\xa6<oS\x185@'
p634
tp635
Rp636
sg19
I0
sg20
g21
(S'\x07\xdd\t\x1d\x13\x0e-\n\xfcj'
p637
tp638
Rp639
sg25
I0
sg26
g27
(g28
(I0
tp640
g30
tp641
Rp642
(I1
(I2
tp643
g36
I00
S']\x00\x00\x00]\x00\x00\x00'
p644
tp645
bsba(i__main__
FrameData
p646
(dp647
g6
S'f'
p648
sg8
g9
(g13
S'u\xa6<oS\x185@'
p649
tp650
Rp651
sg19
I0
sg20
g21
(S'\x07\xdd\t\x1d\x13\x0e-\x0b}\xac'
p652
tp653
Rp654
sg25
I0
sg26
g27
(g28
(I0
tp655
g30
tp656
Rp657
(I1
(I2
tp658
g36
I00
S'^\x00\x00\x00]\x00\x00\x00'
p659
tp660
bsba(i__main__
FrameData
p661
(dp662
g6
g648
sg8
g9
(g13
S'\xc3\xe7Zp\xbb\x063@'
p663
tp664
Rp665
sg19
I0
sg20
g21
(S'\x07\xdd\t\x1d\x13\x0e-\x0b\xbbn'
p666
tp667
Rp668
sg25
I0
sg26
g27
(g28
(I0
tp669
g30
tp670
Rp671
(I1
(I2
tp672
g36
I00
S'_\x00\x00\x00_\x00\x00\x00'
p673
tp674
bsba(i__main__
FrameData
p675
(dp676
g6
g648
sg8
g9
(g13
S'\x00\x00\x00\x00\x00\x002@'
p677
tp678
Rp679
sg19
I0
sg20
g21
(S'\x07\xdd\t\x1d\x13\x0e-\x0b\xfd\xc1'
p680
tp681
Rp682
sg25
I0
sg26
g27
(g28
(I0
tp683
g30
tp684
Rp685
(I1
(I2
tp686
g36
I00
S'`\x00\x00\x00`\x00\x00\x00'
p687
tp688
bsba(i__main__
FrameData
p689
(dp690
g6
g648
sg8
g9
(g13
S'\xd0\xbaa?\xe0\x1f0@'
p691
tp692
Rp693
sg19
I0
sg20
g21
(S'\x07\xdd\t\x1d\x13\x0e-\x0cBO'
p694
tp695
Rp696
sg25
I0
sg26
g27
(g28
(I0
tp697
g30
tp698
Rp699
(I1
(I2
tp700
g36
I00
S'b\x00\x00\x00b\x00\x00\x00'
p701
tp702
bsba(i__main__
FrameData
p703
(dp704
g6
g648
sg8
g9
(g13
S'\xfc\xeeci3\xd5*@'
p705
tp706
Rp707
sg19
I0
sg20
g21
(S'\x07\xdd\t\x1d\x13\x0e-\x0c\x85j'
p708
tp709
Rp710
sg25
I0
sg26
g27
(g28
(I0
tp711
g30
tp712
Rp713
(I1
(I2
tp714
g36
I00
S'f\x00\x00\x00f\x00\x00\x00'
p715
tp716
bsba(i__main__
FrameData
p717
(dp718
g6
g648
sg8
g9
(g13
S'\xc0\n\x1f\x00\xc6H,@'
p719
tp720
Rp721
sg19
I0
sg20
g21
(S'\x07\xdd\t\x1d\x13\x0e-\x0c\xc3;'
p722
tp723
Rp724
sg25
I0
sg26
g27
(g28
(I0
tp725
g30
tp726
Rp727
(I1
(I2
tp728
g36
I00
S'j\x00\x00\x00h\x00\x00\x00'
p729
tp730
bsba(i__main__
FrameData
p731
(dp732
g6
S'g'
p733
sg8
g9
(g13
S'?*\x98"\xe3l,@'
p734
tp735
Rp736
sg19
I0
sg20
g21
(S'\x07\xdd\t\x1d\x13\x0e-\r\x06t'
p737
tp738
Rp739
sg25
I0
sg26
g27
(g28
(I0
tp740
g30
tp741
Rp742
(I1
(I2
tp743
g36
I00
S'm\x00\x00\x00i\x00\x00\x00'
p744
tp745
bsba(i__main__
FrameData
p746
(dp747
g6
g733
sg8
g9
(g13
S'&5w\xe2K\x15(@'
p748
tp749
Rp750
sg19
I0
sg20
g21
(S'\x07\xdd\t\x1d\x13\x0e-\rD3'
p751
tp752
Rp753
sg25
I0
sg26
g27
(g28
(I0
tp754
g30
tp755
Rp756
(I1
(I2
tp757
g36
I00
S'o\x00\x00\x00j\x00\x00\x00'
p758
tp759
bsba(i__main__
FrameData
p760
(dp761
g6
g733
sg8
g9
(g13
S'ST\xaf\x99\x8a\xcc#@'
p762
tp763
Rp764
sg19
I0
sg20
g21
(S'\x07\xdd\t\x1d\x13\x0e-\r\x87\x83'
p765
tp766
Rp767
sg25
I0
sg26
g27
(g28
(I0
tp768
g30
tp769
Rp770
(I1
(I2
tp771
g36
I00
S'q\x00\x00\x00k\x00\x00\x00'
p772
tp773
bsba(i__main__
FrameData
p774
(dp775
g6
g733
sg8
g9
(g13
S'\xa2\xa3\xb3\r\xe5R\x17@'
p776
tp777
Rp778
sg19
I0
sg20
g21
(S'\x07\xdd\t\x1d\x13\x0e-\r\xc5U'
p779
tp780
Rp781
sg25
I0
sg26
g27
(g28
(I0
tp782
g30
tp783
Rp784
(I1
(I2
tp785
g36
I00
S'u\x00\x00\x00m\x00\x00\x00'
p786
tp787
bsba(i__main__
FrameData
p788
(dp789
g6
g733
sg8
g9
(g13
S'\x00\x00\x00\x00\x00\x00\x08@'
p790
tp791
Rp792
sg19
I0
sg20
g21
(S'\x07\xdd\t\x1d\x13\x0e-\x0e\x08\xa7'
p793
tp794
Rp795
sg25
I0
sg26
g27
(g28
(I0
tp796
g30
tp797
Rp798
(I1
(I2
tp799
g36
I00
S'x\x00\x00\x00o\x00\x00\x00'
p800
tp801
bsba(i__main__
FrameData
p802
(dp803
g6
g733
sg8
g9
(g13
S'\x07\xed\xaff\x0f~\x10@'
p804
tp805
Rp806
sg19
I0
sg20
g21
(S'\x07\xdd\t\x1d\x13\x0e-\x0eG\xd7'
p807
tp808
Rp809
sg25
I0
sg26
g27
(g28
(I0
tp810
g30
tp811
Rp812
(I1
(I2
tp813
g36
I00
S'|\x00\x00\x00q\x00\x00\x00'
p814
tp815
bsba(i__main__
FrameData
p816
(dp817
g6
g733
sg8
g9
(g13
S'9\xdcc\xb3\xbfT\x18@'
p818
tp819
Rp820
sg19
I0
sg20
g21
(S'\x07\xdd\t\x1d\x13\x0e-\x0e\x89\xb7'
p821
tp822
Rp823
sg25
I0
sg26
g27
(g28
(I0
tp824
g30
tp825
Rp826
(I1
(I2
tp827
g36
I00
S'~\x00\x00\x00s\x00\x00\x00'
p828
tp829
bsba(i__main__
FrameData
p830
(dp831
g6
g733
sg8
g9
(g13
S'\x07\xed\xaff\x0f~ @'
p832
tp833
Rp834
sg19
I0
sg20
g21
(S'\x07\xdd\t\x1d\x13\x0e-\x0e\xcf\x1a'
p835
tp836
Rp837
sg25
I0
sg26
g27
(g28
(I0
tp838
g30
tp839
Rp840
(I1
(I2
tp841
g36
I00
S'\x80\x00\x00\x00t\x00\x00\x00'
p842
tp843
bsba(i__main__
FrameData
p844
(dp845
g6
g733
sg8
g9
(g13
S'\xf3\xd9\xa8\xa4h\x8a%@'
p846
tp847
Rp848
sg19
I0
sg20
g21
(S'\x07\xdd\t\x1d\x13\x0e-\x0f\n\xde'
p849
tp850
Rp851
sg25
I0
sg26
g27
(g28
(I0
tp852
g30
tp853
Rp854
(I1
(I2
tp855
g36
I00
S'\x82\x00\x00\x00v\x00\x00\x00'
p856
tp857
bsba(i__main__
FrameData
p858
(dp859
g6
g733
sg8
g9
(g13
S'\x00\x00\x00\x00\x00\x00*@'
p860
tp861
Rp862
sg19
I0
sg20
g21
(S'\x07\xdd\t\x1d\x13\x0e.\x00\x0b\xe9'
p863
tp864
Rp865
sg25
I0
sg26
g27
(g28
(I0
tp866
g30
tp867
Rp868
(I1
(I2
tp869
g36
I00
S'\x84\x00\x00\x00w\x00\x00\x00'
p870
tp871
bsba(i__main__
FrameData
p872
(dp873
g6
S'h'
p874
sg8
g9
(g13
S'\xe4\x10\xe4sW\x0f)@'
p875
tp876
Rp877
sg19
I0
sg20
g21
(S'\x07\xdd\t\x1d\x13\x0e.\x00P\x91'
p878
tp879
Rp880
sg25
I0
sg26
g27
(g28
(I0
tp881
g30
tp882
Rp883
(I1
(I2
tp884
g36
I00
S'\x85\x00\x00\x00x\x00\x00\x00'
p885
tp886
bsba(i__main__
FrameData
p887
(dp888
g6
g874
sg8
g9
(g13
S'F\xc3\\\xa8\xc1i(@'
p889
tp890
Rp891
sg19
I0
sg20
g21
(S'\x07\xdd\t\x1d\x13\x0e.\x00\x8c\xed'
p892
tp893
Rp894
sg25
I0
sg26
g27
(g28
(I0
tp895
g30
tp896
Rp897
(I1
(I2
tp898
g36
I00
S'\x86\x00\x00\x00y\x00\x00\x00'
p899
tp900
bsba(i__main__
FrameData
p901
(dp902
g6
g874
sg8
g9
(g13
S'\x00\xff\x9f\x99\xcc\x9c)@'
p903
tp904
Rp905
sg19
I0
sg20
g21
(S'\x07\xdd\t\x1d\x13\x0e.\x00\xcd\xec'
p906
tp907
Rp908
sg25
I0
sg26
g27
(g28
(I0
tp909
g30
tp910
Rp911
(I1
(I2
tp912
g36
I00
S'\x86\x00\x00\x00z\x00\x00\x00'
p913
tp914
bsba(i__main__
FrameData
p915
(dp916
g6
g874
sg8
g9
(g13
S'\xcd;\x7ff\x9e\xa0&@'
p917
tp918
Rp919
sg19
I0
sg20
g21
(S'\x07\xdd\t\x1d\x13\x0e.\x01\x13\x9e'
p920
tp921
Rp922
sg25
I0
sg26
g27
(g28
(I0
tp923
g30
tp924
Rp925
(I1
(I2
tp926
g36
I00
S'\x88\x00\x00\x00z\x00\x00\x00'
p927
tp928
bsba(i__main__
FrameData
p929
(dp930
g6
g874
sg8
g9
(g13
S'&5w\xe2K\x15(@'
p931
tp932
Rp933
sg19
I0
sg20
g21
(S'\x07\xdd\t\x1d\x13\x0e.\x01R\\'
p934
tp935
Rp936
sg25
I0
sg26
g27
(g28
(I0
tp937
g30
tp938
Rp939
(I1
(I2
tp940
g36
I00
S'\x88\x00\x00\x00{\x00\x00\x00'
p941
tp942
bsba(i__main__
FrameData
p943
(dp944
g6
g874
sg8
g9
(g13
S'w\x03Is \xa2%@'
p945
tp946
Rp947
sg19
I0
sg20
g21
(S'\x07\xdd\t\x1d\x13\x0e.\x01\x93z'
p948
tp949
Rp950
sg25
I0
sg26
g27
(g28
(I0
tp951
g30
tp952
Rp953
(I1
(I2
tp954
g36
I00
S'\x8a\x00\x00\x00{\x00\x00\x00'
p955
tp956
bsba(i__main__
FrameData
p957
(dp958
g6
g874
sg8
g9
(g13
S'\xd2\xf1}\x82U\\&@'
p959
tp960
Rp961
sg19
I0
sg20
g21
(S'\x07\xdd\t\x1d\x13\x0e.\x01\xd8-'
p962
tp963
Rp964
sg25
I0
sg26
g27
(g28
(I0
tp965
g30
tp966
Rp967
(I1
(I2
tp968
g36
I00
S'\x8b\x00\x00\x00|\x00\x00\x00'
p969
tp970
bsba(i__main__
FrameData
p971
(dp972
g6
g874
sg8
g9
(g13
S'lNy\x00\x85*(@'
p973
tp974
Rp975
sg19
I0
sg20
g21
(S'\x07\xdd\t\x1d\x13\x0e.\x02\x15\xb1'
p976
tp977
Rp978
sg25
I0
sg26
g27
(g28
(I0
tp979
g30
tp980
Rp981
(I1
(I2
tp982
g36
I00
S'\x8b\x00\x00\x00}\x00\x00\x00'
p983
tp984
bsba(i__main__
FrameData
p985
(dp986
g6
g874
sg8
g9
(g13
S"\xe0\x11<m\xceh'@"
p987
tp988
Rp989
sg19
I0
sg20
g21
(S'\x07\xdd\t\x1d\x13\x0e.\x02Y-'
p990
tp991
Rp992
sg25
I0
sg26
g27
(g28
(I0
tp993
g30
tp994
Rp995
(I1
(I2
tp996
g36
I00
S'\x8c\x00\x00\x00}\x00\x00\x00'
p997
tp998
bsba(i__main__
FrameData
p999
(dp1000
g6
g874
sg8
g9
(g13
S'\x8a\xe3\x07\x1a\x17\xbd(@'
p1001
tp1002
Rp1003
sg19
I0
sg20
g21
(S'\x07\xdd\t\x1d\x13\x0e.\x02\x96\xf6'
p1004
tp1005
Rp1006
sg25
I0
sg26
g27
(g28
(I0
tp1007
g30
tp1008
Rp1009
(I1
(I2
tp1010
g36
I00
S'\x8d\x00\x00\x00~\x00\x00\x00'
p1011
tp1012
bsba(i__main__
FrameData
p1013
(dp1014
g6
g874
sg8
g9
(g13
S'\xde4\xda\xfeNN*@'
p1015
tp1016
Rp1017
sg19
I0
sg20
g21
(S'\x07\xdd\t\x1d\x13\x0e.\x02\xd9\xa2'
p1018
tp1019
Rp1020
sg25
I0
sg26
g27
(g28
(I0
tp1021
g30
tp1022
Rp1023
(I1
(I2
tp1024
g36
I00
S'\x8e\x00\x00\x00\x7f\x00\x00\x00'
p1025
tp1026
bsba(i__main__
FrameData
p1027
(dp1028
g6
g874
sg8
g9
(g13
S'\x00\x00\x00\x00\x00\x00.@'
p1029
tp1030
Rp1031
sg19
I0
sg20
g21
(S'\x07\xdd\t\x1d\x13\x0e.\x03\x1d\x9e'
p1032
tp1033
Rp1034
sg25
I0
sg26
g27
(g28
(I0
tp1035
g30
tp1036
Rp1037
(I1
(I2
tp1038
g36
I00
S'\x90\x00\x00\x00\x81\x00\x00\x00'
p1039
tp1040
bsba(i__main__
FrameData
p1041
(dp1042
g6
g874
sg8
g9
(g13
S'p`\xff\x00\xfe\x070@'
p1043
tp1044
Rp1045
sg19
I0
sg20
g21
(S'\x07\xdd\t\x1d\x13\x0e.\x03[>'
p1046
tp1047
Rp1048
sg25
I0
sg26
g27
(g28
(I0
tp1049
g30
tp1050
Rp1051
(I1
(I2
tp1052
g36
I00
S'\x91\x00\x00\x00\x82\x00\x00\x00'
p1053
tp1054
bsba(i__main__
FrameData
p1055
(dp1056
g6
g874
sg8
g9
(g13
S'f\xee@\x9f\x03\x1e1@'
p1057
tp1058
Rp1059
sg19
I0
sg20
g21
(S'\x07\xdd\t\x1d\x13\x0e.\x03\x9e\xa5'
p1060
tp1061
Rp1062
sg25
I0
sg26
g27
(g28
(I0
tp1063
g30
tp1064
Rp1065
(I1
(I2
tp1066
g36
I00
S'\x92\x00\x00\x00\x83\x00\x00\x00'
p1067
tp1068
bsba(i__main__
FrameData
p1069
(dp1070
g6
g874
sg8
g9
(g13
S'\xfb\xefg\xc4>C1@'
p1071
tp1072
Rp1073
sg19
I0
sg20
g21
(S'\x07\xdd\t\x1d\x13\x0e.\x03\xe1\xec'
p1074
tp1075
Rp1076
sg25
I0
sg26
g27
(g28
(I0
tp1077
g30
tp1078
Rp1079
(I1
(I2
tp1080
g36
I00
S'\x93\x00\x00\x00\x83\x00\x00\x00'
p1081
tp1082
bsba(i__main__
FrameData
p1083
(dp1084
g6
g874
sg8
g9
(g13
S'+\xe5\x8a\xc6\x8f?2@'
p1085
tp1086
Rp1087
sg19
I0
sg20
g21
(S'\x07\xdd\t\x1d\x13\x0e.\x04\x1f\x9f'
p1088
tp1089
Rp1090
sg25
I0
sg26
g27
(g28
(I0
tp1091
g30
tp1092
Rp1093
(I1
(I2
tp1094
g36
I00
S'\x93\x00\x00\x00\x84\x00\x00\x00'
p1095
tp1096
bsba(i__main__
FrameData
p1097
(dp1098
g6
g874
sg8
g9
(g13
S'X(/\x84y\xae2@'
p1099
tp1100
Rp1101
sg19
I0
sg20
g21
(S'\x07\xdd\t\x1d\x13\x0e.\x04d\x1a'
p1102
tp1103
Rp1104
sg25
I0
sg26
g27
(g28
(I0
tp1105
g30
tp1106
Rp1107
(I1
(I2
tp1108
g36
I00
S'\x95\x00\x00\x00\x84\x00\x00\x00'
p1109
tp1110
bsba(i__main__
FrameData
p1111
(dp1112
g6
g874
sg8
g9
(g13
S'Mm\x9d\x8c\xc3\xec3@'
p1113
tp1114
Rp1115
sg19
I0
sg20
g21
(S'\x07\xdd\t\x1d\x13\x0e.\x04\xa0\x97'
p1116
tp1117
Rp1118
sg25
I0
sg26
g27
(g28
(I0
tp1119
g30
tp1120
Rp1121
(I1
(I2
tp1122
g36
I00
S'\x96\x00\x00\x00\x85\x00\x00\x00'
p1123
tp1124
bsba(i__main__
FrameData
p1125
(dp1126
g6
g874
sg8
g9
(g13
S'7\xf9\xcf\xdao\xe14@'
p1127
tp1128
Rp1129
sg19
I0
sg20
g21
(S'\x07\xdd\t\x1d\x13\x0e.\x05#\x8f'
p1130
tp1131
Rp1132
sg25
I0
sg26
g27
(g28
(I0
tp1133
g30
tp1134
Rp1135
(I1
(I2
tp1136
g36
I00
S'\x96\x00\x00\x00\x86\x00\x00\x00'
p1137
tp1138
bsba(i__main__
FrameData
p1139
(dp1140
g6
S'n'
p1141
sg8
g9
(g13
S'\x88\x80v\xd5\\\x974@'
p1142
tp1143
Rp1144
sg19
I0
sg20
g21
(S'\x07\xdd\t\x1d\x13\x0e.\x05e\x1f'
p1145
tp1146
Rp1147
sg25
I0
sg26
g27
(g28
(I0
tp1148
g30
tp1149
Rp1150
(I1
(I2
tp1151
g36
I00
S'\x96\x00\x00\x00\x87\x00\x00\x00'
p1152
tp1153
bsba(i__main__
FrameData
p1154
(dp1155
g6
g1141
sg8
g9
(g13
S'bVc}\x9d\xb23@'
p1156
tp1157
Rp1158
sg19
I0
sg20
g21
(S'\x07\xdd\t\x1d\x13\x0e.\x05\xa8\x8b'
p1159
tp1160
Rp1161
sg25
I0
sg26
g27
(g28
(I0
tp1162
g30
tp1163
Rp1164
(I1
(I2
tp1165
g36
I00
S'\x98\x00\x00\x00\x87\x00\x00\x00'
p1166
tp1167
bsba(i__main__
FrameData
p1168
(dp1169
g6
g1141
sg8
g9
(g13
S'\xa8\xf4\x97\x9bw\xe31@'
p1170
tp1171
Rp1172
sg19
I0
sg20
g21
(S'\x07\xdd\t\x1d\x13\x0e.\x06)\xa1'
p1173
tp1174
Rp1175
sg25
I0
sg26
g27
(g28
(I0
tp1176
g30
tp1177
Rp1178
(I1
(I2
tp1179
g36
I00
S'\x98\x00\x00\x00\x89\x00\x00\x00'
p1180
tp1181
bsba(i__main__
FrameData
p1182
(dp1183
g6
g1141
sg8
g9
(g13
S'\xaa\xd9\xb1\xd3\x8d\x8d0@'
p1184
tp1185
Rp1186
sg19
I0
sg20
g21
(S'\x07\xdd\t\x1d\x13\x0e.\x06k&'
p1187
tp1188
Rp1189
sg25
I0
sg26
g27
(g28
(I0
tp1190
g30
tp1191
Rp1192
(I1
(I2
tp1193
g36
I00
S'\x99\x00\x00\x00\x8a\x00\x00\x00'
p1194
tp1195
bsba(i__main__
FrameData
p1196
(dp1197
g6
g1141
sg8
g9
(g13
S'p\xc4\x9d9\x8dv.@'
p1198
tp1199
Rp1200
sg19
I0
sg20
g21
(S'\x07\xdd\t\x1d\x13\x0e.\x06\xac\xed'
p1201
tp1202
Rp1203
sg25
I0
sg26
g27
(g28
(I0
tp1204
g30
tp1205
Rp1206
(I1
(I2
tp1207
g36
I00
S'\x9a\x00\x00\x00\x8b\x00\x00\x00'
p1208
tp1209
bsba(i__main__
FrameData
p1210
(dp1211
g6
g1141
sg8
g9
(g13
S'\xf7\x80Aq\xb9\xa2,@'
p1212
tp1213
Rp1214
sg19
I0
sg20
g21
(S'\x07\xdd\t\x1d\x13\x0e.\x06\xed]'
p1215
tp1216
Rp1217
sg25
I0
sg26
g27
(g28
(I0
tp1218
g30
tp1219
Rp1220
(I1
(I2
tp1221
g36
I00
S'\x9a\x00\x00\x00\x8c\x00\x00\x00'
p1222
tp1223
bsba(i__main__
FrameData
p1224
(dp1225
g6
g1141
sg8
g9
(g13
S'\xfc\xeeci3\xd5*@'
p1226
tp1227
Rp1228
sg19
I0
sg20
g21
(S'\x07\xdd\t\x1d\x13\x0e.\x07.S'
p1229
tp1230
Rp1231
sg25
I0
sg26
g27
(g28
(I0
tp1232
g30
tp1233
Rp1234
(I1
(I2
tp1235
g36
I00
S'\x9a\x00\x00\x00\x8d\x00\x00\x00'
p1236
tp1237
bsba(i__main__
FrameData
p1238
(dp1239
g6
g1141
sg8
g9
(g13
S'\xe4\x10\xe4sW\x0f)@'
p1240
tp1241
Rp1242
sg19
I0
sg20
g21
(S'\x07\xdd\t\x1d\x13\x0e.\x07\xb2n'
p1243
tp1244
Rp1245
sg25
I0
sg26
g27
(g28
(I0
tp1246
g30
tp1247
Rp1248
(I1
(I2
tp1249
g36
I00
S'\x9a\x00\x00\x00\x8e\x00\x00\x00'
p1250
tp1251
bsba(i__main__
FrameData
p1252
(dp1253
g6
g1141
sg8
g9
(g13
S'\xd2\xf1}\x82U\\&@'
p1254
tp1255
Rp1256
sg19
I0
sg20
g21
(S'\x07\xdd\t\x1d\x13\x0e.\x082F'
p1257
tp1258
Rp1259
sg25
I0
sg26
g27
(g28
(I0
tp1260
g30
tp1261
Rp1262
(I1
(I2
tp1263
g36
I00
S'\x9b\x00\x00\x00\x8f\x00\x00\x00'
p1264
tp1265
bsba(i__main__
FrameData
p1266
(dp1267
g6
g1141
sg8
g9
(g13
S'bVc}\x9d\xb2#@'
p1268
tp1269
Rp1270
sg19
I0
sg20
g21
(S'\x07\xdd\t\x1d\x13\x0e.\x08\xb4\xc3'
p1271
tp1272
Rp1273
sg25
I0
sg26
g27
(g28
(I0
tp1274
g30
tp1275
Rp1276
(I1
(I2
tp1277
g36
I00
S'\x9c\x00\x00\x00\x90\x00\x00\x00'
p1278
tp1279
bsba(i__main__
FrameData
p1280
(dp1281
g6
g1141
sg8
g9
(g13
S'\xa3\x14\xae\xa8\x87\x16!@'
p1282
tp1283
Rp1284
sg19
I0
sg20
g21
(S'\x07\xdd\t\x1d\x13\x0e.\x08\xf7\xf0'
p1285
tp1286
Rp1287
sg25
I0
sg26
g27
(g28
(I0
tp1288
g30
tp1289
Rp1290
(I1
(I2
tp1291
g36
I00
S'\x9d\x00\x00\x00\x91\x00\x00\x00'
p1292
tp1293
bsba(i__main__
FrameData
p1294
(dp1295
g6
g1141
sg8
g9
(g13
S'p\xc4\x9d9\x8dv\x1e@'
p1296
tp1297
Rp1298
sg19
I0
sg20
g21
(S'\x07\xdd\t\x1d\x13\x0e.\t;b'
p1299
tp1300
Rp1301
sg25
I0
sg26
g27
(g28
(I0
tp1302
g30
tp1303
Rp1304
(I1
(I2
tp1305
g36
I00
S'\x9d\x00\x00\x00\x92\x00\x00\x00'
p1306
tp1307
bsba(i__main__
FrameData
p1308
(dp1309
g6
g1141
sg8
g9
(g13
S'S[\xda:XL\x19@'
p1310
tp1311
Rp1312
sg19
I0
sg20
g21
(S'\x07\xdd\t\x1d\x13\x0e.\tx\x17'
p1313
tp1314
Rp1315
sg25
I0
sg26
g27
(g28
(I0
tp1316
g30
tp1317
Rp1318
(I1
(I2
tp1319
g36
I00
S'\x9e\x00\x00\x00\x93\x00\x00\x00'
p1320
tp1321
bsba(i__main__
FrameData
p1322
(dp1323
g6
g1141
sg8
g9
(g13
S'9\xdcc\xb3\xbfT\x18@'
p1324
tp1325
Rp1326
sg19
I0
sg20
g21
(S'\x07\xdd\t\x1d\x13\x0e.\n\xbe~'
p1327
tp1328
Rp1329
sg25
I0
sg26
g27
(g28
(I0
tp1330
g30
tp1331
Rp1332
(I1
(I2
tp1333
g36
I00
S'\x9f\x00\x00\x00\x93\x00\x00\x00'
p1334
tp1335
bsba(i__main__
FrameData
p1336
(dp1337
g6
g1141
sg8
g9
(g13
S'\xf6/\x12_ee\x14@'
p1338
tp1339
Rp1340
sg19
I0
sg20
g21
(S'\x07\xdd\t\x1d\x13\x0e.\x0cG]'
p1341
tp1342
Rp1343
sg25
I0
sg26
g27
(g28
(I0
tp1344
g30
tp1345
Rp1346
(I1
(I2
tp1347
g36
I00
S'\x9f\x00\x00\x00\x94\x00\x00\x00'
p1348
tp1349
bsba(i__main__
FrameData
p1350
(dp1351
g6
g1141
sg8
g9
(g13
S'\x00\x00\x00\x00\x00\x00\x14@'
p1352
tp1353
Rp1354
sg19
I0
sg20
g21
(S'\x07\xdd\t\x1d\x13\x0e.\x0c\x8a\xb5'
p1355
tp1356
Rp1357
sg25
I0
sg26
g27
(g28
(I0
tp1358
g30
tp1359
Rp1360
(I1
(I2
tp1361
g36
I00
S'\xa0\x00\x00\x00\x94\x00\x00\x00'
p1362
tp1363
bsba(i__main__
FrameData
p1364
(dp1365
g6
g1141
sg8
g9
(g13
S'\xf6/\x12_ee\x14@'
p1366
tp1367
Rp1368
sg19
I0
sg20
g21
(S'\x07\xdd\t\x1d\x13\x0e.\r\nm'
p1369
tp1370
Rp1371
sg25
I0
sg26
g27
(g28
(I0
tp1372
g30
tp1373
Rp1374
(I1
(I2
tp1375
g36
I00
S'\xa1\x00\x00\x00\x94\x00\x00\x00'
p1376
tp1377
bsbasS'_fileName'
p1378
S'training/trajectory2013-09-29_19:14:40.597557'
p1379
sS'word'
p1380
S'zen'
p1381
sb.