(i__main__
SwypeTrajectory
p0
(dp1
S'_frameDataList'
p2
(lp3
(i__main__
FrameData
p4
(dp5
S'closestLetter'
p6
S'g'
p7
sS'letterDistance'
p8
cnumpy.core.multiarray
scalar
p9
(cnumpy
dtype
p10
(S'f8'
p11
I0
I1
tp12
Rp13
(I3
S'<'
p14
NNNI-1
I-1
I0
tp15
bS'\x00\x00\x00\x00\x00\x00\x08@'
p16
tp17
Rp18
sS'accel'
p19
I0
sS'time'
p20
cdatetime
datetime
p21
(S'\x07\xdd\t\x1d\x13\x12+\x0c\xdd\xd7'
p22
tp23
Rp24
sS'velocity'
p25
I0
sS'position'
p26
cnumpy.core.multiarray
_reconstruct
p27
(cnumpy
ndarray
p28
(I0
tp29
S'b'
p30
tp31
Rp32
(I1
(I2
tp33
g10
(S'i4'
p34
I0
I1
tp35
Rp36
(I3
S'<'
p37
NNNI-1
I-1
I0
tp38
bI00
S'x\x00\x00\x00o\x00\x00\x00'
p39
tp40
bsba(i__main__
FrameData
p41
(dp42
g6
g7
sg8
g9
(g13
S'\x00\x00\x00\x00\x00\x00"@'
p43
tp44
Rp45
sg19
I0
sg20
g21
(S'\x07\xdd\t\x1d\x13\x12+\r\x1d\xbf'
p46
tp47
Rp48
sg25
I0
sg26
g27
(g28
(I0
tp49
g30
tp50
Rp51
(I1
(I2
tp52
g36
I00
S'x\x00\x00\x00i\x00\x00\x00'
p53
tp54
bsba(i__main__
FrameData
p55
(dp56
g6
g7
sg8
g9
(g13
S'\x00\x00\x00\x00\x00\x00(@'
p57
tp58
Rp59
sg19
I0
sg20
g21
(S'\x07\xdd\t\x1d\x13\x12+\rV#'
p60
tp61
Rp62
sg25
I0
sg26
g27
(g28
(I0
tp63
g30
tp64
Rp65
(I1
(I2
tp66
g36
I00
S'x\x00\x00\x00f\x00\x00\x00'
p67
tp68
bsba(i__main__
FrameData
p69
(dp70
g6
g7
sg8
g9
(g13
S'\xa8y\x0c\t\xd9v1@'
p71
tp72
Rp73
sg19
I0
sg20
g21
(S'\x07\xdd\t\x1d\x13\x12+\r\x9a\x0f'
p74
tp75
Rp76
sg25
I0
sg26
g27
(g28
(I0
tp77
g30
tp78
Rp79
(I1
(I2
tp80
g36
I00
S'|\x00\x00\x00a\x00\x00\x00'
p81
tp82
bsba(i__main__
FrameData
p83
(dp84
g6
S'y'
p85
sg8
g9
(g13
S'\x07\xed\xaff\x0f~0@'
p86
tp87
Rp88
sg19
I0
sg20
g21
(S'\x07\xdd\t\x1d\x13\x12+\r\xd8\xf5'
p89
tp90
Rp91
sg25
I0
sg26
g27
(g28
(I0
tp92
g30
tp93
Rp94
(I1
(I2
tp95
g36
I00
S'~\x00\x00\x00]\x00\x00\x00'
p96
tp97
bsba(i__main__
FrameData
p98
(dp99
g6
g85
sg8
g9
(g13
S'H\xaa*\x8f9\x17&@'
p100
tp101
Rp102
sg19
I0
sg20
g21
(S'\x07\xdd\t\x1d\x13\x12+\x0e\x19S'
p103
tp104
Rp105
sg25
I0
sg26
g27
(g28
(I0
tp106
g30
tp107
Rp108
(I1
(I2
tp109
g36
I00
S'\x81\x00\x00\x00X\x00\x00\x00'
p110
tp111
bsba(i__main__
FrameData
p112
(dp113
g6
g85
sg8
g9
(g13
S'$\xf8\xd9p[\x1c"@'
p114
tp115
Rp116
sg19
I0
sg20
g21
(S'\x07\xdd\t\x1d\x13\x12+\x0eb\xf8'
p117
tp118
Rp119
sg25
I0
sg26
g27
(g28
(I0
tp120
g30
tp121
Rp122
(I1
(I2
tp123
g36
I00
S'\x83\x00\x00\x00V\x00\x00\x00'
p124
tp125
bsba(i__main__
FrameData
p126
(dp127
g6
g85
sg8
g9
(g13
S'\xe9\xfbv \xd5\x1e\x1d@'
p128
tp129
Rp130
sg19
I0
sg20
g21
(S'\x07\xdd\t\x1d\x13\x12+\x0e\xa3\x05'
p131
tp132
Rp133
sg25
I0
sg26
g27
(g28
(I0
tp134
g30
tp135
Rp136
(I1
(I2
tp137
g36
I00
S'\x84\x00\x00\x00T\x00\x00\x00'
p138
tp139
bsba(i__main__
FrameData
p140
(dp141
g6
g85
sg8
g9
(g13
S'p\xc4\x9d9\x8dv\x1e@'
p142
tp143
Rp144
sg19
I0
sg20
g21
(S'\x07\xdd\t\x1d\x13\x12+\x0e\xdc\xd9'
p145
tp146
Rp147
sg25
I0
sg26
g27
(g28
(I0
tp148
g30
tp149
Rp150
(I1
(I2
tp151
g36
I00
S'\x85\x00\x00\x00T\x00\x00\x00'
p152
tp153
bsba(i__main__
FrameData
p154
(dp155
g6
g85
sg8
g9
(g13
S'\xd0\xbaa?\xe0\x1f @'
p156
tp157
Rp158
sg19
I0
sg20
g21
(S'\x07\xdd\t\x1d\x13\x12+\x0f \xa3'
p159
tp160
Rp161
sg25
I0
sg26
g27
(g28
(I0
tp162
g30
tp163
Rp164
(I1
(I2
tp165
g36
I00
S'\x86\x00\x00\x00T\x00\x00\x00'
p166
tp167
bsba(i__main__
FrameData
p168
(dp169
g6
g85
sg8
g9
(g13
S'N\x017\xfac4!@'
p170
tp171
Rp172
sg19
I0
sg20
g21
(S'\x07\xdd\t\x1d\x13\x12,\x00\xa0\xb6'
p173
tp174
Rp175
sg25
I0
sg26
g27
(g28
(I0
tp176
g30
tp177
Rp178
(I1
(I2
tp179
g36
I00
S'\x87\x00\x00\x00T\x00\x00\x00'
p180
tp181
bsba(i__main__
FrameData
p182
(dp183
g6
g85
sg8
g9
(g13
S'\xd9l\xdf\xccv\xf8 @'
p184
tp185
Rp186
sg19
I0
sg20
g21
(S'\x07\xdd\t\x1d\x13\x12,\x010P'
p187
tp188
Rp189
sg25
I0
sg26
g27
(g28
(I0
tp190
g30
tp191
Rp192
(I1
(I2
tp193
g36
I00
S'\x88\x00\x00\x00S\x00\x00\x00'
p194
tp195
bsba(i__main__
FrameData
p196
(dp197
g6
g85
sg8
g9
(g13
S'N\x017\xfac4!@'
p198
tp199
Rp200
sg19
I0
sg20
g21
(S'\x07\xdd\t\x1d\x13\x12,\x01oL'
p201
tp202
Rp203
sg25
I0
sg26
g27
(g28
(I0
tp204
g30
tp205
Rp206
(I1
(I2
tp207
g36
I00
S'\x89\x00\x00\x00R\x00\x00\x00'
p208
tp209
bsba(i__main__
FrameData
p210
(dp211
g6
g85
sg8
g9
(g13
S'~\xc4#,B\xf9"@'
p212
tp213
Rp214
sg19
I0
sg20
g21
(S'\x07\xdd\t\x1d\x13\x12,\x01\xa8\xe6'
p215
tp216
Rp217
sg25
I0
sg26
g27
(g28
(I0
tp218
g30
tp219
Rp220
(I1
(I2
tp221
g36
I00
S'\x8b\x00\x00\x00P\x00\x00\x00'
p222
tp223
bsba(i__main__
FrameData
p224
(dp225
g6
g85
sg8
g9
(g13
S'7\xf9\xcf\xdao\xe1$@'
p226
tp227
Rp228
sg19
I0
sg20
g21
(S'\x07\xdd\t\x1d\x13\x12,\x01\xe8\x9d'
p229
tp230
Rp231
sg25
I0
sg26
g27
(g28
(I0
tp232
g30
tp233
Rp234
(I1
(I2
tp235
g36
I00
S'\x8c\x00\x00\x00P\x00\x00\x00'
p236
tp237
bsba(i__main__
FrameData
p238
(dp239
g6
S'u'
p240
sg8
g9
(g13
S'\xd2\xf1}\x82U\\&@'
p241
tp242
Rp243
sg19
I0
sg20
g21
(S'\x07\xdd\t\x1d\x13\x12,\x02+\x81'
p244
tp245
Rp246
sg25
I0
sg26
g27
(g28
(I0
tp247
g30
tp248
Rp249
(I1
(I2
tp250
g36
I00
S'\x8e\x00\x00\x00O\x00\x00\x00'
p251
tp252
bsba(i__main__
FrameData
p253
(dp254
g6
g240
sg8
g9
(g13
S'bVc}\x9d\xb2#@'
p255
tp256
Rp257
sg19
I0
sg20
g21
(S'\x07\xdd\t\x1d\x13\x12,\x02jh'
p258
tp259
Rp260
sg25
I0
sg26
g27
(g28
(I0
tp261
g30
tp262
Rp263
(I1
(I2
tp264
g36
I00
S'\x8f\x00\x00\x00N\x00\x00\x00'
p265
tp266
bsba(i__main__
FrameData
p267
(dp268
g6
g240
sg8
g9
(g13
S'\xa3\x14\xae\xa8\x87\x16!@'
p269
tp270
Rp271
sg19
I0
sg20
g21
(S'\x07\xdd\t\x1d\x13\x12,\x02\xb3\xd6'
p272
tp273
Rp274
sg25
I0
sg26
g27
(g28
(I0
tp275
g30
tp276
Rp277
(I1
(I2
tp278
g36
I00
S'\x90\x00\x00\x00M\x00\x00\x00'
p279
tp280
bsba(i__main__
FrameData
p281
(dp282
g6
g240
sg8
g9
(g13
S'p\xc4\x9d9\x8dv\x1e@'
p283
tp284
Rp285
sg19
I0
sg20
g21
(S'\x07\xdd\t\x1d\x13\x12,\x02\xf2E'
p286
tp287
Rp288
sg25
I0
sg26
g27
(g28
(I0
tp289
g30
tp290
Rp291
(I1
(I2
tp292
g36
I00
S'\x91\x00\x00\x00M\x00\x00\x00'
p293
tp294
bsba(i__main__
FrameData
p295
(dp296
g6
g240
sg8
g9
(g13
S'\xe9\xfbv \xd5\x1e\x1d@'
p297
tp298
Rp299
sg19
I0
sg20
g21
(S'\x07\xdd\t\x1d\x13\x12,\x03/\xb9'
p300
tp301
Rp302
sg25
I0
sg26
g27
(g28
(I0
tp303
g30
tp304
Rp305
(I1
(I2
tp306
g36
I00
S'\x91\x00\x00\x00L\x00\x00\x00'
p307
tp308
bsba(i__main__
FrameData
p309
(dp310
g6
g240
sg8
g9
(g13
S'\xf3\xd9\xa8\xa4h\x8a\x15@'
p311
tp312
Rp313
sg19
I0
sg20
g21
(S'\x07\xdd\t\x1d\x13\x12,\x03r+'
p314
tp315
Rp316
sg25
I0
sg26
g27
(g28
(I0
tp317
g30
tp318
Rp319
(I1
(I2
tp320
g36
I00
S'\x93\x00\x00\x00L\x00\x00\x00'
p321
tp322
bsba(i__main__
FrameData
p323
(dp324
g6
g240
sg8
g9
(g13
S'\xa8\xf4\x97\x9bw\xe3\x11@'
p325
tp326
Rp327
sg19
I0
sg20
g21
(S'\x07\xdd\t\x1d\x13\x12,\x03\xb2\x0b'
p328
tp329
Rp330
sg25
I0
sg26
g27
(g28
(I0
tp331
g30
tp332
Rp333
(I1
(I2
tp334
g36
I00
S'\x94\x00\x00\x00L\x00\x00\x00'
p335
tp336
bsba(i__main__
FrameData
p337
(dp338
g6
g240
sg8
g9
(g13
S'\xf3YaD+\xd8\x0c@'
p339
tp340
Rp341
sg19
I0
sg20
g21
(S'\x07\xdd\t\x1d\x13\x12,\x03\xef\xb6'
p342
tp343
Rp344
sg25
I0
sg26
g27
(g28
(I0
tp345
g30
tp346
Rp347
(I1
(I2
tp348
g36
I00
S'\x95\x00\x00\x00L\x00\x00\x00'
p349
tp350
bsba(i__main__
FrameData
p351
(dp352
g6
g240
sg8
g9
(g13
S'\xcd;\x7ff\x9e\xa0\x06@'
p353
tp354
Rp355
sg19
I0
sg20
g21
(S'\x07\xdd\t\x1d\x13\x12,\x04;\x15'
p356
tp357
Rp358
sg25
I0
sg26
g27
(g28
(I0
tp359
g30
tp360
Rp361
(I1
(I2
tp362
g36
I00
S'\x96\x00\x00\x00L\x00\x00\x00'
p363
tp364
bsba(i__main__
FrameData
p365
(dp366
g6
g240
sg8
g9
(g13
S'\x00\x00\x00\x00\x00\x00\x00@'
p367
tp368
Rp369
sg19
I0
sg20
g21
(S'\x07\xdd\t\x1d\x13\x12,\x04\xb8\xcc'
p370
tp371
Rp372
sg25
I0
sg26
g27
(g28
(I0
tp373
g30
tp374
Rp375
(I1
(I2
tp376
g36
I00
S'\x98\x00\x00\x00L\x00\x00\x00'
p377
tp378
bsba(i__main__
FrameData
p379
(dp380
g6
g240
sg8
g9
(g13
S'\xcd;\x7ff\x9e\xa0\x06@'
p381
tp382
Rp383
sg19
I0
sg20
g21
(S'\x07\xdd\t\x1d\x13\x12,\x04\xf7\x89'
p384
tp385
Rp386
sg25
I0
sg26
g27
(g28
(I0
tp387
g30
tp388
Rp389
(I1
(I2
tp390
g36
I00
S'\x9a\x00\x00\x00L\x00\x00\x00'
p391
tp392
bsba(i__main__
FrameData
p393
(dp394
g6
g240
sg8
g9
(g13
S'\xf3YaD+\xd8\x0c@'
p395
tp396
Rp397
sg19
I0
sg20
g21
(S'\x07\xdd\t\x1d\x13\x12,\x057b'
p398
tp399
Rp400
sg25
I0
sg26
g27
(g28
(I0
tp401
g30
tp402
Rp403
(I1
(I2
tp404
g36
I00
S'\x9b\x00\x00\x00L\x00\x00\x00'
p405
tp406
bsba(i__main__
FrameData
p407
(dp408
g6
g240
sg8
g9
(g13
S'\xf3\xd9\xa8\xa4h\x8a\x15@'
p409
tp410
Rp411
sg19
I0
sg20
g21
(S'\x07\xdd\t\x1d\x13\x12,\x05x\x0e'
p412
tp413
Rp414
sg25
I0
sg26
g27
(g28
(I0
tp415
g30
tp416
Rp417
(I1
(I2
tp418
g36
I00
S'\x9d\x00\x00\x00L\x00\x00\x00'
p419
tp420
bsba(i__main__
FrameData
p421
(dp422
g6
g240
sg8
g9
(g13
S'S[\xda:XL\x19@'
p423
tp424
Rp425
sg19
I0
sg20
g21
(S'\x07\xdd\t\x1d\x13\x12,\x05\xc0Q'
p426
tp427
Rp428
sg25
I0
sg26
g27
(g28
(I0
tp429
g30
tp430
Rp431
(I1
(I2
tp432
g36
I00
S'\x9e\x00\x00\x00L\x00\x00\x00'
p433
tp434
bsba(i__main__
FrameData
p435
(dp436
g6
g240
sg8
g9
(g13
S'\xe9\xfbv \xd5\x1e\x1d@'
p437
tp438
Rp439
sg19
I0
sg20
g21
(S'\x07\xdd\t\x1d\x13\x12,\x05\xfb1'
p440
tp441
Rp442
sg25
I0
sg26
g27
(g28
(I0
tp443
g30
tp444
Rp445
(I1
(I2
tp446
g36
I00
S'\x9f\x00\x00\x00L\x00\x00\x00'
p447
tp448
bsba(i__main__
FrameData
p449
(dp450
g6
g240
sg8
g9
(g13
S'\x07\xed\xaff\x0f~ @'
p451
tp452
Rp453
sg19
I0
sg20
g21
(S'\x07\xdd\t\x1d\x13\x12,\x06>\x01'
p454
tp455
Rp456
sg25
I0
sg26
g27
(g28
(I0
tp457
g30
tp458
Rp459
(I1
(I2
tp460
g36
I00
S'\xa0\x00\x00\x00L\x00\x00\x00'
p461
tp462
bsba(i__main__
FrameData
p463
(dp464
g6
g240
sg8
g9
(g13
S'\x9a.\x90!hp"@'
p465
tp466
Rp467
sg19
I0
sg20
g21
(S'\x07\xdd\t\x1d\x13\x12,\x06|\xd0'
p468
tp469
Rp470
sg25
I0
sg26
g27
(g28
(I0
tp471
g30
tp472
Rp473
(I1
(I2
tp474
g36
I00
S'\xa1\x00\x00\x00L\x00\x00\x00'
p475
tp476
bsba(i__main__
FrameData
p477
(dp478
g6
g240
sg8
g9
(g13
S'\xf6/\x12_ee$@'
p479
tp480
Rp481
sg19
I0
sg20
g21
(S'\x07\xdd\t\x1d\x13\x12,\x06\xbeH'
p482
tp483
Rp484
sg25
I0
sg26
g27
(g28
(I0
tp485
g30
tp486
Rp487
(I1
(I2
tp488
g36
I00
S'\xa2\x00\x00\x00L\x00\x00\x00'
p489
tp490
bsba(i__main__
FrameData
p491
(dp492
g6
g240
sg8
g9
(g13
S'9\xdcc\xb3\xbfT(@'
p493
tp494
Rp495
sg19
I0
sg20
g21
(S'\x07\xdd\t\x1d\x13\x12,\x07\x08\x1d'
p496
tp497
Rp498
sg25
I0
sg26
g27
(g28
(I0
tp499
g30
tp500
Rp501
(I1
(I2
tp502
g36
I00
S'\xa4\x00\x00\x00L\x00\x00\x00'
p503
tp504
bsba(i__main__
FrameData
p505
(dp506
g6
S'i'
p507
sg8
g9
(g13
S'\x00\x00\x00\x00\x00\x00(@'
p508
tp509
Rp510
sg19
I0
sg20
g21
(S'\x07\xdd\t\x1d\x13\x12,\x07E\xe3'
p511
tp512
Rp513
sg25
I0
sg26
g27
(g28
(I0
tp514
g30
tp515
Rp516
(I1
(I2
tp517
g36
I00
S'\xa6\x00\x00\x00K\x00\x00\x00'
p518
tp519
bsba(i__main__
FrameData
p520
(dp521
g6
g507
sg8
g9
(g13
S'\x00\x00\x00\x00\x00\x00&@'
p522
tp523
Rp524
sg19
I0
sg20
g21
(S'\x07\xdd\t\x1d\x13\x12,\x07\x83:'
p525
tp526
Rp527
sg25
I0
sg26
g27
(g28
(I0
tp528
g30
tp529
Rp530
(I1
(I2
tp531
g36
I00
S'\xa7\x00\x00\x00K\x00\x00\x00'
p532
tp533
bsba(i__main__
FrameData
p534
(dp535
g6
g507
sg8
g9
(g13
S'\x00\x00\x00\x00\x00\x00$@'
p536
tp537
Rp538
sg19
I0
sg20
g21
(S'\x07\xdd\t\x1d\x13\x12,\x07\xc2\xab'
p539
tp540
Rp541
sg25
I0
sg26
g27
(g28
(I0
tp542
g30
tp543
Rp544
(I1
(I2
tp545
g36
I00
S'\xa8\x00\x00\x00K\x00\x00\x00'
p546
tp547
bsba(i__main__
FrameData
p548
(dp549
g6
g507
sg8
g9
(g13
S'\x00\x00\x00\x00\x00\x00"@'
p550
tp551
Rp552
sg19
I0
sg20
g21
(S'\x07\xdd\t\x1d\x13\x12,\x08\x0e\xaf'
p553
tp554
Rp555
sg25
I0
sg26
g27
(g28
(I0
tp556
g30
tp557
Rp558
(I1
(I2
tp559
g36
I00
S'\xa9\x00\x00\x00K\x00\x00\x00'
p560
tp561
bsba(i__main__
FrameData
p562
(dp563
g6
g507
sg8
g9
(g13
S'\x00\x00\x00\x00\x00\x00 @'
p564
tp565
Rp566
sg19
I0
sg20
g21
(S'\x07\xdd\t\x1d\x13\x12,\x08M\x8b'
p567
tp568
Rp569
sg25
I0
sg26
g27
(g28
(I0
tp570
g30
tp571
Rp572
(I1
(I2
tp573
g36
I00
S'\xaa\x00\x00\x00K\x00\x00\x00'
p574
tp575
bsba(i__main__
FrameData
p576
(dp577
g6
g507
sg8
g9
(g13
S'\x00\x00\x00\x00\x00\x00\x1c@'
p578
tp579
Rp580
sg19
I0
sg20
g21
(S'\x07\xdd\t\x1d\x13\x12,\x08\x8dg'
p581
tp582
Rp583
sg25
I0
sg26
g27
(g28
(I0
tp584
g30
tp585
Rp586
(I1
(I2
tp587
g36
I00
S'\xab\x00\x00\x00K\x00\x00\x00'
p588
tp589
bsba(i__main__
FrameData
p590
(dp591
g6
g507
sg8
g9
(g13
S'\x00\x00\x00\x00\x00\x00\x18@'
p592
tp593
Rp594
sg19
I0
sg20
g21
(S'\x07\xdd\t\x1d\x13\x12,\x08\xcbc'
p595
tp596
Rp597
sg25
I0
sg26
g27
(g28
(I0
tp598
g30
tp599
Rp600
(I1
(I2
tp601
g36
I00
S'\xac\x00\x00\x00K\x00\x00\x00'
p602
tp603
bsba(i__main__
FrameData
p604
(dp605
g6
g507
sg8
g9
(g13
S'\x00\x00\x00\x00\x00\x00\x14@'
p606
tp607
Rp608
sg19
I0
sg20
g21
(S'\x07\xdd\t\x1d\x13\x12,\t\t\xa2'
p609
tp610
Rp611
sg25
I0
sg26
g27
(g28
(I0
tp612
g30
tp613
Rp614
(I1
(I2
tp615
g36
I00
S'\xad\x00\x00\x00K\x00\x00\x00'
p616
tp617
bsba(i__main__
FrameData
p618
(dp619
g6
g507
sg8
g9
(g13
S'\x00\x00\x00\x00\x00\x00\x10@'
p620
tp621
Rp622
sg19
I0
sg20
g21
(S'\x07\xdd\t\x1d\x13\x12,\t\x92\xa7'
p623
tp624
Rp625
sg25
I0
sg26
g27
(g28
(I0
tp626
g30
tp627
Rp628
(I1
(I2
tp629
g36
I00
S'\xae\x00\x00\x00K\x00\x00\x00'
p630
tp631
bsba(i__main__
FrameData
p632
(dp633
g6
g507
sg8
g9
(g13
S'\x00\x00\x00\x00\x00\x00\x08@'
p634
tp635
Rp636
sg19
I0
sg20
g21
(S'\x07\xdd\t\x1d\x13\x12,\n\x0ed'
p637
tp638
Rp639
sg25
I0
sg26
g27
(g28
(I0
tp640
g30
tp641
Rp642
(I1
(I2
tp643
g36
I00
S'\xaf\x00\x00\x00K\x00\x00\x00'
p644
tp645
bsba(i__main__
FrameData
p646
(dp647
g6
g507
sg8
g9
(g13
S'\x00\x00\x00\x00\x00\x00\x00@'
p648
tp649
Rp650
sg19
I0
sg20
g21
(S'\x07\xdd\t\x1d\x13\x12,\nQr'
p651
tp652
Rp653
sg25
I0
sg26
g27
(g28
(I0
tp654
g30
tp655
Rp656
(I1
(I2
tp657
g36
I00
S'\xb0\x00\x00\x00K\x00\x00\x00'
p658
tp659
bsba(i__main__
FrameData
p660
(dp661
g6
g507
sg8
g9
(g13
S'\xcd;\x7ff\x9e\xa0\xf6?'
p662
tp663
Rp664
sg19
I0
sg20
g21
(S'\x07\xdd\t\x1d\x13\x12,\x0b\x19:'
p665
tp666
Rp667
sg25
I0
sg26
g27
(g28
(I0
tp668
g30
tp669
Rp670
(I1
(I2
tp671
g36
I00
S'\xb1\x00\x00\x00J\x00\x00\x00'
p672
tp673
bsba(i__main__
FrameData
p674
(dp675
g6
g507
sg8
g9
(g13
S'\xa8\xf4\x97\x9bw\xe3\x01@'
p676
tp677
Rp678
sg19
I0
sg20
g21
(S'\x07\xdd\t\x1d\x13\x12-\x01\xad\xfc'
p679
tp680
Rp681
sg25
I0
sg26
g27
(g28
(I0
tp682
g30
tp683
Rp684
(I1
(I2
tp685
g36
I00
S'\xb0\x00\x00\x00J\x00\x00\x00'
p686
tp687
bsba(i__main__
FrameData
p688
(dp689
g6
g507
sg8
g9
(g13
S'S[\xda:XL\t@'
p690
tp691
Rp692
sg19
I0
sg20
g21
(S'\x07\xdd\t\x1d\x13\x12-\x01\xf0\x98'
p693
tp694
Rp695
sg25
I0
sg26
g27
(g28
(I0
tp696
g30
tp697
Rp698
(I1
(I2
tp699
g36
I00
S'\xaf\x00\x00\x00J\x00\x00\x00'
p700
tp701
bsba(i__main__
FrameData
p702
(dp703
g6
g507
sg8
g9
(g13
S'\x07\xed\xaff\x0f~\x10@'
p704
tp705
Rp706
sg19
I0
sg20
g21
(S'\x07\xdd\t\x1d\x13\x12-\x027\xd1'
p707
tp708
Rp709
sg25
I0
sg26
g27
(g28
(I0
tp710
g30
tp711
Rp712
(I1
(I2
tp713
g36
I00
S'\xae\x00\x00\x00J\x00\x00\x00'
p714
tp715
bsba(i__main__
FrameData
p716
(dp717
g6
g507
sg8
g9
(g13
S'\xf6/\x12_ee\x14@'
p718
tp719
Rp720
sg19
I0
sg20
g21
(S'\x07\xdd\t\x1d\x13\x12-\x02\xb4\x0c'
p721
tp722
Rp723
sg25
I0
sg26
g27
(g28
(I0
tp724
g30
tp725
Rp726
(I1
(I2
tp727
g36
I00
S'\xad\x00\x00\x00J\x00\x00\x00'
p728
tp729
bsba(i__main__
FrameData
p730
(dp731
g6
g507
sg8
g9
(g13
S'9\xdcc\xb3\xbfT\x18@'
p732
tp733
Rp734
sg19
I0
sg20
g21
(S'\x07\xdd\t\x1d\x13\x12-\x02\xf3b'
p735
tp736
Rp737
sg25
I0
sg26
g27
(g28
(I0
tp738
g30
tp739
Rp740
(I1
(I2
tp741
g36
I00
S'\xac\x00\x00\x00J\x00\x00\x00'
p742
tp743
bsba(i__main__
FrameData
p744
(dp745
g6
g507
sg8
g9
(g13
S'\xd0\xbaa?\xe0\x1f @'
p746
tp747
Rp748
sg19
I0
sg20
g21
(S'\x07\xdd\t\x1d\x13\x12-\x034\x86'
p749
tp750
Rp751
sg25
I0
sg26
g27
(g28
(I0
tp752
g30
tp753
Rp754
(I1
(I2
tp755
g36
I00
S'\xaa\x00\x00\x00J\x00\x00\x00'
p756
tp757
bsba(i__main__
FrameData
p758
(dp759
g6
g507
sg8
g9
(g13
S'$\xf8\xd9p[\x1c"@'
p760
tp761
Rp762
sg19
I0
sg20
g21
(S'\x07\xdd\t\x1d\x13\x12-\x03u\x9b'
p763
tp764
Rp765
sg25
I0
sg26
g27
(g28
(I0
tp766
g30
tp767
Rp768
(I1
(I2
tp769
g36
I00
S'\xa9\x00\x00\x00J\x00\x00\x00'
p770
tp771
bsba(i__main__
FrameData
p772
(dp773
g6
g507
sg8
g9
(g13
S'Qf\x99\xcb\xa9\x13*@'
p774
tp775
Rp776
sg19
I0
sg20
g21
(S'\x07\xdd\t\x1d\x13\x12-\x03\xbdz'
p777
tp778
Rp779
sg25
I0
sg26
g27
(g28
(I0
tp780
g30
tp781
Rp782
(I1
(I2
tp783
g36
I00
S'\xa5\x00\x00\x00L\x00\x00\x00'
p784
tp785
bsba(i__main__
FrameData
p786
(dp787
g6
g240
sg8
g9
(g13
S'\xd9l\xdf\xccv\xf8 @'
p788
tp789
Rp790
sg19
I0
sg20
g21
(S'\x07\xdd\t\x1d\x13\x12-\x03\xfc+'
p791
tp792
Rp793
sg25
I0
sg26
g27
(g28
(I0
tp794
g30
tp795
Rp796
(I1
(I2
tp797
g36
I00
S'\x9e\x00\x00\x00P\x00\x00\x00'
p798
tp799
bsba(i__main__
FrameData
p800
(dp801
g6
g240
sg8
g9
(g13
S'\xd2\xf1}\x82U\\&@'
p802
tp803
Rp804
sg19
I0
sg20
g21
(S'\x07\xdd\t\x1d\x13\x12-\x04:\x8f'
p805
tp806
Rp807
sg25
I0
sg26
g27
(g28
(I0
tp808
g30
tp809
Rp810
(I1
(I2
tp811
g36
I00
S'\x93\x00\x00\x00T\x00\x00\x00'
p812
tp813
bsba(i__main__
FrameData
p814
(dp815
g6
g85
sg8
g9
(g13
S'\xf3YaD+\xd8,@'
p816
tp817
Rp818
sg19
I0
sg20
g21
(S'\x07\xdd\t\x1d\x13\x12-\x04z\xb7'
p819
tp820
Rp821
sg25
I0
sg26
g27
(g28
(I0
tp822
g30
tp823
Rp824
(I1
(I2
tp825
g36
I00
S'\x8a\x00\x00\x00Y\x00\x00\x00'
p826
tp827
bsba(i__main__
FrameData
p828
(dp829
g6
g85
sg8
g9
(g13
S'[y\xf7F\xf7C.@'
p830
tp831
Rp832
sg19
I0
sg20
g21
(S'\x07\xdd\t\x1d\x13\x12-\x04\xc9\xfb'
p833
tp834
Rp835
sg25
I0
sg26
g27
(g28
(I0
tp836
g30
tp837
Rp838
(I1
(I2
tp839
g36
I00
S'\x84\x00\x00\x00\\\x00\x00\x00'
p840
tp841
bsba(i__main__
FrameData
p842
(dp843
g6
g85
sg8
g9
(g13
S'\xd0\xbaa?\xe0\x1f0@'
p844
tp845
Rp846
sg19
I0
sg20
g21
(S'\x07\xdd\t\x1d\x13\x12-\x05\x05\x02'
p847
tp848
Rp849
sg25
I0
sg26
g27
(g28
(I0
tp850
g30
tp851
Rp852
(I1
(I2
tp853
g36
I00
S'\x80\x00\x00\x00]\x00\x00\x00'
p854
tp855
bsba(i__main__
FrameData
p856
(dp857
g6
g85
sg8
g9
(g13
S'\xa0\x96\xf4\xe0T\xb81@'
p858
tp859
Rp860
sg19
I0
sg20
g21
(S'\x07\xdd\t\x1d\x13\x12-\x05B\xc0'
p861
tp862
Rp863
sg25
I0
sg26
g27
(g28
(I0
tp864
g30
tp865
Rp866
(I1
(I2
tp867
g36
I00
S'}\x00\x00\x00^\x00\x00\x00'
p868
tp869
bsba(i__main__
FrameData
p870
(dp871
g6
g85
sg8
g9
(g13
S'~\xc4#,B\xf92@'
p872
tp873
Rp874
sg19
I0
sg20
g21
(S'\x07\xdd\t\x1d\x13\x12-\x05\x81u'
p875
tp876
Rp877
sg25
I0
sg26
g27
(g28
(I0
tp878
g30
tp879
Rp880
(I1
(I2
tp881
g36
I00
S'|\x00\x00\x00_\x00\x00\x00'
p882
tp883
bsba(i__main__
FrameData
p884
(dp885
g6
g7
sg8
g9
(g13
S'\xc9\xe0>!B<3@'
p886
tp887
Rp888
sg19
I0
sg20
g21
(S'\x07\xdd\t\x1d\x13\x12-\x05\xcc\r'
p889
tp890
Rp891
sg25
I0
sg26
g27
(g28
(I0
tp892
g30
tp893
Rp894
(I1
(I2
tp895
g36
I00
S'{\x00\x00\x00_\x00\x00\x00'
p896
tp897
bsba(i__main__
FrameData
p898
(dp899
g6
g7
sg8
g9
(g13
S'^\x9e\x9f\x85\xdf\x1a3@'
p900
tp901
Rp902
sg19
I0
sg20
g21
(S'\x07\xdd\t\x1d\x13\x12-\x06\x0b\xa7'
p903
tp904
Rp905
sg25
I0
sg26
g27
(g28
(I0
tp906
g30
tp907
Rp908
(I1
(I2
tp909
g36
I00
S'z\x00\x00\x00_\x00\x00\x00'
p910
tp911
bsba(i__main__
FrameData
p912
(dp913
g6
g7
sg8
g9
(g13
S'f\xee@\x9f\x03\x1e1@'
p914
tp915
Rp916
sg19
I0
sg20
g21
(S'\x07\xdd\t\x1d\x13\x12-\x06J\x8c'
p917
tp918
Rp919
sg25
I0
sg26
g27
(g28
(I0
tp920
g30
tp921
Rp922
(I1
(I2
tp923
g36
I00
S'z\x00\x00\x00a\x00\x00\x00'
p924
tp925
bsba(i__main__
FrameData
p926
(dp927
g6
g7
sg8
g9
(g13
S'\x00\x00\x00\x00\x00\x001@'
p928
tp929
Rp930
sg19
I0
sg20
g21
(S'\x07\xdd\t\x1d\x13\x12-\x06\xc8\x0c'
p931
tp932
Rp933
sg25
I0
sg26
g27
(g28
(I0
tp934
g30
tp935
Rp936
(I1
(I2
tp937
g36
I00
S'x\x00\x00\x00a\x00\x00\x00'
p938
tp939
bsba(i__main__
FrameData
p940
(dp941
g6
g7
sg8
g9
(g13
S'\x00\x00\x00\x00\x00\x00.@'
p942
tp943
Rp944
sg19
I0
sg20
g21
(S'\x07\xdd\t\x1d\x13\x12-\x07K\xd8'
p945
tp946
Rp947
sg25
I0
sg26
g27
(g28
(I0
tp948
g30
tp949
Rp950
(I1
(I2
tp951
g36
I00
S'x\x00\x00\x00c\x00\x00\x00'
p952
tp953
bsba(i__main__
FrameData
p954
(dp955
g6
g7
sg8
g9
(g13
S')\x03\xec/C\x12,@'
p956
tp957
Rp958
sg19
I0
sg20
g21
(S'\x07\xdd\t\x1d\x13\x12-\x07\x8e\xbc'
p959
tp960
Rp961
sg25
I0
sg26
g27
(g28
(I0
tp962
g30
tp963
Rp964
(I1
(I2
tp965
g36
I00
S'w\x00\x00\x00d\x00\x00\x00'
p966
tp967
bsba(i__main__
FrameData
p968
(dp969
g6
g7
sg8
g9
(g13
S'\xc0\n\x1f\x00\xc6H,@'
p970
tp971
Rp972
sg19
I0
sg20
g21
(S'\x07\xdd\t\x1d\x13\x12-\x07\xcf\xd6'
p973
tp974
Rp975
sg25
I0
sg26
g27
(g28
(I0
tp976
g30
tp977
Rp978
(I1
(I2
tp979
g36
I00
S'v\x00\x00\x00d\x00\x00\x00'
p980
tp981
bsba(i__main__
FrameData
p982
(dp983
g6
g7
sg8
g9
(g13
S'\xde4\xda\xfeNN*@'
p984
tp985
Rp986
sg19
I0
sg20
g21
(S'\x07\xdd\t\x1d\x13\x12-\x08\x0eh'
p987
tp988
Rp989
sg25
I0
sg26
g27
(g28
(I0
tp990
g30
tp991
Rp992
(I1
(I2
tp993
g36
I00
S'v\x00\x00\x00e\x00\x00\x00'
p994
tp995
bsba(i__main__
FrameData
p996
(dp997
g6
g7
sg8
g9
(g13
S'9\xdcc\xb3\xbfT(@'
p998
tp999
Rp1000
sg19
I0
sg20
g21
(S'\x07\xdd\t\x1d\x13\x12-\x08N@'
p1001
tp1002
Rp1003
sg25
I0
sg26
g27
(g28
(I0
tp1004
g30
tp1005
Rp1006
(I1
(I2
tp1007
g36
I00
S'v\x00\x00\x00f\x00\x00\x00'
p1008
tp1009
bsba(i__main__
FrameData
p1010
(dp1011
g6
g7
sg8
g9
(g13
S'\x8a\xe3\x07\x1a\x17\xbd(@'
p1012
tp1013
Rp1014
sg19
I0
sg20
g21
(S'\x07\xdd\t\x1d\x13\x12-\x08\x98\x89'
p1015
tp1016
Rp1017
sg25
I0
sg26
g27
(g28
(I0
tp1018
g30
tp1019
Rp1020
(I1
(I2
tp1021
g36
I00
S'u\x00\x00\x00f\x00\x00\x00'
p1022
tp1023
bsba(i__main__
FrameData
p1024
(dp1025
g6
g7
sg8
g9
(g13
S'\x00\x00\x00\x00\x00\x00*@'
p1026
tp1027
Rp1028
sg19
I0
sg20
g21
(S'\x07\xdd\t\x1d\x13\x12-\x08\xd8Y'
p1029
tp1030
Rp1031
sg25
I0
sg26
g27
(g28
(I0
tp1032
g30
tp1033
Rp1034
(I1
(I2
tp1035
g36
I00
S's\x00\x00\x00f\x00\x00\x00'
p1036
tp1037
bsba(i__main__
FrameData
p1038
(dp1039
g6
g7
sg8
g9
(g13
S'\xe4\x10\xe4sW\x0f)@'
p1040
tp1041
Rp1042
sg19
I0
sg20
g21
(S'\x07\xdd\t\x1d\x13\x12-\t\x16$'
p1043
tp1044
Rp1045
sg25
I0
sg26
g27
(g28
(I0
tp1046
g30
tp1047
Rp1048
(I1
(I2
tp1049
g36
I00
S'r\x00\x00\x00g\x00\x00\x00'
p1050
tp1051
bsba(i__main__
FrameData
p1052
(dp1053
g6
g7
sg8
g9
(g13
S"\xa2\xa3\xb3\r\xe5R'@"
p1054
tp1055
Rp1056
sg19
I0
sg20
g21
(S'\x07\xdd\t\x1d\x13\x12-\tU!'
p1057
tp1058
Rp1059
sg25
I0
sg26
g27
(g28
(I0
tp1060
g30
tp1061
Rp1062
(I1
(I2
tp1063
g36
I00
S'r\x00\x00\x00h\x00\x00\x00'
p1064
tp1065
bsba(i__main__
FrameData
p1066
(dp1067
g6
g7
sg8
g9
(g13
S'\xeb\x12\xb2\xbb\xb2\xcd&@'
p1068
tp1069
Rp1070
sg19
I0
sg20
g21
(S'\x07\xdd\t\x1d\x13\x12-\t\xa1\x9b'
p1071
tp1072
Rp1073
sg25
I0
sg26
g27
(g28
(I0
tp1074
g30
tp1075
Rp1076
(I1
(I2
tp1077
g36
I00
S'q\x00\x00\x00i\x00\x00\x00'
p1078
tp1079
bsba(i__main__
FrameData
p1080
(dp1081
g6
g7
sg8
g9
(g13
S'&5w\xe2K\x15(@'
p1082
tp1083
Rp1084
sg19
I0
sg20
g21
(S'\x07\xdd\t\x1d\x13\x12-\t\xdfq'
p1085
tp1086
Rp1087
sg25
I0
sg26
g27
(g28
(I0
tp1088
g30
tp1089
Rp1090
(I1
(I2
tp1091
g36
I00
S'p\x00\x00\x00i\x00\x00\x00'
p1092
tp1093
bsba(i__main__
FrameData
p1094
(dp1095
g6
g7
sg8
g9
(g13
S'6\xd0\xd2x\xa2B%@'
p1096
tp1097
Rp1098
sg19
I0
sg20
g21
(S'\x07\xdd\t\x1d\x13\x12-\n\x16\x7f'
p1099
tp1100
Rp1101
sg25
I0
sg26
g27
(g28
(I0
tp1102
g30
tp1103
Rp1104
(I1
(I2
tp1105
g36
I00
S'p\x00\x00\x00k\x00\x00\x00'
p1106
tp1107
bsba(i__main__
FrameData
p1108
(dp1109
g6
g7
sg8
g9
(g13
S'\xeb\x12\xb2\xbb\xb2\xcd&@'
p1110
tp1111
Rp1112
sg19
I0
sg20
g21
(S'\x07\xdd\t\x1d\x13\x12-\n\\\xd5'
p1113
tp1114
Rp1115
sg25
I0
sg26
g27
(g28
(I0
tp1116
g30
tp1117
Rp1118
(I1
(I2
tp1119
g36
I00
S'o\x00\x00\x00k\x00\x00\x00'
p1120
tp1121
bsba(i__main__
FrameData
p1122
(dp1123
g6
g7
sg8
g9
(g13
S'\xe4\x10\xe4sW\x0f)@'
p1124
tp1125
Rp1126
sg19
I0
sg20
g21
(S'\x07\xdd\t\x1d\x13\x12-\n\x99\x03'
p1127
tp1128
Rp1129
sg25
I0
sg26
g27
(g28
(I0
tp1130
g30
tp1131
Rp1132
(I1
(I2
tp1133
g36
I00
S'm\x00\x00\x00l\x00\x00\x00'
p1134
tp1135
bsba(i__main__
FrameData
p1136
(dp1137
g6
S'f'
p1138
sg8
g9
(g13
S'\xfc\xeeci3\xd5*@'
p1139
tp1140
Rp1141
sg19
I0
sg20
g21
(S'\x07\xdd\t\x1d\x13\x12-\n\xd9\xe7'
p1142
tp1143
Rp1144
sg25
I0
sg26
g27
(g28
(I0
tp1145
g30
tp1146
Rp1147
(I1
(I2
tp1148
g36
I00
S'l\x00\x00\x00l\x00\x00\x00'
p1149
tp1150
bsba(i__main__
FrameData
p1151
(dp1152
g6
g1138
sg8
g9
(g13
S"\xa2\xa3\xb3\r\xe5R'@"
p1153
tp1154
Rp1155
sg19
I0
sg20
g21
(S'\x07\xdd\t\x1d\x13\x12-\x0b\x1a\xed'
p1156
tp1157
Rp1158
sg25
I0
sg26
g27
(g28
(I0
tp1159
g30
tp1160
Rp1161
(I1
(I2
tp1162
g36
I00
S'j\x00\x00\x00l\x00\x00\x00'
p1163
tp1164
bsba(i__main__
FrameData
p1165
(dp1166
g6
g1138
sg8
g9
(g13
S'w\x03Is \xa2%@'
p1167
tp1168
Rp1169
sg19
I0
sg20
g21
(S'\x07\xdd\t\x1d\x13\x12-\x0b\x9f\xaf'
p1170
tp1171
Rp1172
sg25
I0
sg26
g27
(g28
(I0
tp1173
g30
tp1174
Rp1175
(I1
(I2
tp1176
g36
I00
S'i\x00\x00\x00l\x00\x00\x00'
p1177
tp1178
bsba(i__main__
FrameData
p1179
(dp1180
g6
g1138
sg8
g9
(g13
S'A\x87b\xc62\xde"@'
p1181
tp1182
Rp1183
sg19
I0
sg20
g21
(S'\x07\xdd\t\x1d\x13\x12-\x0b\xe2\xaa'
p1184
tp1185
Rp1186
sg25
I0
sg26
g27
(g28
(I0
tp1187
g30
tp1188
Rp1189
(I1
(I2
tp1190
g36
I00
S'h\x00\x00\x00m\x00\x00\x00'
p1191
tp1192
bsba(i__main__
FrameData
p1193
(dp1194
g6
g1138
sg8
g9
(g13
S'\xd0\xbaa?\xe0\x1f @'
p1195
tp1196
Rp1197
sg19
I0
sg20
g21
(S'\x07\xdd\t\x1d\x13\x12-\x0c#\xaa'
p1198
tp1199
Rp1200
sg25
I0
sg26
g27
(g28
(I0
tp1201
g30
tp1202
Rp1203
(I1
(I2
tp1204
g36
I00
S'g\x00\x00\x00n\x00\x00\x00'
p1205
tp1206
bsba(i__main__
FrameData
p1207
(dp1208
g6
g1138
sg8
g9
(g13
S'\xf3YaD+\xd8\x1c@'
p1209
tp1210
Rp1211
sg19
I0
sg20
g21
(S'\x07\xdd\t\x1d\x13\x12-\x0c\xa7\xb0'
p1212
tp1213
Rp1214
sg25
I0
sg26
g27
(g28
(I0
tp1215
g30
tp1216
Rp1217
(I1
(I2
tp1218
g36
I00
S'f\x00\x00\x00n\x00\x00\x00'
p1219
tp1220
bsba(i__main__
FrameData
p1221
(dp1222
g6
g1138
sg8
g9
(g13
S'\xa2\xa3\xb3\r\xe5R\x17@'
p1223
tp1224
Rp1225
sg19
I0
sg20
g21
(S'\x07\xdd\t\x1d\x13\x12-\rg\xbf'
p1226
tp1227
Rp1228
sg25
I0
sg26
g27
(g28
(I0
tp1229
g30
tp1230
Rp1231
(I1
(I2
tp1232
g36
I00
S'e\x00\x00\x00o\x00\x00\x00'
p1233
tp1234
bsba(i__main__
FrameData
p1235
(dp1236
g6
g1138
sg8
g9
(g13
S'\x00\x00\x00\x00\x00\x00\x14@'
p1237
tp1238
Rp1239
sg19
I0
sg20
g21
(S'\x07\xdd\t\x1d\x13\x12-\r\xeb\xb8'
p1240
tp1241
Rp1242
sg25
I0
sg26
g27
(g28
(I0
tp1243
g30
tp1244
Rp1245
(I1
(I2
tp1246
g36
I00
S'd\x00\x00\x00o\x00\x00\x00'
p1247
tp1248
bsba(i__main__
FrameData
p1249
(dp1250
g6
g1138
sg8
g9
(g13
S'\xcd;\x7ff\x9e\xa0\x16@'
p1251
tp1252
Rp1253
sg19
I0
sg20
g21
(S'\x07\xdd\t\x1d\x13\x12.\x018\xf0'
p1254
tp1255
Rp1256
sg25
I0
sg26
g27
(g28
(I0
tp1257
g30
tp1258
Rp1259
(I1
(I2
tp1260
g36
I00
S'd\x00\x00\x00n\x00\x00\x00'
p1261
tp1262
bsba(i__main__
FrameData
p1263
(dp1264
g6
g1138
sg8
g9
(g13
S'\x00\xff\x9f\x99\xcc\x9c\x19@'
p1265
tp1266
Rp1267
sg19
I0
sg20
g21
(S'\x07\xdd\t\x1d\x13\x12.\x01y|'
p1268
tp1269
Rp1270
sg25
I0
sg26
g27
(g28
(I0
tp1271
g30
tp1272
Rp1273
(I1
(I2
tp1274
g36
I00
S'd\x00\x00\x00m\x00\x00\x00'
p1275
tp1276
bsba(i__main__
FrameData
p1277
(dp1278
g6
g1138
sg8
g9
(g13
S'bVc}\x9d\xb2#@'
p1279
tp1280
Rp1281
sg19
I0
sg20
g21
(S'\x07\xdd\t\x1d\x13\x12.\x01\xb5\xb3'
p1282
tp1283
Rp1284
sg25
I0
sg26
g27
(g28
(I0
tp1285
g30
tp1286
Rp1287
(I1
(I2
tp1288
g36
I00
S'd\x00\x00\x00i\x00\x00\x00'
p1289
tp1290
bsba(i__main__
FrameData
p1291
(dp1292
g6
g1138
sg8
g9
(g13
S'\xf3\xd9\xa8\xa4h\x8a%@'
p1293
tp1294
Rp1295
sg19
I0
sg20
g21
(S'\x07\xdd\t\x1d\x13\x12.\x01\xf7\x8c'
p1296
tp1297
Rp1298
sg25
I0
sg26
g27
(g28
(I0
tp1299
g30
tp1300
Rp1301
(I1
(I2
tp1302
g36
I00
S'd\x00\x00\x00h\x00\x00\x00'
p1303
tp1304
bsba(i__main__
FrameData
p1305
(dp1306
g6
g1138
sg8
g9
(g13
S'S[\xda:XL)@'
p1307
tp1308
Rp1309
sg19
I0
sg20
g21
(S'\x07\xdd\t\x1d\x13\x12.\x02?Y'
p1310
tp1311
Rp1312
sg25
I0
sg26
g27
(g28
(I0
tp1313
g30
tp1314
Rp1315
(I1
(I2
tp1316
g36
I00
S'd\x00\x00\x00f\x00\x00\x00'
p1317
tp1318
bsba(i__main__
FrameData
p1319
(dp1320
g6
g1138
sg8
g9
(g13
S'p\xc4\x9d9\x8dv.@'
p1321
tp1322
Rp1323
sg19
I0
sg20
g21
(S'\x07\xdd\t\x1d\x13\x12.\x02{f'
p1324
tp1325
Rp1326
sg25
I0
sg26
g27
(g28
(I0
tp1327
g30
tp1328
Rp1329
(I1
(I2
tp1330
g36
I00
S'f\x00\x00\x00d\x00\x00\x00'
p1331
tp1332
bsba(i__main__
FrameData
p1333
(dp1334
g6
g1138
sg8
g9
(g13
S'\xa3\x14\xae\xa8\x87\x161@'
p1335
tp1336
Rp1337
sg19
I0
sg20
g21
(S'\x07\xdd\t\x1d\x13\x12.\x02\xbe\xc9'
p1338
tp1339
Rp1340
sg25
I0
sg26
g27
(g28
(I0
tp1341
g30
tp1342
Rp1343
(I1
(I2
tp1344
g36
I00
S'f\x00\x00\x00b\x00\x00\x00'
p1345
tp1346
bsba(i__main__
FrameData
p1347
(dp1348
g6
g1138
sg8
g9
(g13
S'\xa8\xf4\x97\x9bw\xe31@'
p1349
tp1350
Rp1351
sg19
I0
sg20
g21
(S'\x07\xdd\t\x1d\x13\x12.\x02\xff\xa2'
p1352
tp1353
Rp1354
sg25
I0
sg26
g27
(g28
(I0
tp1355
g30
tp1356
Rp1357
(I1
(I2
tp1358
g36
I00
S'h\x00\x00\x00b\x00\x00\x00'
p1359
tp1360
bsba(i__main__
FrameData
p1361
(dp1362
g6
g1138
sg8
g9
(g13
S'5 \x89\xa6\xcd\xc92@'
p1363
tp1364
Rp1365
sg19
I0
sg20
g21
(S'\x07\xdd\t\x1d\x13\x12.\x03Aq'
p1366
tp1367
Rp1368
sg25
I0
sg26
g27
(g28
(I0
tp1369
g30
tp1370
Rp1371
(I1
(I2
tp1372
g36
I00
S'h\x00\x00\x00a\x00\x00\x00'
p1373
tp1374
bsba(i__main__
FrameData
p1375
(dp1376
g6
g1138
sg8
g9
(g13
S'bVc}\x9d\xb23@'
p1377
tp1378
Rp1379
sg19
I0
sg20
g21
(S'\x07\xdd\t\x1d\x13\x12.\x03\x84\xca'
p1380
tp1381
Rp1382
sg25
I0
sg26
g27
(g28
(I0
tp1383
g30
tp1384
Rp1385
(I1
(I2
tp1386
g36
I00
S'h\x00\x00\x00`\x00\x00\x00'
p1387
tp1388
bsba(i__main__
FrameData
p1389
(dp1390
g6
S't'
p1391
sg8
g9
(g13
S'\xf0)#L\x89\x194@'
p1392
tp1393
Rp1394
sg19
I0
sg20
g21
(S'\x07\xdd\t\x1d\x13\x12.\x03\xbf|'
p1395
tp1396
Rp1397
sg25
I0
sg26
g27
(g28
(I0
tp1398
g30
tp1399
Rp1400
(I1
(I2
tp1401
g36
I00
S'h\x00\x00\x00_\x00\x00\x00'
p1402
tp1403
bsba(i__main__
FrameData
p1404
(dp1405
g6
g1391
sg8
g9
(g13
S'^\x9e\x9f\x85\xdf\x1a3@'
p1406
tp1407
Rp1408
sg19
I0
sg20
g21
(S'\x07\xdd\t\x1d\x13\x12.\x04\x01\xc7'
p1409
tp1410
Rp1411
sg25
I0
sg26
g27
(g28
(I0
tp1412
g30
tp1413
Rp1414
(I1
(I2
tp1415
g36
I00
S'h\x00\x00\x00^\x00\x00\x00'
p1416
tp1417
bsba(i__main__
FrameData
p1418
(dp1419
g6
g1391
sg8
g9
(g13
S'\x00\x00\x00\x00\x00\x001@'
p1420
tp1421
Rp1422
sg19
I0
sg20
g21
(S'\x07\xdd\t\x1d\x13\x12.\x04B5'
p1423
tp1424
Rp1425
sg25
I0
sg26
g27
(g28
(I0
tp1426
g30
tp1427
Rp1428
(I1
(I2
tp1429
g36
I00
S'j\x00\x00\x00\\\x00\x00\x00'
p1430
tp1431
bsba(i__main__
FrameData
p1432
(dp1433
g6
g1391
sg8
g9
(g13
S'\x00\x00\x00\x00\x00\x00.@'
p1434
tp1435
Rp1436
sg19
I0
sg20
g21
(S'\x07\xdd\t\x1d\x13\x12.\x04\x85\x88'
p1437
tp1438
Rp1439
sg25
I0
sg26
g27
(g28
(I0
tp1440
g30
tp1441
Rp1442
(I1
(I2
tp1443
g36
I00
S'j\x00\x00\x00Z\x00\x00\x00'
p1444
tp1445
bsba(i__main__
FrameData
p1446
(dp1447
g6
g1391
sg8
g9
(g13
S'Qf\x99\xcb\xa9\x13*@'
p1448
tp1449
Rp1450
sg19
I0
sg20
g21
(S'\x07\xdd\t\x1d\x13\x12.\x04\xc7L'
p1451
tp1452
Rp1453
sg25
I0
sg26
g27
(g28
(I0
tp1454
g30
tp1455
Rp1456
(I1
(I2
tp1457
g36
I00
S'k\x00\x00\x00X\x00\x00\x00'
p1458
tp1459
bsba(i__main__
FrameData
p1460
(dp1461
g6
g1391
sg8
g9
(g13
S'H\xaa*\x8f9\x17&@'
p1462
tp1463
Rp1464
sg19
I0
sg20
g21
(S'\x07\xdd\t\x1d\x13\x12.\x05\x05H'
p1465
tp1466
Rp1467
sg25
I0
sg26
g27
(g28
(I0
tp1468
g30
tp1469
Rp1470
(I1
(I2
tp1471
g36
I00
S'k\x00\x00\x00V\x00\x00\x00'
p1472
tp1473
bsba(i__main__
FrameData
p1474
(dp1475
g6
g1391
sg8
g9
(g13
S'\x9a.\x90!hp"@'
p1476
tp1477
Rp1478
sg19
I0
sg20
g21
(S'\x07\xdd\t\x1d\x13\x12.\x05Kn'
p1479
tp1480
Rp1481
sg25
I0
sg26
g27
(g28
(I0
tp1482
g30
tp1483
Rp1484
(I1
(I2
tp1485
g36
I00
S'l\x00\x00\x00T\x00\x00\x00'
p1486
tp1487
bsba(i__main__
FrameData
p1488
(dp1489
g6
g1391
sg8
g9
(g13
S'S[\xda:XL\x19@'
p1490
tp1491
Rp1492
sg19
I0
sg20
g21
(S'\x07\xdd\t\x1d\x13\x12.\x05\x8d}'
p1493
tp1494
Rp1495
sg25
I0
sg26
g27
(g28
(I0
tp1496
g30
tp1497
Rp1498
(I1
(I2
tp1499
g36
I00
S'l\x00\x00\x00Q\x00\x00\x00'
p1500
tp1501
bsba(i__main__
FrameData
p1502
(dp1503
g6
g1391
sg8
g9
(g13
S'\xf3YaD+\xd8\x0c@'
p1504
tp1505
Rp1506
sg19
I0
sg20
g21
(S'\x07\xdd\t\x1d\x13\x12.\x05\xd0\xf0'
p1507
tp1508
Rp1509
sg25
I0
sg26
g27
(g28
(I0
tp1510
g30
tp1511
Rp1512
(I1
(I2
tp1513
g36
I00
S'm\x00\x00\x00M\x00\x00\x00'
p1514
tp1515
bsba(i__main__
FrameData
p1516
(dp1517
g6
g1391
sg8
g9
(g13
S'S[\xda:XL\t@'
p1518
tp1519
Rp1520
sg19
I0
sg20
g21
(S'\x07\xdd\t\x1d\x13\x12.\x06\x0b\x9a'
p1521
tp1522
Rp1523
sg25
I0
sg26
g27
(g28
(I0
tp1524
g30
tp1525
Rp1526
(I1
(I2
tp1527
g36
I00
S'm\x00\x00\x00L\x00\x00\x00'
p1528
tp1529
bsba(i__main__
FrameData
p1530
(dp1531
g6
g1391
sg8
g9
(g13
S'\x00\x00\x00\x00\x00\x00\x10@'
p1532
tp1533
Rp1534
sg19
I0
sg20
g21
(S'\x07\xdd\t\x1d\x13\x12.\x06M\x84'
p1535
tp1536
Rp1537
sg25
I0
sg26
g27
(g28
(I0
tp1538
g30
tp1539
Rp1540
(I1
(I2
tp1541
g36
I00
S'n\x00\x00\x00K\x00\x00\x00'
p1542
tp1543
bsba(i__main__
FrameData
p1544
(dp1545
g6
g1391
sg8
g9
(g13
S'\x07\xed\xaff\x0f~\x10@'
p1546
tp1547
Rp1548
sg19
I0
sg20
g21
(S'\x07\xdd\t\x1d\x13\x12.\x07\x13\x90'
p1549
tp1550
Rp1551
sg25
I0
sg26
g27
(g28
(I0
tp1552
g30
tp1553
Rp1554
(I1
(I2
tp1555
g36
I00
S'n\x00\x00\x00J\x00\x00\x00'
p1556
tp1557
bsba(i__main__
FrameData
p1558
(dp1559
g6
g1391
sg8
g9
(g13
S'\x00\x00\x00\x00\x00\x00\x10@'
p1560
tp1561
Rp1562
sg19
I0
sg20
g21
(S"\x07\xdd\t\x1d\x13\x12.\x0b'\xb4"
p1563
tp1564
Rp1565
sg25
I0
sg26
g27
(g28
(I0
tp1566
g30
tp1567
Rp1568
(I1
(I2
tp1569
g36
I00
S'n\x00\x00\x00K\x00\x00\x00'
p1570
tp1571
bsba(i__main__
FrameData
p1572
(dp1573
g6
g1391
sg8
g9
(g13
S'\x07\xed\xaff\x0f~\x10@'
p1574
tp1575
Rp1576
sg19
I0
sg20
g21
(S'\x07\xdd\t\x1d\x13\x12.\x0bi\x89'
p1577
tp1578
Rp1579
sg25
I0
sg26
g27
(g28
(I0
tp1580
g30
tp1581
Rp1582
(I1
(I2
tp1583
g36
I00
S'n\x00\x00\x00L\x00\x00\x00'
p1584
tp1585
bsba(i__main__
FrameData
p1586
(dp1587
g6
g1391
sg8
g9
(g13
S'\xa8\xf4\x97\x9bw\xe3\x11@'
p1588
tp1589
Rp1590
sg19
I0
sg20
g21
(S'\x07\xdd\t\x1d\x13\x12.\x0b\xa5\x8d'
p1591
tp1592
Rp1593
sg25
I0
sg26
g27
(g28
(I0
tp1594
g30
tp1595
Rp1596
(I1
(I2
tp1597
g36
I00
S'n\x00\x00\x00M\x00\x00\x00'
p1598
tp1599
bsba(i__main__
FrameData
p1600
(dp1601
g6
g1391
sg8
g9
(g13
S'\xd9l\xdf\xccv\xf8\x10@'
p1602
tp1603
Rp1604
sg19
I0
sg20
g21
(S'\x07\xdd\t\x1d\x13\x12.\x0b\xe7\xa9'
p1605
tp1606
Rp1607
sg25
I0
sg26
g27
(g28
(I0
tp1608
g30
tp1609
Rp1610
(I1
(I2
tp1611
g36
I00
S'm\x00\x00\x00N\x00\x00\x00'
p1612
tp1613
bsba(i__main__
FrameData
p1614
(dp1615
g6
g1391
sg8
g9
(g13
S'\x00\x00\x00\x00\x00\x00\x14@'
p1616
tp1617
Rp1618
sg19
I0
sg20
g21
(S'\x07\xdd\t\x1d\x13\x12.\x0c*\xcf'
p1619
tp1620
Rp1621
sg25
I0
sg26
g27
(g28
(I0
tp1622
g30
tp1623
Rp1624
(I1
(I2
tp1625
g36
I00
S'm\x00\x00\x00O\x00\x00\x00'
p1626
tp1627
bsba(i__main__
FrameData
p1628
(dp1629
g6
g1391
sg8
g9
(g13
S'\xf3\xd9\xa8\xa4h\x8a\x15@'
p1630
tp1631
Rp1632
sg19
I0
sg20
g21
(S'\x07\xdd\t\x1d\x13\x12.\x0ck\x9f'
p1633
tp1634
Rp1635
sg25
I0
sg26
g27
(g28
(I0
tp1636
g30
tp1637
Rp1638
(I1
(I2
tp1639
g36
I00
S'l\x00\x00\x00P\x00\x00\x00'
p1640
tp1641
bsba(i__main__
FrameData
p1642
(dp1643
g6
g1391
sg8
g9
(g13
S'9\xdcc\xb3\xbfT\x18@'
p1644
tp1645
Rp1646
sg19
I0
sg20
g21
(S'\x07\xdd\t\x1d\x13\x12.\x0c\xaa\xfb'
p1647
tp1648
Rp1649
sg25
I0
sg26
g27
(g28
(I0
tp1650
g30
tp1651
Rp1652
(I1
(I2
tp1653
g36
I00
S'k\x00\x00\x00Q\x00\x00\x00'
p1654
tp1655
bsba(i__main__
FrameData
p1656
(dp1657
g6
g1391
sg8
g9
(g13
S'\xe9\xfbv \xd5\x1e\x1d@'
p1658
tp1659
Rp1660
sg19
I0
sg20
g21
(S'\x07\xdd\t\x1d\x13\x12.\x0c\xed\xff'
p1661
tp1662
Rp1663
sg25
I0
sg26
g27
(g28
(I0
tp1664
g30
tp1665
Rp1666
(I1
(I2
tp1667
g36
I00
S'h\x00\x00\x00R\x00\x00\x00'
p1668
tp1669
bsba(i__main__
FrameData
p1670
(dp1671
g6
g1391
sg8
g9
(g13
S'\xa8\xf4\x97\x9bw\xe3!@'
p1672
tp1673
Rp1674
sg19
I0
sg20
g21
(S'\x07\xdd\t\x1d\x13\x12.\r1u'
p1675
tp1676
Rp1677
sg25
I0
sg26
g27
(g28
(I0
tp1678
g30
tp1679
Rp1680
(I1
(I2
tp1681
g36
I00
S'f\x00\x00\x00S\x00\x00\x00'
p1682
tp1683
bsba(i__main__
FrameData
p1684
(dp1685
g6
S'r'
p1686
sg8
g9
(g13
S'htN\x17\xb2=/@'
p1687
tp1688
Rp1689
sg19
I0
sg20
g21
(S'\x07\xdd\t\x1d\x13\x12.\rs<'
p1690
tp1691
Rp1692
sg25
I0
sg26
g27
(g28
(I0
tp1693
g30
tp1694
Rp1695
(I1
(I2
tp1696
g36
I00
S'^\x00\x00\x00U\x00\x00\x00'
p1697
tp1698
bsba(i__main__
FrameData
p1699
(dp1700
g6
g1686
sg8
g9
(g13
S'\xc0\n\x1f\x00\xc6H,@'
p1701
tp1702
Rp1703
sg19
I0
sg20
g21
(S'\x07\xdd\t\x1d\x13\x12.\r\xb00'
p1704
tp1705
Rp1706
sg25
I0
sg26
g27
(g28
(I0
tp1707
g30
tp1708
Rp1709
(I1
(I2
tp1710
g36
I00
S'\\\x00\x00\x00U\x00\x00\x00'
p1711
tp1712
bsba(i__main__
FrameData
p1713
(dp1714
g6
g1686
sg8
g9
(g13
S'\xb4\xb8=iA\xe8*@'
p1715
tp1716
Rp1717
sg19
I0
sg20
g21
(S'\x07\xdd\t\x1d\x13\x12.\r\xf1\x98'
p1718
tp1719
Rp1720
sg25
I0
sg26
g27
(g28
(I0
tp1721
g30
tp1722
Rp1723
(I1
(I2
tp1724
g36
I00
S'[\x00\x00\x00U\x00\x00\x00'
p1725
tp1726
bsba(i__main__
FrameData
p1727
(dp1728
g6
g1686
sg8
g9
(g13
S'F\xc3\\\xa8\xc1i(@'
p1729
tp1730
Rp1731
sg19
I0
sg20
g21
(S'\x07\xdd\t\x1d\x13\x12.\x0e3\x90'
p1732
tp1733
Rp1734
sg25
I0
sg26
g27
(g28
(I0
tp1735
g30
tp1736
Rp1737
(I1
(I2
tp1738
g36
I00
S'Y\x00\x00\x00U\x00\x00\x00'
p1739
tp1740
bsba(i__main__
FrameData
p1741
(dp1742
g6
g1686
sg8
g9
(g13
S'\xd2\xf1}\x82U\\&@'
p1743
tp1744
Rp1745
sg19
I0
sg20
g21
(S'\x07\xdd\t\x1d\x13\x12.\x0et\x8b'
p1746
tp1747
Rp1748
sg25
I0
sg26
g27
(g28
(I0
tp1749
g30
tp1750
Rp1751
(I1
(I2
tp1752
g36
I00
S'W\x00\x00\x00U\x00\x00\x00'
p1753
tp1754
bsba(i__main__
FrameData
p1755
(dp1756
g6
g1686
sg8
g9
(g13
S'7\xf9\xcf\xdao\xe1$@'
p1757
tp1758
Rp1759
sg19
I0
sg20
g21
(S'\x07\xdd\t\x1d\x13\x12.\x0e\xb7\x9f'
p1760
tp1761
Rp1762
sg25
I0
sg26
g27
(g28
(I0
tp1763
g30
tp1764
Rp1765
(I1
(I2
tp1766
g36
I00
S'U\x00\x00\x00U\x00\x00\x00'
p1767
tp1768
bsba(i__main__
FrameData
p1769
(dp1770
g6
g1686
sg8
g9
(g13
S'\xf6/\x12_ee$@'
p1771
tp1772
Rp1773
sg19
I0
sg20
g21
(S'\x07\xdd\t\x1d\x13\x12.\x0e\xf9\xc9'
p1774
tp1775
Rp1776
sg25
I0
sg26
g27
(g28
(I0
tp1777
g30
tp1778
Rp1779
(I1
(I2
tp1780
g36
I00
S'T\x00\x00\x00U\x00\x00\x00'
p1781
tp1782
bsba(i__main__
FrameData
p1783
(dp1784
g6
g1686
sg8
g9
(g13
S'\xf0)#L\x89\x19$@'
p1785
tp1786
Rp1787
sg19
I0
sg20
g21
(S'\x07\xdd\t\x1d\x13\x12.\x0f6\xae'
p1788
tp1789
Rp1790
sg25
I0
sg26
g27
(g28
(I0
tp1791
g30
tp1792
Rp1793
(I1
(I2
tp1794
g36
I00
S'S\x00\x00\x00U\x00\x00\x00'
p1795
tp1796
bsba(i__main__
FrameData
p1797
(dp1798
g6
g1686
sg8
g9
(g13
S'\xf0)#L\x89\x19$@'
p1799
tp1800
Rp1801
sg19
I0
sg20
g21
(S'\x07\xdd\t\x1d\x13\x12/\x007\x8f'
p1802
tp1803
Rp1804
sg25
I0
sg26
g27
(g28
(I0
tp1805
g30
tp1806
Rp1807
(I1
(I2
tp1808
g36
I00
S'Q\x00\x00\x00U\x00\x00\x00'
p1809
tp1810
bsba(i__main__
FrameData
p1811
(dp1812
g6
g1686
sg8
g9
(g13
S'\xf6/\x12_ee$@'
p1813
tp1814
Rp1815
sg19
I0
sg20
g21
(S'\x07\xdd\t\x1d\x13\x12/\x00w_'
p1816
tp1817
Rp1818
sg25
I0
sg26
g27
(g28
(I0
tp1819
g30
tp1820
Rp1821
(I1
(I2
tp1822
g36
I00
S'P\x00\x00\x00U\x00\x00\x00'
p1823
tp1824
bsba(i__main__
FrameData
p1825
(dp1826
g6
g1686
sg8
g9
(g13
S'7\xf9\xcf\xdao\xe1$@'
p1827
tp1828
Rp1829
sg19
I0
sg20
g21
(S'\x07\xdd\t\x1d\x13\x12/\x00\xbf\xb9'
p1830
tp1831
Rp1832
sg25
I0
sg26
g27
(g28
(I0
tp1833
g30
tp1834
Rp1835
(I1
(I2
tp1836
g36
I00
S'O\x00\x00\x00U\x00\x00\x00'
p1837
tp1838
bsba(i__main__
FrameData
p1839
(dp1840
g6
g1686
sg8
g9
(g13
S'\xf3\xd9\xa8\xa4h\x8a%@'
p1841
tp1842
Rp1843
sg19
I0
sg20
g21
(S'\x07\xdd\t\x1d\x13\x12/\x00\xfbj'
p1844
tp1845
Rp1846
sg25
I0
sg26
g27
(g28
(I0
tp1847
g30
tp1848
Rp1849
(I1
(I2
tp1850
g36
I00
S'N\x00\x00\x00U\x00\x00\x00'
p1851
tp1852
bsba(i__main__
FrameData
p1853
(dp1854
g6
g1686
sg8
g9
(g13
S'\xd2\xf1}\x82U\\&@'
p1855
tp1856
Rp1857
sg19
I0
sg20
g21
(S'\x07\xdd\t\x1d\x13\x12/\x01=\x8d'
p1858
tp1859
Rp1860
sg25
I0
sg26
g27
(g28
(I0
tp1861
g30
tp1862
Rp1863
(I1
(I2
tp1864
g36
I00
S'M\x00\x00\x00U\x00\x00\x00'
p1865
tp1866
bsba(i__main__
FrameData
p1867
(dp1868
g6
g1686
sg8
g9
(g13
S'w\x03Is \xa2%@'
p1869
tp1870
Rp1871
sg19
I0
sg20
g21
(S'\x07\xdd\t\x1d\x13\x12/\x01\x812'
p1872
tp1873
Rp1874
sg25
I0
sg26
g27
(g28
(I0
tp1875
g30
tp1876
Rp1877
(I1
(I2
tp1878
g36
I00
S'L\x00\x00\x00T\x00\x00\x00'
p1879
tp1880
bsba(i__main__
FrameData
p1881
(dp1882
g6
g1686
sg8
g9
(g13
S'\xeb\x12\xb2\xbb\xb2\xcd&@'
p1883
tp1884
Rp1885
sg19
I0
sg20
g21
(S'\x07\xdd\t\x1d\x13\x12/\x01\xc1Y'
p1886
tp1887
Rp1888
sg25
I0
sg26
g27
(g28
(I0
tp1889
g30
tp1890
Rp1891
(I1
(I2
tp1892
g36
I00
S'K\x00\x00\x00T\x00\x00\x00'
p1893
tp1894
bsba(i__main__
FrameData
p1895
(dp1896
g6
g1686
sg8
g9
(g13
S'\xcd;\x7ff\x9e\xa0&@'
p1897
tp1898
Rp1899
sg19
I0
sg20
g21
(S'\x07\xdd\t\x1d\x13\x12/\x02EL'
p1900
tp1901
Rp1902
sg25
I0
sg26
g27
(g28
(I0
tp1903
g30
tp1904
Rp1905
(I1
(I2
tp1906
g36
I00
S'J\x00\x00\x00S\x00\x00\x00'
p1907
tp1908
bsba(i__main__
FrameData
p1909
(dp1910
g6
g1686
sg8
g9
(g13
S'&5w\xe2K\x15(@'
p1911
tp1912
Rp1913
sg19
I0
sg20
g21
(S'\x07\xdd\t\x1d\x13\x12/\x02\x82Q'
p1914
tp1915
Rp1916
sg25
I0
sg26
g27
(g28
(I0
tp1917
g30
tp1918
Rp1919
(I1
(I2
tp1920
g36
I00
S'I\x00\x00\x00S\x00\x00\x00'
p1921
tp1922
bsba(i__main__
FrameData
p1923
(dp1924
g6
g1686
sg8
g9
(g13
S'\xeb\x12\xb2\xbb\xb2\xcd&@'
p1925
tp1926
Rp1927
sg19
I0
sg20
g21
(S'\x07\xdd\t\x1d\x13\x12/\x02\xc2U'
p1928
tp1929
Rp1930
sg25
I0
sg26
g27
(g28
(I0
tp1931
g30
tp1932
Rp1933
(I1
(I2
tp1934
g36
I00
S'I\x00\x00\x00R\x00\x00\x00'
p1935
tp1936
bsba(i__main__
FrameData
p1937
(dp1938
g6
g1686
sg8
g9
(g13
S'Qf\x99\xcb\xa9\x13*@'
p1939
tp1940
Rp1941
sg19
I0
sg20
g21
(S'\x07\xdd\t\x1d\x13\x12/\x03\x055'
p1942
tp1943
Rp1944
sg25
I0
sg26
g27
(g28
(I0
tp1945
g30
tp1946
Rp1947
(I1
(I2
tp1948
g36
I00
S'G\x00\x00\x00R\x00\x00\x00'
p1949
tp1950
bsba(i__main__
FrameData
p1951
(dp1952
g6
S'e'
p1953
sg8
g9
(g13
S'lNy\x00\x85*(@'
p1954
tp1955
Rp1956
sg19
I0
sg20
g21
(S'\x07\xdd\t\x1d\x13\x12/\x03GC'
p1957
tp1958
Rp1959
sg25
I0
sg26
g27
(g28
(I0
tp1960
g30
tp1961
Rp1962
(I1
(I2
tp1963
g36
I00
S'F\x00\x00\x00Q\x00\x00\x00'
p1964
tp1965
bsba(i__main__
FrameData
p1966
(dp1967
g6
g1953
sg8
g9
(g13
S"\xe0\x11<m\xceh'@"
p1968
tp1969
Rp1970
sg19
I0
sg20
g21
(S'\x07\xdd\t\x1d\x13\x12/\x03\x86i'
p1971
tp1972
Rp1973
sg25
I0
sg26
g27
(g28
(I0
tp1974
g30
tp1975
Rp1976
(I1
(I2
tp1977
g36
I00
S'F\x00\x00\x00P\x00\x00\x00'
p1978
tp1979
bsba(i__main__
FrameData
p1980
(dp1981
g6
g1953
sg8
g9
(g13
S'bVc}\x9d\xb2#@'
p1982
tp1983
Rp1984
sg19
I0
sg20
g21
(S'\x07\xdd\t\x1d\x13\x12/\x03\xcc`'
p1985
tp1986
Rp1987
sg25
I0
sg26
g27
(g28
(I0
tp1988
g30
tp1989
Rp1990
(I1
(I2
tp1991
g36
I00
S'D\x00\x00\x00P\x00\x00\x00'
p1992
tp1993
bsba(i__main__
FrameData
p1994
(dp1995
g6
g1953
sg8
g9
(g13
S'\xa8\xf4\x97\x9bw\xe3!@'
p1996
tp1997
Rp1998
sg19
I0
sg20
g21
(S'\x07\xdd\t\x1d\x13\x12/\x04J\x1a'
p1999
tp2000
Rp2001
sg25
I0
sg26
g27
(g28
(I0
tp2002
g30
tp2003
Rp2004
(I1
(I2
tp2005
g36
I00
S'C\x00\x00\x00P\x00\x00\x00'
p2006
tp2007
bsba(i__main__
FrameData
p2008
(dp2009
g6
g1953
sg8
g9
(g13
S'\xa3\x14\xae\xa8\x87\x16!@'
p2010
tp2011
Rp2012
sg19
I0
sg20
g21
(S'\x07\xdd\t\x1d\x13\x12/\x04\x8be'
p2013
tp2014
Rp2015
sg25
I0
sg26
g27
(g28
(I0
tp2016
g30
tp2017
Rp2018
(I1
(I2
tp2019
g36
I00
S'C\x00\x00\x00O\x00\x00\x00'
p2020
tp2021
bsba(i__main__
FrameData
p2022
(dp2023
g6
g1953
sg8
g9
(g13
S'\xfc\xeeci3\xd5\x1a@'
p2024
tp2025
Rp2026
sg19
I0
sg20
g21
(S'\x07\xdd\t\x1d\x13\x12/\x04\xcdf'
p2027
tp2028
Rp2029
sg25
I0
sg26
g27
(g28
(I0
tp2030
g30
tp2031
Rp2032
(I1
(I2
tp2033
g36
I00
S'A\x00\x00\x00O\x00\x00\x00'
p2034
tp2035
bsba(i__main__
FrameData
p2036
(dp2037
g6
g1953
sg8
g9
(g13
S'\xf3\xd9\xa8\xa4h\x8a\x15@'
p2038
tp2039
Rp2040
sg19
I0
sg20
g21
(S'\x07\xdd\t\x1d\x13\x12/\x05\x0f\x18'
p2041
tp2042
Rp2043
sg25
I0
sg26
g27
(g28
(I0
tp2044
g30
tp2045
Rp2046
(I1
(I2
tp2047
g36
I00
S'@\x00\x00\x00N\x00\x00\x00'
p2048
tp2049
bsba(i__main__
FrameData
p2050
(dp2051
g6
g1953
sg8
g9
(g13
S'\xa8\xf4\x97\x9bw\xe3\x11@'
p2052
tp2053
Rp2054
sg19
I0
sg20
g21
(S'\x07\xdd\t\x1d\x13\x12/\x05\x90\x11'
p2055
tp2056
Rp2057
sg25
I0
sg26
g27
(g28
(I0
tp2058
g30
tp2059
Rp2060
(I1
(I2
tp2061
g36
I00
S'?\x00\x00\x00N\x00\x00\x00'
p2062
tp2063
bsba(i__main__
FrameData
p2064
(dp2065
g6
g1953
sg8
g9
(g13
S'\xf3YaD+\xd8\x0c@'
p2066
tp2067
Rp2068
sg19
I0
sg20
g21
(S'\x07\xdd\t\x1d\x13\x12/\x06\x18p'
p2069
tp2070
Rp2071
sg25
I0
sg26
g27
(g28
(I0
tp2072
g30
tp2073
Rp2074
(I1
(I2
tp2075
g36
I00
S'>\x00\x00\x00N\x00\x00\x00'
p2076
tp2077
bsba(i__main__
FrameData
p2078
(dp2079
g6
g1953
sg8
g9
(g13
S'\xcd;\x7ff\x9e\xa0\x06@'
p2080
tp2081
Rp2082
sg19
I0
sg20
g21
(S'\x07\xdd\t\x1d\x13\x12/\x06Y_'
p2083
tp2084
Rp2085
sg25
I0
sg26
g27
(g28
(I0
tp2086
g30
tp2087
Rp2088
(I1
(I2
tp2089
g36
I00
S'=\x00\x00\x00N\x00\x00\x00'
p2090
tp2091
bsba(i__main__
FrameData
p2092
(dp2093
g6
g1953
sg8
g9
(g13
S'\x00\x00\x00\x00\x00\x00\x00@'
p2094
tp2095
Rp2096
sg19
I0
sg20
g21
(S'\x07\xdd\t\x1d\x13\x12/\x06\x95O'
p2097
tp2098
Rp2099
sg25
I0
sg26
g27
(g28
(I0
tp2100
g30
tp2101
Rp2102
(I1
(I2
tp2103
g36
I00
S'=\x00\x00\x00L\x00\x00\x00'
p2104
tp2105
bsba(i__main__
FrameData
p2106
(dp2107
g6
g1953
sg8
g9
(g13
S'\x00\x00\x00\x00\x00\x00\xf0?'
p2108
tp2109
Rp2110
sg19
I0
sg20
g21
(S'\x07\xdd\t\x1d\x13\x12/\x06\xd8\xa8'
p2111
tp2112
Rp2113
sg25
I0
sg26
g27
(g28
(I0
tp2114
g30
tp2115
Rp2116
(I1
(I2
tp2117
g36
I00
S'<\x00\x00\x00L\x00\x00\x00'
p2118
tp2119
bsba(i__main__
FrameData
p2120
(dp2121
g6
g1953
sg8
g9
(g13
S'\x00\x00\x00\x00\x00\x00\x00\x00'
p2122
tp2123
Rp2124
sg19
I0
sg20
g21
(S'\x07\xdd\t\x1d\x13\x12/\x07\x9e\x7f'
p2125
tp2126
Rp2127
sg25
I0
sg26
g27
(g28
(I0
tp2128
g30
tp2129
Rp2130
(I1
(I2
tp2131
g36
I00
S';\x00\x00\x00L\x00\x00\x00'
p2132
tp2133
bsba(i__main__
FrameData
p2134
(dp2135
g6
g1953
sg8
g9
(g13
S'\xcd;\x7ff\x9e\xa0\xf6?'
p2136
tp2137
Rp2138
sg19
I0
sg20
g21
(S'\x07\xdd\t\x1d\x13\x12/\t$\x81'
p2139
tp2140
Rp2141
sg25
I0
sg26
g27
(g28
(I0
tp2142
g30
tp2143
Rp2144
(I1
(I2
tp2145
g36
I00
S'<\x00\x00\x00M\x00\x00\x00'
p2146
tp2147
bsba(i__main__
FrameData
p2148
(dp2149
g6
g1953
sg8
g9
(g13
S'\xcd;\x7ff\x9e\xa0\x06@'
p2150
tp2151
Rp2152
sg19
I0
sg20
g21
(S'\x07\xdd\t\x1d\x13\x12/\te\x88'
p2153
tp2154
Rp2155
sg25
I0
sg26
g27
(g28
(I0
tp2156
g30
tp2157
Rp2158
(I1
(I2
tp2159
g36
I00
S'=\x00\x00\x00N\x00\x00\x00'
p2160
tp2161
bsba(i__main__
FrameData
p2162
(dp2163
g6
g1953
sg8
g9
(g13
S'\x00\x00\x00\x00\x00\x00\x14@'
p2164
tp2165
Rp2166
sg19
I0
sg20
g21
(S'\x07\xdd\t\x1d\x13\x12/\t\xa7\x8f'
p2167
tp2168
Rp2169
sg25
I0
sg26
g27
(g28
(I0
tp2170
g30
tp2171
Rp2172
(I1
(I2
tp2173
g36
I00
S'>\x00\x00\x00P\x00\x00\x00'
p2174
tp2175
bsba(i__main__
FrameData
p2176
(dp2177
g6
g1953
sg8
g9
(g13
S'\x00\xff\x9f\x99\xcc\x9c\x19@'
p2178
tp2179
Rp2180
sg19
I0
sg20
g21
(S'\x07\xdd\t\x1d\x13\x12/\n){'
p2181
tp2182
Rp2183
sg25
I0
sg26
g27
(g28
(I0
tp2184
g30
tp2185
Rp2186
(I1
(I2
tp2187
g36
I00
S'?\x00\x00\x00Q\x00\x00\x00'
p2188
tp2189
bsba(i__main__
FrameData
p2190
(dp2191
g6
g1953
sg8
g9
(g13
S'\xf3YaD+\xd8\x1c@'
p2192
tp2193
Rp2194
sg19
I0
sg20
g21
(S'\x07\xdd\t\x1d\x13\x12/\nmT'
p2195
tp2196
Rp2197
sg25
I0
sg26
g27
(g28
(I0
tp2198
g30
tp2199
Rp2200
(I1
(I2
tp2201
g36
I00
S'?\x00\x00\x00R\x00\x00\x00'
p2202
tp2203
bsba(i__main__
FrameData
p2204
(dp2205
g6
g1953
sg8
g9
(g13
S'\xd9l\xdf\xccv\xf8 @'
p2206
tp2207
Rp2208
sg19
I0
sg20
g21
(S'\x07\xdd\t\x1d\x13\x12/\n\xa9q'
p2209
tp2210
Rp2211
sg25
I0
sg26
g27
(g28
(I0
tp2212
g30
tp2213
Rp2214
(I1
(I2
tp2215
g36
I00
S'A\x00\x00\x00R\x00\x00\x00'
p2216
tp2217
bsba(i__main__
FrameData
p2218
(dp2219
g6
g1953
sg8
g9
(g13
S'\x9a.\x90!hp"@'
p2220
tp2221
Rp2222
sg19
I0
sg20
g21
(S'\x07\xdd\t\x1d\x13\x12/\n\xf1\x91'
p2223
tp2224
Rp2225
sg25
I0
sg26
g27
(g28
(I0
tp2226
g30
tp2227
Rp2228
(I1
(I2
tp2229
g36
I00
S'A\x00\x00\x00S\x00\x00\x00'
p2230
tp2231
bsba(i__main__
FrameData
p2232
(dp2233
g6
g1953
sg8
g9
(g13
S'\x00\x00\x00\x00\x00\x00$@'
p2234
tp2235
Rp2236
sg19
I0
sg20
g21
(S'\x07\xdd\t\x1d\x13\x12/\x0b-Z'
p2237
tp2238
Rp2239
sg25
I0
sg26
g27
(g28
(I0
tp2240
g30
tp2241
Rp2242
(I1
(I2
tp2243
g36
I00
S'A\x00\x00\x00T\x00\x00\x00'
p2244
tp2245
bsba(i__main__
FrameData
p2246
(dp2247
g6
g1953
sg8
g9
(g13
S'6\xd0\xd2x\xa2B%@'
p2248
tp2249
Rp2250
sg19
I0
sg20
g21
(S'\x07\xdd\t\x1d\x13\x12/\x0bqB'
p2251
tp2252
Rp2253
sg25
I0
sg26
g27
(g28
(I0
tp2254
g30
tp2255
Rp2256
(I1
(I2
tp2257
g36
I00
S'B\x00\x00\x00T\x00\x00\x00'
p2258
tp2259
bsba(i__main__
FrameData
p2260
(dp2261
g6
g1953
sg8
g9
(g13
S'\xeb\x12\xb2\xbb\xb2\xcd&@'
p2262
tp2263
Rp2264
sg19
I0
sg20
g21
(S'\x07\xdd\t\x1d\x13\x12/\x0b\xb1U'
p2265
tp2266
Rp2267
sg25
I0
sg26
g27
(g28
(I0
tp2268
g30
tp2269
Rp2270
(I1
(I2
tp2271
g36
I00
S'B\x00\x00\x00U\x00\x00\x00'
p2272
tp2273
bsba(i__main__
FrameData
p2274
(dp2275
g6
g1953
sg8
g9
(g13
S'\xef\rI\xf1\xf33+@'
p2276
tp2277
Rp2278
sg19
I0
sg20
g21
(S'\x07\xdd\t\x1d\x13\x12/\x0b\xef\x07'
p2279
tp2280
Rp2281
sg25
I0
sg26
g27
(g28
(I0
tp2282
g30
tp2283
Rp2284
(I1
(I2
tp2285
g36
I00
S'C\x00\x00\x00W\x00\x00\x00'
p2286
tp2287
bsba(i__main__
FrameData
p2288
(dp2289
g6
g1953
sg8
g9
(g13
S'\xc5Bl?W\x87.@'
p2290
tp2291
Rp2292
sg19
I0
sg20
g21
(S'\x07\xdd\t\x1d\x13\x12/\x0c6A'
p2293
tp2294
Rp2295
sg25
I0
sg26
g27
(g28
(I0
tp2296
g30
tp2297
Rp2298
(I1
(I2
tp2299
g36
I00
S'C\x00\x00\x00Y\x00\x00\x00'
p2300
tp2301
bsba(i__main__
FrameData
p2302
(dp2303
g6
g1953
sg8
g9
(g13
S'\xbf\x8f+\t\x89[2@'
p2304
tp2305
Rp2306
sg19
I0
sg20
g21
(S'\x07\xdd\t\x1d\x13\x12/\x0cw`'
p2307
tp2308
Rp2309
sg25
I0
sg26
g27
(g28
(I0
tp2310
g30
tp2311
Rp2312
(I1
(I2
tp2313
g36
I00
S'D\x00\x00\x00\\\x00\x00\x00'
p2314
tp2315
bsba(i__main__
FrameData
p2316
(dp2317
g6
S'd'
p2318
sg8
g9
(g13
S'+\xe5\x8a\xc6\x8f?2@'
p2319
tp2320
Rp2321
sg19
I0
sg20
g21
(S'\x07\xdd\t\x1d\x13\x12/\x0c\xb3V'
p2322
tp2323
Rp2324
sg25
I0
sg26
g27
(g28
(I0
tp2325
g30
tp2326
Rp2327
(I1
(I2
tp2328
g36
I00
S'F\x00\x00\x00_\x00\x00\x00'
p2329
tp2330
bsba(i__main__
FrameData
p2331
(dp2332
g6
g2318
sg8
g9
(g13
S'f\xee@\x9f\x03\x1e1@'
p2333
tp2334
Rp2335
sg19
I0
sg20
g21
(S'\x07\xdd\t\x1d\x13\x12/\x0c\xf5~'
p2336
tp2337
Rp2338
sg25
I0
sg26
g27
(g28
(I0
tp2339
g30
tp2340
Rp2341
(I1
(I2
tp2342
g36
I00
S'G\x00\x00\x00`\x00\x00\x00'
p2343
tp2344
bsba(i__main__
FrameData
p2345
(dp2346
g6
g2318
sg8
g9
(g13
S'\xaf_\x109\x0c\x11.@'
p2347
tp2348
Rp2349
sg19
I0
sg20
g21
(S'\x07\xdd\t\x1d\x13\x12/\r8\xa2'
p2350
tp2351
Rp2352
sg25
I0
sg26
g27
(g28
(I0
tp2353
g30
tp2354
Rp2355
(I1
(I2
tp2356
g36
I00
S'H\x00\x00\x00b\x00\x00\x00'
p2357
tp2358
bsba(i__main__
FrameData
p2359
(dp2360
g6
g2318
sg8
g9
(g13
S')\x03\xec/C\x12,@'
p2361
tp2362
Rp2363
sg19
I0
sg20
g21
(S'\x07\xdd\t\x1d\x13\x12/\ryr'
p2364
tp2365
Rp2366
sg25
I0
sg26
g27
(g28
(I0
tp2367
g30
tp2368
Rp2369
(I1
(I2
tp2370
g36
I00
S'H\x00\x00\x00c\x00\x00\x00'
p2371
tp2372
bsba(i__main__
FrameData
p2373
(dp2374
g6
g2318
sg8
g9
(g13
S'Qf\x99\xcb\xa9\x13*@'
p2375
tp2376
Rp2377
sg19
I0
sg20
g21
(S'\x07\xdd\t\x1d\x13\x12/\r\xfdm'
p2378
tp2379
Rp2380
sg25
I0
sg26
g27
(g28
(I0
tp2381
g30
tp2382
Rp2383
(I1
(I2
tp2384
g36
I00
S'H\x00\x00\x00d\x00\x00\x00'
p2385
tp2386
bsba(i__main__
FrameData
p2387
(dp2388
g6
g2318
sg8
g9
(g13
S'&5w\xe2K\x15(@'
p2389
tp2390
Rp2391
sg19
I0
sg20
g21
(S'\x07\xdd\t\x1d\x13\x12/\x0e{\xb7'
p2392
tp2393
Rp2394
sg25
I0
sg26
g27
(g28
(I0
tp2395
g30
tp2396
Rp2397
(I1
(I2
tp2398
g36
I00
S'H\x00\x00\x00e\x00\x00\x00'
p2399
tp2400
bsba(i__main__
FrameData
p2401
(dp2402
g6
g2318
sg8
g9
(g13
S'H\xaa*\x8f9\x17&@'
p2403
tp2404
Rp2405
sg19
I0
sg20
g21
(S'\x07\xdd\t\x1d\x13\x12/\x0e\xffy'
p2406
tp2407
Rp2408
sg25
I0
sg26
g27
(g28
(I0
tp2409
g30
tp2410
Rp2411
(I1
(I2
tp2412
g36
I00
S'H\x00\x00\x00f\x00\x00\x00'
p2413
tp2414
bsba(i__main__
FrameData
p2415
(dp2416
g6
g2318
sg8
g9
(g13
S'\xf0)#L\x89\x19$@'
p2417
tp2418
Rp2419
sg19
I0
sg20
g21
(S'\x07\xdd\t\x1d\x13\x12/\x0fA\x86'
p2420
tp2421
Rp2422
sg25
I0
sg26
g27
(g28
(I0
tp2423
g30
tp2424
Rp2425
(I1
(I2
tp2426
g36
I00
S'H\x00\x00\x00g\x00\x00\x00'
p2427
tp2428
bsba(i__main__
FrameData
p2429
(dp2430
g6
g2318
sg8
g9
(g13
S'$\xf8\xd9p[\x1c"@'
p2431
tp2432
Rp2433
sg19
I0
sg20
g21
(S'\x07\xdd\t\x1d\x13\x120\x00B\x81'
p2434
tp2435
Rp2436
sg25
I0
sg26
g27
(g28
(I0
tp2437
g30
tp2438
Rp2439
(I1
(I2
tp2440
g36
I00
S'H\x00\x00\x00h\x00\x00\x00'
p2441
tp2442
bsba(i__main__
FrameData
p2443
(dp2444
g6
g2318
sg8
g9
(g13
S'\xd0\xbaa?\xe0\x1f @'
p2445
tp2446
Rp2447
sg19
I0
sg20
g21
(S'\x07\xdd\t\x1d\x13\x120\x00\x834'
p2448
tp2449
Rp2450
sg25
I0
sg26
g27
(g28
(I0
tp2451
g30
tp2452
Rp2453
(I1
(I2
tp2454
g36
I00
S'H\x00\x00\x00i\x00\x00\x00'
p2455
tp2456
bsba(i__main__
FrameData
p2457
(dp2458
g6
g2318
sg8
g9
(g13
S'\xc0\n\x1f\x00\xc6H\x1c@'
p2459
tp2460
Rp2461
sg19
I0
sg20
g21
(S'\x07\xdd\t\x1d\x13\x120\x00\xc6\x93'
p2462
tp2463
Rp2464
sg25
I0
sg26
g27
(g28
(I0
tp2465
g30
tp2466
Rp2467
(I1
(I2
tp2468
g36
I00
S'H\x00\x00\x00j\x00\x00\x00'
p2469
tp2470
bsba(i__main__
FrameData
p2471
(dp2472
g6
g2318
sg8
g9
(g13
S'\xf6/\x12_ee\x14@'
p2473
tp2474
Rp2475
sg19
I0
sg20
g21
(S'\x07\xdd\t\x1d\x13\x120\x01C\x9f'
p2476
tp2477
Rp2478
sg25
I0
sg26
g27
(g28
(I0
tp2479
g30
tp2480
Rp2481
(I1
(I2
tp2482
g36
I00
S'H\x00\x00\x00l\x00\x00\x00'
p2483
tp2484
bsba(i__main__
FrameData
p2485
(dp2486
g6
g2318
sg8
g9
(g13
S'\x07\xed\xaff\x0f~\x10@'
p2487
tp2488
Rp2489
sg19
I0
sg20
g21
(S'\x07\xdd\t\x1d\x13\x120\x01\x85U'
p2490
tp2491
Rp2492
sg25
I0
sg26
g27
(g28
(I0
tp2493
g30
tp2494
Rp2495
(I1
(I2
tp2496
g36
I00
S'H\x00\x00\x00m\x00\x00\x00'
p2497
tp2498
bsbasS'_fileName'
p2499
S'training/trajectory2013-09-29_19:18:41.636723'
p2500
sS'word'
p2501
S'gifted'
p2502
sb.