(i__main__
SwypeTrajectory
p0
(dp1
S'_frameDataList'
p2
(lp3
(i__main__
FrameData
p4
(dp5
S'closestLetter'
p6
S'p'
p7
sS'letterDistance'
p8
cnumpy.core.multiarray
scalar
p9
(cnumpy
dtype
p10
(S'f8'
p11
I0
I1
tp12
Rp13
(I3
S'<'
p14
NNNI-1
I-1
I0
tp15
bS'\xcd;\x7ff\x9e\xa0\x06@'
p16
tp17
Rp18
sS'accel'
p19
I0
sS'time'
p20
cdatetime
datetime
p21
(S'\x07\xdd\t\x1d\x13\x12\x10\x05\xe3\xf5'
p22
tp23
Rp24
sS'velocity'
p25
I0
sS'position'
p26
cnumpy.core.multiarray
_reconstruct
p27
(cnumpy
ndarray
p28
(I0
tp29
S'b'
p30
tp31
Rp32
(I1
(I2
tp33
g10
(S'i4'
p34
I0
I1
tp35
Rp36
(I3
S'<'
p37
NNNI-1
I-1
I0
tp38
bI00
S'\xdf\x00\x00\x00I\x00\x00\x00'
p39
tp40
bsba(i__main__
FrameData
p41
(dp42
g6
g7
sg8
g9
(g13
S'\xf3\xd9\xa8\xa4h\x8a%@'
p43
tp44
Rp45
sg19
I0
sg20
g21
(S'\x07\xdd\t\x1d\x13\x12\x10\x06"F'
p46
tp47
Rp48
sg25
I0
sg26
g27
(g28
(I0
tp49
g30
tp50
Rp51
(I1
(I2
tp52
g36
I00
S'\xd7\x00\x00\x00O\x00\x00\x00'
p53
tp54
bsba(i__main__
FrameData
p55
(dp56
g6
S'o'
p57
sg8
g9
(g13
S'f\xee@\x9f\x03\x1e1@'
p58
tp59
Rp60
sg19
I0
sg20
g21
(S'\x07\xdd\t\x1d\x13\x12\x10\x06_\xa3'
p61
tp62
Rp63
sg25
I0
sg26
g27
(g28
(I0
tp64
g30
tp65
Rp66
(I1
(I2
tp67
g36
I00
S'\xcc\x00\x00\x00\\\x00\x00\x00'
p68
tp69
bsba(i__main__
FrameData
p70
(dp71
g6
S'k'
p72
sg8
g9
(g13
S'\xd0\xbaa?\xe0\x1f @'
p73
tp74
Rp75
sg19
I0
sg20
g21
(S'\x07\xdd\t\x1d\x13\x12\x10\x06\xa0\x97'
p76
tp77
Rp78
sg25
I0
sg26
g27
(g28
(I0
tp79
g30
tp80
Rp81
(I1
(I2
tp82
g36
I00
S'\xbf\x00\x00\x00j\x00\x00\x00'
p83
tp84
bsba(i__main__
FrameData
p85
(dp86
g6
g72
sg8
g9
(g13
S'\xf3\xd9\xa8\xa4h\x8a\x15@'
p87
tp88
Rp89
sg19
I0
sg20
g21
(S'\x07\xdd\t\x1d\x13\x12\x10\x06\xdd?'
p90
tp91
Rp92
sg25
I0
sg26
g27
(g28
(I0
tp93
g30
tp94
Rp95
(I1
(I2
tp96
g36
I00
S'\xb9\x00\x00\x00p\x00\x00\x00'
p97
tp98
bsba(i__main__
FrameData
p99
(dp100
g6
g72
sg8
g9
(g13
S"\xe0\x11<m\xceh'@"
p101
tp102
Rp103
sg19
I0
sg20
g21
(S'\x07\xdd\t\x1d\x13\x12\x10\x07\x1c1'
p104
tp105
Rp106
sg25
I0
sg26
g27
(g28
(I0
tp107
g30
tp108
Rp109
(I1
(I2
tp110
g36
I00
S'\xb3\x00\x00\x00v\x00\x00\x00'
p111
tp112
bsba(i__main__
FrameData
p113
(dp114
g6
S'j'
p115
sg8
g9
(g13
S"\xa2\xa3\xb3\r\xe5R'@"
p116
tp117
Rp118
sg19
I0
sg20
g21
(S'\x07\xdd\t\x1d\x13\x12\x10\x07r\x13'
p119
tp120
Rp121
sg25
I0
sg26
g27
(g28
(I0
tp122
g30
tp123
Rp124
(I1
(I2
tp125
g36
I00
S'\xb1\x00\x00\x00x\x00\x00\x00'
p126
tp127
bsba(i__main__
FrameData
p128
(dp129
g6
g115
sg8
g9
(g13
S'6\xd0\xd2x\xa2B%@'
p130
tp131
Rp132
sg19
I0
sg20
g21
(S'\x07\xdd\t\x1d\x13\x12\x10\x07\xb9\xe1'
p133
tp134
Rp135
sg25
I0
sg26
g27
(g28
(I0
tp136
g30
tp137
Rp138
(I1
(I2
tp139
g36
I00
S'\xaf\x00\x00\x00y\x00\x00\x00'
p140
tp141
bsba(i__main__
FrameData
p142
(dp143
g6
g115
sg8
g9
(g13
S'ST\xaf\x99\x8a\xcc#@'
p144
tp145
Rp146
sg19
I0
sg20
g21
(S'\x07\xdd\t\x1d\x13\x12\x10\x07\xe5E'
p147
tp148
Rp149
sg25
I0
sg26
g27
(g28
(I0
tp150
g30
tp151
Rp152
(I1
(I2
tp153
g36
I00
S'\xae\x00\x00\x00y\x00\x00\x00'
p154
tp155
bsba(i__main__
FrameData
p156
(dp157
g6
g115
sg8
g9
(g13
S'\x9a.\x90!hp"@'
p158
tp159
Rp160
sg19
I0
sg20
g21
(S'\x07\xdd\t\x1d\x13\x12\x10\x084v'
p161
tp162
Rp163
sg25
I0
sg26
g27
(g28
(I0
tp164
g30
tp165
Rp166
(I1
(I2
tp167
g36
I00
S'\xad\x00\x00\x00y\x00\x00\x00'
p168
tp169
bsba(i__main__
FrameData
p170
(dp171
g6
g115
sg8
g9
(g13
S'N\x017\xfac4!@'
p172
tp173
Rp174
sg19
I0
sg20
g21
(S'\x07\xdd\t\x1d\x13\x12\x10\x08t\x0e'
p175
tp176
Rp177
sg25
I0
sg26
g27
(g28
(I0
tp178
g30
tp179
Rp180
(I1
(I2
tp181
g36
I00
S'\xac\x00\x00\x00y\x00\x00\x00'
p182
tp183
bsba(i__main__
FrameData
p184
(dp185
g6
g115
sg8
g9
(g13
S'p\xc4\x9d9\x8dv\x1e@'
p186
tp187
Rp188
sg19
I0
sg20
g21
(S'\x07\xdd\t\x1d\x13\x12\x10\x08\xa9l'
p189
tp190
Rp191
sg25
I0
sg26
g27
(g28
(I0
tp192
g30
tp193
Rp194
(I1
(I2
tp195
g36
I00
S'\xaa\x00\x00\x00y\x00\x00\x00'
p196
tp197
bsba(i__main__
FrameData
p198
(dp199
g6
g115
sg8
g9
(g13
S'\xe9\xfbv \xd5\x1e\x1d@'
p200
tp201
Rp202
sg19
I0
sg20
g21
(S'\x07\xdd\t\x1d\x13\x12\x10\x08\xf1%'
p203
tp204
Rp205
sg25
I0
sg26
g27
(g28
(I0
tp206
g30
tp207
Rp208
(I1
(I2
tp209
g36
I00
S'\xa5\x00\x00\x00y\x00\x00\x00'
p210
tp211
bsba(i__main__
FrameData
p212
(dp213
g6
g115
sg8
g9
(g13
S'\x9a.\x90!hp"@'
p214
tp215
Rp216
sg19
I0
sg20
g21
(S'\x07\xdd\t\x1d\x13\x12\x10\t0\xfc'
p217
tp218
Rp219
sg25
I0
sg26
g27
(g28
(I0
tp220
g30
tp221
Rp222
(I1
(I2
tp223
g36
I00
S'\xa1\x00\x00\x00y\x00\x00\x00'
p224
tp225
bsba(i__main__
FrameData
p226
(dp227
g6
g115
sg8
g9
(g13
S'F\xc3\\\xa8\xc1i(@'
p228
tp229
Rp230
sg19
I0
sg20
g21
(S'\x07\xdd\t\x1d\x13\x12\x10\tl\xe9'
p231
tp232
Rp233
sg25
I0
sg26
g27
(g28
(I0
tp234
g30
tp235
Rp236
(I1
(I2
tp237
g36
I00
S'\x9d\x00\x00\x00y\x00\x00\x00'
p238
tp239
bsba(i__main__
FrameData
p240
(dp241
g6
S'h'
p242
sg8
g9
(g13
S'ST\xaf\x99\x8a\xcc#@'
p243
tp244
Rp245
sg19
I0
sg20
g21
(S'\x07\xdd\t\x1d\x13\x12\x10\t\xace'
p246
tp247
Rp248
sg25
I0
sg26
g27
(g28
(I0
tp249
g30
tp250
Rp251
(I1
(I2
tp252
g36
I00
S'\x97\x00\x00\x00y\x00\x00\x00'
p253
tp254
bsba(i__main__
FrameData
p255
(dp256
g6
g242
sg8
g9
(g13
S'\xc0\n\x1f\x00\xc6H\x1c@'
p257
tp258
Rp259
sg19
I0
sg20
g21
(S'\x07\xdd\t\x1d\x13\x12\x10\t\xec>'
p260
tp261
Rp262
sg25
I0
sg26
g27
(g28
(I0
tp263
g30
tp264
Rp265
(I1
(I2
tp266
g36
I00
S'\x91\x00\x00\x00y\x00\x00\x00'
p267
tp268
bsba(i__main__
FrameData
p269
(dp270
g6
g242
sg8
g9
(g13
S'\x9a.\x90!hp"@'
p271
tp272
Rp273
sg19
I0
sg20
g21
(S'\x07\xdd\t\x1d\x13\x12\x10\nQ\x9e'
p274
tp275
Rp276
sg25
I0
sg26
g27
(g28
(I0
tp277
g30
tp278
Rp279
(I1
(I2
tp280
g36
I00
S'\x8a\x00\x00\x00y\x00\x00\x00'
p281
tp282
bsba(i__main__
FrameData
p283
(dp284
g6
S'g'
p285
sg8
g9
(g13
S'\xb9e(k\xee\xc8+@'
p286
tp287
Rp288
sg19
I0
sg20
g21
(S'\x07\xdd\t\x1d\x13\x12\x10\nw\xbf'
p289
tp290
Rp291
sg25
I0
sg26
g27
(g28
(I0
tp292
g30
tp293
Rp294
(I1
(I2
tp295
g36
I00
S'\x84\x00\x00\x00y\x00\x00\x00'
p296
tp297
bsba(i__main__
FrameData
p298
(dp299
g6
g285
sg8
g9
(g13
S'\x9a.\x90!hp"@'
p300
tp301
Rp302
sg19
I0
sg20
g21
(S'\x07\xdd\t\x1d\x13\x12\x10\n\xbb\xd9'
p303
tp304
Rp305
sg25
I0
sg26
g27
(g28
(I0
tp306
g30
tp307
Rp308
(I1
(I2
tp309
g36
I00
S'~\x00\x00\x00y\x00\x00\x00'
p310
tp311
bsba(i__main__
FrameData
p312
(dp313
g6
g285
sg8
g9
(g13
S'\xf6/\x12_ee\x14@'
p314
tp315
Rp316
sg19
I0
sg20
g21
(S'\x07\xdd\t\x1d\x13\x12\x10\n\xf1('
p317
tp318
Rp319
sg25
I0
sg26
g27
(g28
(I0
tp320
g30
tp321
Rp322
(I1
(I2
tp323
g36
I00
S'w\x00\x00\x00w\x00\x00\x00'
p324
tp325
bsba(i__main__
FrameData
p326
(dp327
g6
g285
sg8
g9
(g13
S'\x00\xff\x9f\x99\xcc\x9c\x19@'
p328
tp329
Rp330
sg19
I0
sg20
g21
(S'\x07\xdd\t\x1d\x13\x12\x10\x0b:\xfe'
p331
tp332
Rp333
sg25
I0
sg26
g27
(g28
(I0
tp334
g30
tp335
Rp336
(I1
(I2
tp337
g36
I00
S's\x00\x00\x00v\x00\x00\x00'
p338
tp339
bsba(i__main__
FrameData
p340
(dp341
g6
g285
sg8
g9
(g13
S'\x9a.\x90!hp"@'
p342
tp343
Rp344
sg19
I0
sg20
g21
(S'\x07\xdd\t\x1d\x13\x12\x10\x0b\x98\xe8'
p345
tp346
Rp347
sg25
I0
sg26
g27
(g28
(I0
tp348
g30
tp349
Rp350
(I1
(I2
tp351
g36
I00
S'o\x00\x00\x00t\x00\x00\x00'
p352
tp353
bsba(i__main__
FrameData
p354
(dp355
g6
S'f'
p356
sg8
g9
(g13
S'\xe9\xfbv \xd5\x1e\x1d@'
p357
tp358
Rp359
sg19
I0
sg20
g21
(S'\x07\xdd\t\x1d\x13\x12\x10\x0b\xb4!'
p360
tp361
Rp362
sg25
I0
sg26
g27
(g28
(I0
tp363
g30
tp364
Rp365
(I1
(I2
tp366
g36
I00
S'g\x00\x00\x00p\x00\x00\x00'
p367
tp368
bsba(i__main__
FrameData
p369
(dp370
g6
g356
sg8
g9
(g13
S'\xf6/\x12_ee\x14@'
p371
tp372
Rp373
sg19
I0
sg20
g21
(S'\x07\xdd\t\x1d\x13\x12\x10\x0c\r\xd4'
p374
tp375
Rp376
sg25
I0
sg26
g27
(g28
(I0
tp377
g30
tp378
Rp379
(I1
(I2
tp380
g36
I00
S'_\x00\x00\x00m\x00\x00\x00'
p381
tp382
bsba(i__main__
FrameData
p383
(dp384
g6
g356
sg8
g9
(g13
S'N\x017\xfac4!@'
p385
tp386
Rp387
sg19
I0
sg20
g21
(S'\x07\xdd\t\x1d\x13\x12\x10\x0c5\x1e'
p388
tp389
Rp390
sg25
I0
sg26
g27
(g28
(I0
tp391
g30
tp392
Rp393
(I1
(I2
tp394
g36
I00
S'[\x00\x00\x00k\x00\x00\x00'
p395
tp396
bsba(i__main__
FrameData
p397
(dp398
g6
g356
sg8
g9
(g13
S'9\xf2\xee\xcc\xd9\x1c/@'
p399
tp400
Rp401
sg19
I0
sg20
g21
(S'\x07\xdd\t\x1d\x13\x12\x10\x0c\x85\x06'
p402
tp403
Rp404
sg25
I0
sg26
g27
(g28
(I0
tp405
g30
tp406
Rp407
(I1
(I2
tp408
g36
I00
S'U\x00\x00\x00g\x00\x00\x00'
p409
tp410
bsba(i__main__
FrameData
p411
(dp412
g6
S'd'
p413
sg8
g9
(g13
S'\xf3YaD+\xd8,@'
p414
tp415
Rp416
sg19
I0
sg20
g21
(S'\x07\xdd\t\x1d\x13\x12\x10\x0c\xd1#'
p417
tp418
Rp419
sg25
I0
sg26
g27
(g28
(I0
tp420
g30
tp421
Rp422
(I1
(I2
tp423
g36
I00
S'Q\x00\x00\x00e\x00\x00\x00'
p424
tp425
bsba(i__main__
FrameData
p426
(dp427
g6
g413
sg8
g9
(g13
S'\xb3\xa73\xa0`\x0c/@'
p428
tp429
Rp430
sg19
I0
sg20
g21
(S'\x07\xdd\t\x1d\x13\x12\x10\x0c\xf9\xf2'
p431
tp432
Rp433
sg25
I0
sg26
g27
(g28
(I0
tp434
g30
tp435
Rp436
(I1
(I2
tp437
g36
I00
S'M\x00\x00\x00b\x00\x00\x00'
p438
tp439
bsba(i__main__
FrameData
p440
(dp441
g6
g413
sg8
g9
(g13
S')\x9ah\xdd\x85\x071@'
p442
tp443
Rp444
sg19
I0
sg20
g21
(S'\x07\xdd\t\x1d\x13\x12\x10\rD\xfd'
p445
tp446
Rp447
sg25
I0
sg26
g27
(g28
(I0
tp448
g30
tp449
Rp450
(I1
(I2
tp451
g36
I00
S'J\x00\x00\x00`\x00\x00\x00'
p452
tp453
bsba(i__main__
FrameData
p454
(dp455
g6
g413
sg8
g9
(g13
S'\xbd\xec\x81\x93G94@'
p456
tp457
Rp458
sg19
I0
sg20
g21
(S'\x07\xdd\t\x1d\x13\x12\x10\r\x91m'
p459
tp460
Rp461
sg25
I0
sg26
g27
(g28
(I0
tp462
g30
tp463
Rp464
(I1
(I2
tp465
g36
I00
S'F\x00\x00\x00]\x00\x00\x00'
p466
tp467
bsba(i__main__
FrameData
p468
(dp469
g6
S'e'
p470
sg8
g9
(g13
S'\x00\x00\x00\x00\x00\x001@'
p471
tp472
Rp473
sg19
I0
sg20
g21
(S'\x07\xdd\t\x1d\x13\x12\x10\r\xe2\xb0'
p474
tp475
Rp476
sg25
I0
sg26
g27
(g28
(I0
tp477
g30
tp478
Rp479
(I1
(I2
tp480
g36
I00
S'C\x00\x00\x00[\x00\x00\x00'
p481
tp482
bsba(i__main__
FrameData
p483
(dp484
g6
g470
sg8
g9
(g13
S'\x00\x00\x00\x00\x00\x00*@'
p485
tp486
Rp487
sg19
I0
sg20
g21
(S'\x07\xdd\t\x1d\x13\x12\x10\x0e\x08P'
p488
tp489
Rp490
sg25
I0
sg26
g27
(g28
(I0
tp491
g30
tp492
Rp493
(I1
(I2
tp494
g36
I00
S'@\x00\x00\x00X\x00\x00\x00'
p495
tp496
bsba(i__main__
FrameData
p497
(dp498
g6
g470
sg8
g9
(g13
S'7\xf9\xcf\xdao\xe1$@'
p499
tp500
Rp501
sg19
I0
sg20
g21
(S'\x07\xdd\t\x1d\x13\x12\x10\x0eF\xc6'
p502
tp503
Rp504
sg25
I0
sg26
g27
(g28
(I0
tp505
g30
tp506
Rp507
(I1
(I2
tp508
g36
I00
S'>\x00\x00\x00V\x00\x00\x00'
p509
tp510
bsba(i__main__
FrameData
p511
(dp512
g6
g470
sg8
g9
(g13
S'\xc0\n\x1f\x00\xc6H\x1c@'
p513
tp514
Rp515
sg19
I0
sg20
g21
(S'\x07\xdd\t\x1d\x13\x12\x10\x0e\x80&'
p516
tp517
Rp518
sg25
I0
sg26
g27
(g28
(I0
tp519
g30
tp520
Rp521
(I1
(I2
tp522
g36
I00
S'<\x00\x00\x00S\x00\x00\x00'
p523
tp524
bsba(i__main__
FrameData
p525
(dp526
g6
g470
sg8
g9
(g13
S'\xf6/\x12_ee\x14@'
p527
tp528
Rp529
sg19
I0
sg20
g21
(S'\x07\xdd\t\x1d\x13\x12\x10\x0e\xcc\xf6'
p530
tp531
Rp532
sg25
I0
sg26
g27
(g28
(I0
tp533
g30
tp534
Rp535
(I1
(I2
tp536
g36
I00
S':\x00\x00\x00Q\x00\x00\x00'
p537
tp538
bsba(i__main__
FrameData
p539
(dp540
g6
g470
sg8
g9
(g13
S'\xf3YaD+\xd8\x0c@'
p541
tp542
Rp543
sg19
I0
sg20
g21
(S'\x07\xdd\t\x1d\x13\x12\x10\x0f"\x93'
p544
tp545
Rp546
sg25
I0
sg26
g27
(g28
(I0
tp547
g30
tp548
Rp549
(I1
(I2
tp550
g36
I00
S'9\x00\x00\x00O\x00\x00\x00'
p551
tp552
bsba(i__main__
FrameData
p553
(dp554
g6
g470
sg8
g9
(g13
S'\xa8\xf4\x97\x9bw\xe3\x01@'
p555
tp556
Rp557
sg19
I0
sg20
g21
(S'\x07\xdd\t\x1d\x13\x12\x11\x00\x03M'
p558
tp559
Rp560
sg25
I0
sg26
g27
(g28
(I0
tp561
g30
tp562
Rp563
(I1
(I2
tp564
g36
I00
S'9\x00\x00\x00M\x00\x00\x00'
p565
tp566
bsba(i__main__
FrameData
p567
(dp568
g6
g470
sg8
g9
(g13
S'\x00\x00\x00\x00\x00\x00\x00@'
p569
tp570
Rp571
sg19
I0
sg20
g21
(S'\x07\xdd\t\x1d\x13\x12\x11\x00\x84p'
p572
tp573
Rp574
sg25
I0
sg26
g27
(g28
(I0
tp575
g30
tp576
Rp577
(I1
(I2
tp578
g36
I00
S'9\x00\x00\x00L\x00\x00\x00'
p579
tp580
bsba(i__main__
FrameData
p581
(dp582
g6
g470
sg8
g9
(g13
S'\xa8\xf4\x97\x9bw\xe3\x01@'
p583
tp584
Rp585
sg19
I0
sg20
g21
(S'\x07\xdd\t\x1d\x13\x12\x11\x01\x19\xdb'
p586
tp587
Rp588
sg25
I0
sg26
g27
(g28
(I0
tp589
g30
tp590
Rp591
(I1
(I2
tp592
g36
I00
S'9\x00\x00\x00K\x00\x00\x00'
p593
tp594
bsba(i__main__
FrameData
p595
(dp596
g6
g470
sg8
g9
(g13
S'\xcd;\x7ff\x9e\xa0\x06@'
p597
tp598
Rp599
sg19
I0
sg20
g21
(S'\x07\xdd\t\x1d\x13\x12\x11\x01\x91\xef'
p600
tp601
Rp602
sg25
I0
sg26
g27
(g28
(I0
tp603
g30
tp604
Rp605
(I1
(I2
tp606
g36
I00
S'9\x00\x00\x00J\x00\x00\x00'
p607
tp608
bsba(i__main__
FrameData
p609
(dp610
g6
g470
sg8
g9
(g13
S'\xf3YaD+\xd8\x0c@'
p611
tp612
Rp613
sg19
I0
sg20
g21
(S'\x07\xdd\t\x1d\x13\x12\x11\x02\x97\xed'
p614
tp615
Rp616
sg25
I0
sg26
g27
(g28
(I0
tp617
g30
tp618
Rp619
(I1
(I2
tp620
g36
I00
S'9\x00\x00\x00I\x00\x00\x00'
p621
tp622
bsba(i__main__
FrameData
p623
(dp624
g6
g470
sg8
g9
(g13
S'\xcd;\x7ff\x9e\xa0\x06@'
p625
tp626
Rp627
sg19
I0
sg20
g21
(S'\x07\xdd\t\x1d\x13\x12\x11\x05\xae0'
p628
tp629
Rp630
sg25
I0
sg26
g27
(g28
(I0
tp631
g30
tp632
Rp633
(I1
(I2
tp634
g36
I00
S'9\x00\x00\x00J\x00\x00\x00'
p635
tp636
bsba(i__main__
FrameData
p637
(dp638
g6
g470
sg8
g9
(g13
S'\xa8\xf4\x97\x9bw\xe3\x01@'
p639
tp640
Rp641
sg19
I0
sg20
g21
(S'\x07\xdd\t\x1d\x13\x12\x11\x05\xe3\xd7'
p642
tp643
Rp644
sg25
I0
sg26
g27
(g28
(I0
tp645
g30
tp646
Rp647
(I1
(I2
tp648
g36
I00
S'9\x00\x00\x00K\x00\x00\x00'
p649
tp650
bsba(i__main__
FrameData
p651
(dp652
g6
g470
sg8
g9
(g13
S'\x00\x00\x00\x00\x00\x00\x00@'
p653
tp654
Rp655
sg19
I0
sg20
g21
(S'\x07\xdd\t\x1d\x13\x12\x11\x06")'
p656
tp657
Rp658
sg25
I0
sg26
g27
(g28
(I0
tp659
g30
tp660
Rp661
(I1
(I2
tp662
g36
I00
S'9\x00\x00\x00L\x00\x00\x00'
p663
tp664
bsba(i__main__
FrameData
p665
(dp666
g6
g470
sg8
g9
(g13
S'\xcd;\x7ff\x9e\xa0\x06@'
p667
tp668
Rp669
sg19
I0
sg20
g21
(S'\x07\xdd\t\x1d\x13\x12\x11\x06`\xbd'
p670
tp671
Rp672
sg25
I0
sg26
g27
(g28
(I0
tp673
g30
tp674
Rp675
(I1
(I2
tp676
g36
I00
S'9\x00\x00\x00N\x00\x00\x00'
p677
tp678
bsba(i__main__
FrameData
p679
(dp680
g6
g470
sg8
g9
(g13
S'\xf3YaD+\xd8\x0c@'
p681
tp682
Rp683
sg19
I0
sg20
g21
(S'\x07\xdd\t\x1d\x13\x12\x11\x06\xc0>'
p684
tp685
Rp686
sg25
I0
sg26
g27
(g28
(I0
tp687
g30
tp688
Rp689
(I1
(I2
tp690
g36
I00
S'9\x00\x00\x00O\x00\x00\x00'
p691
tp692
bsba(i__main__
FrameData
p693
(dp694
g6
g470
sg8
g9
(g13
S'\xa8\xf4\x97\x9bw\xe3\x11@'
p695
tp696
Rp697
sg19
I0
sg20
g21
(S'\x07\xdd\t\x1d\x13\x12\x11\x06\xe6\x0f'
p698
tp699
Rp700
sg25
I0
sg26
g27
(g28
(I0
tp701
g30
tp702
Rp703
(I1
(I2
tp704
g36
I00
S'9\x00\x00\x00P\x00\x00\x00'
p705
tp706
bsba(i__main__
FrameData
p707
(dp708
g6
g470
sg8
g9
(g13
S'\xf3\xd9\xa8\xa4h\x8a\x15@'
p709
tp710
Rp711
sg19
I0
sg20
g21
(S'\x07\xdd\t\x1d\x13\x12\x11\x07m<'
p712
tp713
Rp714
sg25
I0
sg26
g27
(g28
(I0
tp715
g30
tp716
Rp717
(I1
(I2
tp718
g36
I00
S'9\x00\x00\x00Q\x00\x00\x00'
p719
tp720
bsba(i__main__
FrameData
p721
(dp722
g6
g470
sg8
g9
(g13
S'\xfc\xeeci3\xd5\x1a@'
p723
tp724
Rp725
sg19
I0
sg20
g21
(S'\x07\xdd\t\x1d\x13\x12\x11\x07\xb1\xfe'
p726
tp727
Rp728
sg25
I0
sg26
g27
(g28
(I0
tp729
g30
tp730
Rp731
(I1
(I2
tp732
g36
I00
S'8\x00\x00\x00R\x00\x00\x00'
p733
tp734
bsba(i__main__
FrameData
p735
(dp736
g6
g470
sg8
g9
(g13
S'p\xc4\x9d9\x8dv\x1e@'
p737
tp738
Rp739
sg19
I0
sg20
g21
(S'\x07\xdd\t\x1d\x13\x12\x11\x07\xed\xb6'
p740
tp741
Rp742
sg25
I0
sg26
g27
(g28
(I0
tp743
g30
tp744
Rp745
(I1
(I2
tp746
g36
I00
S'8\x00\x00\x00S\x00\x00\x00'
p747
tp748
bsba(i__main__
FrameData
p749
(dp750
g6
g470
sg8
g9
(g13
S'\xd0\xbaa?\xe0\x1f @'
p751
tp752
Rp753
sg19
I0
sg20
g21
(S'\x07\xdd\t\x1d\x13\x12\x11\x08>W'
p754
tp755
Rp756
sg25
I0
sg26
g27
(g28
(I0
tp757
g30
tp758
Rp759
(I1
(I2
tp760
g36
I00
S'7\x00\x00\x00S\x00\x00\x00'
p761
tp762
bsba(i__main__
FrameData
p763
(dp764
g6
g470
sg8
g9
(g13
S'bVc}\x9d\xb2#@'
p765
tp766
Rp767
sg19
I0
sg20
g21
(S'\x07\xdd\t\x1d\x13\x12\x11\x08l\xcf'
p768
tp769
Rp770
sg25
I0
sg26
g27
(g28
(I0
tp771
g30
tp772
Rp773
(I1
(I2
tp774
g36
I00
S'7\x00\x00\x00U\x00\x00\x00'
p775
tp776
bsba(i__main__
FrameData
p777
(dp778
g6
g470
sg8
g9
(g13
S'\xd2\xf1}\x82U\\&@'
p779
tp780
Rp781
sg19
I0
sg20
g21
(S'\x07\xdd\t\x1d\x13\x12\x11\x08\xb1\xe2'
p782
tp783
Rp784
sg25
I0
sg26
g27
(g28
(I0
tp785
g30
tp786
Rp787
(I1
(I2
tp788
g36
I00
S'6\x00\x00\x00V\x00\x00\x00'
p789
tp790
bsba(i__main__
FrameData
p791
(dp792
g6
g470
sg8
g9
(g13
S'\x00\x00\x00\x00\x00\x00*@'
p793
tp794
Rp795
sg19
I0
sg20
g21
(S'\x07\xdd\t\x1d\x13\x12\x11\t\x02\x80'
p796
tp797
Rp798
sg25
I0
sg26
g27
(g28
(I0
tp799
g30
tp800
Rp801
(I1
(I2
tp802
g36
I00
S'6\x00\x00\x00X\x00\x00\x00'
p803
tp804
bsba(i__main__
FrameData
p805
(dp806
g6
g470
sg8
g9
(g13
S'\xb2\xdb]\xe3\x96\x87-@'
p807
tp808
Rp809
sg19
I0
sg20
g21
(S'\x07\xdd\t\x1d\x13\x12\x11\t2N'
p810
tp811
Rp812
sg25
I0
sg26
g27
(g28
(I0
tp813
g30
tp814
Rp815
(I1
(I2
tp816
g36
I00
S'4\x00\x00\x00Y\x00\x00\x00'
p817
tp818
bsba(i__main__
FrameData
p819
(dp820
g6
g470
sg8
g9
(g13
S'\x00\x00\x00\x00\x00\x001@'
p821
tp822
Rp823
sg19
I0
sg20
g21
(S'\x07\xdd\t\x1d\x13\x12\x11\tw\xd3'
p824
tp825
Rp826
sg25
I0
sg26
g27
(g28
(I0
tp827
g30
tp828
Rp829
(I1
(I2
tp830
g36
I00
S'3\x00\x00\x00[\x00\x00\x00'
p831
tp832
bsba(i__main__
FrameData
p833
(dp834
g6
g470
sg8
g9
(g13
S'\xc9\xe0>!B<3@'
p835
tp836
Rp837
sg19
I0
sg20
g21
(S'\x07\xdd\t\x1d\x13\x12\x11\t\xc4\xa8'
p838
tp839
Rp840
sg25
I0
sg26
g27
(g28
(I0
tp841
g30
tp842
Rp843
(I1
(I2
tp844
g36
I00
S'2\x00\x00\x00]\x00\x00\x00'
p845
tp846
bsba(i__main__
FrameData
p847
(dp848
g6
S's'
p849
sg8
g9
(g13
S'\x00\x00\x00\x00\x00\x003@'
p850
tp851
Rp852
sg19
I0
sg20
g21
(S'\x07\xdd\t\x1d\x13\x12\x11\n\x01G'
p853
tp854
Rp855
sg25
I0
sg26
g27
(g28
(I0
tp856
g30
tp857
Rp858
(I1
(I2
tp859
g36
I00
S'1\x00\x00\x00^\x00\x00\x00'
p860
tp861
bsba(i__main__
FrameData
p862
(dp863
g6
g849
sg8
g9
(g13
S'^\x9e\x9f\x85\xdf\x1a3@'
p864
tp865
Rp866
sg19
I0
sg20
g21
(S'\x07\xdd\t\x1d\x13\x12\x11\n4w'
p867
tp868
Rp869
sg25
I0
sg26
g27
(g28
(I0
tp870
g30
tp871
Rp872
(I1
(I2
tp873
g36
I00
S'/\x00\x00\x00^\x00\x00\x00'
p874
tp875
bsba(i__main__
FrameData
p876
(dp877
g6
g849
sg8
g9
(g13
S'+\xe5\x8a\xc6\x8f?2@'
p878
tp879
Rp880
sg19
I0
sg20
g21
(S'\x07\xdd\t\x1d\x13\x12\x11\nz*'
p881
tp882
Rp883
sg25
I0
sg26
g27
(g28
(I0
tp884
g30
tp885
Rp886
(I1
(I2
tp887
g36
I00
S'.\x00\x00\x00_\x00\x00\x00'
p888
tp889
bsba(i__main__
FrameData
p890
(dp891
g6
g849
sg8
g9
(g13
S'\xa8y\x0c\t\xd9v1@'
p892
tp893
Rp894
sg19
I0
sg20
g21
(S'\x07\xdd\t\x1d\x13\x12\x11\n\xb5\xb2'
p895
tp896
Rp897
sg25
I0
sg26
g27
(g28
(I0
tp898
g30
tp899
Rp900
(I1
(I2
tp901
g36
I00
S'-\x00\x00\x00`\x00\x00\x00'
p902
tp903
bsba(i__main__
FrameData
p904
(dp905
g6
g849
sg8
g9
(g13
S'>9\x15\x8cW\xc30@'
p906
tp907
Rp908
sg19
I0
sg20
g21
(S'\x07\xdd\t\x1d\x13\x12\x11\n\xfc*'
p909
tp910
Rp911
sg25
I0
sg26
g27
(g28
(I0
tp912
g30
tp913
Rp914
(I1
(I2
tp915
g36
I00
S',\x00\x00\x00a\x00\x00\x00'
p916
tp917
bsba(i__main__
FrameData
p918
(dp919
g6
g849
sg8
g9
(g13
S"v\xa3~{\xce'0@"
p920
tp921
Rp922
sg19
I0
sg20
g21
(S'\x07\xdd\t\x1d\x13\x12\x11\x0bKp'
p923
tp924
Rp925
sg25
I0
sg26
g27
(g28
(I0
tp926
g30
tp927
Rp928
(I1
(I2
tp929
g36
I00
S'+\x00\x00\x00b\x00\x00\x00'
p930
tp931
bsba(i__main__
FrameData
p932
(dp933
g6
g849
sg8
g9
(g13
S'&\xecIP\x11N/@'
p934
tp935
Rp936
sg19
I0
sg20
g21
(S'\x07\xdd\t\x1d\x13\x12\x11\x0b\x9b9'
p937
tp938
Rp939
sg25
I0
sg26
g27
(g28
(I0
tp940
g30
tp941
Rp942
(I1
(I2
tp943
g36
I00
S'*\x00\x00\x00c\x00\x00\x00'
p944
tp945
bsba(i__main__
FrameData
p946
(dp947
g6
g849
sg8
g9
(g13
S'\xc5Bl?W\x87.@'
p948
tp949
Rp950
sg19
I0
sg20
g21
(S'\x07\xdd\t\x1d\x13\x12\x11\x0b\xbf\xd5'
p951
tp952
Rp953
sg25
I0
sg26
g27
(g28
(I0
tp954
g30
tp955
Rp956
(I1
(I2
tp957
g36
I00
S')\x00\x00\x00d\x00\x00\x00'
p958
tp959
bsba(i__main__
FrameData
p960
(dp961
g6
g849
sg8
g9
(g13
S"'\xf2\x90In\x9f/@"
p962
tp963
Rp964
sg19
I0
sg20
g21
(S'\x07\xdd\t\x1d\x13\x12\x11\x0c\x06?'
p965
tp966
Rp967
sg25
I0
sg26
g27
(g28
(I0
tp968
g30
tp969
Rp970
(I1
(I2
tp971
g36
I00
S'(\x00\x00\x00d\x00\x00\x00'
p972
tp973
bsba(i__main__
FrameData
p974
(dp975
g6
g849
sg8
g9
(g13
S'htN\x17\xb2=/@'
p976
tp977
Rp978
sg19
I0
sg20
g21
(S'\x07\xdd\t\x1d\x13\x12\x11\x0c]\x05'
p979
tp980
Rp981
sg25
I0
sg26
g27
(g28
(I0
tp982
g30
tp983
Rp984
(I1
(I2
tp985
g36
I00
S"'\x00\x00\x00e\x00\x00\x00"
p986
tp987
bsba(i__main__
FrameData
p988
(dp989
g6
g849
sg8
g9
(g13
S'9\xf2\xee\xcc\xd9\x1c/@'
p990
tp991
Rp992
sg19
I0
sg20
g21
(S'\x07\xdd\t\x1d\x13\x12\x11\x0c\xd2\x89'
p993
tp994
Rp995
sg25
I0
sg26
g27
(g28
(I0
tp996
g30
tp997
Rp998
(I1
(I2
tp999
g36
I00
S'&\x00\x00\x00f\x00\x00\x00'
p1000
tp1001
bsba(i__main__
FrameData
p1002
(dp1003
g6
g849
sg8
g9
(g13
S'htN\x17\xb2=/@'
p1004
tp1005
Rp1006
sg19
I0
sg20
g21
(S'\x07\xdd\t\x1d\x13\x12\x11\r\x01n'
p1007
tp1008
Rp1009
sg25
I0
sg26
g27
(g28
(I0
tp1010
g30
tp1011
Rp1012
(I1
(I2
tp1013
g36
I00
S'%\x00\x00\x00g\x00\x00\x00'
p1014
tp1015
bsba(i__main__
FrameData
p1016
(dp1017
g6
S'a'
p1018
sg8
g9
(g13
S'\x0f\xab\xa8Q\xb6f0@'
p1019
tp1020
Rp1021
sg19
I0
sg20
g21
(S'\x07\xdd\t\x1d\x13\x12\x11\rFG'
p1022
tp1023
Rp1024
sg25
I0
sg26
g27
(g28
(I0
tp1025
g30
tp1026
Rp1027
(I1
(I2
tp1028
g36
I00
S'$\x00\x00\x00g\x00\x00\x00'
p1029
tp1030
bsba(i__main__
FrameData
p1031
(dp1032
g6
g1018
sg8
g9
(g13
S'\x00\x00\x00\x00\x00\x00.@'
p1033
tp1034
Rp1035
sg19
I0
sg20
g21
(S'\x07\xdd\t\x1d\x13\x12\x11\r\x94F'
p1036
tp1037
Rp1038
sg25
I0
sg26
g27
(g28
(I0
tp1039
g30
tp1040
Rp1041
(I1
(I2
tp1042
g36
I00
S'#\x00\x00\x00h\x00\x00\x00'
p1043
tp1044
bsba(i__main__
FrameData
p1045
(dp1046
g6
g1018
sg8
g9
(g13
S'\xef\rI\xf1\xf33+@'
p1047
tp1048
Rp1049
sg19
I0
sg20
g21
(S'\x07\xdd\t\x1d\x13\x12\x11\r\xe3\xb0'
p1050
tp1051
Rp1052
sg25
I0
sg26
g27
(g28
(I0
tp1053
g30
tp1054
Rp1055
(I1
(I2
tp1056
g36
I00
S'"\x00\x00\x00i\x00\x00\x00'
p1057
tp1058
bsba(i__main__
FrameData
p1059
(dp1060
g6
g1018
sg8
g9
(g13
S'\x00\xff\x9f\x99\xcc\x9c)@'
p1061
tp1062
Rp1063
sg19
I0
sg20
g21
(S'\x07\xdd\t\x1d\x13\x12\x11\x0eY\x9f'
p1064
tp1065
Rp1066
sg25
I0
sg26
g27
(g28
(I0
tp1067
g30
tp1068
Rp1069
(I1
(I2
tp1070
g36
I00
S'!\x00\x00\x00i\x00\x00\x00'
p1071
tp1072
bsba(i__main__
FrameData
p1073
(dp1074
g6
g1018
sg8
g9
(g13
S'w\x03Is \xa2%@'
p1075
tp1076
Rp1077
sg19
I0
sg20
g21
(S'\x07\xdd\t\x1d\x13\x12\x11\x0e\xc9"'
p1078
tp1079
Rp1080
sg25
I0
sg26
g27
(g28
(I0
tp1081
g30
tp1082
Rp1083
(I1
(I2
tp1084
g36
I00
S' \x00\x00\x00k\x00\x00\x00'
p1085
tp1086
bsba(i__main__
FrameData
p1087
(dp1088
g6
g1018
sg8
g9
(g13
S'\x00\x00\x00\x00\x00\x00$@'
p1089
tp1090
Rp1091
sg19
I0
sg20
g21
(S'\x07\xdd\t\x1d\x13\x12\x11\x0f\x0c\x8d'
p1092
tp1093
Rp1094
sg25
I0
sg26
g27
(g28
(I0
tp1095
g30
tp1096
Rp1097
(I1
(I2
tp1098
g36
I00
S'\x1f\x00\x00\x00k\x00\x00\x00'
p1099
tp1100
bsba(i__main__
FrameData
p1101
(dp1102
g6
g1018
sg8
g9
(g13
S'A\x87b\xc62\xde"@'
p1103
tp1104
Rp1105
sg19
I0
sg20
g21
(S'\x07\xdd\t\x1d\x13\x12\x12\x00K:'
p1106
tp1107
Rp1108
sg25
I0
sg26
g27
(g28
(I0
tp1109
g30
tp1110
Rp1111
(I1
(I2
tp1112
g36
I00
S'\x1f\x00\x00\x00l\x00\x00\x00'
p1113
tp1114
bsba(i__main__
FrameData
p1115
(dp1116
g6
g1018
sg8
g9
(g13
S'htN\x17\xb2=\x1f@'
p1117
tp1118
Rp1119
sg19
I0
sg20
g21
(S'\x07\xdd\t\x1d\x13\x12\x12\x00\xcc\xc4'
p1120
tp1121
Rp1122
sg25
I0
sg26
g27
(g28
(I0
tp1123
g30
tp1124
Rp1125
(I1
(I2
tp1126
g36
I00
S'\x1d\x00\x00\x00l\x00\x00\x00'
p1127
tp1128
bsba(i__main__
FrameData
p1129
(dp1130
g6
g1018
sg8
g9
(g13
S'\xf3YaD+\xd8\x1c@'
p1131
tp1132
Rp1133
sg19
I0
sg20
g21
(S'\x07\xdd\t\x1d\x13\x12\x12\x01[\x88'
p1134
tp1135
Rp1136
sg25
I0
sg26
g27
(g28
(I0
tp1137
g30
tp1138
Rp1139
(I1
(I2
tp1140
g36
I00
S'\x1d\x00\x00\x00m\x00\x00\x00'
p1141
tp1142
bsba(i__main__
FrameData
p1143
(dp1144
g6
g1018
sg8
g9
(g13
S'\xcd;\x7ff\x9e\xa0\x16@'
p1145
tp1146
Rp1147
sg19
I0
sg20
g21
(S'\x07\xdd\t\x1d\x13\x12\x12\x01\xa1\xdf'
p1148
tp1149
Rp1150
sg25
I0
sg26
g27
(g28
(I0
tp1151
g30
tp1152
Rp1153
(I1
(I2
tp1154
g36
I00
S'\x1b\x00\x00\x00m\x00\x00\x00'
p1155
tp1156
bsba(i__main__
FrameData
p1157
(dp1158
g6
g1018
sg8
g9
(g13
S'\x00\x00\x00\x00\x00\x00\x14@'
p1159
tp1160
Rp1161
sg19
I0
sg20
g21
(S'\x07\xdd\t\x1d\x13\x12\x12\x01\xf5\xdc'
p1162
tp1163
Rp1164
sg25
I0
sg26
g27
(g28
(I0
tp1165
g30
tp1166
Rp1167
(I1
(I2
tp1168
g36
I00
S'\x1a\x00\x00\x00m\x00\x00\x00'
p1169
tp1170
bsba(i__main__
FrameData
p1171
(dp1172
g6
g1018
sg8
g9
(g13
S'\xa8\xf4\x97\x9bw\xe3\x11@'
p1173
tp1174
Rp1175
sg19
I0
sg20
g21
(S'\x07\xdd\t\x1d\x13\x12\x12\x02\x1a\xf5'
p1176
tp1177
Rp1178
sg25
I0
sg26
g27
(g28
(I0
tp1179
g30
tp1180
Rp1181
(I1
(I2
tp1182
g36
I00
S'\x19\x00\x00\x00m\x00\x00\x00'
p1183
tp1184
bsba(i__main__
FrameData
p1185
(dp1186
g6
g1018
sg8
g9
(g13
S'\xcd;\x7ff\x9e\xa0\x06@'
p1187
tp1188
Rp1189
sg19
I0
sg20
g21
(S'\x07\xdd\t\x1d\x13\x12\x12\x02[\xf7'
p1190
tp1191
Rp1192
sg25
I0
sg26
g27
(g28
(I0
tp1193
g30
tp1194
Rp1195
(I1
(I2
tp1196
g36
I00
S'\x19\x00\x00\x00o\x00\x00\x00'
p1197
tp1198
bsba(i__main__
FrameData
p1199
(dp1200
g6
g1018
sg8
g9
(g13
S'\xa8\xf4\x97\x9bw\xe3\x01@'
p1201
tp1202
Rp1203
sg19
I0
sg20
g21
(S'\x07\xdd\t\x1d\x13\x12\x12\x02\x9f\x87'
p1204
tp1205
Rp1206
sg25
I0
sg26
g27
(g28
(I0
tp1207
g30
tp1208
Rp1209
(I1
(I2
tp1210
g36
I00
S'\x18\x00\x00\x00o\x00\x00\x00'
p1211
tp1212
bsba(i__main__
FrameData
p1213
(dp1214
g6
g1018
sg8
g9
(g13
S'\xcd;\x7ff\x9e\xa0\xf6?'
p1215
tp1216
Rp1217
sg19
I0
sg20
g21
(S'\x07\xdd\t\x1d\x13\x12\x12\x02\xd8<'
p1218
tp1219
Rp1220
sg25
I0
sg26
g27
(g28
(I0
tp1221
g30
tp1222
Rp1223
(I1
(I2
tp1224
g36
I00
S'\x18\x00\x00\x00p\x00\x00\x00'
p1225
tp1226
bsba(i__main__
FrameData
p1227
(dp1228
g6
g1018
sg8
g9
(g13
S'\x00\x00\x00\x00\x00\x00\xf0?'
p1229
tp1230
Rp1231
sg19
I0
sg20
g21
(S'\x07\xdd\t\x1d\x13\x12\x12\x03\x1d\xfb'
p1232
tp1233
Rp1234
sg25
I0
sg26
g27
(g28
(I0
tp1235
g30
tp1236
Rp1237
(I1
(I2
tp1238
g36
I00
S'\x17\x00\x00\x00p\x00\x00\x00'
p1239
tp1240
bsba(i__main__
FrameData
p1241
(dp1242
g6
g1018
sg8
g9
(g13
S'\xcd;\x7ff\x9e\xa0\xf6?'
p1243
tp1244
Rp1245
sg19
I0
sg20
g21
(S'\x07\xdd\t\x1d\x13\x12\x12\x03\x9as'
p1246
tp1247
Rp1248
sg25
I0
sg26
g27
(g28
(I0
tp1249
g30
tp1250
Rp1251
(I1
(I2
tp1252
g36
I00
S'\x16\x00\x00\x00p\x00\x00\x00'
p1253
tp1254
bsba(i__main__
FrameData
p1255
(dp1256
g6
g1018
sg8
g9
(g13
S'\x00\x00\x00\x00\x00\x00\xf0?'
p1257
tp1258
Rp1259
sg19
I0
sg20
g21
(S'\x07\xdd\t\x1d\x13\x12\x12\x08\x83\x81'
p1260
tp1261
Rp1262
sg25
I0
sg26
g27
(g28
(I0
tp1263
g30
tp1264
Rp1265
(I1
(I2
tp1266
g36
I00
S'\x17\x00\x00\x00p\x00\x00\x00'
p1267
tp1268
bsba(i__main__
FrameData
p1269
(dp1270
g6
g1018
sg8
g9
(g13
S'\xcd;\x7ff\x9e\xa0\xf6?'
p1271
tp1272
Rp1273
sg19
I0
sg20
g21
(S'\x07\xdd\t\x1d\x13\x12\x12\x08\xc1\xe2'
p1274
tp1275
Rp1276
sg25
I0
sg26
g27
(g28
(I0
tp1277
g30
tp1278
Rp1279
(I1
(I2
tp1280
g36
I00
S'\x18\x00\x00\x00p\x00\x00\x00'
p1281
tp1282
bsba(i__main__
FrameData
p1283
(dp1284
g6
g1018
sg8
g9
(g13
S'\xa8\xf4\x97\x9bw\xe3\x01@'
p1285
tp1286
Rp1287
sg19
I0
sg20
g21
(S'\x07\xdd\t\x1d\x13\x12\x12\t>\xcd'
p1288
tp1289
Rp1290
sg25
I0
sg26
g27
(g28
(I0
tp1291
g30
tp1292
Rp1293
(I1
(I2
tp1294
g36
I00
S'\x19\x00\x00\x00p\x00\x00\x00'
p1295
tp1296
bsba(i__main__
FrameData
p1297
(dp1298
g6
g1018
sg8
g9
(g13
S'S[\xda:XL\t@'
p1299
tp1300
Rp1301
sg19
I0
sg20
g21
(S'\x07\xdd\t\x1d\x13\x12\x12\t~\x83'
p1302
tp1303
Rp1304
sg25
I0
sg26
g27
(g28
(I0
tp1305
g30
tp1306
Rp1307
(I1
(I2
tp1308
g36
I00
S'\x1a\x00\x00\x00p\x00\x00\x00'
p1309
tp1310
bsba(i__main__
FrameData
p1311
(dp1312
g6
g1018
sg8
g9
(g13
S'\x07\xed\xaff\x0f~\x10@'
p1313
tp1314
Rp1315
sg19
I0
sg20
g21
(S'\x07\xdd\t\x1d\x13\x12\x12\t\xfa\x06'
p1316
tp1317
Rp1318
sg25
I0
sg26
g27
(g28
(I0
tp1319
g30
tp1320
Rp1321
(I1
(I2
tp1322
g36
I00
S'\x1b\x00\x00\x00p\x00\x00\x00'
p1323
tp1324
bsba(i__main__
FrameData
p1325
(dp1326
g6
g1018
sg8
g9
(g13
S'\xf6/\x12_ee\x14@'
p1327
tp1328
Rp1329
sg19
I0
sg20
g21
(S'\x07\xdd\t\x1d\x13\x12\x12\nJL'
p1330
tp1331
Rp1332
sg25
I0
sg26
g27
(g28
(I0
tp1333
g30
tp1334
Rp1335
(I1
(I2
tp1336
g36
I00
S'\x1c\x00\x00\x00p\x00\x00\x00'
p1337
tp1338
bsba(i__main__
FrameData
p1339
(dp1340
g6
g1018
sg8
g9
(g13
S'9\xdcc\xb3\xbfT\x18@'
p1341
tp1342
Rp1343
sg19
I0
sg20
g21
(S'\x07\xdd\t\x1d\x13\x12\x12\n\x81 '
p1344
tp1345
Rp1346
sg25
I0
sg26
g27
(g28
(I0
tp1347
g30
tp1348
Rp1349
(I1
(I2
tp1350
g36
I00
S'\x1d\x00\x00\x00p\x00\x00\x00'
p1351
tp1352
bsba(i__main__
FrameData
p1353
(dp1354
g6
g1018
sg8
g9
(g13
S'\xc0\n\x1f\x00\xc6H\x1c@'
p1355
tp1356
Rp1357
sg19
I0
sg20
g21
(S'\x07\xdd\t\x1d\x13\x12\x12\x0bS\x12'
p1358
tp1359
Rp1360
sg25
I0
sg26
g27
(g28
(I0
tp1361
g30
tp1362
Rp1363
(I1
(I2
tp1364
g36
I00
S'\x1e\x00\x00\x00p\x00\x00\x00'
p1365
tp1366
bsba(i__main__
FrameData
p1367
(dp1368
g6
g1018
sg8
g9
(g13
S'\xe9\xfbv \xd5\x1e\x1d@'
p1369
tp1370
Rp1371
sg19
I0
sg20
g21
(S'\x07\xdd\t\x1d\x13\x12\x12\x0eO\x08'
p1372
tp1373
Rp1374
sg25
I0
sg26
g27
(g28
(I0
tp1375
g30
tp1376
Rp1377
(I1
(I2
tp1378
g36
I00
S'\x1e\x00\x00\x00o\x00\x00\x00'
p1379
tp1380
bsba(i__main__
FrameData
p1381
(dp1382
g6
g1018
sg8
g9
(g13
S'\x07\xed\xaff\x0f~ @'
p1383
tp1384
Rp1385
sg19
I0
sg20
g21
(S'\x07\xdd\t\x1d\x13\x12\x12\x0e\xd1\xe6'
p1386
tp1387
Rp1388
sg25
I0
sg26
g27
(g28
(I0
tp1389
g30
tp1390
Rp1391
(I1
(I2
tp1392
g36
I00
S'\x1f\x00\x00\x00o\x00\x00\x00'
p1393
tp1394
bsba(i__main__
FrameData
p1395
(dp1396
g6
g1018
sg8
g9
(g13
S'\xf6/\x12_ee$@'
p1397
tp1398
Rp1399
sg19
I0
sg20
g21
(S'\x07\xdd\t\x1d\x13\x12\x12\x0f\x1a\xf2'
p1400
tp1401
Rp1402
sg25
I0
sg26
g27
(g28
(I0
tp1403
g30
tp1404
Rp1405
(I1
(I2
tp1406
g36
I00
S'!\x00\x00\x00o\x00\x00\x00'
p1407
tp1408
bsba(i__main__
FrameData
p1409
(dp1410
g6
g1018
sg8
g9
(g13
S'9\xdcc\xb3\xbfT(@'
p1411
tp1412
Rp1413
sg19
I0
sg20
g21
(S'\x07\xdd\t\x1d\x13\x12\x13\x00\x16\xfa'
p1414
tp1415
Rp1416
sg25
I0
sg26
g27
(g28
(I0
tp1417
g30
tp1418
Rp1419
(I1
(I2
tp1420
g36
I00
S'#\x00\x00\x00o\x00\x00\x00'
p1421
tp1422
bsba(i__main__
FrameData
p1423
(dp1424
g6
g849
sg8
g9
(g13
S'\xeb\x12\xb2\xbb\xb2\xcd&@'
p1425
tp1426
Rp1427
sg19
I0
sg20
g21
(S'\x07\xdd\t\x1d\x13\x12\x13\x00V\xa3'
p1428
tp1429
Rp1430
sg25
I0
sg26
g27
(g28
(I0
tp1431
g30
tp1432
Rp1433
(I1
(I2
tp1434
g36
I00
S'&\x00\x00\x00n\x00\x00\x00'
p1435
tp1436
bsba(i__main__
FrameData
p1437
(dp1438
g6
g849
sg8
g9
(g13
S'\xd0\xbaa?\xe0\x1f @'
p1439
tp1440
Rp1441
sg19
I0
sg20
g21
(S'\x07\xdd\t\x1d\x13\x12\x13\x00\x941'
p1442
tp1443
Rp1444
sg25
I0
sg26
g27
(g28
(I0
tp1445
g30
tp1446
Rp1447
(I1
(I2
tp1448
g36
I00
S'*\x00\x00\x00m\x00\x00\x00'
p1449
tp1450
bsba(i__main__
FrameData
p1451
(dp1452
g6
g849
sg8
g9
(g13
S'\x00\x00\x00\x00\x00\x00\x14@'
p1453
tp1454
Rp1455
sg19
I0
sg20
g21
(S'\x07\xdd\t\x1d\x13\x12\x13\x00\xd7#'
p1456
tp1457
Rp1458
sg25
I0
sg26
g27
(g28
(I0
tp1459
g30
tp1460
Rp1461
(I1
(I2
tp1462
g36
I00
S'1\x00\x00\x00l\x00\x00\x00'
p1463
tp1464
bsba(i__main__
FrameData
p1465
(dp1466
g6
g849
sg8
g9
(g13
S'\xf3\xd9\xa8\xa4h\x8a\x15@'
p1467
tp1468
Rp1469
sg19
I0
sg20
g21
(S'\x07\xdd\t\x1d\x13\x12\x13\x01&\x9c'
p1470
tp1471
Rp1472
sg25
I0
sg26
g27
(g28
(I0
tp1473
g30
tp1474
Rp1475
(I1
(I2
tp1476
g36
I00
S'3\x00\x00\x00l\x00\x00\x00'
p1477
tp1478
bsba(i__main__
FrameData
p1479
(dp1480
g6
g849
sg8
g9
(g13
S'\xd9l\xdf\xccv\xf8 @'
p1481
tp1482
Rp1483
sg19
I0
sg20
g21
(S'\x07\xdd\t\x1d\x13\x12\x13\x01W\xc8'
p1484
tp1485
Rp1486
sg25
I0
sg26
g27
(g28
(I0
tp1487
g30
tp1488
Rp1489
(I1
(I2
tp1490
g36
I00
S'7\x00\x00\x00k\x00\x00\x00'
p1491
tp1492
bsba(i__main__
FrameData
p1493
(dp1494
g6
g849
sg8
g9
(g13
S'w\x03Is \xa2%@'
p1495
tp1496
Rp1497
sg19
I0
sg20
g21
(S'\x07\xdd\t\x1d\x13\x12\x13\x01\xa6\x86'
p1498
tp1499
Rp1500
sg25
I0
sg26
g27
(g28
(I0
tp1501
g30
tp1502
Rp1503
(I1
(I2
tp1504
g36
I00
S':\x00\x00\x00k\x00\x00\x00'
p1505
tp1506
bsba(i__main__
FrameData
p1507
(dp1508
g6
g849
sg8
g9
(g13
S'\xfc\xeeci3\xd5*@'
p1509
tp1510
Rp1511
sg19
I0
sg20
g21
(S'\x07\xdd\t\x1d\x13\x12\x13\x01\xf3\xd2'
p1512
tp1513
Rp1514
sg25
I0
sg26
g27
(g28
(I0
tp1515
g30
tp1516
Rp1517
(I1
(I2
tp1518
g36
I00
S'=\x00\x00\x00k\x00\x00\x00'
p1519
tp1520
bsba(i__main__
FrameData
p1521
(dp1522
g6
g413
sg8
g9
(g13
S'6\xd0\xd2x\xa2B%@'
p1523
tp1524
Rp1525
sg19
I0
sg20
g21
(S'\x07\xdd\t\x1d\x13\x12\x13\x02\x1c\xb4'
p1526
tp1527
Rp1528
sg25
I0
sg26
g27
(g28
(I0
tp1529
g30
tp1530
Rp1531
(I1
(I2
tp1532
g36
I00
S'A\x00\x00\x00j\x00\x00\x00'
p1533
tp1534
bsba(i__main__
FrameData
p1535
(dp1536
g6
g413
sg8
g9
(g13
S'\xd0\xbaa?\xe0\x1f @'
p1537
tp1538
Rp1539
sg19
I0
sg20
g21
(S'\x07\xdd\t\x1d\x13\x12\x13\x02j8'
p1540
tp1541
Rp1542
sg25
I0
sg26
g27
(g28
(I0
tp1543
g30
tp1544
Rp1545
(I1
(I2
tp1546
g36
I00
S'E\x00\x00\x00j\x00\x00\x00'
p1547
tp1548
bsba(i__main__
FrameData
p1549
(dp1550
g6
g413
sg8
g9
(g13
S'\x00\x00\x00\x00\x00\x00 @'
p1551
tp1552
Rp1553
sg19
I0
sg20
g21
(S'\x07\xdd\t\x1d\x13\x12\x13\x02\xb8U'
p1554
tp1555
Rp1556
sg25
I0
sg26
g27
(g28
(I0
tp1557
g30
tp1558
Rp1559
(I1
(I2
tp1560
g36
I00
S'I\x00\x00\x00i\x00\x00\x00'
p1561
tp1562
bsba(i__main__
FrameData
p1563
(dp1564
g6
g413
sg8
g9
(g13
S'\x07\xed\xaff\x0f~ @'
p1565
tp1566
Rp1567
sg19
I0
sg20
g21
(S'\x07\xdd\t\x1d\x13\x12\x13\x02\xde\xc9'
p1568
tp1569
Rp1570
sg25
I0
sg26
g27
(g28
(I0
tp1571
g30
tp1572
Rp1573
(I1
(I2
tp1574
g36
I00
S'K\x00\x00\x00i\x00\x00\x00'
p1575
tp1576
bsba(i__main__
FrameData
p1577
(dp1578
g6
g413
sg8
g9
(g13
S'\x88\x80v\xd5\\\x97$@'
p1579
tp1580
Rp1581
sg19
I0
sg20
g21
(S'\x07\xdd\t\x1d\x13\x12\x13\x03.!'
p1582
tp1583
Rp1584
sg25
I0
sg26
g27
(g28
(I0
tp1585
g30
tp1586
Rp1587
(I1
(I2
tp1588
g36
I00
S'N\x00\x00\x00h\x00\x00\x00'
p1589
tp1590
bsba(i__main__
FrameData
p1591
(dp1592
g6
g413
sg8
g9
(g13
S'\xeb\x12\xb2\xbb\xb2\xcd&@'
p1593
tp1594
Rp1595
sg19
I0
sg20
g21
(S'\x07\xdd\t\x1d\x13\x12\x13\x03|>'
p1596
tp1597
Rp1598
sg25
I0
sg26
g27
(g28
(I0
tp1599
g30
tp1600
Rp1601
(I1
(I2
tp1602
g36
I00
S'P\x00\x00\x00h\x00\x00\x00'
p1603
tp1604
bsba(i__main__
FrameData
p1605
(dp1606
g6
g356
sg8
g9
(g13
S'9\xf2\xee\xcc\xd9\x1c/@'
p1607
tp1608
Rp1609
sg19
I0
sg20
g21
(S'\x07\xdd\t\x1d\x13\x12\x13\x03\xa7\xa8'
p1610
tp1611
Rp1612
sg25
I0
sg26
g27
(g28
(I0
tp1613
g30
tp1614
Rp1615
(I1
(I2
tp1616
g36
I00
S'U\x00\x00\x00g\x00\x00\x00'
p1617
tp1618
bsba(i__main__
FrameData
p1619
(dp1620
g6
g356
sg8
g9
(g13
S'Qf\x99\xcb\xa9\x13*@'
p1621
tp1622
Rp1623
sg19
I0
sg20
g21
(S'\x07\xdd\t\x1d\x13\x12\x13\x03\xef\xf6'
p1624
tp1625
Rp1626
sg25
I0
sg26
g27
(g28
(I0
tp1627
g30
tp1628
Rp1629
(I1
(I2
tp1630
g36
I00
S'Y\x00\x00\x00g\x00\x00\x00'
p1631
tp1632
bsba(i__main__
FrameData
p1633
(dp1634
g6
g356
sg8
g9
(g13
S'\xd2\xf1}\x82U\\&@'
p1635
tp1636
Rp1637
sg19
I0
sg20
g21
(S'\x07\xdd\t\x1d\x13\x12\x13\x04=\xa6'
p1638
tp1639
Rp1640
sg25
I0
sg26
g27
(g28
(I0
tp1641
g30
tp1642
Rp1643
(I1
(I2
tp1644
g36
I00
S'^\x00\x00\x00g\x00\x00\x00'
p1645
tp1646
bsba(i__main__
FrameData
p1647
(dp1648
g6
g356
sg8
g9
(g13
S'H\xaa*\x8f9\x17&@'
p1649
tp1650
Rp1651
sg19
I0
sg20
g21
(S'\x07\xdd\t\x1d\x13\x12\x13\x04p\xff'
p1652
tp1653
Rp1654
sg25
I0
sg26
g27
(g28
(I0
tp1655
g30
tp1656
Rp1657
(I1
(I2
tp1658
g36
I00
S'a\x00\x00\x00g\x00\x00\x00'
p1659
tp1660
bsba(i__main__
FrameData
p1661
(dp1662
g6
g356
sg8
g9
(g13
S'lNy\x00\x85*(@'
p1663
tp1664
Rp1665
sg19
I0
sg20
g21
(S'\x07\xdd\t\x1d\x13\x12\x13\x04\xb9u'
p1666
tp1667
Rp1668
sg25
I0
sg26
g27
(g28
(I0
tp1669
g30
tp1670
Rp1671
(I1
(I2
tp1672
g36
I00
S'e\x00\x00\x00g\x00\x00\x00'
p1673
tp1674
bsba(i__main__
FrameData
p1675
(dp1676
g6
g356
sg8
g9
(g13
S'Qf\x99\xcb\xa9\x13*@'
p1677
tp1678
Rp1679
sg19
I0
sg20
g21
(S'\x07\xdd\t\x1d\x13\x12\x13\x04\xf1\xd9'
p1680
tp1681
Rp1682
sg25
I0
sg26
g27
(g28
(I0
tp1683
g30
tp1684
Rp1685
(I1
(I2
tp1686
g36
I00
S'g\x00\x00\x00g\x00\x00\x00'
p1687
tp1688
bsba(i__main__
FrameData
p1689
(dp1690
g6
g356
sg8
g9
(g13
S'?*\x98"\xe3l,@'
p1691
tp1692
Rp1693
sg19
I0
sg20
g21
(S'\x07\xdd\t\x1d\x13\x12\x13\x05LF'
p1694
tp1695
Rp1696
sg25
I0
sg26
g27
(g28
(I0
tp1697
g30
tp1698
Rp1699
(I1
(I2
tp1700
g36
I00
S'i\x00\x00\x00g\x00\x00\x00'
p1701
tp1702
bsba(i__main__
FrameData
p1703
(dp1704
g6
g356
sg8
g9
(g13
S'\x10\xb3]\xc9`G0@'
p1705
tp1706
Rp1707
sg19
I0
sg20
g21
(S'\x07\xdd\t\x1d\x13\x12\x13\x05r`'
p1708
tp1709
Rp1710
sg25
I0
sg26
g27
(g28
(I0
tp1711
g30
tp1712
Rp1713
(I1
(I2
tp1714
g36
I00
S'l\x00\x00\x00g\x00\x00\x00'
p1715
tp1716
bsba(i__main__
FrameData
p1717
(dp1718
g6
g285
sg8
g9
(g13
S'9\xf2\xee\xcc\xd9\x1c/@'
p1719
tp1720
Rp1721
sg19
I0
sg20
g21
(S'\x07\xdd\t\x1d\x13\x12\x13\x05\xb2Z'
p1722
tp1723
Rp1724
sg25
I0
sg26
g27
(g28
(I0
tp1725
g30
tp1726
Rp1727
(I1
(I2
tp1728
g36
I00
S'm\x00\x00\x00g\x00\x00\x00'
p1729
tp1730
bsba(i__main__
FrameData
p1731
(dp1732
g6
g285
sg8
g9
(g13
S'?*\x98"\xe3l,@'
p1733
tp1734
Rp1735
sg19
I0
sg20
g21
(S'\x07\xdd\t\x1d\x13\x12\x13\x05\xf3\xb8'
p1736
tp1737
Rp1738
sg25
I0
sg26
g27
(g28
(I0
tp1739
g30
tp1740
Rp1741
(I1
(I2
tp1742
g36
I00
S'o\x00\x00\x00g\x00\x00\x00'
p1743
tp1744
bsba(i__main__
FrameData
p1745
(dp1746
g6
g285
sg8
g9
(g13
S'Qf\x99\xcb\xa9\x13*@'
p1747
tp1748
Rp1749
sg19
I0
sg20
g21
(S'\x07\xdd\t\x1d\x13\x12\x13\x065\x9f'
p1750
tp1751
Rp1752
sg25
I0
sg26
g27
(g28
(I0
tp1753
g30
tp1754
Rp1755
(I1
(I2
tp1756
g36
I00
S'q\x00\x00\x00g\x00\x00\x00'
p1757
tp1758
bsba(i__main__
FrameData
p1759
(dp1760
g6
g285
sg8
g9
(g13
S'\x00\x00\x00\x00\x00\x00*@'
p1761
tp1762
Rp1763
sg19
I0
sg20
g21
(S'\x07\xdd\t\x1d\x13\x12\x13\x06q\xcd'
p1764
tp1765
Rp1766
sg25
I0
sg26
g27
(g28
(I0
tp1767
g30
tp1768
Rp1769
(I1
(I2
tp1770
g36
I00
S's\x00\x00\x00f\x00\x00\x00'
p1771
tp1772
bsba(i__main__
FrameData
p1773
(dp1774
g6
g285
sg8
g9
(g13
S'\x8a\xe3\x07\x1a\x17\xbd(@'
p1775
tp1776
Rp1777
sg19
I0
sg20
g21
(S'\x07\xdd\t\x1d\x13\x12\x13\x06\xbe#'
p1778
tp1779
Rp1780
sg25
I0
sg26
g27
(g28
(I0
tp1781
g30
tp1782
Rp1783
(I1
(I2
tp1784
g36
I00
S'u\x00\x00\x00f\x00\x00\x00'
p1785
tp1786
bsba(i__main__
FrameData
p1787
(dp1788
g6
g285
sg8
g9
(g13
S'&5w\xe2K\x15(@'
p1789
tp1790
Rp1791
sg19
I0
sg20
g21
(S'\x07\xdd\t\x1d\x13\x12\x13\x07\x08\xd6'
p1792
tp1793
Rp1794
sg25
I0
sg26
g27
(g28
(I0
tp1795
g30
tp1796
Rp1797
(I1
(I2
tp1798
g36
I00
S'w\x00\x00\x00f\x00\x00\x00'
p1799
tp1800
bsba(i__main__
FrameData
p1801
(dp1802
g6
g285
sg8
g9
(g13
S'&5w\xe2K\x15(@'
p1803
tp1804
Rp1805
sg19
I0
sg20
g21
(S'\x07\xdd\t\x1d\x13\x12\x13\x074\xd4'
p1806
tp1807
Rp1808
sg25
I0
sg26
g27
(g28
(I0
tp1809
g30
tp1810
Rp1811
(I1
(I2
tp1812
g36
I00
S'y\x00\x00\x00f\x00\x00\x00'
p1813
tp1814
bsba(i__main__
FrameData
p1815
(dp1816
g6
g285
sg8
g9
(g13
S'\x8a\xe3\x07\x1a\x17\xbd(@'
p1817
tp1818
Rp1819
sg19
I0
sg20
g21
(S'\x07\xdd\t\x1d\x13\x12\x13\x07w\xc2'
p1820
tp1821
Rp1822
sg25
I0
sg26
g27
(g28
(I0
tp1823
g30
tp1824
Rp1825
(I1
(I2
tp1826
g36
I00
S'{\x00\x00\x00f\x00\x00\x00'
p1827
tp1828
bsba(i__main__
FrameData
p1829
(dp1830
g6
g285
sg8
g9
(g13
S'S[\xda:XL)@'
p1831
tp1832
Rp1833
sg19
I0
sg20
g21
(S'\x07\xdd\t\x1d\x13\x12\x13\x07\xd9\x8d'
p1834
tp1835
Rp1836
sg25
I0
sg26
g27
(g28
(I0
tp1837
g30
tp1838
Rp1839
(I1
(I2
tp1840
g36
I00
S'|\x00\x00\x00f\x00\x00\x00'
p1841
tp1842
bsba(i__main__
FrameData
p1843
(dp1844
g6
g285
sg8
g9
(g13
S'\x00\x00\x00\x00\x00\x00*@'
p1845
tp1846
Rp1847
sg19
I0
sg20
g21
(S'\x07\xdd\t\x1d\x13\x12\x13\x07\xfd\xcd'
p1848
tp1849
Rp1850
sg25
I0
sg26
g27
(g28
(I0
tp1851
g30
tp1852
Rp1853
(I1
(I2
tp1854
g36
I00
S'}\x00\x00\x00f\x00\x00\x00'
p1855
tp1856
bsba(i__main__
FrameData
p1857
(dp1858
g6
g285
sg8
g9
(g13
S'\xb9e(k\xee\xc8+@'
p1859
tp1860
Rp1861
sg19
I0
sg20
g21
(S'\x07\xdd\t\x1d\x13\x12\x13\x08E\x97'
p1862
tp1863
Rp1864
sg25
I0
sg26
g27
(g28
(I0
tp1865
g30
tp1866
Rp1867
(I1
(I2
tp1868
g36
I00
S'\x7f\x00\x00\x00f\x00\x00\x00'
p1869
tp1870
bsba(i__main__
FrameData
p1871
(dp1872
g6
g285
sg8
g9
(g13
S'\x00\x00\x00\x00\x00\x00.@'
p1873
tp1874
Rp1875
sg19
I0
sg20
g21
(S'\x07\xdd\t\x1d\x13\x12\x13\x08\x88\x02'
p1876
tp1877
Rp1878
sg25
I0
sg26
g27
(g28
(I0
tp1879
g30
tp1880
Rp1881
(I1
(I2
tp1882
g36
I00
S'\x81\x00\x00\x00f\x00\x00\x00'
p1883
tp1884
bsba(i__main__
FrameData
p1885
(dp1886
g6
g285
sg8
g9
(g13
S'htN\x17\xb2=/@'
p1887
tp1888
Rp1889
sg19
I0
sg20
g21
(S'\x07\xdd\t\x1d\x13\x12\x13\x08\xc3\x19'
p1890
tp1891
Rp1892
sg25
I0
sg26
g27
(g28
(I0
tp1893
g30
tp1894
Rp1895
(I1
(I2
tp1896
g36
I00
S'\x82\x00\x00\x00f\x00\x00\x00'
p1897
tp1898
bsba(i__main__
FrameData
p1899
(dp1900
g6
g285
sg8
g9
(g13
S'\xd9l\xdf\xccv\xf80@'
p1901
tp1902
Rp1903
sg19
I0
sg20
g21
(S'\x07\xdd\t\x1d\x13\x12\x13\t\x08\x16'
p1904
tp1905
Rp1906
sg25
I0
sg26
g27
(g28
(I0
tp1907
g30
tp1908
Rp1909
(I1
(I2
tp1910
g36
I00
S'\x84\x00\x00\x00f\x00\x00\x00'
p1911
tp1912
bsba(i__main__
FrameData
p1913
(dp1914
g6
g242
sg8
g9
(g13
S'\x10\xb3]\xc9`G0@'
p1915
tp1916
Rp1917
sg19
I0
sg20
g21
(S'\x07\xdd\t\x1d\x13\x12\x13\tM\xcc'
p1918
tp1919
Rp1920
sg25
I0
sg26
g27
(g28
(I0
tp1921
g30
tp1922
Rp1923
(I1
(I2
tp1924
g36
I00
S'\x85\x00\x00\x00f\x00\x00\x00'
p1925
tp1926
bsba(i__main__
FrameData
p1927
(dp1928
g6
g242
sg8
g9
(g13
S'Qf\x99\xcb\xa9\x13*@'
p1929
tp1930
Rp1931
sg19
I0
sg20
g21
(S'\x07\xdd\t\x1d\x13\x12\x13\t\x80\x97'
p1932
tp1933
Rp1934
sg25
I0
sg26
g27
(g28
(I0
tp1935
g30
tp1936
Rp1937
(I1
(I2
tp1938
g36
I00
S'\x89\x00\x00\x00g\x00\x00\x00'
p1939
tp1940
bsba(i__main__
FrameData
p1941
(dp1942
g6
g242
sg8
g9
(g13
S'\xe4\x10\xe4sW\x0f)@'
p1943
tp1944
Rp1945
sg19
I0
sg20
g21
(S'\x07\xdd\t\x1d\x13\x12\x13\t\xdb\xaa'
p1946
tp1947
Rp1948
sg25
I0
sg26
g27
(g28
(I0
tp1949
g30
tp1950
Rp1951
(I1
(I2
tp1952
g36
I00
S'\x8a\x00\x00\x00g\x00\x00\x00'
p1953
tp1954
bsba(i__main__
FrameData
p1955
(dp1956
g6
g242
sg8
g9
(g13
S'\xeb\x12\xb2\xbb\xb2\xcd&@'
p1957
tp1958
Rp1959
sg19
I0
sg20
g21
(S'\x07\xdd\t\x1d\x13\x12\x13\n\x02\xcc'
p1960
tp1961
Rp1962
sg25
I0
sg26
g27
(g28
(I0
tp1963
g30
tp1964
Rp1965
(I1
(I2
tp1966
g36
I00
S'\x8d\x00\x00\x00g\x00\x00\x00'
p1967
tp1968
bsba(i__main__
FrameData
p1969
(dp1970
g6
g242
sg8
g9
(g13
S'\xf0)#L\x89\x19$@'
p1971
tp1972
Rp1973
sg19
I0
sg20
g21
(S'\x07\xdd\t\x1d\x13\x12\x13\nP\x1f'
p1974
tp1975
Rp1976
sg25
I0
sg26
g27
(g28
(I0
tp1977
g30
tp1978
Rp1979
(I1
(I2
tp1980
g36
I00
S'\x8f\x00\x00\x00h\x00\x00\x00'
p1981
tp1982
bsba(i__main__
FrameData
p1983
(dp1984
g6
g242
sg8
g9
(g13
S'\xf0)#L\x89\x19$@'
p1985
tp1986
Rp1987
sg19
I0
sg20
g21
(S'\x07\xdd\t\x1d\x13\x12\x13\n\x89L'
p1988
tp1989
Rp1990
sg25
I0
sg26
g27
(g28
(I0
tp1991
g30
tp1992
Rp1993
(I1
(I2
tp1994
g36
I00
S'\x91\x00\x00\x00h\x00\x00\x00'
p1995
tp1996
bsba(i__main__
FrameData
p1997
(dp1998
g6
g242
sg8
g9
(g13
S'7\xf9\xcf\xdao\xe1$@'
p1999
tp2000
Rp2001
sg19
I0
sg20
g21
(S'\x07\xdd\t\x1d\x13\x12\x13\n\xc6\x9c'
p2002
tp2003
Rp2004
sg25
I0
sg26
g27
(g28
(I0
tp2005
g30
tp2006
Rp2007
(I1
(I2
tp2008
g36
I00
S'\x93\x00\x00\x00h\x00\x00\x00'
p2009
tp2010
bsba(i__main__
FrameData
p2011
(dp2012
g6
g242
sg8
g9
(g13
S'\xd2\xf1}\x82U\\&@'
p2013
tp2014
Rp2015
sg19
I0
sg20
g21
(S'\x07\xdd\t\x1d\x13\x12\x13\x0b\x13\xc7'
p2016
tp2017
Rp2018
sg25
I0
sg26
g27
(g28
(I0
tp2019
g30
tp2020
Rp2021
(I1
(I2
tp2022
g36
I00
S'\x95\x00\x00\x00h\x00\x00\x00'
p2023
tp2024
bsba(i__main__
FrameData
p2025
(dp2026
g6
g242
sg8
g9
(g13
S'w\x03Is \xa2%@'
p2027
tp2028
Rp2029
sg19
I0
sg20
g21
(S'\x07\xdd\t\x1d\x13\x12\x13\x0ba\x90'
p2030
tp2031
Rp2032
sg25
I0
sg26
g27
(g28
(I0
tp2033
g30
tp2034
Rp2035
(I1
(I2
tp2036
g36
I00
S'\x96\x00\x00\x00i\x00\x00\x00'
p2037
tp2038
bsba(i__main__
FrameData
p2039
(dp2040
g6
g242
sg8
g9
(g13
S'&5w\xe2K\x15(@'
p2041
tp2042
Rp2043
sg19
I0
sg20
g21
(S'\x07\xdd\t\x1d\x13\x12\x13\x0b\x88\xf5'
p2044
tp2045
Rp2046
sg25
I0
sg26
g27
(g28
(I0
tp2047
g30
tp2048
Rp2049
(I1
(I2
tp2050
g36
I00
S'\x98\x00\x00\x00i\x00\x00\x00'
p2051
tp2052
bsba(i__main__
FrameData
p2053
(dp2054
g6
g242
sg8
g9
(g13
S'F#O3\xb2t)@'
p2055
tp2056
Rp2057
sg19
I0
sg20
g21
(S'\x07\xdd\t\x1d\x13\x12\x13\x0b\xd7@'
p2058
tp2059
Rp2060
sg25
I0
sg26
g27
(g28
(I0
tp2061
g30
tp2062
Rp2063
(I1
(I2
tp2064
g36
I00
S'\x99\x00\x00\x00i\x00\x00\x00'
p2065
tp2066
bsba(i__main__
FrameData
p2067
(dp2068
g6
g242
sg8
g9
(g13
S'?*\x98"\xe3l,@'
p2069
tp2070
Rp2071
sg19
I0
sg20
g21
(S'\x07\xdd\t\x1d\x13\x12\x13\x0c%y'
p2072
tp2073
Rp2074
sg25
I0
sg26
g27
(g28
(I0
tp2075
g30
tp2076
Rp2077
(I1
(I2
tp2078
g36
I00
S'\x9b\x00\x00\x00i\x00\x00\x00'
p2079
tp2080
bsba(i__main__
FrameData
p2081
(dp2082
g6
g115
sg8
g9
(g13
S'?*\x98"\xe3l,@'
p2083
tp2084
Rp2085
sg19
I0
sg20
g21
(S'\x07\xdd\t\x1d\x13\x12\x13\x0csJ'
p2086
tp2087
Rp2088
sg25
I0
sg26
g27
(g28
(I0
tp2089
g30
tp2090
Rp2091
(I1
(I2
tp2092
g36
I00
S'\x9c\x00\x00\x00i\x00\x00\x00'
p2093
tp2094
bsba(i__main__
FrameData
p2095
(dp2096
g6
g115
sg8
g9
(g13
S'F#O3\xb2t)@'
p2097
tp2098
Rp2099
sg19
I0
sg20
g21
(S'\x07\xdd\t\x1d\x13\x12\x13\x0c\x99\x12'
p2100
tp2101
Rp2102
sg25
I0
sg26
g27
(g28
(I0
tp2103
g30
tp2104
Rp2105
(I1
(I2
tp2106
g36
I00
S'\x9e\x00\x00\x00i\x00\x00\x00'
p2107
tp2108
bsba(i__main__
FrameData
p2109
(dp2110
g6
g115
sg8
g9
(g13
S'6\xd0\xd2x\xa2B%@'
p2111
tp2112
Rp2113
sg19
I0
sg20
g21
(S'\x07\xdd\t\x1d\x13\x12\x13\x0c\xe8l'
p2114
tp2115
Rp2116
sg25
I0
sg26
g27
(g28
(I0
tp2117
g30
tp2118
Rp2119
(I1
(I2
tp2120
g36
I00
S'\xa0\x00\x00\x00j\x00\x00\x00'
p2121
tp2122
bsba(i__main__
FrameData
p2123
(dp2124
g6
g115
sg8
g9
(g13
S'\x00\x00\x00\x00\x00\x00$@'
p2125
tp2126
Rp2127
sg19
I0
sg20
g21
(S'\x07\xdd\t\x1d\x13\x12\x13\r\x13\xfc'
p2128
tp2129
Rp2130
sg25
I0
sg26
g27
(g28
(I0
tp2131
g30
tp2132
Rp2133
(I1
(I2
tp2134
g36
I00
S'\xa1\x00\x00\x00j\x00\x00\x00'
p2135
tp2136
bsba(i__main__
FrameData
p2137
(dp2138
g6
g115
sg8
g9
(g13
S'\xa8\xf4\x97\x9bw\xe3!@'
p2139
tp2140
Rp2141
sg19
I0
sg20
g21
(S'\x07\xdd\t\x1d\x13\x12\x13\rRh'
p2142
tp2143
Rp2144
sg25
I0
sg26
g27
(g28
(I0
tp2145
g30
tp2146
Rp2147
(I1
(I2
tp2148
g36
I00
S'\xa3\x00\x00\x00j\x00\x00\x00'
p2149
tp2150
bsba(i__main__
FrameData
p2151
(dp2152
g6
g115
sg8
g9
(g13
S'\xa3\x14\xae\xa8\x87\x16!@'
p2153
tp2154
Rp2155
sg19
I0
sg20
g21
(S'\x07\xdd\t\x1d\x13\x12\x13\r\x95\x86'
p2156
tp2157
Rp2158
sg25
I0
sg26
g27
(g28
(I0
tp2159
g30
tp2160
Rp2161
(I1
(I2
tp2162
g36
I00
S'\xa4\x00\x00\x00j\x00\x00\x00'
p2163
tp2164
bsba(i__main__
FrameData
p2165
(dp2166
g6
g115
sg8
g9
(g13
S'\xd0\xbaa?\xe0\x1f @'
p2167
tp2168
Rp2169
sg19
I0
sg20
g21
(S'\x07\xdd\t\x1d\x13\x12\x13\r\xd8w'
p2170
tp2171
Rp2172
sg25
I0
sg26
g27
(g28
(I0
tp2173
g30
tp2174
Rp2175
(I1
(I2
tp2176
g36
I00
S'\xa6\x00\x00\x00j\x00\x00\x00'
p2177
tp2178
bsba(i__main__
FrameData
p2179
(dp2180
g6
g115
sg8
g9
(g13
S'\xc0\n\x1f\x00\xc6H\x1c@'
p2181
tp2182
Rp2183
sg19
I0
sg20
g21
(S'\x07\xdd\t\x1d\x13\x12\x13\x0e"\xaa'
p2184
tp2185
Rp2186
sg25
I0
sg26
g27
(g28
(I0
tp2187
g30
tp2188
Rp2189
(I1
(I2
tp2190
g36
I00
S'\xa8\x00\x00\x00k\x00\x00\x00'
p2191
tp2192
bsba(i__main__
FrameData
p2193
(dp2194
g6
g115
sg8
g9
(g13
S'p\xc4\x9d9\x8dv\x1e@'
p2195
tp2196
Rp2197
sg19
I0
sg20
g21
(S'\x07\xdd\t\x1d\x13\x12\x13\x0eh"'
p2198
tp2199
Rp2200
sg25
I0
sg26
g27
(g28
(I0
tp2201
g30
tp2202
Rp2203
(I1
(I2
tp2204
g36
I00
S'\xaa\x00\x00\x00k\x00\x00\x00'
p2205
tp2206
bsba(i__main__
FrameData
p2207
(dp2208
g6
g115
sg8
g9
(g13
S'htN\x17\xb2=\x1f@'
p2209
tp2210
Rp2211
sg19
I0
sg20
g21
(S'\x07\xdd\t\x1d\x13\x12\x13\x0e\xa6\xf9'
p2212
tp2213
Rp2214
sg25
I0
sg26
g27
(g28
(I0
tp2215
g30
tp2216
Rp2217
(I1
(I2
tp2218
g36
I00
S'\xac\x00\x00\x00l\x00\x00\x00'
p2219
tp2220
bsba(i__main__
FrameData
p2221
(dp2222
g6
g115
sg8
g9
(g13
S'\x9a.\x90!hp"@'
p2223
tp2224
Rp2225
sg19
I0
sg20
g21
(S'\x07\xdd\t\x1d\x13\x12\x13\x0e\xe42'
p2226
tp2227
Rp2228
sg25
I0
sg26
g27
(g28
(I0
tp2229
g30
tp2230
Rp2231
(I1
(I2
tp2232
g36
I00
S'\xae\x00\x00\x00l\x00\x00\x00'
p2233
tp2234
bsba(i__main__
FrameData
p2235
(dp2236
g6
g115
sg8
g9
(g13
S'w\x03Is \xa2%@'
p2237
tp2238
Rp2239
sg19
I0
sg20
g21
(S'\x07\xdd\t\x1d\x13\x12\x13\x0f"\x82'
p2240
tp2241
Rp2242
sg25
I0
sg26
g27
(g28
(I0
tp2243
g30
tp2244
Rp2245
(I1
(I2
tp2246
g36
I00
S'\xb0\x00\x00\x00l\x00\x00\x00'
p2247
tp2248
bsba(i__main__
FrameData
p2249
(dp2250
g6
g115
sg8
g9
(g13
S"\xa2\xa3\xb3\r\xe5R'@"
p2251
tp2252
Rp2253
sg19
I0
sg20
g21
(S'\x07\xdd\t\x1d\x13\x12\x14\x00\x1e\xd9'
p2254
tp2255
Rp2256
sg25
I0
sg26
g27
(g28
(I0
tp2257
g30
tp2258
Rp2259
(I1
(I2
tp2260
g36
I00
S'\xb1\x00\x00\x00l\x00\x00\x00'
p2261
tp2262
bsba(i__main__
FrameData
p2263
(dp2264
g6
g115
sg8
g9
(g13
S'\xe4\x10\xe4sW\x0f)@'
p2265
tp2266
Rp2267
sg19
I0
sg20
g21
(S'\x07\xdd\t\x1d\x13\x12\x14\x00qh'
p2268
tp2269
Rp2270
sg25
I0
sg26
g27
(g28
(I0
tp2271
g30
tp2272
Rp2273
(I1
(I2
tp2274
g36
I00
S'\xb2\x00\x00\x00l\x00\x00\x00'
p2275
tp2276
bsba(i__main__
FrameData
p2277
(dp2278
g6
g72
sg8
g9
(g13
S'\xe4\x10\xe4sW\x0f)@'
p2279
tp2280
Rp2281
sg19
I0
sg20
g21
(S'\x07\xdd\t\x1d\x13\x12\x14\x00\x9dA'
p2282
tp2283
Rp2284
sg25
I0
sg26
g27
(g28
(I0
tp2285
g30
tp2286
Rp2287
(I1
(I2
tp2288
g36
I00
S'\xb3\x00\x00\x00l\x00\x00\x00'
p2289
tp2290
bsba(i__main__
FrameData
p2291
(dp2292
g6
g72
sg8
g9
(g13
S"\xa2\xa3\xb3\r\xe5R'@"
p2293
tp2294
Rp2295
sg19
I0
sg20
g21
(S'\x07\xdd\t\x1d\x13\x12\x14\x00\xe5\x91'
p2296
tp2297
Rp2298
sg25
I0
sg26
g27
(g28
(I0
tp2299
g30
tp2300
Rp2301
(I1
(I2
tp2302
g36
I00
S'\xb4\x00\x00\x00l\x00\x00\x00'
p2303
tp2304
bsba(i__main__
FrameData
p2305
(dp2306
g6
g72
sg8
g9
(g13
S'\x00\x00\x00\x00\x00\x00$@'
p2307
tp2308
Rp2309
sg19
I0
sg20
g21
(S'\x07\xdd\t\x1d\x13\x12\x14\x01a\x90'
p2310
tp2311
Rp2312
sg25
I0
sg26
g27
(g28
(I0
tp2313
g30
tp2314
Rp2315
(I1
(I2
tp2316
g36
I00
S'\xb6\x00\x00\x00l\x00\x00\x00'
p2317
tp2318
bsba(i__main__
FrameData
p2319
(dp2320
g6
g72
sg8
g9
(g13
S'\x9a.\x90!hp"@'
p2321
tp2322
Rp2323
sg19
I0
sg20
g21
(S'\x07\xdd\t\x1d\x13\x12\x14\x01\xa3c'
p2324
tp2325
Rp2326
sg25
I0
sg26
g27
(g28
(I0
tp2327
g30
tp2328
Rp2329
(I1
(I2
tp2330
g36
I00
S'\xb7\x00\x00\x00l\x00\x00\x00'
p2331
tp2332
bsba(i__main__
FrameData
p2333
(dp2334
g6
g72
sg8
g9
(g13
S'\xd9l\xdf\xccv\xf8 @'
p2335
tp2336
Rp2337
sg19
I0
sg20
g21
(S'\x07\xdd\t\x1d\x13\x12\x14\x01\xe3\x1b'
p2338
tp2339
Rp2340
sg25
I0
sg26
g27
(g28
(I0
tp2341
g30
tp2342
Rp2343
(I1
(I2
tp2344
g36
I00
S'\xb8\x00\x00\x00l\x00\x00\x00'
p2345
tp2346
bsba(i__main__
FrameData
p2347
(dp2348
g6
g72
sg8
g9
(g13
S'htN\x17\xb2=\x1f@'
p2349
tp2350
Rp2351
sg19
I0
sg20
g21
(S'\x07\xdd\t\x1d\x13\x12\x14\x02$\x87'
p2352
tp2353
Rp2354
sg25
I0
sg26
g27
(g28
(I0
tp2355
g30
tp2356
Rp2357
(I1
(I2
tp2358
g36
I00
S'\xb9\x00\x00\x00l\x00\x00\x00'
p2359
tp2360
bsba(i__main__
FrameData
p2361
(dp2362
g6
g72
sg8
g9
(g13
S'\xf3YaD+\xd8\x1c@'
p2363
tp2364
Rp2365
sg19
I0
sg20
g21
(S'\x07\xdd\t\x1d\x13\x12\x14\x03\t%'
p2366
tp2367
Rp2368
sg25
I0
sg26
g27
(g28
(I0
tp2369
g30
tp2370
Rp2371
(I1
(I2
tp2372
g36
I00
S'\xba\x00\x00\x00l\x00\x00\x00'
p2373
tp2374
bsba(i__main__
FrameData
p2375
(dp2376
g6
g72
sg8
g9
(g13
S'\x00\xff\x9f\x99\xcc\x9c\x19@'
p2377
tp2378
Rp2379
sg19
I0
sg20
g21
(S'\x07\xdd\t\x1d\x13\x12\x14\x03k}'
p2380
tp2381
Rp2382
sg25
I0
sg26
g27
(g28
(I0
tp2383
g30
tp2384
Rp2385
(I1
(I2
tp2386
g36
I00
S'\xba\x00\x00\x00m\x00\x00\x00'
p2387
tp2388
bsba(i__main__
FrameData
p2389
(dp2390
g6
g72
sg8
g9
(g13
S'\xf3\xd9\xa8\xa4h\x8a\x15@'
p2391
tp2392
Rp2393
sg19
I0
sg20
g21
(S'\x07\xdd\t\x1d\x13\x12\x14\x03\xf3\xd7'
p2394
tp2395
Rp2396
sg25
I0
sg26
g27
(g28
(I0
tp2397
g30
tp2398
Rp2399
(I1
(I2
tp2400
g36
I00
S'\xbc\x00\x00\x00m\x00\x00\x00'
p2401
tp2402
bsba(i__main__
FrameData
p2403
(dp2404
g6
g72
sg8
g9
(g13
S'\xf6/\x12_ee\x14@'
p2405
tp2406
Rp2407
sg19
I0
sg20
g21
(S'\x07\xdd\t\x1d\x13\x12\x14\x04\x8f\xd1'
p2408
tp2409
Rp2410
sg25
I0
sg26
g27
(g28
(I0
tp2411
g30
tp2412
Rp2413
(I1
(I2
tp2414
g36
I00
S'\xbd\x00\x00\x00m\x00\x00\x00'
p2415
tp2416
bsba(i__main__
FrameData
p2417
(dp2418
g6
g72
sg8
g9
(g13
S'\x00\x00\x00\x00\x00\x00\x14@'
p2419
tp2420
Rp2421
sg19
I0
sg20
g21
(S'\x07\xdd\t\x1d\x13\x12\x14\x05\x10k'
p2422
tp2423
Rp2424
sg25
I0
sg26
g27
(g28
(I0
tp2425
g30
tp2426
Rp2427
(I1
(I2
tp2428
g36
I00
S'\xbe\x00\x00\x00m\x00\x00\x00'
p2429
tp2430
bsba(i__main__
FrameData
p2431
(dp2432
g6
g72
sg8
g9
(g13
S'\xf6/\x12_ee\x14@'
p2433
tp2434
Rp2435
sg19
I0
sg20
g21
(S'\x07\xdd\t\x1d\x13\x12\x14\x05\x86`'
p2436
tp2437
Rp2438
sg25
I0
sg26
g27
(g28
(I0
tp2439
g30
tp2440
Rp2441
(I1
(I2
tp2442
g36
I00
S'\xbf\x00\x00\x00m\x00\x00\x00'
p2443
tp2444
bsbasS'_fileName'
p2445
S'training/trajectory2013-09-29_19:18:09.904018'
p2446
sS'word'
p2447
S'peak'
p2448
sb.