(i__main__
SwypeTrajectory
p0
(dp1
S'_frameDataList'
p2
(lp3
(i__main__
FrameData
p4
(dp5
S'closestLetter'
p6
S'a'
p7
sS'letterDistance'
p8
cnumpy.core.multiarray
scalar
p9
(cnumpy
dtype
p10
(S'f8'
p11
I0
I1
tp12
Rp13
(I3
S'<'
p14
NNNI-1
I-1
I0
tp15
bS'\x00\x00\x00\x00\x00\x00\x14@'
p16
tp17
Rp18
sS'accel'
p19
I0
sS'time'
p20
cdatetime
datetime
p21
(S'\x07\xdd\t\x1d\x13\r%\t\xcb\x99'
p22
tp23
Rp24
sS'velocity'
p25
I0
sS'position'
p26
cnumpy.core.multiarray
_reconstruct
p27
(cnumpy
ndarray
p28
(I0
tp29
S'b'
p30
tp31
Rp32
(I1
(I2
tp33
g10
(S'i4'
p34
I0
I1
tp35
Rp36
(I3
S'<'
p37
NNNI-1
I-1
I0
tp38
bI00
S'\x14\x00\x00\x00u\x00\x00\x00'
p39
tp40
bsba(i__main__
FrameData
p41
(dp42
g6
g7
sg8
g9
(g13
S'\x07\xed\xaff\x0f~\x10@'
p43
tp44
Rp45
sg19
I0
sg20
g21
(S'\x07\xdd\t\x1d\x13\r%\n\x0e\xf0'
p46
tp47
Rp48
sg25
I0
sg26
g27
(g28
(I0
tp49
g30
tp50
Rp51
(I1
(I2
tp52
g36
I00
S'\x16\x00\x00\x00u\x00\x00\x00'
p53
tp54
bsba(i__main__
FrameData
p55
(dp56
g6
g7
sg8
g9
(g13
S'\xcd;\x7ff\x9e\xa0\x16@'
p57
tp58
Rp59
sg19
I0
sg20
g21
(S'\x07\xdd\t\x1d\x13\r%\nKl'
p60
tp61
Rp62
sg25
I0
sg26
g27
(g28
(I0
tp63
g30
tp64
Rp65
(I1
(I2
tp66
g36
I00
S'\x1b\x00\x00\x00u\x00\x00\x00'
p67
tp68
bsba(i__main__
FrameData
p69
(dp70
g6
g7
sg8
g9
(g13
S'bVc}\x9d\xb2#@'
p71
tp72
Rp73
sg19
I0
sg20
g21
(S'\x07\xdd\t\x1d\x13\r%\n\x8d\x99'
p74
tp75
Rp76
sg25
I0
sg26
g27
(g28
(I0
tp77
g30
tp78
Rp79
(I1
(I2
tp80
g36
I00
S' \x00\x00\x00u\x00\x00\x00'
p81
tp82
bsba(i__main__
FrameData
p83
(dp84
g6
S's'
p85
sg8
g9
(g13
S'S[\xda:XL)@'
p86
tp87
Rp88
sg19
I0
sg20
g21
(S'\x07\xdd\t\x1d\x13\r%\n\xcft'
p89
tp90
Rp91
sg25
I0
sg26
g27
(g28
(I0
tp92
g30
tp93
Rp94
(I1
(I2
tp95
g36
I00
S'%\x00\x00\x00u\x00\x00\x00'
p96
tp97
bsba(i__main__
FrameData
p98
(dp99
g6
g85
sg8
g9
(g13
S'S[\xda:XL\x19@'
p100
tp101
Rp102
sg19
I0
sg20
g21
(S'\x07\xdd\t\x1d\x13\r%\x0b\x0f\x00'
p103
tp104
Rp105
sg25
I0
sg26
g27
(g28
(I0
tp106
g30
tp107
Rp108
(I1
(I2
tp109
g36
I00
S'+\x00\x00\x00s\x00\x00\x00'
p110
tp111
bsba(i__main__
FrameData
p112
(dp113
g6
g85
sg8
g9
(g13
S'S[\xda:XL\t@'
p114
tp115
Rp116
sg19
I0
sg20
g21
(S'\x07\xdd\t\x1d\x13\r%\x0bO\xf2'
p117
tp118
Rp119
sg25
I0
sg26
g27
(g28
(I0
tp120
g30
tp121
Rp122
(I1
(I2
tp123
g36
I00
S'.\x00\x00\x00r\x00\x00\x00'
p124
tp125
bsba(i__main__
FrameData
p126
(dp127
g6
g85
sg8
g9
(g13
S'\x00\x00\x00\x00\x00\x00\xf0?'
p128
tp129
Rp130
sg19
I0
sg20
g21
(S'\x07\xdd\t\x1d\x13\r%\x0b\x92"'
p131
tp132
Rp133
sg25
I0
sg26
g27
(g28
(I0
tp134
g30
tp135
Rp136
(I1
(I2
tp137
g36
I00
S'0\x00\x00\x00q\x00\x00\x00'
p138
tp139
bsba(i__main__
FrameData
p140
(dp141
g6
g85
sg8
g9
(g13
S'\xa8\xf4\x97\x9bw\xe3\x01@'
p142
tp143
Rp144
sg19
I0
sg20
g21
(S'\x07\xdd\t\x1d\x13\r%\x0b\xd2\x88'
p145
tp146
Rp147
sg25
I0
sg26
g27
(g28
(I0
tp148
g30
tp149
Rp150
(I1
(I2
tp151
g36
I00
S'3\x00\x00\x00p\x00\x00\x00'
p152
tp153
bsba(i__main__
FrameData
p154
(dp155
g6
g85
sg8
g9
(g13
S'\xa8\xf4\x97\x9bw\xe3\x11@'
p156
tp157
Rp158
sg19
I0
sg20
g21
(S'\x07\xdd\t\x1d\x13\r%\x0c\x13\xb8'
p159
tp160
Rp161
sg25
I0
sg26
g27
(g28
(I0
tp162
g30
tp163
Rp164
(I1
(I2
tp165
g36
I00
S'5\x00\x00\x00o\x00\x00\x00'
p166
tp167
bsba(i__main__
FrameData
p168
(dp169
g6
g85
sg8
g9
(g13
S'\xf3YaD+\xd8\x1c@'
p170
tp171
Rp172
sg19
I0
sg20
g21
(S'\x07\xdd\t\x1d\x13\r%\x0cT6'
p173
tp174
Rp175
sg25
I0
sg26
g27
(g28
(I0
tp176
g30
tp177
Rp178
(I1
(I2
tp179
g36
I00
S'7\x00\x00\x00m\x00\x00\x00'
p180
tp181
bsba(i__main__
FrameData
p182
(dp183
g6
g85
sg8
g9
(g13
S'w\x03Is \xa2%@'
p184
tp185
Rp186
sg19
I0
sg20
g21
(S'\x07\xdd\t\x1d\x13\r%\x0c\x95h'
p187
tp188
Rp189
sg25
I0
sg26
g27
(g28
(I0
tp190
g30
tp191
Rp192
(I1
(I2
tp193
g36
I00
S':\x00\x00\x00k\x00\x00\x00'
p194
tp195
bsba(i__main__
FrameData
p196
(dp197
g6
g85
sg8
g9
(g13
S'F\xc3\\\xa8\xc1i(@'
p198
tp199
Rp200
sg19
I0
sg20
g21
(S'\x07\xdd\t\x1d\x13\r%\x0c\xd8}'
p201
tp202
Rp203
sg25
I0
sg26
g27
(g28
(I0
tp204
g30
tp205
Rp206
(I1
(I2
tp207
g36
I00
S';\x00\x00\x00j\x00\x00\x00'
p208
tp209
bsba(i__main__
FrameData
p210
(dp211
g6
S'd'
p212
sg8
g9
(g13
S'?*\x98"\xe3l,@'
p213
tp214
Rp215
sg19
I0
sg20
g21
(S'\x07\xdd\t\x1d\x13\r%\r\x1dJ'
p216
tp217
Rp218
sg25
I0
sg26
g27
(g28
(I0
tp219
g30
tp220
Rp221
(I1
(I2
tp222
g36
I00
S'>\x00\x00\x00h\x00\x00\x00'
p223
tp224
bsba(i__main__
FrameData
p225
(dp226
g6
g212
sg8
g9
(g13
S'?*\x98"\xe3l,@'
p227
tp228
Rp229
sg19
I0
sg20
g21
(S'\x07\xdd\t\x1d\x13\r%\r^\x9f'
p230
tp231
Rp232
sg25
I0
sg26
g27
(g28
(I0
tp233
g30
tp234
Rp235
(I1
(I2
tp236
g36
I00
S'@\x00\x00\x00f\x00\x00\x00'
p237
tp238
bsba(i__main__
FrameData
p239
(dp240
g6
g212
sg8
g9
(g13
S'Qf\x99\xcb\xa9\x13*@'
p241
tp242
Rp243
sg19
I0
sg20
g21
(S'\x07\xdd\t\x1d\x13\r%\r\x9f\xaa'
p244
tp245
Rp246
sg25
I0
sg26
g27
(g28
(I0
tp247
g30
tp248
Rp249
(I1
(I2
tp250
g36
I00
S'B\x00\x00\x00f\x00\x00\x00'
p251
tp252
bsba(i__main__
FrameData
p253
(dp254
g6
g212
sg8
g9
(g13
S'\xf7\x80Aq\xb9\xa2,@'
p255
tp256
Rp257
sg19
I0
sg20
g21
(S'\x07\xdd\t\x1d\x13\r%\r\xdf.'
p258
tp259
Rp260
sg25
I0
sg26
g27
(g28
(I0
tp261
g30
tp262
Rp263
(I1
(I2
tp264
g36
I00
S'C\x00\x00\x00d\x00\x00\x00'
p265
tp266
bsba(i__main__
FrameData
p267
(dp268
g6
g212
sg8
g9
(g13
S'/\xa4\xe3\\m\xbb-@'
p269
tp270
Rp271
sg19
I0
sg20
g21
(S'\x07\xdd\t\x1d\x13\r%\x0e!\xde'
p272
tp273
Rp274
sg25
I0
sg26
g27
(g28
(I0
tp275
g30
tp276
Rp277
(I1
(I2
tp278
g36
I00
S'D\x00\x00\x00c\x00\x00\x00'
p279
tp280
bsba(i__main__
FrameData
p281
(dp282
g6
g212
sg8
g9
(g13
S'\xb3\xa73\xa0`\x0c/@'
p283
tp284
Rp285
sg19
I0
sg20
g21
(S'\x07\xdd\t\x1d\x13\r%\x0ecD'
p286
tp287
Rp288
sg25
I0
sg26
g27
(g28
(I0
tp289
g30
tp290
Rp291
(I1
(I2
tp292
g36
I00
S'E\x00\x00\x00b\x00\x00\x00'
p293
tp294
bsba(i__main__
FrameData
p295
(dp296
g6
g212
sg8
g9
(g13
S'\x10\xb3]\xc9`G0@'
p297
tp298
Rp299
sg19
I0
sg20
g21
(S'\x07\xdd\t\x1d\x13\r%\x0e\xa1\xdc'
p300
tp301
Rp302
sg25
I0
sg26
g27
(g28
(I0
tp303
g30
tp304
Rp305
(I1
(I2
tp306
g36
I00
S'F\x00\x00\x00a\x00\x00\x00'
p307
tp308
bsba(i__main__
FrameData
p309
(dp310
g6
g212
sg8
g9
(g13
S'\xfb\xefg\xc4>C1@'
p311
tp312
Rp313
sg19
I0
sg20
g21
(S'\x07\xdd\t\x1d\x13\r%\x0e\xe5@'
p314
tp315
Rp316
sg25
I0
sg26
g27
(g28
(I0
tp317
g30
tp318
Rp319
(I1
(I2
tp320
g36
I00
S'F\x00\x00\x00`\x00\x00\x00'
p321
tp322
bsba(i__main__
FrameData
p323
(dp324
g6
g212
sg8
g9
(g13
S'$\xf8\xd9p[\x1c2@'
p325
tp326
Rp327
sg19
I0
sg20
g21
(S'\x07\xdd\t\x1d\x13\r%\x0f$6'
p328
tp329
Rp330
sg25
I0
sg26
g27
(g28
(I0
tp331
g30
tp332
Rp333
(I1
(I2
tp334
g36
I00
S'G\x00\x00\x00_\x00\x00\x00'
p335
tp336
bsba(i__main__
FrameData
p337
(dp338
g6
g212
sg8
g9
(g13
S'\x8fJ\x95`e\x064@'
p339
tp340
Rp341
sg19
I0
sg20
g21
(S'\x07\xdd\t\x1d\x13\r&\x00%+'
p342
tp343
Rp344
sg25
I0
sg26
g27
(g28
(I0
tp345
g30
tp346
Rp347
(I1
(I2
tp348
g36
I00
S'H\x00\x00\x00]\x00\x00\x00'
p349
tp350
bsba(i__main__
FrameData
p351
(dp352
g6
S'r'
p353
sg8
g9
(g13
S'\xbf\x8f+\t\x89[2@'
p354
tp355
Rp356
sg19
I0
sg20
g21
(S'\x07\xdd\t\x1d\x13\r&\x00fC'
p357
tp358
Rp359
sg25
I0
sg26
g27
(g28
(I0
tp360
g30
tp361
Rp362
(I1
(I2
tp363
g36
I00
S'I\x00\x00\x00[\x00\x00\x00'
p364
tp365
bsba(i__main__
FrameData
p366
(dp367
g6
g353
sg8
g9
(g13
S'\x00\x00\x00\x00\x00\x001@'
p368
tp369
Rp370
sg19
I0
sg20
g21
(S'\x07\xdd\t\x1d\x13\r&\x00\xa8\x8b'
p371
tp372
Rp373
sg25
I0
sg26
g27
(g28
(I0
tp374
g30
tp375
Rp376
(I1
(I2
tp377
g36
I00
S'J\x00\x00\x00Z\x00\x00\x00'
p378
tp379
bsba(i__main__
FrameData
p380
(dp381
g6
g353
sg8
g9
(g13
S'\xd0\xbaa?\xe0\x1f0@'
p382
tp383
Rp384
sg19
I0
sg20
g21
(S'\x07\xdd\t\x1d\x13\r&\x00\xe8r'
p385
tp386
Rp387
sg25
I0
sg26
g27
(g28
(I0
tp388
g30
tp389
Rp390
(I1
(I2
tp391
g36
I00
S'J\x00\x00\x00Y\x00\x00\x00'
p392
tp393
bsba(i__main__
FrameData
p394
(dp395
g6
g353
sg8
g9
(g13
S'\xef\rI\xf1\xf33+@'
p396
tp397
Rp398
sg19
I0
sg20
g21
(S'\x07\xdd\t\x1d\x13\r&\x01)\x97'
p399
tp400
Rp401
sg25
I0
sg26
g27
(g28
(I0
tp402
g30
tp403
Rp404
(I1
(I2
tp405
g36
I00
S'J\x00\x00\x00V\x00\x00\x00'
p406
tp407
bsba(i__main__
FrameData
p408
(dp409
g6
g353
sg8
g9
(g13
S'&5w\xe2K\x15(@'
p410
tp411
Rp412
sg19
I0
sg20
g21
(S'\x07\xdd\t\x1d\x13\r&\x01l,'
p413
tp414
Rp415
sg25
I0
sg26
g27
(g28
(I0
tp416
g30
tp417
Rp418
(I1
(I2
tp419
g36
I00
S'J\x00\x00\x00T\x00\x00\x00'
p420
tp421
bsba(i__main__
FrameData
p422
(dp423
g6
g353
sg8
g9
(g13
S'ST\xaf\x99\x8a\xcc#@'
p424
tp425
Rp426
sg19
I0
sg20
g21
(S'\x07\xdd\t\x1d\x13\r&\x01\xa8\xd0'
p427
tp428
Rp429
sg25
I0
sg26
g27
(g28
(I0
tp430
g30
tp431
Rp432
(I1
(I2
tp433
g36
I00
S'K\x00\x00\x00R\x00\x00\x00'
p434
tp435
bsba(i__main__
FrameData
p436
(dp437
g6
g353
sg8
g9
(g13
S'N\x017\xfac4!@'
p438
tp439
Rp440
sg19
I0
sg20
g21
(S'\x07\xdd\t\x1d\x13\r&\x01\xec\xdd'
p441
tp442
Rp443
sg25
I0
sg26
g27
(g28
(I0
tp444
g30
tp445
Rp446
(I1
(I2
tp447
g36
I00
S'K\x00\x00\x00P\x00\x00\x00'
p448
tp449
bsba(i__main__
FrameData
p450
(dp451
g6
g353
sg8
g9
(g13
S'\xd0\xbaa?\xe0\x1f @'
p452
tp453
Rp454
sg19
I0
sg20
g21
(S'\x07\xdd\t\x1d\x13\r&\x02.0'
p455
tp456
Rp457
sg25
I0
sg26
g27
(g28
(I0
tp458
g30
tp459
Rp460
(I1
(I2
tp461
g36
I00
S'K\x00\x00\x00O\x00\x00\x00'
p462
tp463
bsba(i__main__
FrameData
p464
(dp465
g6
g353
sg8
g9
(g13
S'p\xc4\x9d9\x8dv\x1e@'
p466
tp467
Rp468
sg19
I0
sg20
g21
(S'\x07\xdd\t\x1d\x13\r&\x02l\xd1'
p469
tp470
Rp471
sg25
I0
sg26
g27
(g28
(I0
tp472
g30
tp473
Rp474
(I1
(I2
tp475
g36
I00
S'K\x00\x00\x00N\x00\x00\x00'
p476
tp477
bsba(i__main__
FrameData
p478
(dp479
g6
g353
sg8
g9
(g13
S'\xc0\n\x1f\x00\xc6H\x1c@'
p480
tp481
Rp482
sg19
I0
sg20
g21
(S'\x07\xdd\t\x1d\x13\r&\x02\xb0#'
p483
tp484
Rp485
sg25
I0
sg26
g27
(g28
(I0
tp486
g30
tp487
Rp488
(I1
(I2
tp489
g36
I00
S'K\x00\x00\x00L\x00\x00\x00'
p490
tp491
bsba(i__main__
FrameData
p492
(dp493
g6
g353
sg8
g9
(g13
S'\x00\x00\x00\x00\x00\x00\x1c@'
p494
tp495
Rp496
sg19
I0
sg20
g21
(S'\x07\xdd\t\x1d\x13\r&\x02\xf1\x86'
p497
tp498
Rp499
sg25
I0
sg26
g27
(g28
(I0
tp500
g30
tp501
Rp502
(I1
(I2
tp503
g36
I00
S'K\x00\x00\x00K\x00\x00\x00'
p504
tp505
bsba(i__main__
FrameData
p506
(dp507
g6
g353
sg8
g9
(g13
S'\xc0\n\x1f\x00\xc6H\x1c@'
p508
tp509
Rp510
sg19
I0
sg20
g21
(S'\x07\xdd\t\x1d\x13\r&\x032U'
p511
tp512
Rp513
sg25
I0
sg26
g27
(g28
(I0
tp514
g30
tp515
Rp516
(I1
(I2
tp517
g36
I00
S'K\x00\x00\x00J\x00\x00\x00'
p518
tp519
bsba(i__main__
FrameData
p520
(dp521
g6
g353
sg8
g9
(g13
S'9\xdcc\xb3\xbfT\x18@'
p522
tp523
Rp524
sg19
I0
sg20
g21
(S'\x07\xdd\t\x1d\x13\r&\x03s\x92'
p525
tp526
Rp527
sg25
I0
sg26
g27
(g28
(I0
tp528
g30
tp529
Rp530
(I1
(I2
tp531
g36
I00
S'L\x00\x00\x00J\x00\x00\x00'
p532
tp533
bsba(i__main__
FrameData
p534
(dp535
g6
g353
sg8
g9
(g13
S'S[\xda:XL\x19@'
p536
tp537
Rp538
sg19
I0
sg20
g21
(S'\x07\xdd\t\x1d\x13\r&\x03\xb4\x9f'
p539
tp540
Rp541
sg25
I0
sg26
g27
(g28
(I0
tp542
g30
tp543
Rp544
(I1
(I2
tp545
g36
I00
S'L\x00\x00\x00I\x00\x00\x00'
p546
tp547
bsba(i__main__
FrameData
p548
(dp549
g6
g353
sg8
g9
(g13
S'\xa2\xa3\xb3\r\xe5R\x17@'
p550
tp551
Rp552
sg19
I0
sg20
g21
(S'\x07\xdd\t\x1d\x13\r&\x046\xbf'
p553
tp554
Rp555
sg25
I0
sg26
g27
(g28
(I0
tp556
g30
tp557
Rp558
(I1
(I2
tp559
g36
I00
S'M\x00\x00\x00H\x00\x00\x00'
p560
tp561
bsba(i__main__
FrameData
p562
(dp563
g6
g353
sg8
g9
(g13
S'\x00\xff\x9f\x99\xcc\x9c\x19@'
p564
tp565
Rp566
sg19
I0
sg20
g21
(S'\x07\xdd\t\x1d\x13\r&\x04\xfa\x1b'
p567
tp568
Rp569
sg25
I0
sg26
g27
(g28
(I0
tp570
g30
tp571
Rp572
(I1
(I2
tp573
g36
I00
S'M\x00\x00\x00G\x00\x00\x00'
p574
tp575
bsba(i__main__
FrameData
p576
(dp577
g6
g353
sg8
g9
(g13
S'\xcd;\x7ff\x9e\xa0\x16@'
p578
tp579
Rp580
sg19
I0
sg20
g21
(S'\x07\xdd\t\x1d\x13\r&\x05;5'
p581
tp582
Rp583
sg25
I0
sg26
g27
(g28
(I0
tp584
g30
tp585
Rp586
(I1
(I2
tp587
g36
I00
S'N\x00\x00\x00G\x00\x00\x00'
p588
tp589
bsba(i__main__
FrameData
p590
(dp591
g6
g353
sg8
g9
(g13
S'\x00\xff\x9f\x99\xcc\x9c\x19@'
p592
tp593
Rp594
sg19
I0
sg20
g21
(S'\x07\xdd\t\x1d\x13\r&\x05\xfe\xc8'
p595
tp596
Rp597
sg25
I0
sg26
g27
(g28
(I0
tp598
g30
tp599
Rp600
(I1
(I2
tp601
g36
I00
S'N\x00\x00\x00F\x00\x00\x00'
p602
tp603
bsba(i__main__
FrameData
p604
(dp605
g6
g353
sg8
g9
(g13
S'\xa2\xa3\xb3\r\xe5R\x17@'
p606
tp607
Rp608
sg19
I0
sg20
g21
(S'\x07\xdd\t\x1d\x13\r&\x06\x80\xe7'
p609
tp610
Rp611
sg25
I0
sg26
g27
(g28
(I0
tp612
g30
tp613
Rp614
(I1
(I2
tp615
g36
I00
S'O\x00\x00\x00F\x00\x00\x00'
p616
tp617
bsba(i__main__
FrameData
p618
(dp619
g6
g353
sg8
g9
(g13
S'\xf3\xd9\xa8\xa4h\x8a\x15@'
p620
tp621
Rp622
sg19
I0
sg20
g21
(S'\x07\xdd\t\x1d\x13\r&\x08\xcd\x9f'
p623
tp624
Rp625
sg25
I0
sg26
g27
(g28
(I0
tp626
g30
tp627
Rp628
(I1
(I2
tp629
g36
I00
S'P\x00\x00\x00F\x00\x00\x00'
p630
tp631
bsba(i__main__
FrameData
p632
(dp633
g6
g353
sg8
g9
(g13
S'\xa8\xf4\x97\x9bw\xe3\x11@'
p634
tp635
Rp636
sg19
I0
sg20
g21
(S'\x07\xdd\t\x1d\x13\r&\tS\x00'
p637
tp638
Rp639
sg25
I0
sg26
g27
(g28
(I0
tp640
g30
tp641
Rp642
(I1
(I2
tp643
g36
I00
S'P\x00\x00\x00G\x00\x00\x00'
p644
tp645
bsba(i__main__
FrameData
p646
(dp647
g6
g353
sg8
g9
(g13
S'\x07\xed\xaff\x0f~\x10@'
p648
tp649
Rp650
sg19
I0
sg20
g21
(S'\x07\xdd\t\x1d\x13\r&\t\x93\xdd'
p651
tp652
Rp653
sg25
I0
sg26
g27
(g28
(I0
tp654
g30
tp655
Rp656
(I1
(I2
tp657
g36
I00
S'Q\x00\x00\x00G\x00\x00\x00'
p658
tp659
bsba(i__main__
FrameData
p660
(dp661
g6
g353
sg8
g9
(g13
S'\x00\x00\x00\x00\x00\x00\x08@'
p662
tp663
Rp664
sg19
I0
sg20
g21
(S'\x07\xdd\t\x1d\x13\r&\n\x11\x95'
p665
tp666
Rp667
sg25
I0
sg26
g27
(g28
(I0
tp668
g30
tp669
Rp670
(I1
(I2
tp671
g36
I00
S'R\x00\x00\x00H\x00\x00\x00'
p672
tp673
bsba(i__main__
FrameData
p674
(dp675
g6
g353
sg8
g9
(g13
S'\xa8\xf4\x97\x9bw\xe3\x01@'
p676
tp677
Rp678
sg19
I0
sg20
g21
(S'\x07\xdd\t\x1d\x13\r&\n\x94\xed'
p679
tp680
Rp681
sg25
I0
sg26
g27
(g28
(I0
tp682
g30
tp683
Rp684
(I1
(I2
tp685
g36
I00
S'S\x00\x00\x00I\x00\x00\x00'
p686
tp687
bsba(i__main__
FrameData
p688
(dp689
g6
g353
sg8
g9
(g13
S'\xa8\xf4\x97\x9bw\xe3\x01@'
p690
tp691
Rp692
sg19
I0
sg20
g21
(S'\x07\xdd\t\x1d\x13\r&\n\xd9N'
p693
tp694
Rp695
sg25
I0
sg26
g27
(g28
(I0
tp696
g30
tp697
Rp698
(I1
(I2
tp699
g36
I00
S'T\x00\x00\x00J\x00\x00\x00'
p700
tp701
bsba(i__main__
FrameData
p702
(dp703
g6
g353
sg8
g9
(g13
S'\x00\x00\x00\x00\x00\x00\x00@'
p704
tp705
Rp706
sg19
I0
sg20
g21
(S'\x07\xdd\t\x1d\x13\r&\x0b\x1ar'
p707
tp708
Rp709
sg25
I0
sg26
g27
(g28
(I0
tp710
g30
tp711
Rp712
(I1
(I2
tp713
g36
I00
S'T\x00\x00\x00K\x00\x00\x00'
p714
tp715
bsba(i__main__
FrameData
p716
(dp717
g6
g353
sg8
g9
(g13
S'\x00\x00\x00\x00\x00\x00\x10@'
p718
tp719
Rp720
sg19
I0
sg20
g21
(S'\x07\xdd\t\x1d\x13\r&\x0bX,'
p721
tp722
Rp723
sg25
I0
sg26
g27
(g28
(I0
tp724
g30
tp725
Rp726
(I1
(I2
tp727
g36
I00
S'V\x00\x00\x00K\x00\x00\x00'
p728
tp729
bsba(i__main__
FrameData
p730
(dp731
g6
g353
sg8
g9
(g13
S'\xa2\xa3\xb3\r\xe5R\x17@'
p732
tp733
Rp734
sg19
I0
sg20
g21
(S'\x07\xdd\t\x1d\x13\r&\x0b\x9c\xb7'
p735
tp736
Rp737
sg25
I0
sg26
g27
(g28
(I0
tp738
g30
tp739
Rp740
(I1
(I2
tp741
g36
I00
S'W\x00\x00\x00N\x00\x00\x00'
p742
tp743
bsba(i__main__
FrameData
p744
(dp745
g6
g353
sg8
g9
(g13
S'\x9a.\x90!hp"@'
p746
tp747
Rp748
sg19
I0
sg20
g21
(S'\x07\xdd\t\x1d\x13\r&\x0b\xdd\xbf'
p749
tp750
Rp751
sg25
I0
sg26
g27
(g28
(I0
tp752
g30
tp753
Rp754
(I1
(I2
tp755
g36
I00
S'Y\x00\x00\x00Q\x00\x00\x00'
p756
tp757
bsba(i__main__
FrameData
p758
(dp759
g6
g353
sg8
g9
(g13
S'9\xf2\xee\xcc\xd9\x1c/@'
p760
tp761
Rp762
sg19
I0
sg20
g21
(S'\x07\xdd\t\x1d\x13\r&\x0c\x1b\xc3'
p763
tp764
Rp765
sg25
I0
sg26
g27
(g28
(I0
tp766
g30
tp767
Rp768
(I1
(I2
tp769
g36
I00
S']\x00\x00\x00V\x00\x00\x00'
p770
tp771
bsba(i__main__
FrameData
p772
(dp773
g6
S't'
p774
sg8
g9
(g13
S'=\xf3\n\x8f\xe6\x1f4@'
p775
tp776
Rp777
sg19
I0
sg20
g21
(S'\x07\xdd\t\x1d\x13\r&\x0c_\xed'
p778
tp779
Rp780
sg25
I0
sg26
g27
(g28
(I0
tp781
g30
tp782
Rp783
(I1
(I2
tp784
g36
I00
S'a\x00\x00\x00]\x00\x00\x00'
p785
tp786
bsba(i__main__
FrameData
p787
(dp788
g6
S'f'
p789
sg8
g9
(g13
S'\xc5Bl?W\x87.@'
p790
tp791
Rp792
sg19
I0
sg20
g21
(S'\x07\xdd\t\x1d\x13\r&\x0c\xa1!'
p793
tp794
Rp795
sg25
I0
sg26
g27
(g28
(I0
tp796
g30
tp797
Rp798
(I1
(I2
tp799
g36
I00
S'h\x00\x00\x00e\x00\x00\x00'
p800
tp801
bsba(i__main__
FrameData
p802
(dp803
g6
g789
sg8
g9
(g13
S'\x00\x00\x00\x00\x00\x00.@'
p804
tp805
Rp806
sg19
I0
sg20
g21
(S"\x07\xdd\t\x1d\x13\r&\x0c\xe2'"
p807
tp808
Rp809
sg25
I0
sg26
g27
(g28
(I0
tp810
g30
tp811
Rp812
(I1
(I2
tp813
g36
I00
S'l\x00\x00\x00i\x00\x00\x00'
p814
tp815
bsba(i__main__
FrameData
p816
(dp817
g6
S'g'
p818
sg8
g9
(g13
S'\x00\xff\x9f\x99\xcc\x9c\x19@'
p819
tp820
Rp821
sg19
I0
sg20
g21
(S'\x07\xdd\t\x1d\x13\r&\r$\xbc'
p822
tp823
Rp824
sg25
I0
sg26
g27
(g28
(I0
tp825
g30
tp826
Rp827
(I1
(I2
tp828
g36
I00
S's\x00\x00\x00n\x00\x00\x00'
p829
tp830
bsba(i__main__
FrameData
p831
(dp832
g6
g818
sg8
g9
(g13
S'\xf3YaD+\xd8\x0c@'
p833
tp834
Rp835
sg19
I0
sg20
g21
(S'\x07\xdd\t\x1d\x13\r&\rdk'
p836
tp837
Rp838
sg25
I0
sg26
g27
(g28
(I0
tp839
g30
tp840
Rp841
(I1
(I2
tp842
g36
I00
S'u\x00\x00\x00p\x00\x00\x00'
p843
tp844
bsba(i__main__
FrameData
p845
(dp846
g6
g818
sg8
g9
(g13
S'\xf3YaD+\xd8\x0c@'
p847
tp848
Rp849
sg19
I0
sg20
g21
(S'\x07\xdd\t\x1d\x13\r&\r\xa5\x96'
p850
tp851
Rp852
sg25
I0
sg26
g27
(g28
(I0
tp853
g30
tp854
Rp855
(I1
(I2
tp856
g36
I00
S'{\x00\x00\x00t\x00\x00\x00'
p857
tp858
bsba(i__main__
FrameData
p859
(dp860
g6
g818
sg8
g9
(g13
S'\xd0\xbaa?\xe0\x1f @'
p861
tp862
Rp863
sg19
I0
sg20
g21
(S'\x07\xdd\t\x1d\x13\r&\r\xe6\x98'
p864
tp865
Rp866
sg25
I0
sg26
g27
(g28
(I0
tp867
g30
tp868
Rp869
(I1
(I2
tp870
g36
I00
S'\x7f\x00\x00\x00v\x00\x00\x00'
p871
tp872
bsba(i__main__
FrameData
p873
(dp874
g6
g818
sg8
g9
(g13
S'F\xc3\\\xa8\xc1i(@'
p875
tp876
Rp877
sg19
I0
sg20
g21
(S"\x07\xdd\t\x1d\x13\r&\x0e'\xaa"
p878
tp879
Rp880
sg25
I0
sg26
g27
(g28
(I0
tp881
g30
tp882
Rp883
(I1
(I2
tp884
g36
I00
S'\x82\x00\x00\x00y\x00\x00\x00'
p885
tp886
bsba(i__main__
FrameData
p887
(dp888
g6
S'h'
p889
sg8
g9
(g13
S'\x00\xff\x9f\x99\xcc\x9c)@'
p890
tp891
Rp892
sg19
I0
sg20
g21
(S'\x07\xdd\t\x1d\x13\r&\x0ehF'
p893
tp894
Rp895
sg25
I0
sg26
g27
(g28
(I0
tp896
g30
tp897
Rp898
(I1
(I2
tp899
g36
I00
S'\x86\x00\x00\x00z\x00\x00\x00'
p900
tp901
bsba(i__main__
FrameData
p902
(dp903
g6
g889
sg8
g9
(g13
S'\x00\xff\x9f\x99\xcc\x9c)@'
p904
tp905
Rp906
sg19
I0
sg20
g21
(S'\x07\xdd\t\x1d\x13\r&\x0e\xa9\xea'
p907
tp908
Rp909
sg25
I0
sg26
g27
(g28
(I0
tp910
g30
tp911
Rp912
(I1
(I2
tp913
g36
I00
S'\x88\x00\x00\x00|\x00\x00\x00'
p914
tp915
bsba(i__main__
FrameData
p916
(dp917
g6
g889
sg8
g9
(g13
S"\xa2\xa3\xb3\r\xe5R'@"
p918
tp919
Rp920
sg19
I0
sg20
g21
(S'\x07\xdd\t\x1d\x13\r&\x0e\xeb\x02'
p921
tp922
Rp923
sg25
I0
sg26
g27
(g28
(I0
tp924
g30
tp925
Rp926
(I1
(I2
tp927
g36
I00
S'\x8a\x00\x00\x00|\x00\x00\x00'
p928
tp929
bsba(i__main__
FrameData
p930
(dp931
g6
g889
sg8
g9
(g13
S'lNy\x00\x85*(@'
p932
tp933
Rp934
sg19
I0
sg20
g21
(S'\x07\xdd\t\x1d\x13\r&\x0f,2'
p935
tp936
Rp937
sg25
I0
sg26
g27
(g28
(I0
tp938
g30
tp939
Rp940
(I1
(I2
tp941
g36
I00
S'\x8b\x00\x00\x00}\x00\x00\x00'
p942
tp943
bsba(i__main__
FrameData
p944
(dp945
g6
g889
sg8
g9
(g13
S'S[\xda:XL)@'
p946
tp947
Rp948
sg19
I0
sg20
g21
(S"\x07\xdd\t\x1d\x13\r'\x00*|"
p949
tp950
Rp951
sg25
I0
sg26
g27
(g28
(I0
tp952
g30
tp953
Rp954
(I1
(I2
tp955
g36
I00
S'\x8c\x00\x00\x00~\x00\x00\x00'
p956
tp957
bsba(i__main__
FrameData
p958
(dp959
g6
g889
sg8
g9
(g13
S'\x8a\xe3\x07\x1a\x17\xbd(@'
p960
tp961
Rp962
sg19
I0
sg20
g21
(S"\x07\xdd\t\x1d\x13\r'\x00q\xff"
p963
tp964
Rp965
sg25
I0
sg26
g27
(g28
(I0
tp966
g30
tp967
Rp968
(I1
(I2
tp969
g36
I00
S'\x8d\x00\x00\x00~\x00\x00\x00'
p970
tp971
bsba(i__main__
FrameData
p972
(dp973
g6
g889
sg8
g9
(g13
S'\xf7\x80Aq\xb9\xa2,@'
p974
tp975
Rp976
sg19
I0
sg20
g21
(S"\x07\xdd\t\x1d\x13\r'\x00\xad5"
p977
tp978
Rp979
sg25
I0
sg26
g27
(g28
(I0
tp980
g30
tp981
Rp982
(I1
(I2
tp983
g36
I00
S'\x8d\x00\x00\x00\x80\x00\x00\x00'
p984
tp985
bsba(i__main__
FrameData
p986
(dp987
g6
g889
sg8
g9
(g13
S')\x03\xec/C\x12,@'
p988
tp989
Rp990
sg19
I0
sg20
g21
(S"\x07\xdd\t\x1d\x13\r'\x00\xf46"
p991
tp992
Rp993
sg25
I0
sg26
g27
(g28
(I0
tp994
g30
tp995
Rp996
(I1
(I2
tp997
g36
I00
S'\x8f\x00\x00\x00\x80\x00\x00\x00'
p998
tp999
bsba(i__main__
FrameData
p1000
(dp1001
g6
g889
sg8
g9
(g13
S'\x00\x00\x00\x00\x00\x00.@'
p1002
tp1003
Rp1004
sg19
I0
sg20
g21
(S"\x07\xdd\t\x1d\x13\r'\x01/5"
p1005
tp1006
Rp1007
sg25
I0
sg26
g27
(g28
(I0
tp1008
g30
tp1009
Rp1010
(I1
(I2
tp1011
g36
I00
S'\x90\x00\x00\x00\x81\x00\x00\x00'
p1012
tp1013
bsba(i__main__
FrameData
p1014
(dp1015
g6
g889
sg8
g9
(g13
S'\xfb\xefg\xc4>C1@'
p1016
tp1017
Rp1018
sg19
I0
sg20
g21
(S"\x07\xdd\t\x1d\x13\r'\x01pQ"
p1019
tp1020
Rp1021
sg25
I0
sg26
g27
(g28
(I0
tp1022
g30
tp1023
Rp1024
(I1
(I2
tp1025
g36
I00
S'\x93\x00\x00\x00\x83\x00\x00\x00'
p1026
tp1027
bsba(i__main__
FrameData
p1028
(dp1029
g6
g889
sg8
g9
(g13
S'I\xe8[@\x93\x9d4@'
p1030
tp1031
Rp1032
sg19
I0
sg20
g21
(S"\x07\xdd\t\x1d\x13\r'\x01\xb1\x96"
p1033
tp1034
Rp1035
sg25
I0
sg26
g27
(g28
(I0
tp1036
g30
tp1037
Rp1038
(I1
(I2
tp1039
g36
I00
S'\x95\x00\x00\x00\x86\x00\x00\x00'
p1040
tp1041
bsba(i__main__
FrameData
p1042
(dp1043
g6
S'n'
p1044
sg8
g9
(g13
S'5 \x89\xa6\xcd\xc92@'
p1045
tp1046
Rp1047
sg19
I0
sg20
g21
(S"\x07\xdd\t\x1d\x13\r'\x01\xf2\xa6"
p1048
tp1049
Rp1050
sg25
I0
sg26
g27
(g28
(I0
tp1051
g30
tp1052
Rp1053
(I1
(I2
tp1054
g36
I00
S'\x98\x00\x00\x00\x88\x00\x00\x00'
p1055
tp1056
bsba(i__main__
FrameData
p1057
(dp1058
g6
g1044
sg8
g9
(g13
S'>9\x15\x8cW\xc30@'
p1059
tp1060
Rp1061
sg19
I0
sg20
g21
(S"\x07\xdd\t\x1d\x13\r'\x023\xc7"
p1062
tp1063
Rp1064
sg25
I0
sg26
g27
(g28
(I0
tp1065
g30
tp1066
Rp1067
(I1
(I2
tp1068
g36
I00
S'\x9b\x00\x00\x00\x89\x00\x00\x00'
p1069
tp1070
bsba(i__main__
FrameData
p1071
(dp1072
g6
g1044
sg8
g9
(g13
S'\xc0\n\x1f\x00\xc6H,@'
p1073
tp1074
Rp1075
sg19
I0
sg20
g21
(S"\x07\xdd\t\x1d\x13\r'\x02t\xdb"
p1076
tp1077
Rp1078
sg25
I0
sg26
g27
(g28
(I0
tp1079
g30
tp1080
Rp1081
(I1
(I2
tp1082
g36
I00
S'\x9e\x00\x00\x00\x8b\x00\x00\x00'
p1083
tp1084
bsba(i__main__
FrameData
p1085
(dp1086
g6
g1044
sg8
g9
(g13
S'\xd2\xf1}\x82U\\&@'
p1087
tp1088
Rp1089
sg19
I0
sg20
g21
(S"\x07\xdd\t\x1d\x13\r'\x02\xb5\xf7"
p1090
tp1091
Rp1092
sg25
I0
sg26
g27
(g28
(I0
tp1093
g30
tp1094
Rp1095
(I1
(I2
tp1096
g36
I00
S'\xa2\x00\x00\x00\x8e\x00\x00\x00'
p1097
tp1098
bsba(i__main__
FrameData
p1099
(dp1100
g6
g1044
sg8
g9
(g13
S'w\x03Is \xa2%@'
p1101
tp1102
Rp1103
sg19
I0
sg20
g21
(S"\x07\xdd\t\x1d\x13\r'\x02\xf7\x05"
p1104
tp1105
Rp1106
sg25
I0
sg26
g27
(g28
(I0
tp1107
g30
tp1108
Rp1109
(I1
(I2
tp1110
g36
I00
S'\xa6\x00\x00\x00\x90\x00\x00\x00'
p1111
tp1112
bsba(i__main__
FrameData
p1113
(dp1114
g6
g1044
sg8
g9
(g13
S'6\xd0\xd2x\xa2B%@'
p1115
tp1116
Rp1117
sg19
I0
sg20
g21
(S"\x07\xdd\t\x1d\x13\r'\x03>\x15"
p1118
tp1119
Rp1120
sg25
I0
sg26
g27
(g28
(I0
tp1121
g30
tp1122
Rp1123
(I1
(I2
tp1124
g36
I00
S'\xa8\x00\x00\x00\x92\x00\x00\x00'
p1125
tp1126
bsba(i__main__
FrameData
p1127
(dp1128
g6
g1044
sg8
g9
(g13
S"\xa2\xa3\xb3\r\xe5R'@"
p1129
tp1130
Rp1131
sg19
I0
sg20
g21
(S"\x07\xdd\t\x1d\x13\r'\x03\x7f\x11"
p1132
tp1133
Rp1134
sg25
I0
sg26
g27
(g28
(I0
tp1135
g30
tp1136
Rp1137
(I1
(I2
tp1138
g36
I00
S'\xaa\x00\x00\x00\x93\x00\x00\x00'
p1139
tp1140
bsba(i__main__
FrameData
p1141
(dp1142
g6
g1044
sg8
g9
(g13
S'lNy\x00\x85*(@'
p1143
tp1144
Rp1145
sg19
I0
sg20
g21
(S"\x07\xdd\t\x1d\x13\r'\x03\xc1\xe6"
p1146
tp1147
Rp1148
sg25
I0
sg26
g27
(g28
(I0
tp1149
g30
tp1150
Rp1151
(I1
(I2
tp1152
g36
I00
S'\xab\x00\x00\x00\x94\x00\x00\x00'
p1153
tp1154
bsba(i__main__
FrameData
p1155
(dp1156
g6
g1044
sg8
g9
(g13
S'\x00\x00\x00\x00\x00\x00*@'
p1157
tp1158
Rp1159
sg19
I0
sg20
g21
(S"\x07\xdd\t\x1d\x13\r'\x03\xfb\x8c"
p1160
tp1161
Rp1162
sg25
I0
sg26
g27
(g28
(I0
tp1163
g30
tp1164
Rp1165
(I1
(I2
tp1166
g36
I00
S'\xac\x00\x00\x00\x94\x00\x00\x00'
p1167
tp1168
bsba(i__main__
FrameData
p1169
(dp1170
g6
g1044
sg8
g9
(g13
S'\xbc\xfdP\xb5U\xdb+@'
p1171
tp1172
Rp1173
sg19
I0
sg20
g21
(S"\x07\xdd\t\x1d\x13\r'\x04Bp"
p1174
tp1175
Rp1176
sg25
I0
sg26
g27
(g28
(I0
tp1177
g30
tp1178
Rp1179
(I1
(I2
tp1180
g36
I00
S'\xad\x00\x00\x00\x94\x00\x00\x00'
p1181
tp1182
bsba(i__main__
FrameData
p1183
(dp1184
g6
S'm'
p1185
sg8
g9
(g13
S'\xef\rI\xf1\xf33+@'
p1186
tp1187
Rp1188
sg19
I0
sg20
g21
(S"\x07\xdd\t\x1d\x13\r'\x04\x84\xc0"
p1189
tp1190
Rp1191
sg25
I0
sg26
g27
(g28
(I0
tp1192
g30
tp1193
Rp1194
(I1
(I2
tp1195
g36
I00
S'\xae\x00\x00\x00\x95\x00\x00\x00'
p1196
tp1197
bsba(i__main__
FrameData
p1198
(dp1199
g6
g1185
sg8
g9
(g13
S'\x8a\xe3\x07\x1a\x17\xbd(@'
p1200
tp1201
Rp1202
sg19
I0
sg20
g21
(S"\x07\xdd\t\x1d\x13\r'\x04\xc4\xaa"
p1203
tp1204
Rp1205
sg25
I0
sg26
g27
(g28
(I0
tp1206
g30
tp1207
Rp1208
(I1
(I2
tp1209
g36
I00
S'\xaf\x00\x00\x00\x96\x00\x00\x00'
p1210
tp1211
bsba(i__main__
FrameData
p1212
(dp1213
g6
g1185
sg8
g9
(g13
S'\xd2\xf1}\x82U\\&@'
p1214
tp1215
Rp1216
sg19
I0
sg20
g21
(S"\x07\xdd\t\x1d\x13\r'\x05H$"
p1217
tp1218
Rp1219
sg25
I0
sg26
g27
(g28
(I0
tp1220
g30
tp1221
Rp1222
(I1
(I2
tp1223
g36
I00
S'\xb0\x00\x00\x00\x97\x00\x00\x00'
p1224
tp1225
bsba(i__main__
FrameData
p1226
(dp1227
g6
g1185
sg8
g9
(g13
S'\xf6/\x12_ee$@'
p1228
tp1229
Rp1230
sg19
I0
sg20
g21
(S"\x07\xdd\t\x1d\x13\r'\x05\x88\x03"
p1231
tp1232
Rp1233
sg25
I0
sg26
g27
(g28
(I0
tp1234
g30
tp1235
Rp1236
(I1
(I2
tp1237
g36
I00
S'\xb1\x00\x00\x00\x97\x00\x00\x00'
p1238
tp1239
bsba(i__main__
FrameData
p1240
(dp1241
g6
g1185
sg8
g9
(g13
S'\x9a.\x90!hp"@'
p1242
tp1243
Rp1244
sg19
I0
sg20
g21
(S"\x07\xdd\t\x1d\x13\r'\x05\xc7\xeb"
p1245
tp1246
Rp1247
sg25
I0
sg26
g27
(g28
(I0
tp1248
g30
tp1249
Rp1250
(I1
(I2
tp1251
g36
I00
S'\xb2\x00\x00\x00\x97\x00\x00\x00'
p1252
tp1253
bsba(i__main__
FrameData
p1254
(dp1255
g6
g1185
sg8
g9
(g13
S'\xd0\xbaa?\xe0\x1f @'
p1256
tp1257
Rp1258
sg19
I0
sg20
g21
(S"\x07\xdd\t\x1d\x13\r'\x06\x0bw"
p1259
tp1260
Rp1261
sg25
I0
sg26
g27
(g28
(I0
tp1262
g30
tp1263
Rp1264
(I1
(I2
tp1265
g36
I00
S'\xb3\x00\x00\x00\x98\x00\x00\x00'
p1266
tp1267
bsba(i__main__
FrameData
p1268
(dp1269
g6
g1185
sg8
g9
(g13
S'\xc0\n\x1f\x00\xc6H\x1c@'
p1270
tp1271
Rp1272
sg19
I0
sg20
g21
(S"\x07\xdd\t\x1d\x13\r'\x06K\xa8"
p1273
tp1274
Rp1275
sg25
I0
sg26
g27
(g28
(I0
tp1276
g30
tp1277
Rp1278
(I1
(I2
tp1279
g36
I00
S'\xb4\x00\x00\x00\x98\x00\x00\x00'
p1280
tp1281
bsba(i__main__
FrameData
p1282
(dp1283
g6
g1185
sg8
g9
(g13
S'9\xdcc\xb3\xbfT\x18@'
p1284
tp1285
Rp1286
sg19
I0
sg20
g21
(S"\x07\xdd\t\x1d\x13\r'\x06\x8b?"
p1287
tp1288
Rp1289
sg25
I0
sg26
g27
(g28
(I0
tp1290
g30
tp1291
Rp1292
(I1
(I2
tp1293
g36
I00
S'\xb5\x00\x00\x00\x98\x00\x00\x00'
p1294
tp1295
bsba(i__main__
FrameData
p1296
(dp1297
g6
g1185
sg8
g9
(g13
S'\xf6/\x12_ee\x14@'
p1298
tp1299
Rp1300
sg19
I0
sg20
g21
(S"\x07\xdd\t\x1d\x13\r'\x07\x0e\x80"
p1301
tp1302
Rp1303
sg25
I0
sg26
g27
(g28
(I0
tp1304
g30
tp1305
Rp1306
(I1
(I2
tp1307
g36
I00
S'\xb6\x00\x00\x00\x98\x00\x00\x00'
p1308
tp1309
bsba(i__main__
FrameData
p1310
(dp1311
g6
g1185
sg8
g9
(g13
S'\x07\xed\xaff\x0f~\x10@'
p1312
tp1313
Rp1314
sg19
I0
sg20
g21
(S"\x07\xdd\t\x1d\x13\r'\x07O\xa1"
p1315
tp1316
Rp1317
sg25
I0
sg26
g27
(g28
(I0
tp1318
g30
tp1319
Rp1320
(I1
(I2
tp1321
g36
I00
S'\xb7\x00\x00\x00\x98\x00\x00\x00'
p1322
tp1323
bsba(i__main__
FrameData
p1324
(dp1325
g6
g1185
sg8
g9
(g13
S'\xa8\xf4\x97\x9bw\xe3\x11@'
p1326
tp1327
Rp1328
sg19
I0
sg20
g21
(S"\x07\xdd\t\x1d\x13\r'\x0ce\xc4"
p1329
tp1330
Rp1331
sg25
I0
sg26
g27
(g28
(I0
tp1332
g30
tp1333
Rp1334
(I1
(I2
tp1335
g36
I00
S'\xb7\x00\x00\x00\x97\x00\x00\x00'
p1336
tp1337
bsba(i__main__
FrameData
p1338
(dp1339
g6
g1185
sg8
g9
(g13
S'\x00\x00\x00\x00\x00\x00\x14@'
p1340
tp1341
Rp1342
sg19
I0
sg20
g21
(S"\x07\xdd\t\x1d\x13\r'\x0c\xac\xc2"
p1343
tp1344
Rp1345
sg25
I0
sg26
g27
(g28
(I0
tp1346
g30
tp1347
Rp1348
(I1
(I2
tp1349
g36
I00
S'\xb7\x00\x00\x00\x96\x00\x00\x00'
p1350
tp1351
bsba(i__main__
FrameData
p1352
(dp1353
g6
g1185
sg8
g9
(g13
S'\xcd;\x7ff\x9e\xa0\x16@'
p1354
tp1355
Rp1356
sg19
I0
sg20
g21
(S"\x07\xdd\t\x1d\x13\r'\x0c\xe8\x11"
p1357
tp1358
Rp1359
sg25
I0
sg26
g27
(g28
(I0
tp1360
g30
tp1361
Rp1362
(I1
(I2
tp1363
g36
I00
S'\xb7\x00\x00\x00\x95\x00\x00\x00'
p1364
tp1365
bsba(i__main__
FrameData
p1366
(dp1367
g6
g1185
sg8
g9
(g13
S'\xf3YaD+\xd8\x1c@'
p1368
tp1369
Rp1370
sg19
I0
sg20
g21
(S"\x07\xdd\t\x1d\x13\r'\r)V"
p1371
tp1372
Rp1373
sg25
I0
sg26
g27
(g28
(I0
tp1374
g30
tp1375
Rp1376
(I1
(I2
tp1377
g36
I00
S'\xb7\x00\x00\x00\x93\x00\x00\x00'
p1378
tp1379
bsba(i__main__
FrameData
p1380
(dp1381
g6
g1185
sg8
g9
(g13
S'N\x017\xfac4!@'
p1382
tp1383
Rp1384
sg19
I0
sg20
g21
(S"\x07\xdd\t\x1d\x13\r'\rj\x03"
p1385
tp1386
Rp1387
sg25
I0
sg26
g27
(g28
(I0
tp1388
g30
tp1389
Rp1390
(I1
(I2
tp1391
g36
I00
S'\xb6\x00\x00\x00\x92\x00\x00\x00'
p1392
tp1393
bsba(i__main__
FrameData
p1394
(dp1395
g6
g1185
sg8
g9
(g13
S'\xeb\x12\xb2\xbb\xb2\xcd&@'
p1396
tp1397
Rp1398
sg19
I0
sg20
g21
(S"\x07\xdd\t\x1d\x13\r'\r\xac\x8d"
p1399
tp1400
Rp1401
sg25
I0
sg26
g27
(g28
(I0
tp1402
g30
tp1403
Rp1404
(I1
(I2
tp1405
g36
I00
S'\xb4\x00\x00\x00\x90\x00\x00\x00'
p1406
tp1407
bsba(i__main__
FrameData
p1408
(dp1409
g6
g1185
sg8
g9
(g13
S'&5w\xe2K\x15(@'
p1410
tp1411
Rp1412
sg19
I0
sg20
g21
(S"\x07\xdd\t\x1d\x13\r'\r\xed\xc2"
p1413
tp1414
Rp1415
sg25
I0
sg26
g27
(g28
(I0
tp1416
g30
tp1417
Rp1418
(I1
(I2
tp1419
g36
I00
S'\xb3\x00\x00\x00\x90\x00\x00\x00'
p1420
tp1421
bsba(i__main__
FrameData
p1422
(dp1423
g6
g1185
sg8
g9
(g13
S'\xb4\xb8=iA\xe8*@'
p1424
tp1425
Rp1426
sg19
I0
sg20
g21
(S"\x07\xdd\t\x1d\x13\r'\x0e-\xa5"
p1427
tp1428
Rp1429
sg25
I0
sg26
g27
(g28
(I0
tp1430
g30
tp1431
Rp1432
(I1
(I2
tp1433
g36
I00
S'\xb2\x00\x00\x00\x8f\x00\x00\x00'
p1434
tp1435
bsba(i__main__
FrameData
p1436
(dp1437
g6
g1185
sg8
g9
(g13
S'/\xa4\xe3\\m\xbb-@'
p1438
tp1439
Rp1440
sg19
I0
sg20
g21
(S"\x07\xdd\t\x1d\x13\r'\x0eu\xda"
p1441
tp1442
Rp1443
sg25
I0
sg26
g27
(g28
(I0
tp1444
g30
tp1445
Rp1446
(I1
(I2
tp1447
g36
I00
S'\xb0\x00\x00\x00\x8f\x00\x00\x00'
p1448
tp1449
bsba(i__main__
FrameData
p1450
(dp1451
g6
g1185
sg8
g9
(g13
S'\x10\xb3]\xc9`G0@'
p1452
tp1453
Rp1454
sg19
I0
sg20
g21
(S"\x07\xdd\t\x1d\x13\r'\x0e\xb5}"
p1455
tp1456
Rp1457
sg25
I0
sg26
g27
(g28
(I0
tp1458
g30
tp1459
Rp1460
(I1
(I2
tp1461
g36
I00
S'\xaf\x00\x00\x00\x8e\x00\x00\x00'
p1462
tp1463
bsba(i__main__
FrameData
p1464
(dp1465
g6
g1044
sg8
g9
(g13
S'\xd5?\x80N\xf3\xcd1@'
p1466
tp1467
Rp1468
sg19
I0
sg20
g21
(S"\x07\xdd\t\x1d\x13\r'\x0e\xf6\x96"
p1469
tp1470
Rp1471
sg25
I0
sg26
g27
(g28
(I0
tp1472
g30
tp1473
Rp1474
(I1
(I2
tp1475
g36
I00
S'\xab\x00\x00\x00\x8b\x00\x00\x00'
p1476
tp1477
bsba(i__main__
FrameData
p1478
(dp1479
g6
g1044
sg8
g9
(g13
S'\xa3\x14\xae\xa8\x87\x161@'
p1480
tp1481
Rp1482
sg19
I0
sg20
g21
(S"\x07\xdd\t\x1d\x13\r'\x0f7\xc0"
p1483
tp1484
Rp1485
sg25
I0
sg26
g27
(g28
(I0
tp1486
g30
tp1487
Rp1488
(I1
(I2
tp1489
g36
I00
S'\xa6\x00\x00\x00\x89\x00\x00\x00'
p1490
tp1491
bsba(i__main__
FrameData
p1492
(dp1493
g6
S'j'
p1494
sg8
g9
(g13
S'=\xf3\n\x8f\xe6\x1f4@'
p1495
tp1496
Rp1497
sg19
I0
sg20
g21
(S'\x07\xdd\t\x1d\x13\r(\x003\xcc'
p1498
tp1499
Rp1500
sg25
I0
sg26
g27
(g28
(I0
tp1501
g30
tp1502
Rp1503
(I1
(I2
tp1504
g36
I00
S'\x9e\x00\x00\x00\x84\x00\x00\x00'
p1505
tp1506
bsba(i__main__
FrameData
p1507
(dp1508
g6
g889
sg8
g9
(g13
S'\xaa\xd9\xb1\xd3\x8d\x8d0@'
p1509
tp1510
Rp1511
sg19
I0
sg20
g21
(S'\x07\xdd\t\x1d\x13\r(\x00w\xca'
p1512
tp1513
Rp1514
sg25
I0
sg26
g27
(g28
(I0
tp1515
g30
tp1516
Rp1517
(I1
(I2
tp1518
g36
I00
S'\x97\x00\x00\x00\x81\x00\x00\x00'
p1519
tp1520
bsba(i__main__
FrameData
p1521
(dp1522
g6
g889
sg8
g9
(g13
S'\xd2\xf1}\x82U\\&@'
p1523
tp1524
Rp1525
sg19
I0
sg20
g21
(S'\x07\xdd\t\x1d\x13\r(\x00\xb6\xf7'
p1526
tp1527
Rp1528
sg25
I0
sg26
g27
(g28
(I0
tp1529
g30
tp1530
Rp1531
(I1
(I2
tp1532
g36
I00
S'\x8e\x00\x00\x00}\x00\x00\x00'
p1533
tp1534
bsba(i__main__
FrameData
p1535
(dp1536
g6
g889
sg8
g9
(g13
S"\xa2\xa3\xb3\r\xe5R'@"
p1537
tp1538
Rp1539
sg19
I0
sg20
g21
(S'\x07\xdd\t\x1d\x13\r(\x00\xf5\xaa'
p1540
tp1541
Rp1542
sg25
I0
sg26
g27
(g28
(I0
tp1543
g30
tp1544
Rp1545
(I1
(I2
tp1546
g36
I00
S'\x86\x00\x00\x00x\x00\x00\x00'
p1547
tp1548
bsba(i__main__
FrameData
p1549
(dp1550
g6
g818
sg8
g9
(g13
S'\xf6/\x12_ee\x14@'
p1551
tp1552
Rp1553
sg19
I0
sg20
g21
(S'\x07\xdd\t\x1d\x13\r(\x01;\x07'
p1554
tp1555
Rp1556
sg25
I0
sg26
g27
(g28
(I0
tp1557
g30
tp1558
Rp1559
(I1
(I2
tp1560
g36
I00
S'}\x00\x00\x00s\x00\x00\x00'
p1561
tp1562
bsba(i__main__
FrameData
p1563
(dp1564
g6
g818
sg8
g9
(g13
S'\x00\x00\x00\x00\x00\x00\xf0?'
p1565
tp1566
Rp1567
sg19
I0
sg20
g21
(S'\x07\xdd\t\x1d\x13\r(\x01|\x0c'
p1568
tp1569
Rp1570
sg25
I0
sg26
g27
(g28
(I0
tp1571
g30
tp1572
Rp1573
(I1
(I2
tp1574
g36
I00
S'x\x00\x00\x00q\x00\x00\x00'
p1575
tp1576
bsba(i__main__
FrameData
p1577
(dp1578
g6
g818
sg8
g9
(g13
S'\xd0\xbaa?\xe0\x1f @'
p1579
tp1580
Rp1581
sg19
I0
sg20
g21
(S'\x07\xdd\t\x1d\x13\r(\x01\xb9='
p1582
tp1583
Rp1584
sg25
I0
sg26
g27
(g28
(I0
tp1585
g30
tp1586
Rp1587
(I1
(I2
tp1588
g36
I00
S'q\x00\x00\x00n\x00\x00\x00'
p1589
tp1590
bsba(i__main__
FrameData
p1591
(dp1592
g6
g789
sg8
g9
(g13
S'A\x87b\xc62\xde"@'
p1593
tp1594
Rp1595
sg19
I0
sg20
g21
(S'\x07\xdd\t\x1d\x13\r(\x01\xfb5'
p1596
tp1597
Rp1598
sg25
I0
sg26
g27
(g28
(I0
tp1599
g30
tp1600
Rp1601
(I1
(I2
tp1602
g36
I00
S'e\x00\x00\x00j\x00\x00\x00'
p1603
tp1604
bsba(i__main__
FrameData
p1605
(dp1606
g6
g789
sg8
g9
(g13
S"\xa2\xa3\xb3\r\xe5R'@"
p1607
tp1608
Rp1609
sg19
I0
sg20
g21
(S'\x07\xdd\t\x1d\x13\r(\x02?P'
p1610
tp1611
Rp1612
sg25
I0
sg26
g27
(g28
(I0
tp1613
g30
tp1614
Rp1615
(I1
(I2
tp1616
g36
I00
S'Z\x00\x00\x00h\x00\x00\x00'
p1617
tp1618
bsba(i__main__
FrameData
p1619
(dp1620
g6
g212
sg8
g9
(g13
S'S[\xda:XL)@'
p1621
tp1622
Rp1623
sg19
I0
sg20
g21
(S'\x07\xdd\t\x1d\x13\r(\x02\x81s'
p1624
tp1625
Rp1626
sg25
I0
sg26
g27
(g28
(I0
tp1627
g30
tp1628
Rp1629
(I1
(I2
tp1630
g36
I00
S'M\x00\x00\x00e\x00\x00\x00'
p1631
tp1632
bsba(i__main__
FrameData
p1633
(dp1634
g6
g212
sg8
g9
(g13
S'\xde4\xda\xfeNN*@'
p1635
tp1636
Rp1637
sg19
I0
sg20
g21
(S'\x07\xdd\t\x1d\x13\r(\x02\xc1\xab'
p1638
tp1639
Rp1640
sg25
I0
sg26
g27
(g28
(I0
tp1641
g30
tp1642
Rp1643
(I1
(I2
tp1644
g36
I00
S'G\x00\x00\x00d\x00\x00\x00'
p1645
tp1646
bsba(i__main__
FrameData
p1647
(dp1648
g6
g212
sg8
g9
(g13
S'\xd0\xbaa?\xe0\x1f0@'
p1649
tp1650
Rp1651
sg19
I0
sg20
g21
(S'\x07\xdd\t\x1d\x13\r(\x03\x02\xa1'
p1652
tp1653
Rp1654
sg25
I0
sg26
g27
(g28
(I0
tp1655
g30
tp1656
Rp1657
(I1
(I2
tp1658
g36
I00
S'A\x00\x00\x00c\x00\x00\x00'
p1659
tp1660
bsba(i__main__
FrameData
p1661
(dp1662
g6
g85
sg8
g9
(g13
S'\xb9\xbaF\xca+~1@'
p1663
tp1664
Rp1665
sg19
I0
sg20
g21
(S'\x07\xdd\t\x1d\x13\r(\x03C\xc3'
p1666
tp1667
Rp1668
sg25
I0
sg26
g27
(g28
(I0
tp1669
g30
tp1670
Rp1671
(I1
(I2
tp1672
g36
I00
S':\x00\x00\x00b\x00\x00\x00'
p1673
tp1674
bsba(i__main__
FrameData
p1675
(dp1676
g6
g85
sg8
g9
(g13
S'\xd0\xbaa?\xe0\x1f0@'
p1677
tp1678
Rp1679
sg19
I0
sg20
g21
(S'\x07\xdd\t\x1d\x13\r(\x03\x84\xf6'
p1680
tp1681
Rp1682
sg25
I0
sg26
g27
(g28
(I0
tp1683
g30
tp1684
Rp1685
(I1
(I2
tp1686
g36
I00
S'3\x00\x00\x00a\x00\x00\x00'
p1687
tp1688
bsba(i__main__
FrameData
p1689
(dp1690
g6
g85
sg8
g9
(g13
S'\x07\xed\xaff\x0f~0@'
p1691
tp1692
Rp1693
sg19
I0
sg20
g21
(S'\x07\xdd\t\x1d\x13\r(\x03\xc4~'
p1694
tp1695
Rp1696
sg25
I0
sg26
g27
(g28
(I0
tp1697
g30
tp1698
Rp1699
(I1
(I2
tp1700
g36
I00
S'-\x00\x00\x00a\x00\x00\x00'
p1701
tp1702
bsba(i__main__
FrameData
p1703
(dp1704
g6
g85
sg8
g9
(g13
S'\xbf\x8f+\t\x89[2@'
p1705
tp1706
Rp1707
sg19
I0
sg20
g21
(S'\x07\xdd\t\x1d\x13\r(\x04\x074'
p1708
tp1709
Rp1710
sg25
I0
sg26
g27
(g28
(I0
tp1711
g30
tp1712
Rp1713
(I1
(I2
tp1714
g36
I00
S'(\x00\x00\x00a\x00\x00\x00'
p1715
tp1716
bsba(i__main__
FrameData
p1717
(dp1718
g6
g7
sg8
g9
(g13
S'\x00\x00\x00\x00\x00\x004@'
p1719
tp1720
Rp1721
sg19
I0
sg20
g21
(S'\x07\xdd\t\x1d\x13\r(\x04H`'
p1722
tp1723
Rp1724
sg25
I0
sg26
g27
(g28
(I0
tp1725
g30
tp1726
Rp1727
(I1
(I2
tp1728
g36
I00
S'#\x00\x00\x00a\x00\x00\x00'
p1729
tp1730
bsba(i__main__
FrameData
p1731
(dp1732
g6
g7
sg8
g9
(g13
S'\xa3\x14\xae\xa8\x87\x161@'
p1733
tp1734
Rp1735
sg19
I0
sg20
g21
(S'\x07\xdd\t\x1d\x13\r(\x04\x89a'
p1736
tp1737
Rp1738
sg25
I0
sg26
g27
(g28
(I0
tp1739
g30
tp1740
Rp1741
(I1
(I2
tp1742
g36
I00
S'\x1d\x00\x00\x00a\x00\x00\x00'
p1743
tp1744
bsba(i__main__
FrameData
p1745
(dp1746
g6
g7
sg8
g9
(g13
S'\xd0\xbaa?\xe0\x1f0@'
p1747
tp1748
Rp1749
sg19
I0
sg20
g21
(S'\x07\xdd\t\x1d\x13\r(\x04\xcb\xf0'
p1750
tp1751
Rp1752
sg25
I0
sg26
g27
(g28
(I0
tp1753
g30
tp1754
Rp1755
(I1
(I2
tp1756
g36
I00
S'\x19\x00\x00\x00a\x00\x00\x00'
p1757
tp1758
bsba(i__main__
FrameData
p1759
(dp1760
g6
g7
sg8
g9
(g13
S'\x10\xb3]\xc9`G0@'
p1761
tp1762
Rp1763
sg19
I0
sg20
g21
(S'\x07\xdd\t\x1d\x13\r(\x05\x0b\x9b'
p1764
tp1765
Rp1766
sg25
I0
sg26
g27
(g28
(I0
tp1767
g30
tp1768
Rp1769
(I1
(I2
tp1770
g36
I00
S'\x14\x00\x00\x00a\x00\x00\x00'
p1771
tp1772
bsba(i__main__
FrameData
p1773
(dp1774
g6
g7
sg8
g9
(g13
S'\xa8y\x0c\t\xd9v1@'
p1775
tp1776
Rp1777
sg19
I0
sg20
g21
(S'\x07\xdd\t\x1d\x13\r(\x05L\xa4'
p1778
tp1779
Rp1780
sg25
I0
sg26
g27
(g28
(I0
tp1781
g30
tp1782
Rp1783
(I1
(I2
tp1784
g36
I00
S'\x10\x00\x00\x00a\x00\x00\x00'
p1785
tp1786
bsba(i__main__
FrameData
p1787
(dp1788
g6
g7
sg8
g9
(g13
S'\x00\x00\x00\x00\x00\x004@'
p1789
tp1790
Rp1791
sg19
I0
sg20
g21
(S'\x07\xdd\t\x1d\x13\r(\x05\x8d\xe2'
p1792
tp1793
Rp1794
sg25
I0
sg26
g27
(g28
(I0
tp1795
g30
tp1796
Rp1797
(I1
(I2
tp1798
g36
I00
S'\x0b\x00\x00\x00a\x00\x00\x00'
p1799
tp1800
bsba(i__main__
FrameData
p1801
(dp1802
g6
g7
sg8
g9
(g13
S'v\xf8\xd1\xb0\x84\xee5@'
p1803
tp1804
Rp1805
sg19
I0
sg20
g21
(S'\x07\xdd\t\x1d\x13\r(\x05\xce\xec'
p1806
tp1807
Rp1808
sg25
I0
sg26
g27
(g28
(I0
tp1809
g30
tp1810
Rp1811
(I1
(I2
tp1812
g36
I00
S'\x08\x00\x00\x00a\x00\x00\x00'
p1813
tp1814
bsba(i__main__
FrameData
p1815
(dp1816
g6
g7
sg8
g9
(g13
S'N\xd7z\x91En7@'
p1817
tp1818
Rp1819
sg19
I0
sg20
g21
(S'\x07\xdd\t\x1d\x13\r(\x06\x10\x1c'
p1820
tp1821
Rp1822
sg25
I0
sg26
g27
(g28
(I0
tp1823
g30
tp1824
Rp1825
(I1
(I2
tp1826
g36
I00
S'\x05\x00\x00\x00b\x00\x00\x00'
p1827
tp1828
bsba(i__main__
FrameData
p1829
(dp1830
g6
g7
sg8
g9
(g13
S'\x0b\x0b=\x95\x1a58@'
p1831
tp1832
Rp1833
sg19
I0
sg20
g21
(S'\x07\xdd\t\x1d\x13\r(\x06R\x8a'
p1834
tp1835
Rp1836
sg25
I0
sg26
g27
(g28
(I0
tp1837
g30
tp1838
Rp1839
(I1
(I2
tp1840
g36
I00
S'\x04\x00\x00\x00b\x00\x00\x00'
p1841
tp1842
bsba(i__main__
FrameData
p1843
(dp1844
g6
g7
sg8
g9
(g13
S'F\xc3\\\xa8\xc1i8@'
p1845
tp1846
Rp1847
sg19
I0
sg20
g21
(S'\x07\xdd\t\x1d\x13\r(\x06\x91G'
p1848
tp1849
Rp1850
sg25
I0
sg26
g27
(g28
(I0
tp1851
g30
tp1852
Rp1853
(I1
(I2
tp1854
g36
I00
S'\x03\x00\x00\x00c\x00\x00\x00'
p1855
tp1856
bsba(i__main__
FrameData
p1857
(dp1858
g6
g7
sg8
g9
(g13
S'\x9deK\xcc\xbb\xb28@'
p1859
tp1860
Rp1861
sg19
I0
sg20
g21
(S'\x07\xdd\t\x1d\x13\r(\x06\xd3G'
p1862
tp1863
Rp1864
sg25
I0
sg26
g27
(g28
(I0
tp1865
g30
tp1866
Rp1867
(I1
(I2
tp1868
g36
I00
S'\x02\x00\x00\x00d\x00\x00\x00'
p1869
tp1870
bsba(i__main__
FrameData
p1871
(dp1872
g6
g7
sg8
g9
(g13
S'8\x98\x12_\xd0/8@'
p1873
tp1874
Rp1875
sg19
I0
sg20
g21
(S'\x07\xdd\t\x1d\x13\r(\x07U\xc4'
p1876
tp1877
Rp1878
sg25
I0
sg26
g27
(g28
(I0
tp1879
g30
tp1880
Rp1881
(I1
(I2
tp1882
g36
I00
S'\x02\x00\x00\x00e\x00\x00\x00'
p1883
tp1884
bsba(i__main__
FrameData
p1885
(dp1886
g6
g7
sg8
g9
(g13
S'\x8d%y\xc0\xdf\xb47@'
p1887
tp1888
Rp1889
sg19
I0
sg20
g21
(S'\x07\xdd\t\x1d\x13\r(\x07\x9c\x80'
p1890
tp1891
Rp1892
sg25
I0
sg26
g27
(g28
(I0
tp1893
g30
tp1894
Rp1895
(I1
(I2
tp1896
g36
I00
S'\x02\x00\x00\x00f\x00\x00\x00'
p1897
tp1898
bsba(i__main__
FrameData
p1899
(dp1900
g6
g7
sg8
g9
(g13
S'\xff\x899zhB7@'
p1901
tp1902
Rp1903
sg19
I0
sg20
g21
(S'\x07\xdd\t\x1d\x13\r(\x08\x19\xe9'
p1904
tp1905
Rp1906
sg25
I0
sg26
g27
(g28
(I0
tp1907
g30
tp1908
Rp1909
(I1
(I2
tp1910
g36
I00
S'\x02\x00\x00\x00g\x00\x00\x00'
p1911
tp1912
bsba(i__main__
FrameData
p1913
(dp1914
g6
g7
sg8
g9
(g13
S'v\xf8\xd1\xb0\x84\xee5@'
p1915
tp1916
Rp1917
sg19
I0
sg20
g21
(S'\x07\xdd\t\x1d\x13\r(\x08\x9b\x06'
p1918
tp1919
Rp1920
sg25
I0
sg26
g27
(g28
(I0
tp1921
g30
tp1922
Rp1923
(I1
(I2
tp1924
g36
I00
S'\x03\x00\x00\x00h\x00\x00\x00'
p1925
tp1926
bsba(i__main__
FrameData
p1927
(dp1928
g6
g7
sg8
g9
(g13
S'\xbb\x91T\x7f\x17\x065@'
p1929
tp1930
Rp1931
sg19
I0
sg20
g21
(S'\x07\xdd\t\x1d\x13\r(\x08\xdc\x1b'
p1932
tp1933
Rp1934
sg25
I0
sg26
g27
(g28
(I0
tp1935
g30
tp1936
Rp1937
(I1
(I2
tp1938
g36
I00
S'\x04\x00\x00\x00h\x00\x00\x00'
p1939
tp1940
bsba(i__main__
FrameData
p1941
(dp1942
g6
g7
sg8
g9
(g13
S'=\xf3\n\x8f\xe6\x1f4@'
p1943
tp1944
Rp1945
sg19
I0
sg20
g21
(S'\x07\xdd\t\x1d\x13\r(\t^f'
p1946
tp1947
Rp1948
sg25
I0
sg26
g27
(g28
(I0
tp1949
g30
tp1950
Rp1951
(I1
(I2
tp1952
g36
I00
S'\x05\x00\x00\x00h\x00\x00\x00'
p1953
tp1954
bsba(i__main__
FrameData
p1955
(dp1956
g6
g7
sg8
g9
(g13
S'\xc9\xe0>!B<3@'
p1957
tp1958
Rp1959
sg19
I0
sg20
g21
(S'\x07\xdd\t\x1d\x13\r(\t\xe6\x92'
p1960
tp1961
Rp1962
sg25
I0
sg26
g27
(g28
(I0
tp1963
g30
tp1964
Rp1965
(I1
(I2
tp1966
g36
I00
S'\x06\x00\x00\x00h\x00\x00\x00'
p1967
tp1968
bsba(i__main__
FrameData
p1969
(dp1970
g6
g7
sg8
g9
(g13
S'\xbf\x8f+\t\x89[2@'
p1971
tp1972
Rp1973
sg19
I0
sg20
g21
(S'\x07\xdd\t\x1d\x13\r(\nc\xb9'
p1974
tp1975
Rp1976
sg25
I0
sg26
g27
(g28
(I0
tp1977
g30
tp1978
Rp1979
(I1
(I2
tp1980
g36
I00
S'\x07\x00\x00\x00h\x00\x00\x00'
p1981
tp1982
bsba(i__main__
FrameData
p1983
(dp1984
g6
g7
sg8
g9
(g13
S'\xb9\xbaF\xca+~1@'
p1985
tp1986
Rp1987
sg19
I0
sg20
g21
(S'\x07\xdd\t\x1d\x13\r(\n\xa4\xdf'
p1988
tp1989
Rp1990
sg25
I0
sg26
g27
(g28
(I0
tp1991
g30
tp1992
Rp1993
(I1
(I2
tp1994
g36
I00
S'\x08\x00\x00\x00h\x00\x00\x00'
p1995
tp1996
bsba(i__main__
FrameData
p1997
(dp1998
g6
g7
sg8
g9
(g13
S'\xd0\xbaa?\xe0\x1f0@'
p1999
tp2000
Rp2001
sg19
I0
sg20
g21
(S'\x07\xdd\t\x1d\x13\r(\x0b,\x01'
p2002
tp2003
Rp2004
sg25
I0
sg26
g27
(g28
(I0
tp2005
g30
tp2006
Rp2007
(I1
(I2
tp2008
g36
I00
S'\t\x00\x00\x00i\x00\x00\x00'
p2009
tp2010
bsba(i__main__
FrameData
p2011
(dp2012
g6
g7
sg8
g9
(g13
S'\xc5Bl?W\x87.@'
p2013
tp2014
Rp2015
sg19
I0
sg20
g21
(S'\x07\xdd\t\x1d\x13\r(\x0bm\r'
p2016
tp2017
Rp2018
sg25
I0
sg26
g27
(g28
(I0
tp2019
g30
tp2020
Rp2021
(I1
(I2
tp2022
g36
I00
S'\n\x00\x00\x00i\x00\x00\x00'
p2023
tp2024
bsba(i__main__
FrameData
p2025
(dp2026
g6
g7
sg8
g9
(g13
S'\xb9e(k\xee\xc8+@'
p2027
tp2028
Rp2029
sg19
I0
sg20
g21
(S'\x07\xdd\t\x1d\x13\r(\x0b\xa9\xd2'
p2030
tp2031
Rp2032
sg25
I0
sg26
g27
(g28
(I0
tp2033
g30
tp2034
Rp2035
(I1
(I2
tp2036
g36
I00
S'\x0b\x00\x00\x00j\x00\x00\x00'
p2037
tp2038
bsba(i__main__
FrameData
p2039
(dp2040
g6
g7
sg8
g9
(g13
S'Qf\x99\xcb\xa9\x13*@'
p2041
tp2042
Rp2043
sg19
I0
sg20
g21
(S'\x07\xdd\t\x1d\x13\r(\x0b\xeb\x7f'
p2044
tp2045
Rp2046
sg25
I0
sg26
g27
(g28
(I0
tp2047
g30
tp2048
Rp2049
(I1
(I2
tp2050
g36
I00
S'\x0c\x00\x00\x00j\x00\x00\x00'
p2051
tp2052
bsba(i__main__
FrameData
p2053
(dp2054
g6
g7
sg8
g9
(g13
S'F\xc3\\\xa8\xc1i(@'
p2055
tp2056
Rp2057
sg19
I0
sg20
g21
(S'\x07\xdd\t\x1d\x13\r(\x0cm-'
p2058
tp2059
Rp2060
sg25
I0
sg26
g27
(g28
(I0
tp2061
g30
tp2062
Rp2063
(I1
(I2
tp2064
g36
I00
S'\r\x00\x00\x00j\x00\x00\x00'
p2065
tp2066
bsba(i__main__
FrameData
p2067
(dp2068
g6
g7
sg8
g9
(g13
S'\xeb\x12\xb2\xbb\xb2\xcd&@'
p2069
tp2070
Rp2071
sg19
I0
sg20
g21
(S'\x07\xdd\t\x1d\x13\r(\x0c\xf3\xd2'
p2072
tp2073
Rp2074
sg25
I0
sg26
g27
(g28
(I0
tp2075
g30
tp2076
Rp2077
(I1
(I2
tp2078
g36
I00
S'\x0e\x00\x00\x00j\x00\x00\x00'
p2079
tp2080
bsba(i__main__
FrameData
p2081
(dp2082
g6
g7
sg8
g9
(g13
S'\x00\x00\x00\x00\x00\x00$@'
p2083
tp2084
Rp2085
sg19
I0
sg20
g21
(S'\x07\xdd\t\x1d\x13\r(\r6\xa3'
p2086
tp2087
Rp2088
sg25
I0
sg26
g27
(g28
(I0
tp2089
g30
tp2090
Rp2091
(I1
(I2
tp2092
g36
I00
S'\x0f\x00\x00\x00k\x00\x00\x00'
p2093
tp2094
bsba(i__main__
FrameData
p2095
(dp2096
g6
g7
sg8
g9
(g13
S'\x9a.\x90!hp"@'
p2097
tp2098
Rp2099
sg19
I0
sg20
g21
(S'\x07\xdd\t\x1d\x13\r(\r\xb6\xfc'
p2100
tp2101
Rp2102
sg25
I0
sg26
g27
(g28
(I0
tp2103
g30
tp2104
Rp2105
(I1
(I2
tp2106
g36
I00
S'\x10\x00\x00\x00k\x00\x00\x00'
p2107
tp2108
bsba(i__main__
FrameData
p2109
(dp2110
g6
g7
sg8
g9
(g13
S'N\x017\xfac4!@'
p2111
tp2112
Rp2113
sg19
I0
sg20
g21
(S'\x07\xdd\t\x1d\x13\r(\x0ezC'
p2114
tp2115
Rp2116
sg25
I0
sg26
g27
(g28
(I0
tp2117
g30
tp2118
Rp2119
(I1
(I2
tp2120
g36
I00
S'\x10\x00\x00\x00l\x00\x00\x00'
p2121
tp2122
bsba(i__main__
FrameData
p2123
(dp2124
g6
g7
sg8
g9
(g13
S'\xc0\n\x1f\x00\xc6H\x1c@'
p2125
tp2126
Rp2127
sg19
I0
sg20
g21
(S'\x07\xdd\t\x1d\x13\r(\x0e\xb8\xa4'
p2128
tp2129
Rp2130
sg25
I0
sg26
g27
(g28
(I0
tp2131
g30
tp2132
Rp2133
(I1
(I2
tp2134
g36
I00
S'\x12\x00\x00\x00l\x00\x00\x00'
p2135
tp2136
bsba(i__main__
FrameData
p2137
(dp2138
g6
g7
sg8
g9
(g13
S'\x00\xff\x9f\x99\xcc\x9c\x19@'
p2139
tp2140
Rp2141
sg19
I0
sg20
g21
(S'\x07\xdd\t\x1d\x13\r(\x0f=\x94'
p2142
tp2143
Rp2144
sg25
I0
sg26
g27
(g28
(I0
tp2145
g30
tp2146
Rp2147
(I1
(I2
tp2148
g36
I00
S'\x12\x00\x00\x00m\x00\x00\x00'
p2149
tp2150
bsba(i__main__
FrameData
p2151
(dp2152
g6
g7
sg8
g9
(g13
S'\x00\x00\x00\x00\x00\x00\x14@'
p2153
tp2154
Rp2155
sg19
I0
sg20
g21
(S'\x07\xdd\t\x1d\x13\r)\x00}\x9a'
p2156
tp2157
Rp2158
sg25
I0
sg26
g27
(g28
(I0
tp2159
g30
tp2160
Rp2161
(I1
(I2
tp2162
g36
I00
S'\x14\x00\x00\x00m\x00\x00\x00'
p2163
tp2164
bsba(i__main__
FrameData
p2165
(dp2166
g6
g7
sg8
g9
(g13
S'\xf3YaD+\xd8\x0c@'
p2167
tp2168
Rp2169
sg19
I0
sg20
g21
(S'\x07\xdd\t\x1d\x13\r)\x00\xbe\xa1'
p2170
tp2171
Rp2172
sg25
I0
sg26
g27
(g28
(I0
tp2173
g30
tp2174
Rp2175
(I1
(I2
tp2176
g36
I00
S'\x15\x00\x00\x00n\x00\x00\x00'
p2177
tp2178
bsba(i__main__
FrameData
p2179
(dp2180
g6
g7
sg8
g9
(g13
S'S[\xda:XL\t@'
p2181
tp2182
Rp2183
sg19
I0
sg20
g21
(S'\x07\xdd\t\x1d\x13\r)\x00\xff\xba'
p2184
tp2185
Rp2186
sg25
I0
sg26
g27
(g28
(I0
tp2187
g30
tp2188
Rp2189
(I1
(I2
tp2190
g36
I00
S'\x16\x00\x00\x00n\x00\x00\x00'
p2191
tp2192
bsba(i__main__
FrameData
p2193
(dp2194
g6
g7
sg8
g9
(g13
S'\xcd;\x7ff\x9e\xa0\xf6?'
p2195
tp2196
Rp2197
sg19
I0
sg20
g21
(S'\x07\xdd\t\x1d\x13\r)\x01B\x06'
p2198
tp2199
Rp2200
sg25
I0
sg26
g27
(g28
(I0
tp2201
g30
tp2202
Rp2203
(I1
(I2
tp2204
g36
I00
S'\x16\x00\x00\x00p\x00\x00\x00'
p2205
tp2206
bsba(i__main__
FrameData
p2207
(dp2208
g6
g7
sg8
g9
(g13
S'\x00\x00\x00\x00\x00\x00\xf0?'
p2209
tp2210
Rp2211
sg19
I0
sg20
g21
(S'\x07\xdd\t\x1d\x13\r)\x01\x82\x08'
p2212
tp2213
Rp2214
sg25
I0
sg26
g27
(g28
(I0
tp2215
g30
tp2216
Rp2217
(I1
(I2
tp2218
g36
I00
S'\x17\x00\x00\x00p\x00\x00\x00'
p2219
tp2220
bsba(i__main__
FrameData
p2221
(dp2222
g6
g7
sg8
g9
(g13
S'\xa8\xf4\x97\x9bw\xe3\x01@'
p2223
tp2224
Rp2225
sg19
I0
sg20
g21
(S'\x07\xdd\t\x1d\x13\r)\x01\xc2\\'
p2226
tp2227
Rp2228
sg25
I0
sg26
g27
(g28
(I0
tp2229
g30
tp2230
Rp2231
(I1
(I2
tp2232
g36
I00
S'\x19\x00\x00\x00r\x00\x00\x00'
p2233
tp2234
bsba(i__main__
FrameData
p2235
(dp2236
g6
g7
sg8
g9
(g13
S'S[\xda:XL\t@'
p2237
tp2238
Rp2239
sg19
I0
sg20
g21
(S'\x07\xdd\t\x1d\x13\r)\x02\x04a'
p2240
tp2241
Rp2242
sg25
I0
sg26
g27
(g28
(I0
tp2243
g30
tp2244
Rp2245
(I1
(I2
tp2246
g36
I00
S'\x1a\x00\x00\x00r\x00\x00\x00'
p2247
tp2248
bsba(i__main__
FrameData
p2249
(dp2250
g6
g7
sg8
g9
(g13
S'\x07\xed\xaff\x0f~\x10@'
p2251
tp2252
Rp2253
sg19
I0
sg20
g21
(S'\x07\xdd\t\x1d\x13\r)\x02\x8dO'
p2254
tp2255
Rp2256
sg25
I0
sg26
g27
(g28
(I0
tp2257
g30
tp2258
Rp2259
(I1
(I2
tp2260
g36
I00
S'\x1b\x00\x00\x00r\x00\x00\x00'
p2261
tp2262
bsba(i__main__
FrameData
p2263
(dp2264
g6
g7
sg8
g9
(g13
S'\xf6/\x12_ee\x14@'
p2265
tp2266
Rp2267
sg19
I0
sg20
g21
(S'\x07\xdd\t\x1d\x13\r)\x03\x08\x86'
p2268
tp2269
Rp2270
sg25
I0
sg26
g27
(g28
(I0
tp2271
g30
tp2272
Rp2273
(I1
(I2
tp2274
g36
I00
S'\x1c\x00\x00\x00r\x00\x00\x00'
p2275
tp2276
bsba(i__main__
FrameData
p2277
(dp2278
g6
g7
sg8
g9
(g13
S'\x07\xed\xaff\x0f~\x10@'
p2279
tp2280
Rp2281
sg19
I0
sg20
g21
(S'\x07\xdd\t\x1d\x13\r)\x05R\xd2'
p2282
tp2283
Rp2284
sg25
I0
sg26
g27
(g28
(I0
tp2285
g30
tp2286
Rp2287
(I1
(I2
tp2288
g36
I00
S'\x1b\x00\x00\x00r\x00\x00\x00'
p2289
tp2290
bsba(i__main__
FrameData
p2291
(dp2292
g6
g7
sg8
g9
(g13
S'S[\xda:XL\t@'
p2293
tp2294
Rp2295
sg19
I0
sg20
g21
(S'\x07\xdd\t\x1d\x13\r)\x05\x9a\xae'
p2296
tp2297
Rp2298
sg25
I0
sg26
g27
(g28
(I0
tp2299
g30
tp2300
Rp2301
(I1
(I2
tp2302
g36
I00
S'\x1a\x00\x00\x00r\x00\x00\x00'
p2303
tp2304
bsba(i__main__
FrameData
p2305
(dp2306
g6
g7
sg8
g9
(g13
S'\xa8\xf4\x97\x9bw\xe3\x01@'
p2307
tp2308
Rp2309
sg19
I0
sg20
g21
(S'\x07\xdd\t\x1d\x13\r)\x06\x1b\xcc'
p2310
tp2311
Rp2312
sg25
I0
sg26
g27
(g28
(I0
tp2313
g30
tp2314
Rp2315
(I1
(I2
tp2316
g36
I00
S'\x19\x00\x00\x00r\x00\x00\x00'
p2317
tp2318
bsba(i__main__
FrameData
p2319
(dp2320
g6
g7
sg8
g9
(g13
S'\x00\x00\x00\x00\x00\x00\xf0?'
p2321
tp2322
Rp2323
sg19
I0
sg20
g21
(S'\x07\xdd\t\x1d\x13\r)\x06\x9d\xfb'
p2324
tp2325
Rp2326
sg25
I0
sg26
g27
(g28
(I0
tp2327
g30
tp2328
Rp2329
(I1
(I2
tp2330
g36
I00
S'\x17\x00\x00\x00r\x00\x00\x00'
p2331
tp2332
bsba(i__main__
FrameData
p2333
(dp2334
g6
g7
sg8
g9
(g13
S'\x00\x00\x00\x00\x00\x00\x00\x00'
p2335
tp2336
Rp2337
sg19
I0
sg20
g21
(S'\x07\xdd\t\x1d\x13\r)\tgU'
p2338
tp2339
Rp2340
sg25
I0
sg26
g27
(g28
(I0
tp2341
g30
tp2342
Rp2343
(I1
(I2
tp2344
g36
I00
S'\x17\x00\x00\x00q\x00\x00\x00'
p2345
tp2346
bsba(i__main__
FrameData
p2347
(dp2348
g6
g7
sg8
g9
(g13
S'\x00\x00\x00\x00\x00\x00\xf0?'
p2349
tp2350
Rp2351
sg19
I0
sg20
g21
(S'\x07\xdd\t\x1d\x13\r)\t\xab$'
p2352
tp2353
Rp2354
sg25
I0
sg26
g27
(g28
(I0
tp2355
g30
tp2356
Rp2357
(I1
(I2
tp2358
g36
I00
S'\x18\x00\x00\x00q\x00\x00\x00'
p2359
tp2360
bsba(i__main__
FrameData
p2361
(dp2362
g6
g7
sg8
g9
(g13
S'\xa8\xf4\x97\x9bw\xe3\x01@'
p2363
tp2364
Rp2365
sg19
I0
sg20
g21
(S'\x07\xdd\t\x1d\x13\r)\n-L'
p2366
tp2367
Rp2368
sg25
I0
sg26
g27
(g28
(I0
tp2369
g30
tp2370
Rp2371
(I1
(I2
tp2372
g36
I00
S'\x18\x00\x00\x00o\x00\x00\x00'
p2373
tp2374
bsba(i__main__
FrameData
p2375
(dp2376
g6
g7
sg8
g9
(g13
S'\xf3YaD+\xd8\x0c@'
p2377
tp2378
Rp2379
sg19
I0
sg20
g21
(S'\x07\xdd\t\x1d\x13\r)\nns'
p2380
tp2381
Rp2382
sg25
I0
sg26
g27
(g28
(I0
tp2383
g30
tp2384
Rp2385
(I1
(I2
tp2386
g36
I00
S'\x1a\x00\x00\x00o\x00\x00\x00'
p2387
tp2388
bsba(i__main__
FrameData
p2389
(dp2390
g6
g7
sg8
g9
(g13
S'\xfc\xeeci3\xd5\x1a@'
p2391
tp2392
Rp2393
sg19
I0
sg20
g21
(S'\x07\xdd\t\x1d\x13\r)\n\xafx'
p2394
tp2395
Rp2396
sg25
I0
sg26
g27
(g28
(I0
tp2397
g30
tp2398
Rp2399
(I1
(I2
tp2400
g36
I00
S'\x1d\x00\x00\x00n\x00\x00\x00'
p2401
tp2402
bsba(i__main__
FrameData
p2403
(dp2404
g6
g7
sg8
g9
(g13
S'\xa3\x14\xae\xa8\x87\x16!@'
p2405
tp2406
Rp2407
sg19
I0
sg20
g21
(S'\x07\xdd\t\x1d\x13\r)\n\xf0\x8c'
p2408
tp2409
Rp2410
sg25
I0
sg26
g27
(g28
(I0
tp2411
g30
tp2412
Rp2413
(I1
(I2
tp2414
g36
I00
S'\x1f\x00\x00\x00n\x00\x00\x00'
p2415
tp2416
bsba(i__main__
FrameData
p2417
(dp2418
g6
g7
sg8
g9
(g13
S"\xe0\x11<m\xceh'@"
p2419
tp2420
Rp2421
sg19
I0
sg20
g21
(S'\x07\xdd\t\x1d\x13\r)\x0b0F'
p2422
tp2423
Rp2424
sg25
I0
sg26
g27
(g28
(I0
tp2425
g30
tp2426
Rp2427
(I1
(I2
tp2428
g36
I00
S'"\x00\x00\x00m\x00\x00\x00'
p2429
tp2430
bsba(i__main__
FrameData
p2431
(dp2432
g6
g85
sg8
g9
(g13
S'lNy\x00\x85*(@'
p2433
tp2434
Rp2435
sg19
I0
sg20
g21
(S'\x07\xdd\t\x1d\x13\r)\x0br\xc6'
p2436
tp2437
Rp2438
sg25
I0
sg26
g27
(g28
(I0
tp2439
g30
tp2440
Rp2441
(I1
(I2
tp2442
g36
I00
S'&\x00\x00\x00l\x00\x00\x00'
p2443
tp2444
bsba(i__main__
FrameData
p2445
(dp2446
g6
g85
sg8
g9
(g13
S'\x9a.\x90!hp"@'
p2447
tp2448
Rp2449
sg19
I0
sg20
g21
(S'\x07\xdd\t\x1d\x13\r)\x0b\xb3\xd3'
p2450
tp2451
Rp2452
sg25
I0
sg26
g27
(g28
(I0
tp2453
g30
tp2454
Rp2455
(I1
(I2
tp2456
g36
I00
S'*\x00\x00\x00k\x00\x00\x00'
p2457
tp2458
bsba(i__main__
FrameData
p2459
(dp2460
g6
g85
sg8
g9
(g13
S'S[\xda:XL\x19@'
p2461
tp2462
Rp2463
sg19
I0
sg20
g21
(S'\x07\xdd\t\x1d\x13\r)\x0b\xf3\xf5'
p2464
tp2465
Rp2466
sg25
I0
sg26
g27
(g28
(I0
tp2467
g30
tp2468
Rp2469
(I1
(I2
tp2470
g36
I00
S'/\x00\x00\x00k\x00\x00\x00'
p2471
tp2472
bsba(i__main__
FrameData
p2473
(dp2474
g6
g85
sg8
g9
(g13
S'\xd0\xbaa?\xe0\x1f @'
p2475
tp2476
Rp2477
sg19
I0
sg20
g21
(S'\x07\xdd\t\x1d\x13\r)\x0c6\n'
p2478
tp2479
Rp2480
sg25
I0
sg26
g27
(g28
(I0
tp2481
g30
tp2482
Rp2483
(I1
(I2
tp2484
g36
I00
S'5\x00\x00\x00j\x00\x00\x00'
p2485
tp2486
bsba(i__main__
FrameData
p2487
(dp2488
g6
g85
sg8
g9
(g13
S'6\xd0\xd2x\xa2B%@'
p2489
tp2490
Rp2491
sg19
I0
sg20
g21
(S'\x07\xdd\t\x1d\x13\r)\x0cw\x18'
p2492
tp2493
Rp2494
sg25
I0
sg26
g27
(g28
(I0
tp2495
g30
tp2496
Rp2497
(I1
(I2
tp2498
g36
I00
S'9\x00\x00\x00j\x00\x00\x00'
p2499
tp2500
bsba(i__main__
FrameData
p2501
(dp2502
g6
g85
sg8
g9
(g13
S'Qf\x99\xcb\xa9\x13*@'
p2503
tp2504
Rp2505
sg19
I0
sg20
g21
(S'\x07\xdd\t\x1d\x13\r)\x0c\xbd\x82'
p2506
tp2507
Rp2508
sg25
I0
sg26
g27
(g28
(I0
tp2509
g30
tp2510
Rp2511
(I1
(I2
tp2512
g36
I00
S'<\x00\x00\x00j\x00\x00\x00'
p2513
tp2514
bsba(i__main__
FrameData
p2515
(dp2516
g6
g212
sg8
g9
(g13
S'Qf\x99\xcb\xa9\x13*@'
p2517
tp2518
Rp2519
sg19
I0
sg20
g21
(S'\x07\xdd\t\x1d\x13\r)\x0c\xf9N'
p2520
tp2521
Rp2522
sg25
I0
sg26
g27
(g28
(I0
tp2523
g30
tp2524
Rp2525
(I1
(I2
tp2526
g36
I00
S'>\x00\x00\x00j\x00\x00\x00'
p2527
tp2528
bsba(i__main__
FrameData
p2529
(dp2530
g6
g212
sg8
g9
(g13
S'\xeb\x12\xb2\xbb\xb2\xcd&@'
p2531
tp2532
Rp2533
sg19
I0
sg20
g21
(S'\x07\xdd\t\x1d\x13\r)\r:n'
p2534
tp2535
Rp2536
sg25
I0
sg26
g27
(g28
(I0
tp2537
g30
tp2538
Rp2539
(I1
(I2
tp2540
g36
I00
S'@\x00\x00\x00j\x00\x00\x00'
p2541
tp2542
bsba(i__main__
FrameData
p2543
(dp2544
g6
g212
sg8
g9
(g13
S'ST\xaf\x99\x8a\xcc#@'
p2545
tp2546
Rp2547
sg19
I0
sg20
g21
(S'\x07\xdd\t\x1d\x13\r)\r|\xee'
p2548
tp2549
Rp2550
sg25
I0
sg26
g27
(g28
(I0
tp2551
g30
tp2552
Rp2553
(I1
(I2
tp2554
g36
I00
S'B\x00\x00\x00j\x00\x00\x00'
p2555
tp2556
bsba(i__main__
FrameData
p2557
(dp2558
g6
g212
sg8
g9
(g13
S'\x9a.\x90!hp"@'
p2559
tp2560
Rp2561
sg19
I0
sg20
g21
(S'\x07\xdd\t\x1d\x13\r)\r\xbc\xb8'
p2562
tp2563
Rp2564
sg25
I0
sg26
g27
(g28
(I0
tp2565
g30
tp2566
Rp2567
(I1
(I2
tp2568
g36
I00
S'C\x00\x00\x00j\x00\x00\x00'
p2569
tp2570
bsba(i__main__
FrameData
p2571
(dp2572
g6
g212
sg8
g9
(g13
S'N\x017\xfac4!@'
p2573
tp2574
Rp2575
sg19
I0
sg20
g21
(S'\x07\xdd\t\x1d\x13\r)\r\xfdH'
p2576
tp2577
Rp2578
sg25
I0
sg26
g27
(g28
(I0
tp2579
g30
tp2580
Rp2581
(I1
(I2
tp2582
g36
I00
S'D\x00\x00\x00j\x00\x00\x00'
p2583
tp2584
bsba(i__main__
FrameData
p2585
(dp2586
g6
g212
sg8
g9
(g13
S'\xd0\xbaa?\xe0\x1f @'
p2587
tp2588
Rp2589
sg19
I0
sg20
g21
(S'\x07\xdd\t\x1d\x13\r)\x0e?\xde'
p2590
tp2591
Rp2592
sg25
I0
sg26
g27
(g28
(I0
tp2593
g30
tp2594
Rp2595
(I1
(I2
tp2596
g36
I00
S'E\x00\x00\x00j\x00\x00\x00'
p2597
tp2598
bsba(i__main__
FrameData
p2599
(dp2600
g6
g212
sg8
g9
(g13
S'p\xc4\x9d9\x8dv\x1e@'
p2601
tp2602
Rp2603
sg19
I0
sg20
g21
(S'\x07\xdd\t\x1d\x13\r)\x0e\xc1\x07'
p2604
tp2605
Rp2606
sg25
I0
sg26
g27
(g28
(I0
tp2607
g30
tp2608
Rp2609
(I1
(I2
tp2610
g36
I00
S'F\x00\x00\x00j\x00\x00\x00'
p2611
tp2612
bsba(i__main__
FrameData
p2613
(dp2614
g6
g212
sg8
g9
(g13
S'\xe9\xfbv \xd5\x1e\x1d@'
p2615
tp2616
Rp2617
sg19
I0
sg20
g21
(S'\x07\xdd\t\x1d\x13\r)\x0f\x021'
p2618
tp2619
Rp2620
sg25
I0
sg26
g27
(g28
(I0
tp2621
g30
tp2622
Rp2623
(I1
(I2
tp2624
g36
I00
S'G\x00\x00\x00j\x00\x00\x00'
p2625
tp2626
bsba(i__main__
FrameData
p2627
(dp2628
g6
g212
sg8
g9
(g13
S'9\xdcc\xb3\xbfT\x18@'
p2629
tp2630
Rp2631
sg19
I0
sg20
g21
(S'\x07\xdd\t\x1d\x13\r*\x00B+'
p2632
tp2633
Rp2634
sg25
I0
sg26
g27
(g28
(I0
tp2635
g30
tp2636
Rp2637
(I1
(I2
tp2638
g36
I00
S'H\x00\x00\x00k\x00\x00\x00'
p2639
tp2640
bsba(i__main__
FrameData
p2641
(dp2642
g6
g212
sg8
g9
(g13
S'\x00\x00\x00\x00\x00\x00\x14@'
p2643
tp2644
Rp2645
sg19
I0
sg20
g21
(S'\x07\xdd\t\x1d\x13\r*\x00\xcaC'
p2646
tp2647
Rp2648
sg25
I0
sg26
g27
(g28
(I0
tp2649
g30
tp2650
Rp2651
(I1
(I2
tp2652
g36
I00
S'I\x00\x00\x00l\x00\x00\x00'
p2653
tp2654
bsba(i__main__
FrameData
p2655
(dp2656
g6
g212
sg8
g9
(g13
S'\x00\x00\x00\x00\x00\x00\x10@'
p2657
tp2658
Rp2659
sg19
I0
sg20
g21
(S'\x07\xdd\t\x1d\x13\r*\x01\x06\xa3'
p2660
tp2661
Rp2662
sg25
I0
sg26
g27
(g28
(I0
tp2663
g30
tp2664
Rp2665
(I1
(I2
tp2666
g36
I00
S'I\x00\x00\x00m\x00\x00\x00'
p2667
tp2668
bsba(i__main__
FrameData
p2669
(dp2670
g6
g212
sg8
g9
(g13
S'\x00\x00\x00\x00\x00\x00\x08@'
p2671
tp2672
Rp2673
sg19
I0
sg20
g21
(S'\x07\xdd\t\x1d\x13\r*\x01\x8d\x9c'
p2674
tp2675
Rp2676
sg25
I0
sg26
g27
(g28
(I0
tp2677
g30
tp2678
Rp2679
(I1
(I2
tp2680
g36
I00
S'I\x00\x00\x00n\x00\x00\x00'
p2681
tp2682
bsba(i__main__
FrameData
p2683
(dp2684
g6
g212
sg8
g9
(g13
S'\x00\x00\x00\x00\x00\x00\x00@'
p2685
tp2686
Rp2687
sg19
I0
sg20
g21
(S'\x07\xdd\t\x1d\x13\r*\x03\x96a'
p2688
tp2689
Rp2690
sg25
I0
sg26
g27
(g28
(I0
tp2691
g30
tp2692
Rp2693
(I1
(I2
tp2694
g36
I00
S'I\x00\x00\x00o\x00\x00\x00'
p2695
tp2696
bsba(i__main__
FrameData
p2697
(dp2698
g6
g212
sg8
g9
(g13
S'\x00\x00\x00\x00\x00\x00\xf0?'
p2699
tp2700
Rp2701
sg19
I0
sg20
g21
(S'\x07\xdd\t\x1d\x13\r*\x03\xd7t'
p2702
tp2703
Rp2704
sg25
I0
sg26
g27
(g28
(I0
tp2705
g30
tp2706
Rp2707
(I1
(I2
tp2708
g36
I00
S'I\x00\x00\x00p\x00\x00\x00'
p2709
tp2710
bsba(i__main__
FrameData
p2711
(dp2712
g6
g212
sg8
g9
(g13
S'\x00\x00\x00\x00\x00\x00\x00@'
p2713
tp2714
Rp2715
sg19
I0
sg20
g21
(S'\x07\xdd\t\x1d\x13\r*\x06!U'
p2716
tp2717
Rp2718
sg25
I0
sg26
g27
(g28
(I0
tp2719
g30
tp2720
Rp2721
(I1
(I2
tp2722
g36
I00
S'I\x00\x00\x00o\x00\x00\x00'
p2723
tp2724
bsba(i__main__
FrameData
p2725
(dp2726
g6
g212
sg8
g9
(g13
S'\x00\x00\x00\x00\x00\x00\x08@'
p2727
tp2728
Rp2729
sg19
I0
sg20
g21
(S'\x07\xdd\t\x1d\x13\r*\x06bx'
p2730
tp2731
Rp2732
sg25
I0
sg26
g27
(g28
(I0
tp2733
g30
tp2734
Rp2735
(I1
(I2
tp2736
g36
I00
S'I\x00\x00\x00n\x00\x00\x00'
p2737
tp2738
bsba(i__main__
FrameData
p2739
(dp2740
g6
g212
sg8
g9
(g13
S'\x00\x00\x00\x00\x00\x00\x10@'
p2741
tp2742
Rp2743
sg19
I0
sg20
g21
(S'\x07\xdd\t\x1d\x13\r*\x06\xa5\x01'
p2744
tp2745
Rp2746
sg25
I0
sg26
g27
(g28
(I0
tp2747
g30
tp2748
Rp2749
(I1
(I2
tp2750
g36
I00
S'I\x00\x00\x00m\x00\x00\x00'
p2751
tp2752
bsba(i__main__
FrameData
p2753
(dp2754
g6
g212
sg8
g9
(g13
S'\x07\xed\xaff\x0f~\x10@'
p2755
tp2756
Rp2757
sg19
I0
sg20
g21
(S'\x07\xdd\t\x1d\x13\r*\x07\xa7\xf9'
p2758
tp2759
Rp2760
sg25
I0
sg26
g27
(g28
(I0
tp2761
g30
tp2762
Rp2763
(I1
(I2
tp2764
g36
I00
S'J\x00\x00\x00m\x00\x00\x00'
p2765
tp2766
bsba(i__main__
FrameData
p2767
(dp2768
g6
g212
sg8
g9
(g13
S'\xf3\xd9\xa8\xa4h\x8a\x15@'
p2769
tp2770
Rp2771
sg19
I0
sg20
g21
(S'\x07\xdd\t\x1d\x13\r*\x07\xe93'
p2772
tp2773
Rp2774
sg25
I0
sg26
g27
(g28
(I0
tp2775
g30
tp2776
Rp2777
(I1
(I2
tp2778
g36
I00
S'K\x00\x00\x00l\x00\x00\x00'
p2779
tp2780
bsba(i__main__
FrameData
p2781
(dp2782
g6
g212
sg8
g9
(g13
S'\xc0\n\x1f\x00\xc6H\x1c@'
p2783
tp2784
Rp2785
sg19
I0
sg20
g21
(S'\x07\xdd\t\x1d\x13\r*\x08+j'
p2786
tp2787
Rp2788
sg25
I0
sg26
g27
(g28
(I0
tp2789
g30
tp2790
Rp2791
(I1
(I2
tp2792
g36
I00
S'N\x00\x00\x00l\x00\x00\x00'
p2793
tp2794
bsba(i__main__
FrameData
p2795
(dp2796
g6
g212
sg8
g9
(g13
S'w\x03Is \xa2%@'
p2797
tp2798
Rp2799
sg19
I0
sg20
g21
(S'\x07\xdd\t\x1d\x13\r*\x08k|'
p2800
tp2801
Rp2802
sg25
I0
sg26
g27
(g28
(I0
tp2803
g30
tp2804
Rp2805
(I1
(I2
tp2806
g36
I00
S'R\x00\x00\x00k\x00\x00\x00'
p2807
tp2808
bsba(i__main__
FrameData
p2809
(dp2810
g6
g789
sg8
g9
(g13
S'\x88\x80v\xd5\\\x97$@'
p2811
tp2812
Rp2813
sg19
I0
sg20
g21
(S'\x07\xdd\t\x1d\x13\r*\x08\xac\xbe'
p2814
tp2815
Rp2816
sg25
I0
sg26
g27
(g28
(I0
tp2817
g30
tp2818
Rp2819
(I1
(I2
tp2820
g36
I00
S'[\x00\x00\x00i\x00\x00\x00'
p2821
tp2822
bsba(i__main__
FrameData
p2823
(dp2824
g6
g789
sg8
g9
(g13
S'\xf0)#L\x89\x19$@'
p2825
tp2826
Rp2827
sg19
I0
sg20
g21
(S'\x07\xdd\t\x1d\x13\r*\x08\xed\xf7'
p2828
tp2829
Rp2830
sg25
I0
sg26
g27
(g28
(I0
tp2831
g30
tp2832
Rp2833
(I1
(I2
tp2834
g36
I00
S'a\x00\x00\x00h\x00\x00\x00'
p2835
tp2836
bsba(i__main__
FrameData
p2837
(dp2838
g6
g789
sg8
g9
(g13
S'\x00\x00\x00\x00\x00\x00.@'
p2839
tp2840
Rp2841
sg19
I0
sg20
g21
(S'\x07\xdd\t\x1d\x13\r*\t-\xb8'
p2842
tp2843
Rp2844
sg25
I0
sg26
g27
(g28
(I0
tp2845
g30
tp2846
Rp2847
(I1
(I2
tp2848
g36
I00
S'i\x00\x00\x00f\x00\x00\x00'
p2849
tp2850
bsba(i__main__
FrameData
p2851
(dp2852
g6
g818
sg8
g9
(g13
S'htN\x17\xb2=/@'
p2853
tp2854
Rp2855
sg19
I0
sg20
g21
(S'\x07\xdd\t\x1d\x13\r*\to\xa4'
p2856
tp2857
Rp2858
sg25
I0
sg26
g27
(g28
(I0
tp2859
g30
tp2860
Rp2861
(I1
(I2
tp2862
g36
I00
S'n\x00\x00\x00f\x00\x00\x00'
p2863
tp2864
bsba(i__main__
FrameData
p2865
(dp2866
g6
g818
sg8
g9
(g13
S'\xfc\xeeci3\xd5*@'
p2867
tp2868
Rp2869
sg19
I0
sg20
g21
(S'\x07\xdd\t\x1d\x13\r*\t\xb1\x94'
p2870
tp2871
Rp2872
sg25
I0
sg26
g27
(g28
(I0
tp2873
g30
tp2874
Rp2875
(I1
(I2
tp2876
g36
I00
S'r\x00\x00\x00f\x00\x00\x00'
p2877
tp2878
bsba(i__main__
FrameData
p2879
(dp2880
g6
g818
sg8
g9
(g13
S'\xef\rI\xf1\xf33+@'
p2881
tp2882
Rp2883
sg19
I0
sg20
g21
(S'\x07\xdd\t\x1d\x13\r*\t\xf2\x0f'
p2884
tp2885
Rp2886
sg25
I0
sg26
g27
(g28
(I0
tp2887
g30
tp2888
Rp2889
(I1
(I2
tp2890
g36
I00
S't\x00\x00\x00e\x00\x00\x00'
p2891
tp2892
bsba(i__main__
FrameData
p2893
(dp2894
g6
g818
sg8
g9
(g13
S'\xde4\xda\xfeNN*@'
p2895
tp2896
Rp2897
sg19
I0
sg20
g21
(S'\x07\xdd\t\x1d\x13\r*\n4$'
p2898
tp2899
Rp2900
sg25
I0
sg26
g27
(g28
(I0
tp2901
g30
tp2902
Rp2903
(I1
(I2
tp2904
g36
I00
S'v\x00\x00\x00e\x00\x00\x00'
p2905
tp2906
bsba(i__main__
FrameData
p2907
(dp2908
g6
g818
sg8
g9
(g13
S'\x00\x00\x00\x00\x00\x00*@'
p2909
tp2910
Rp2911
sg19
I0
sg20
g21
(S'\x07\xdd\t\x1d\x13\r*\nt\xfe'
p2912
tp2913
Rp2914
sg25
I0
sg26
g27
(g28
(I0
tp2915
g30
tp2916
Rp2917
(I1
(I2
tp2918
g36
I00
S'x\x00\x00\x00e\x00\x00\x00'
p2919
tp2920
bsba(i__main__
FrameData
p2921
(dp2922
g6
g818
sg8
g9
(g13
S'\xc0\n\x1f\x00\xc6H,@'
p2923
tp2924
Rp2925
sg19
I0
sg20
g21
(S'\x07\xdd\t\x1d\x13\r*\n\xb6\x02'
p2926
tp2927
Rp2928
sg25
I0
sg26
g27
(g28
(I0
tp2929
g30
tp2930
Rp2931
(I1
(I2
tp2932
g36
I00
S'z\x00\x00\x00d\x00\x00\x00'
p2933
tp2934
bsba(i__main__
FrameData
p2935
(dp2936
g6
g818
sg8
g9
(g13
S'\xe9\xfbv \xd5\x1e-@'
p2937
tp2938
Rp2939
sg19
I0
sg20
g21
(S'\x07\xdd\t\x1d\x13\r*\n\xf6\xea'
p2940
tp2941
Rp2942
sg25
I0
sg26
g27
(g28
(I0
tp2943
g30
tp2944
Rp2945
(I1
(I2
tp2946
g36
I00
S'|\x00\x00\x00d\x00\x00\x00'
p2947
tp2948
bsba(i__main__
FrameData
p2949
(dp2950
g6
g818
sg8
g9
(g13
S'p\xc4\x9d9\x8dv.@'
p2951
tp2952
Rp2953
sg19
I0
sg20
g21
(S'\x07\xdd\t\x1d\x13\r*\x0b<\xd2'
p2954
tp2955
Rp2956
sg25
I0
sg26
g27
(g28
(I0
tp2957
g30
tp2958
Rp2959
(I1
(I2
tp2960
g36
I00
S'~\x00\x00\x00d\x00\x00\x00'
p2961
tp2962
bsba(i__main__
FrameData
p2963
(dp2964
g6
g818
sg8
g9
(g13
S'\x00\x00\x00\x00\x00\x001@'
p2965
tp2966
Rp2967
sg19
I0
sg20
g21
(S'\x07\xdd\t\x1d\x13\r*\x0bzQ'
p2968
tp2969
Rp2970
sg25
I0
sg26
g27
(g28
(I0
tp2971
g30
tp2972
Rp2973
(I1
(I2
tp2974
g36
I00
S'\x80\x00\x00\x00c\x00\x00\x00'
p2975
tp2976
bsba(i__main__
FrameData
p2977
(dp2978
g6
g818
sg8
g9
(g13
S'\xbf\x8f+\t\x89[2@'
p2979
tp2980
Rp2981
sg19
I0
sg20
g21
(S'\x07\xdd\t\x1d\x13\r*\x0b\xbb*'
p2982
tp2983
Rp2984
sg25
I0
sg26
g27
(g28
(I0
tp2985
g30
tp2986
Rp2987
(I1
(I2
tp2988
g36
I00
S'\x81\x00\x00\x00b\x00\x00\x00'
p2989
tp2990
bsba(i__main__
FrameData
p2991
(dp2992
g6
S'y'
p2993
sg8
g9
(g13
S'\x8fJ\x95`e\x064@'
p2994
tp2995
Rp2996
sg19
I0
sg20
g21
(S'\x07\xdd\t\x1d\x13\r*\x0b\xff\x8b'
p2997
tp2998
Rp2999
sg25
I0
sg26
g27
(g28
(I0
tp3000
g30
tp3001
Rp3002
(I1
(I2
tp3003
g36
I00
S'\x83\x00\x00\x00a\x00\x00\x00'
p3004
tp3005
bsba(i__main__
FrameData
p3006
(dp3007
g6
g2993
sg8
g9
(g13
S'\xf0)#L\x89\x194@'
p3008
tp3009
Rp3010
sg19
I0
sg20
g21
(S'\x07\xdd\t\x1d\x13\r*\x0c?V'
p3011
tp3012
Rp3013
sg25
I0
sg26
g27
(g28
(I0
tp3014
g30
tp3015
Rp3016
(I1
(I2
tp3017
g36
I00
S'\x84\x00\x00\x00a\x00\x00\x00'
p3018
tp3019
bsba(i__main__
FrameData
p3020
(dp3021
g6
g2993
sg8
g9
(g13
S'X(/\x84y\xae2@'
p3022
tp3023
Rp3024
sg19
I0
sg20
g21
(S'\x07\xdd\t\x1d\x13\r*\x0c\x83\xf4'
p3025
tp3026
Rp3027
sg25
I0
sg26
g27
(g28
(I0
tp3028
g30
tp3029
Rp3030
(I1
(I2
tp3031
g36
I00
S'\x87\x00\x00\x00_\x00\x00\x00'
p3032
tp3033
bsba(i__main__
FrameData
p3034
(dp3035
g6
g2993
sg8
g9
(g13
S'\x96`G\xb3\x80b2@'
p3036
tp3037
Rp3038
sg19
I0
sg20
g21
(S'\x07\xdd\t\x1d\x13\r*\x0c\xc6\x19'
p3039
tp3040
Rp3041
sg25
I0
sg26
g27
(g28
(I0
tp3042
g30
tp3043
Rp3044
(I1
(I2
tp3045
g36
I00
S'\x89\x00\x00\x00^\x00\x00\x00'
p3046
tp3047
bsba(i__main__
FrameData
p3048
(dp3049
g6
g2993
sg8
g9
(g13
S'\xb9\xbaF\xca+~1@'
p3050
tp3051
Rp3052
sg19
I0
sg20
g21
(S'\x07\xdd\t\x1d\x13\r*\r\x02\x11'
p3053
tp3054
Rp3055
sg25
I0
sg26
g27
(g28
(I0
tp3056
g30
tp3057
Rp3058
(I1
(I2
tp3059
g36
I00
S'\x8b\x00\x00\x00\\\x00\x00\x00'
p3060
tp3061
bsba(i__main__
FrameData
p3062
(dp3063
g6
g2993
sg8
g9
(g13
S'\x9a.\x90!hp2@'
p3064
tp3065
Rp3066
sg19
I0
sg20
g21
(S'\x07\xdd\t\x1d\x13\r*\rF\xc3'
p3067
tp3068
Rp3069
sg25
I0
sg26
g27
(g28
(I0
tp3070
g30
tp3071
Rp3072
(I1
(I2
tp3073
g36
I00
S'\x8e\x00\x00\x00[\x00\x00\x00'
p3074
tp3075
bsba(i__main__
FrameData
p3076
(dp3077
g6
S'u'
p3078
sg8
g9
(g13
S'\xa8\xf4\x97\x9bw\xe31@'
p3079
tp3080
Rp3081
sg19
I0
sg20
g21
(S'\x07\xdd\t\x1d\x13\r*\r\x85\x00'
p3082
tp3083
Rp3084
sg25
I0
sg26
g27
(g28
(I0
tp3085
g30
tp3086
Rp3087
(I1
(I2
tp3088
g36
I00
S'\x90\x00\x00\x00Z\x00\x00\x00'
p3089
tp3090
bsba(i__main__
FrameData
p3091
(dp3092
g6
g3078
sg8
g9
(g13
S'p\xc4\x9d9\x8dv.@'
p3093
tp3094
Rp3095
sg19
I0
sg20
g21
(S'\x07\xdd\t\x1d\x13\r*\r\xc8\xa6'
p3096
tp3097
Rp3098
sg25
I0
sg26
g27
(g28
(I0
tp3099
g30
tp3100
Rp3101
(I1
(I2
tp3102
g36
I00
S'\x92\x00\x00\x00X\x00\x00\x00'
p3103
tp3104
bsba(i__main__
FrameData
p3105
(dp3106
g6
g3078
sg8
g9
(g13
S'\xef\rI\xf1\xf33+@'
p3107
tp3108
Rp3109
sg19
I0
sg20
g21
(S'\x07\xdd\t\x1d\x13\r*\x0e\x05\x9f'
p3110
tp3111
Rp3112
sg25
I0
sg26
g27
(g28
(I0
tp3113
g30
tp3114
Rp3115
(I1
(I2
tp3116
g36
I00
S'\x94\x00\x00\x00W\x00\x00\x00'
p3117
tp3118
bsba(i__main__
FrameData
p3119
(dp3120
g6
g3078
sg8
g9
(g13
S'&5w\xe2K\x15(@'
p3121
tp3122
Rp3123
sg19
I0
sg20
g21
(S'\x07\xdd\t\x1d\x13\r*\x0eF\xa2'
p3124
tp3125
Rp3126
sg25
I0
sg26
g27
(g28
(I0
tp3127
g30
tp3128
Rp3129
(I1
(I2
tp3130
g36
I00
S'\x97\x00\x00\x00V\x00\x00\x00'
p3131
tp3132
bsba(i__main__
FrameData
p3133
(dp3134
g6
g3078
sg8
g9
(g13
S'&5w\xe2K\x15(@'
p3135
tp3136
Rp3137
sg19
I0
sg20
g21
(S'\x07\xdd\t\x1d\x13\r*\x0e\x89\xec'
p3138
tp3139
Rp3140
sg25
I0
sg26
g27
(g28
(I0
tp3141
g30
tp3142
Rp3143
(I1
(I2
tp3144
g36
I00
S'\x99\x00\x00\x00V\x00\x00\x00'
p3145
tp3146
bsba(i__main__
FrameData
p3147
(dp3148
g6
g3078
sg8
g9
(g13
S'\xf3\xd9\xa8\xa4h\x8a%@'
p3149
tp3150
Rp3151
sg19
I0
sg20
g21
(S'\x07\xdd\t\x1d\x13\r*\x0e\xd0 '
p3152
tp3153
Rp3154
sg25
I0
sg26
g27
(g28
(I0
tp3155
g30
tp3156
Rp3157
(I1
(I2
tp3158
g36
I00
S'\x9c\x00\x00\x00T\x00\x00\x00'
p3159
tp3160
bsba(i__main__
FrameData
p3161
(dp3162
g6
g3078
sg8
g9
(g13
S'\xeb\x12\xb2\xbb\xb2\xcd&@'
p3163
tp3164
Rp3165
sg19
I0
sg20
g21
(S'\x07\xdd\t\x1d\x13\r*\x0f\x12\x85'
p3166
tp3167
Rp3168
sg25
I0
sg26
g27
(g28
(I0
tp3169
g30
tp3170
Rp3171
(I1
(I2
tp3172
g36
I00
S'\xa1\x00\x00\x00Q\x00\x00\x00'
p3173
tp3174
bsba(i__main__
FrameData
p3175
(dp3176
g6
g3078
sg8
g9
(g13
S'\xfc\xeeci3\xd5*@'
p3177
tp3178
Rp3179
sg19
I0
sg20
g21
(S'\x07\xdd\t\x1d\x13\r+\x00\x0b\xe3'
p3180
tp3181
Rp3182
sg25
I0
sg26
g27
(g28
(I0
tp3183
g30
tp3184
Rp3185
(I1
(I2
tp3186
g36
I00
S'\xa4\x00\x00\x00P\x00\x00\x00'
p3187
tp3188
bsba(i__main__
FrameData
p3189
(dp3190
g6
S'i'
p3191
sg8
g9
(g13
S'\x8a\xe3\x07\x1a\x17\xbd(@'
p3192
tp3193
Rp3194
sg19
I0
sg20
g21
(S'\x07\xdd\t\x1d\x13\r+\x00P\x94'
p3195
tp3196
Rp3197
sg25
I0
sg26
g27
(g28
(I0
tp3198
g30
tp3199
Rp3200
(I1
(I2
tp3201
g36
I00
S'\xa6\x00\x00\x00N\x00\x00\x00'
p3202
tp3203
bsba(i__main__
FrameData
p3204
(dp3205
g6
g3191
sg8
g9
(g13
S'\xf6/\x12_ee$@'
p3206
tp3207
Rp3208
sg19
I0
sg20
g21
(S'\x07\xdd\t\x1d\x13\r+\x00\x8e\xdb'
p3209
tp3210
Rp3211
sg25
I0
sg26
g27
(g28
(I0
tp3212
g30
tp3213
Rp3214
(I1
(I2
tp3215
g36
I00
S'\xa8\x00\x00\x00M\x00\x00\x00'
p3216
tp3217
bsba(i__main__
FrameData
p3218
(dp3219
g6
g3191
sg8
g9
(g13
S'\x07\xed\xaff\x0f~ @'
p3220
tp3221
Rp3222
sg19
I0
sg20
g21
(S'\x07\xdd\t\x1d\x13\r+\x01\x134'
p3223
tp3224
Rp3225
sg25
I0
sg26
g27
(g28
(I0
tp3226
g30
tp3227
Rp3228
(I1
(I2
tp3229
g36
I00
S'\xaa\x00\x00\x00M\x00\x00\x00'
p3230
tp3231
bsba(i__main__
FrameData
p3232
(dp3233
g6
g3191
sg8
g9
(g13
S'\xe9\xfbv \xd5\x1e\x1d@'
p3234
tp3235
Rp3236
sg19
I0
sg20
g21
(S'\x07\xdd\t\x1d\x13\r+\x01PN'
p3237
tp3238
Rp3239
sg25
I0
sg26
g27
(g28
(I0
tp3240
g30
tp3241
Rp3242
(I1
(I2
tp3243
g36
I00
S'\xab\x00\x00\x00M\x00\x00\x00'
p3244
tp3245
bsba(i__main__
FrameData
p3246
(dp3247
g6
g3191
sg8
g9
(g13
S'9\xdcc\xb3\xbfT\x18@'
p3248
tp3249
Rp3250
sg19
I0
sg20
g21
(S'\x07\xdd\t\x1d\x13\r+\x01\x91H'
p3251
tp3252
Rp3253
sg25
I0
sg26
g27
(g28
(I0
tp3254
g30
tp3255
Rp3256
(I1
(I2
tp3257
g36
I00
S'\xac\x00\x00\x00L\x00\x00\x00'
p3258
tp3259
bsba(i__main__
FrameData
p3260
(dp3261
g6
g3191
sg8
g9
(g13
S'\x00\x00\x00\x00\x00\x00\x14@'
p3262
tp3263
Rp3264
sg19
I0
sg20
g21
(S'\x07\xdd\t\x1d\x13\r+\x01\xd2\x0f'
p3265
tp3266
Rp3267
sg25
I0
sg26
g27
(g28
(I0
tp3268
g30
tp3269
Rp3270
(I1
(I2
tp3271
g36
I00
S'\xad\x00\x00\x00K\x00\x00\x00'
p3272
tp3273
bsba(i__main__
FrameData
p3274
(dp3275
g6
g3191
sg8
g9
(g13
S'S[\xda:XL\t@'
p3276
tp3277
Rp3278
sg19
I0
sg20
g21
(S'\x07\xdd\t\x1d\x13\r+\x02\x17E'
p3279
tp3280
Rp3281
sg25
I0
sg26
g27
(g28
(I0
tp3282
g30
tp3283
Rp3284
(I1
(I2
tp3285
g36
I00
S'\xaf\x00\x00\x00J\x00\x00\x00'
p3286
tp3287
bsba(i__main__
FrameData
p3288
(dp3289
g6
g3191
sg8
g9
(g13
S'\xcd;\x7ff\x9e\xa0\x06@'
p3290
tp3291
Rp3292
sg19
I0
sg20
g21
(S'\x07\xdd\t\x1d\x13\r+\x02T\xf4'
p3293
tp3294
Rp3295
sg25
I0
sg26
g27
(g28
(I0
tp3296
g30
tp3297
Rp3298
(I1
(I2
tp3299
g36
I00
S'\xb0\x00\x00\x00I\x00\x00\x00'
p3300
tp3301
bsba(i__main__
FrameData
p3302
(dp3303
g6
g3191
sg8
g9
(g13
S'S[\xda:XL\t@'
p3304
tp3305
Rp3306
sg19
I0
sg20
g21
(S'\x07\xdd\t\x1d\x13\r+\x02\x98x'
p3307
tp3308
Rp3309
sg25
I0
sg26
g27
(g28
(I0
tp3310
g30
tp3311
Rp3312
(I1
(I2
tp3313
g36
I00
S'\xb1\x00\x00\x00H\x00\x00\x00'
p3314
tp3315
bsba(i__main__
FrameData
p3316
(dp3317
g6
g3191
sg8
g9
(g13
S'\x00\x00\x00\x00\x00\x00\x08@'
p3318
tp3319
Rp3320
sg19
I0
sg20
g21
(S'\x07\xdd\t\x1d\x13\r+\x02\xdb\x1f'
p3321
tp3322
Rp3323
sg25
I0
sg26
g27
(g28
(I0
tp3324
g30
tp3325
Rp3326
(I1
(I2
tp3327
g36
I00
S'\xb2\x00\x00\x00H\x00\x00\x00'
p3328
tp3329
bsba(i__main__
FrameData
p3330
(dp3331
g6
g3191
sg8
g9
(g13
S'\x00\x00\x00\x00\x00\x00\x14@'
p3332
tp3333
Rp3334
sg19
I0
sg20
g21
(S'\x07\xdd\t\x1d\x13\r+\x03\x1e@'
p3335
tp3336
Rp3337
sg25
I0
sg26
g27
(g28
(I0
tp3338
g30
tp3339
Rp3340
(I1
(I2
tp3341
g36
I00
S'\xb2\x00\x00\x00F\x00\x00\x00'
p3342
tp3343
bsba(i__main__
FrameData
p3344
(dp3345
g6
g3191
sg8
g9
(g13
S'\x07\xed\xaff\x0f~\x10@'
p3346
tp3347
Rp3348
sg19
I0
sg20
g21
(S'\x07\xdd\t\x1d\x13\r+\x06j+'
p3349
tp3350
Rp3351
sg25
I0
sg26
g27
(g28
(I0
tp3352
g30
tp3353
Rp3354
(I1
(I2
tp3355
g36
I00
S'\xb3\x00\x00\x00G\x00\x00\x00'
p3356
tp3357
bsba(i__main__
FrameData
p3358
(dp3359
g6
g3191
sg8
g9
(g13
S'S[\xda:XL\t@'
p3360
tp3361
Rp3362
sg19
I0
sg20
g21
(S'\x07\xdd\t\x1d\x13\r+\x06\xef\xa8'
p3363
tp3364
Rp3365
sg25
I0
sg26
g27
(g28
(I0
tp3366
g30
tp3367
Rp3368
(I1
(I2
tp3369
g36
I00
S'\xb3\x00\x00\x00H\x00\x00\x00'
p3370
tp3371
bsba(i__main__
FrameData
p3372
(dp3373
g6
g3191
sg8
g9
(g13
S'\xa8\xf4\x97\x9bw\xe3\x01@'
p3374
tp3375
Rp3376
sg19
I0
sg20
g21
(S'\x07\xdd\t\x1d\x13\r+\x07m\xd8'
p3377
tp3378
Rp3379
sg25
I0
sg26
g27
(g28
(I0
tp3380
g30
tp3381
Rp3382
(I1
(I2
tp3383
g36
I00
S'\xb3\x00\x00\x00I\x00\x00\x00'
p3384
tp3385
bsba(i__main__
FrameData
p3386
(dp3387
g6
g3191
sg8
g9
(g13
S'\xcd;\x7ff\x9e\xa0\xf6?'
p3388
tp3389
Rp3390
sg19
I0
sg20
g21
(S'\x07\xdd\t\x1d\x13\r+\x07\xb2_'
p3391
tp3392
Rp3393
sg25
I0
sg26
g27
(g28
(I0
tp3394
g30
tp3395
Rp3396
(I1
(I2
tp3397
g36
I00
S'\xb3\x00\x00\x00J\x00\x00\x00'
p3398
tp3399
bsba(i__main__
FrameData
p3400
(dp3401
g6
g3191
sg8
g9
(g13
S'\x00\x00\x00\x00\x00\x00\xf0?'
p3402
tp3403
Rp3404
sg19
I0
sg20
g21
(S'\x07\xdd\t\x1d\x13\r+\x080\xd1'
p3405
tp3406
Rp3407
sg25
I0
sg26
g27
(g28
(I0
tp3408
g30
tp3409
Rp3410
(I1
(I2
tp3411
g36
I00
S'\xb3\x00\x00\x00K\x00\x00\x00'
p3412
tp3413
bsba(i__main__
FrameData
p3414
(dp3415
g6
g3191
sg8
g9
(g13
S'\xa8\xf4\x97\x9bw\xe3\x01@'
p3416
tp3417
Rp3418
sg19
I0
sg20
g21
(S'\x07\xdd\t\x1d\x13\r+\x08rQ'
p3419
tp3420
Rp3421
sg25
I0
sg26
g27
(g28
(I0
tp3422
g30
tp3423
Rp3424
(I1
(I2
tp3425
g36
I00
S'\xb4\x00\x00\x00L\x00\x00\x00'
p3426
tp3427
bsba(i__main__
FrameData
p3428
(dp3429
g6
g3191
sg8
g9
(g13
S'\xcd;\x7ff\x9e\xa0\x06@'
p3430
tp3431
Rp3432
sg19
I0
sg20
g21
(S'\x07\xdd\t\x1d\x13\r+\x08\xb9\xe3'
p3433
tp3434
Rp3435
sg25
I0
sg26
g27
(g28
(I0
tp3436
g30
tp3437
Rp3438
(I1
(I2
tp3439
g36
I00
S'\xb4\x00\x00\x00M\x00\x00\x00'
p3440
tp3441
bsba(i__main__
FrameData
p3442
(dp3443
g6
g3191
sg8
g9
(g13
S'\xa8\xf4\x97\x9bw\xe3\x11@'
p3444
tp3445
Rp3446
sg19
I0
sg20
g21
(S'\x07\xdd\t\x1d\x13\r+\x08\xf8Z'
p3447
tp3448
Rp3449
sg25
I0
sg26
g27
(g28
(I0
tp3450
g30
tp3451
Rp3452
(I1
(I2
tp3453
g36
I00
S'\xb6\x00\x00\x00M\x00\x00\x00'
p3454
tp3455
bsba(i__main__
FrameData
p3456
(dp3457
g6
g3191
sg8
g9
(g13
S'\xa2\xa3\xb3\r\xe5R\x17@'
p3458
tp3459
Rp3460
sg19
I0
sg20
g21
(S'\x07\xdd\t\x1d\x13\r+\t8\x13'
p3461
tp3462
Rp3463
sg25
I0
sg26
g27
(g28
(I0
tp3464
g30
tp3465
Rp3466
(I1
(I2
tp3467
g36
I00
S'\xb7\x00\x00\x00N\x00\x00\x00'
p3468
tp3469
bsba(i__main__
FrameData
p3470
(dp3471
g6
g3191
sg8
g9
(g13
S'\xf3YaD+\xd8\x1c@'
p3472
tp3473
Rp3474
sg19
I0
sg20
g21
(S'\x07\xdd\t\x1d\x13\r+\tx\xfb'
p3475
tp3476
Rp3477
sg25
I0
sg26
g27
(g28
(I0
tp3478
g30
tp3479
Rp3480
(I1
(I2
tp3481
g36
I00
S'\xb8\x00\x00\x00O\x00\x00\x00'
p3482
tp3483
bsba(i__main__
FrameData
p3484
(dp3485
g6
g3191
sg8
g9
(g13
S'\x00\x00\x00\x00\x00\x00$@'
p3486
tp3487
Rp3488
sg19
I0
sg20
g21
(S'\x07\xdd\t\x1d\x13\r+\t\xb8U'
p3489
tp3490
Rp3491
sg25
I0
sg26
g27
(g28
(I0
tp3492
g30
tp3493
Rp3494
(I1
(I2
tp3495
g36
I00
S'\xba\x00\x00\x00Q\x00\x00\x00'
p3496
tp3497
bsba(i__main__
FrameData
p3498
(dp3499
g6
g3191
sg8
g9
(g13
S'\xeb\x12\xb2\xbb\xb2\xcd&@'
p3500
tp3501
Rp3502
sg19
I0
sg20
g21
(S'\x07\xdd\t\x1d\x13\r+\t\xfa\xc6'
p3503
tp3504
Rp3505
sg25
I0
sg26
g27
(g28
(I0
tp3506
g30
tp3507
Rp3508
(I1
(I2
tp3509
g36
I00
S'\xbb\x00\x00\x00R\x00\x00\x00'
p3510
tp3511
bsba(i__main__
FrameData
p3512
(dp3513
g6
g3191
sg8
g9
(g13
S'?*\x98"\xe3l,@'
p3514
tp3515
Rp3516
sg19
I0
sg20
g21
(S'\x07\xdd\t\x1d\x13\r+\n;\xb2'
p3517
tp3518
Rp3519
sg25
I0
sg26
g27
(g28
(I0
tp3520
g30
tp3521
Rp3522
(I1
(I2
tp3523
g36
I00
S'\xbd\x00\x00\x00T\x00\x00\x00'
p3524
tp3525
bsba(i__main__
FrameData
p3526
(dp3527
g6
S'o'
p3528
sg8
g9
(g13
S'9\xf2\xee\xcc\xd9\x1c/@'
p3529
tp3530
Rp3531
sg19
I0
sg20
g21
(S'\x07\xdd\t\x1d\x13\r+\n\x80M'
p3532
tp3533
Rp3534
sg25
I0
sg26
g27
(g28
(I0
tp3535
g30
tp3536
Rp3537
(I1
(I2
tp3538
g36
I00
S'\xbf\x00\x00\x00V\x00\x00\x00'
p3539
tp3540
bsba(i__main__
FrameData
p3541
(dp3542
g6
g3528
sg8
g9
(g13
S'\xd0\xbaa?\xe0\x1f0@'
p3543
tp3544
Rp3545
sg19
I0
sg20
g21
(S'\x07\xdd\t\x1d\x13\r+\n\xbf\x11'
p3546
tp3547
Rp3548
sg25
I0
sg26
g27
(g28
(I0
tp3549
g30
tp3550
Rp3551
(I1
(I2
tp3552
g36
I00
S'\xc2\x00\x00\x00Y\x00\x00\x00'
p3553
tp3554
bsba(i__main__
FrameData
p3555
(dp3556
g6
g3528
sg8
g9
(g13
S'p\xc4\x9d9\x8dv.@'
p3557
tp3558
Rp3559
sg19
I0
sg20
g21
(S'\x07\xdd\t\x1d\x13\r+\x0b\x02Q'
p3560
tp3561
Rp3562
sg25
I0
sg26
g27
(g28
(I0
tp3563
g30
tp3564
Rp3565
(I1
(I2
tp3566
g36
I00
S'\xc4\x00\x00\x00Y\x00\x00\x00'
p3567
tp3568
bsba(i__main__
FrameData
p3569
(dp3570
g6
g3528
sg8
g9
(g13
S'\xb3\xa73\xa0`\x0c/@'
p3571
tp3572
Rp3573
sg19
I0
sg20
g21
(S'\x07\xdd\t\x1d\x13\r+\x0bD\x8c'
p3574
tp3575
Rp3576
sg25
I0
sg26
g27
(g28
(I0
tp3577
g30
tp3578
Rp3579
(I1
(I2
tp3580
g36
I00
S'\xc6\x00\x00\x00Z\x00\x00\x00'
p3581
tp3582
bsba(i__main__
FrameData
p3583
(dp3584
g6
g3528
sg8
g9
(g13
S'\x10\xb3]\xc9`G0@'
p3585
tp3586
Rp3587
sg19
I0
sg20
g21
(S'\x07\xdd\t\x1d\x13\r+\x0b\x842'
p3588
tp3589
Rp3590
sg25
I0
sg26
g27
(g28
(I0
tp3591
g30
tp3592
Rp3593
(I1
(I2
tp3594
g36
I00
S'\xc7\x00\x00\x00[\x00\x00\x00'
p3595
tp3596
bsba(i__main__
FrameData
p3597
(dp3598
g6
g3528
sg8
g9
(g13
S'\xd0\xbaa?\xe0\x1f0@'
p3599
tp3600
Rp3601
sg19
I0
sg20
g21
(S'\x07\xdd\t\x1d\x13\r+\x0b\xc2\xea'
p3602
tp3603
Rp3604
sg25
I0
sg26
g27
(g28
(I0
tp3605
g30
tp3606
Rp3607
(I1
(I2
tp3608
g36
I00
S'\xc8\x00\x00\x00[\x00\x00\x00'
p3609
tp3610
bsba(i__main__
FrameData
p3611
(dp3612
g6
g3528
sg8
g9
(g13
S'p`\xff\x00\xfe\x070@'
p3613
tp3614
Rp3615
sg19
I0
sg20
g21
(S'\x07\xdd\t\x1d\x13\r+\x0c\x07\x1c'
p3616
tp3617
Rp3618
sg25
I0
sg26
g27
(g28
(I0
tp3619
g30
tp3620
Rp3621
(I1
(I2
tp3622
g36
I00
S'\xc9\x00\x00\x00[\x00\x00\x00'
p3623
tp3624
bsba(i__main__
FrameData
p3625
(dp3626
g6
g3528
sg8
g9
(g13
S'8\xd8\xbc\n\x1b\x072@'
p3627
tp3628
Rp3629
sg19
I0
sg20
g21
(S'\x07\xdd\t\x1d\x13\r+\x0cG\xf5'
p3630
tp3631
Rp3632
sg25
I0
sg26
g27
(g28
(I0
tp3633
g30
tp3634
Rp3635
(I1
(I2
tp3636
g36
I00
S'\xc9\x00\x00\x00]\x00\x00\x00'
p3637
tp3638
bsba(i__main__
FrameData
p3639
(dp3640
g6
g3528
sg8
g9
(g13
S'\x00\x00\x00\x00\x00\x002@'
p3641
tp3642
Rp3643
sg19
I0
sg20
g21
(S'\x07\xdd\t\x1d\x13\r+\x0c\x86?'
p3644
tp3645
Rp3646
sg25
I0
sg26
g27
(g28
(I0
tp3647
g30
tp3648
Rp3649
(I1
(I2
tp3650
g36
I00
S'\xca\x00\x00\x00]\x00\x00\x00'
p3651
tp3652
bsba(i__main__
FrameData
p3653
(dp3654
g6
g3528
sg8
g9
(g13
S'\x00\x00\x00\x00\x00\x003@'
p3655
tp3656
Rp3657
sg19
I0
sg20
g21
(S'\x07\xdd\t\x1d\x13\r+\x0c\xc8\xde'
p3658
tp3659
Rp3660
sg25
I0
sg26
g27
(g28
(I0
tp3661
g30
tp3662
Rp3663
(I1
(I2
tp3664
g36
I00
S'\xca\x00\x00\x00^\x00\x00\x00'
p3665
tp3666
bsba(i__main__
FrameData
p3667
(dp3668
g6
g3528
sg8
g9
(g13
S'\xf0)#L\x89\x194@'
p3669
tp3670
Rp3671
sg19
I0
sg20
g21
(S'\x07\xdd\t\x1d\x13\r+\rI\xe9'
p3672
tp3673
Rp3674
sg25
I0
sg26
g27
(g28
(I0
tp3675
g30
tp3676
Rp3677
(I1
(I2
tp3678
g36
I00
S'\xcc\x00\x00\x00_\x00\x00\x00'
p3679
tp3680
bsba(i__main__
FrameData
p3681
(dp3682
g6
g3528
sg8
g9
(g13
S'\xbd\xec\x81\x93G94@'
p3683
tp3684
Rp3685
sg19
I0
sg20
g21
(S'\x07\xdd\t\x1d\x13\r+\r\x8f\x1e'
p3686
tp3687
Rp3688
sg25
I0
sg26
g27
(g28
(I0
tp3689
g30
tp3690
Rp3691
(I1
(I2
tp3692
g36
I00
S'\xcd\x00\x00\x00_\x00\x00\x00'
p3693
tp3694
bsba(i__main__
FrameData
p3695
(dp3696
g6
S'l'
p3697
sg8
g9
(g13
S'=\xf3\n\x8f\xe6\x1f4@'
p3698
tp3699
Rp3700
sg19
I0
sg20
g21
(S'\x07\xdd\t\x1d\x13\r+\r\xcd\x85'
p3701
tp3702
Rp3703
sg25
I0
sg26
g27
(g28
(I0
tp3704
g30
tp3705
Rp3706
(I1
(I2
tp3707
g36
I00
S'\xcd\x00\x00\x00`\x00\x00\x00'
p3708
tp3709
bsba(i__main__
FrameData
p3710
(dp3711
g6
g3697
sg8
g9
(g13
S'5 \x89\xa6\xcd\xc92@'
p3712
tp3713
Rp3714
sg19
I0
sg20
g21
(S'\x07\xdd\t\x1d\x13\r+\x0e\rO'
p3715
tp3716
Rp3717
sg25
I0
sg26
g27
(g28
(I0
tp3718
g30
tp3719
Rp3720
(I1
(I2
tp3721
g36
I00
S'\xce\x00\x00\x00a\x00\x00\x00'
p3722
tp3723
bsba(i__main__
FrameData
p3724
(dp3725
g6
g3697
sg8
g9
(g13
S'\xa8\xf4\x97\x9bw\xe31@'
p3726
tp3727
Rp3728
sg19
I0
sg20
g21
(S'\x07\xdd\t\x1d\x13\r+\x0eRY'
p3729
tp3730
Rp3731
sg25
I0
sg26
g27
(g28
(I0
tp3732
g30
tp3733
Rp3734
(I1
(I2
tp3735
g36
I00
S'\xce\x00\x00\x00b\x00\x00\x00'
p3736
tp3737
bsba(i__main__
FrameData
p3738
(dp3739
g6
g3697
sg8
g9
(g13
S'\xd0\xbaa?\xe0\x1f0@'
p3740
tp3741
Rp3742
sg19
I0
sg20
g21
(S'\x07\xdd\t\x1d\x13\r+\x0e\x91;'
p3743
tp3744
Rp3745
sg25
I0
sg26
g27
(g28
(I0
tp3746
g30
tp3747
Rp3748
(I1
(I2
tp3749
g36
I00
S'\xce\x00\x00\x00d\x00\x00\x00'
p3750
tp3751
bsba(i__main__
FrameData
p3752
(dp3753
g6
g3697
sg8
g9
(g13
S'\xb2\xdb]\xe3\x96\x87-@'
p3754
tp3755
Rp3756
sg19
I0
sg20
g21
(S'\x07\xdd\t\x1d\x13\r+\x0e\xd1\xc4'
p3757
tp3758
Rp3759
sg25
I0
sg26
g27
(g28
(I0
tp3760
g30
tp3761
Rp3762
(I1
(I2
tp3763
g36
I00
S'\xcf\x00\x00\x00e\x00\x00\x00'
p3764
tp3765
bsba(i__main__
FrameData
p3766
(dp3767
g6
g3697
sg8
g9
(g13
S'\xfc\xeeci3\xd5*@'
p3768
tp3769
Rp3770
sg19
I0
sg20
g21
(S'\x07\xdd\t\x1d\x13\r+\x0f\x14\xb7'
p3771
tp3772
Rp3773
sg25
I0
sg26
g27
(g28
(I0
tp3774
g30
tp3775
Rp3776
(I1
(I2
tp3777
g36
I00
S'\xd0\x00\x00\x00f\x00\x00\x00'
p3778
tp3779
bsba(i__main__
FrameData
p3780
(dp3781
g6
g3697
sg8
g9
(g13
S'\xe4\x10\xe4sW\x0f)@'
p3782
tp3783
Rp3784
sg19
I0
sg20
g21
(S'\x07\xdd\t\x1d\x13\r,\x00\x17\x1c'
p3785
tp3786
Rp3787
sg25
I0
sg26
g27
(g28
(I0
tp3788
g30
tp3789
Rp3790
(I1
(I2
tp3791
g36
I00
S'\xd0\x00\x00\x00g\x00\x00\x00'
p3792
tp3793
bsba(i__main__
FrameData
p3794
(dp3795
g6
g3697
sg8
g9
(g13
S'\xd2\xf1}\x82U\\&@'
p3796
tp3797
Rp3798
sg19
I0
sg20
g21
(S'\x07\xdd\t\x1d\x13\r,\x00T#'
p3799
tp3800
Rp3801
sg25
I0
sg26
g27
(g28
(I0
tp3802
g30
tp3803
Rp3804
(I1
(I2
tp3805
g36
I00
S'\xd1\x00\x00\x00h\x00\x00\x00'
p3806
tp3807
bsba(i__main__
FrameData
p3808
(dp3809
g6
g3697
sg8
g9
(g13
S'\x88\x80v\xd5\\\x97$@'
p3810
tp3811
Rp3812
sg19
I0
sg20
g21
(S'\x07\xdd\t\x1d\x13\r,\x00\x95#'
p3813
tp3814
Rp3815
sg25
I0
sg26
g27
(g28
(I0
tp3816
g30
tp3817
Rp3818
(I1
(I2
tp3819
g36
I00
S'\xd1\x00\x00\x00i\x00\x00\x00'
p3820
tp3821
bsba(i__main__
FrameData
p3822
(dp3823
g6
g3697
sg8
g9
(g13
S'\xa8\xf4\x97\x9bw\xe3!@'
p3824
tp3825
Rp3826
sg19
I0
sg20
g21
(S'\x07\xdd\t\x1d\x13\r,\x01\x1a\xbd'
p3827
tp3828
Rp3829
sg25
I0
sg26
g27
(g28
(I0
tp3830
g30
tp3831
Rp3832
(I1
(I2
tp3833
g36
I00
S'\xd2\x00\x00\x00j\x00\x00\x00'
p3834
tp3835
bsba(i__main__
FrameData
p3836
(dp3837
g6
g3697
sg8
g9
(g13
S'\xa3\x14\xae\xa8\x87\x16!@'
p3838
tp3839
Rp3840
sg19
I0
sg20
g21
(S'\x07\xdd\t\x1d\x13\r,\x01W\xe6'
p3841
tp3842
Rp3843
sg25
I0
sg26
g27
(g28
(I0
tp3844
g30
tp3845
Rp3846
(I1
(I2
tp3847
g36
I00
S'\xd3\x00\x00\x00j\x00\x00\x00'
p3848
tp3849
bsba(i__main__
FrameData
p3850
(dp3851
g6
g3697
sg8
g9
(g13
S'p\xc4\x9d9\x8dv\x1e@'
p3852
tp3853
Rp3854
sg19
I0
sg20
g21
(S"\x07\xdd\t\x1d\x13\r,\x01\x9a'"
p3855
tp3856
Rp3857
sg25
I0
sg26
g27
(g28
(I0
tp3858
g30
tp3859
Rp3860
(I1
(I2
tp3861
g36
I00
S'\xd3\x00\x00\x00k\x00\x00\x00'
p3862
tp3863
bsba(i__main__
FrameData
p3864
(dp3865
g6
g3697
sg8
g9
(g13
S'\xfc\xeeci3\xd5\x1a@'
p3866
tp3867
Rp3868
sg19
I0
sg20
g21
(S'\x07\xdd\t\x1d\x13\r,\x01\xdc\xcf'
p3869
tp3870
Rp3871
sg25
I0
sg26
g27
(g28
(I0
tp3872
g30
tp3873
Rp3874
(I1
(I2
tp3875
g36
I00
S'\xd3\x00\x00\x00l\x00\x00\x00'
p3876
tp3877
bsba(i__main__
FrameData
p3878
(dp3879
g6
g3697
sg8
g9
(g13
S'\xa2\xa3\xb3\r\xe5R\x17@'
p3880
tp3881
Rp3882
sg19
I0
sg20
g21
(S'\x07\xdd\t\x1d\x13\r,\x02\xa0\x11'
p3883
tp3884
Rp3885
sg25
I0
sg26
g27
(g28
(I0
tp3886
g30
tp3887
Rp3888
(I1
(I2
tp3889
g36
I00
S'\xd3\x00\x00\x00m\x00\x00\x00'
p3890
tp3891
bsba(i__main__
FrameData
p3892
(dp3893
g6
g3697
sg8
g9
(g13
S'\xfc\xeeci3\xd5\x1a@'
p3894
tp3895
Rp3896
sg19
I0
sg20
g21
(S'\x07\xdd\t\x1d\x13\r,\x05o#'
p3897
tp3898
Rp3899
sg25
I0
sg26
g27
(g28
(I0
tp3900
g30
tp3901
Rp3902
(I1
(I2
tp3903
g36
I00
S'\xd3\x00\x00\x00l\x00\x00\x00'
p3904
tp3905
bsba(i__main__
FrameData
p3906
(dp3907
g6
g3697
sg8
g9
(g13
S'\xe9\xfbv \xd5\x1e\x1d@'
p3908
tp3909
Rp3910
sg19
I0
sg20
g21
(S'\x07\xdd\t\x1d\x13\r,\x05\xaf\x15'
p3911
tp3912
Rp3913
sg25
I0
sg26
g27
(g28
(I0
tp3914
g30
tp3915
Rp3916
(I1
(I2
tp3917
g36
I00
S'\xd4\x00\x00\x00k\x00\x00\x00'
p3918
tp3919
bsba(i__main__
FrameData
p3920
(dp3921
g6
g3697
sg8
g9
(g13
S'\x9a.\x90!hp"@'
p3922
tp3923
Rp3924
sg19
I0
sg20
g21
(S'\x07\xdd\t\x1d\x13\r,\x05\xee~'
p3925
tp3926
Rp3927
sg25
I0
sg26
g27
(g28
(I0
tp3928
g30
tp3929
Rp3930
(I1
(I2
tp3931
g36
I00
S'\xd4\x00\x00\x00i\x00\x00\x00'
p3932
tp3933
bsba(i__main__
FrameData
p3934
(dp3935
g6
g3697
sg8
g9
(g13
S'\xf0)#L\x89\x19$@'
p3936
tp3937
Rp3938
sg19
I0
sg20
g21
(S'\x07\xdd\t\x1d\x13\r,\x061\xc9'
p3939
tp3940
Rp3941
sg25
I0
sg26
g27
(g28
(I0
tp3942
g30
tp3943
Rp3944
(I1
(I2
tp3945
g36
I00
S'\xd5\x00\x00\x00h\x00\x00\x00'
p3946
tp3947
bsba(i__main__
FrameData
p3948
(dp3949
g6
g3697
sg8
g9
(g13
S'H\xaa*\x8f9\x17&@'
p3950
tp3951
Rp3952
sg19
I0
sg20
g21
(S'\x07\xdd\t\x1d\x13\r,\x06q\x9a'
p3953
tp3954
Rp3955
sg25
I0
sg26
g27
(g28
(I0
tp3956
g30
tp3957
Rp3958
(I1
(I2
tp3959
g36
I00
S'\xd5\x00\x00\x00g\x00\x00\x00'
p3960
tp3961
bsba(i__main__
FrameData
p3962
(dp3963
g6
g3697
sg8
g9
(g13
S'\x00\x00\x00\x00\x00\x00(@'
p3964
tp3965
Rp3966
sg19
I0
sg20
g21
(S'\x07\xdd\t\x1d\x13\r,\x06\xf4\x9c'
p3967
tp3968
Rp3969
sg25
I0
sg26
g27
(g28
(I0
tp3970
g30
tp3971
Rp3972
(I1
(I2
tp3973
g36
I00
S'\xd6\x00\x00\x00f\x00\x00\x00'
p3974
tp3975
bsba(i__main__
FrameData
p3976
(dp3977
g6
g3697
sg8
g9
(g13
S'Qf\x99\xcb\xa9\x13*@'
p3978
tp3979
Rp3980
sg19
I0
sg20
g21
(S'\x07\xdd\t\x1d\x13\r,\x07\xfb\x00'
p3981
tp3982
Rp3983
sg25
I0
sg26
g27
(g28
(I0
tp3984
g30
tp3985
Rp3986
(I1
(I2
tp3987
g36
I00
S'\xd7\x00\x00\x00e\x00\x00\x00'
p3988
tp3989
bsba(i__main__
FrameData
p3990
(dp3991
g6
g3697
sg8
g9
(g13
S'\xde4\xda\xfeNN*@'
p3992
tp3993
Rp3994
sg19
I0
sg20
g21
(S'\x07\xdd\t\x1d\x13\r,\x08A\x0f'
p3995
tp3996
Rp3997
sg25
I0
sg26
g27
(g28
(I0
tp3998
g30
tp3999
Rp4000
(I1
(I2
tp4001
g36
I00
S'\xd8\x00\x00\x00e\x00\x00\x00'
p4002
tp4003
bsba(i__main__
FrameData
p4004
(dp4005
g6
g3697
sg8
g9
(g13
S'8H\x9b\x97\xee\xae*@'
p4006
tp4007
Rp4008
sg19
I0
sg20
g21
(S'\x07\xdd\t\x1d\x13\r,\x08\xbd\xbc'
p4009
tp4010
Rp4011
sg25
I0
sg26
g27
(g28
(I0
tp4012
g30
tp4013
Rp4014
(I1
(I2
tp4015
g36
I00
S'\xd9\x00\x00\x00e\x00\x00\x00'
p4016
tp4017
bsba(i__main__
FrameData
p4018
(dp4019
g6
g3697
sg8
g9
(g13
S'\xef\rI\xf1\xf33+@'
p4020
tp4021
Rp4022
sg19
I0
sg20
g21
(S'\x07\xdd\t\x1d\x13\r,\t\x02f'
p4023
tp4024
Rp4025
sg25
I0
sg26
g27
(g28
(I0
tp4026
g30
tp4027
Rp4028
(I1
(I2
tp4029
g36
I00
S'\xda\x00\x00\x00e\x00\x00\x00'
p4030
tp4031
bsba(i__main__
FrameData
p4032
(dp4033
g6
g3697
sg8
g9
(g13
S"\xe0\x11<m\xceh'@"
p4034
tp4035
Rp4036
sg19
I0
sg20
g21
(S'\x07\xdd\t\x1d\x13\r,\t@\xd1'
p4037
tp4038
Rp4039
sg25
I0
sg26
g27
(g28
(I0
tp4040
g30
tp4041
Rp4042
(I1
(I2
tp4043
g36
I00
S'\xda\x00\x00\x00g\x00\x00\x00'
p4044
tp4045
bsba(i__main__
FrameData
p4046
(dp4047
g6
g3697
sg8
g9
(g13
S'\xf3\xd9\xa8\xa4h\x8a%@'
p4048
tp4049
Rp4050
sg19
I0
sg20
g21
(S'\x07\xdd\t\x1d\x13\r,\t\x80w'
p4051
tp4052
Rp4053
sg25
I0
sg26
g27
(g28
(I0
tp4054
g30
tp4055
Rp4056
(I1
(I2
tp4057
g36
I00
S'\xda\x00\x00\x00h\x00\x00\x00'
p4058
tp4059
bsba(i__main__
FrameData
p4060
(dp4061
g6
g3697
sg8
g9
(g13
S'bVc}\x9d\xb2#@'
p4062
tp4063
Rp4064
sg19
I0
sg20
g21
(S'\x07\xdd\t\x1d\x13\r,\t\xc5#'
p4065
tp4066
Rp4067
sg25
I0
sg26
g27
(g28
(I0
tp4068
g30
tp4069
Rp4070
(I1
(I2
tp4071
g36
I00
S'\xda\x00\x00\x00i\x00\x00\x00'
p4072
tp4073
bsba(i__main__
FrameData
p4074
(dp4075
g6
g3697
sg8
g9
(g13
S'\xd0\xbaa?\xe0\x1f @'
p4076
tp4077
Rp4078
sg19
I0
sg20
g21
(S'\x07\xdd\t\x1d\x13\r,\nC"'
p4079
tp4080
Rp4081
sg25
I0
sg26
g27
(g28
(I0
tp4082
g30
tp4083
Rp4084
(I1
(I2
tp4085
g36
I00
S'\xda\x00\x00\x00k\x00\x00\x00'
p4086
tp4087
bsba(i__main__
FrameData
p4088
(dp4089
g6
g3697
sg8
g9
(g13
S'\xf3YaD+\xd8\x1c@'
p4090
tp4091
Rp4092
sg19
I0
sg20
g21
(S'\x07\xdd\t\x1d\x13\r,\n\x87\xcb'
p4093
tp4094
Rp4095
sg25
I0
sg26
g27
(g28
(I0
tp4096
g30
tp4097
Rp4098
(I1
(I2
tp4099
g36
I00
S'\xda\x00\x00\x00l\x00\x00\x00'
p4100
tp4101
bsba(i__main__
FrameData
p4102
(dp4103
g6
g3697
sg8
g9
(g13
S'\x00\xff\x9f\x99\xcc\x9c\x19@'
p4104
tp4105
Rp4106
sg19
I0
sg20
g21
(S'\x07\xdd\t\x1d\x13\r,\n\xca)'
p4107
tp4108
Rp4109
sg25
I0
sg26
g27
(g28
(I0
tp4110
g30
tp4111
Rp4112
(I1
(I2
tp4113
g36
I00
S'\xda\x00\x00\x00m\x00\x00\x00'
p4114
tp4115
bsba(i__main__
FrameData
p4116
(dp4117
g6
g3697
sg8
g9
(g13
S'\xcd;\x7ff\x9e\xa0\x16@'
p4118
tp4119
Rp4120
sg19
I0
sg20
g21
(S'\x07\xdd\t\x1d\x13\r,\x0bJ\xa1'
p4121
tp4122
Rp4123
sg25
I0
sg26
g27
(g28
(I0
tp4124
g30
tp4125
Rp4126
(I1
(I2
tp4127
g36
I00
S'\xda\x00\x00\x00n\x00\x00\x00'
p4128
tp4129
bsba(i__main__
FrameData
p4130
(dp4131
g6
g3697
sg8
g9
(g13
S'\x00\x00\x00\x00\x00\x00\x14@'
p4132
tp4133
Rp4134
sg19
I0
sg20
g21
(S'\x07\xdd\t\x1d\x13\r,\x0b\x8c\xea'
p4135
tp4136
Rp4137
sg25
I0
sg26
g27
(g28
(I0
tp4138
g30
tp4139
Rp4140
(I1
(I2
tp4141
g36
I00
S'\xda\x00\x00\x00o\x00\x00\x00'
p4142
tp4143
bsba(i__main__
FrameData
p4144
(dp4145
g6
g3697
sg8
g9
(g13
S'\xcd;\x7ff\x9e\xa0\x16@'
p4146
tp4147
Rp4148
sg19
I0
sg20
g21
(S'\x07\xdd\t\x1d\x13\r,\rU\xc5'
p4149
tp4150
Rp4151
sg25
I0
sg26
g27
(g28
(I0
tp4152
g30
tp4153
Rp4154
(I1
(I2
tp4155
g36
I00
S'\xda\x00\x00\x00n\x00\x00\x00'
p4156
tp4157
bsba(i__main__
FrameData
p4158
(dp4159
g6
g3697
sg8
g9
(g13
S'\xf3YaD+\xd8\x1c@'
p4160
tp4161
Rp4162
sg19
I0
sg20
g21
(S'\x07\xdd\t\x1d\x13\r,\r\x9a\x7f'
p4163
tp4164
Rp4165
sg25
I0
sg26
g27
(g28
(I0
tp4166
g30
tp4167
Rp4168
(I1
(I2
tp4169
g36
I00
S'\xda\x00\x00\x00l\x00\x00\x00'
p4170
tp4171
bsba(i__main__
FrameData
p4172
(dp4173
g6
g3697
sg8
g9
(g13
S'\xfc\xeeci3\xd5\x1a@'
p4174
tp4175
Rp4176
sg19
I0
sg20
g21
(S'\x07\xdd\t\x1d\x13\r,\r\xd7W'
p4177
tp4178
Rp4179
sg25
I0
sg26
g27
(g28
(I0
tp4180
g30
tp4181
Rp4182
(I1
(I2
tp4183
g36
I00
S'\xd9\x00\x00\x00l\x00\x00\x00'
p4184
tp4185
bsba(i__main__
FrameData
p4186
(dp4187
g6
g3697
sg8
g9
(g13
S'\xa3\x14\xae\xa8\x87\x16!@'
p4188
tp4189
Rp4190
sg19
I0
sg20
g21
(S'\x07\xdd\t\x1d\x13\r,\x0e\x1cQ'
p4191
tp4192
Rp4193
sg25
I0
sg26
g27
(g28
(I0
tp4194
g30
tp4195
Rp4196
(I1
(I2
tp4197
g36
I00
S'\xd9\x00\x00\x00j\x00\x00\x00'
p4198
tp4199
bsba(i__main__
FrameData
p4200
(dp4201
g6
g3697
sg8
g9
(g13
S'~\xc4#,B\xf9"@'
p4202
tp4203
Rp4204
sg19
I0
sg20
g21
(S'\x07\xdd\t\x1d\x13\r,\x0eY\xa7'
p4205
tp4206
Rp4207
sg25
I0
sg26
g27
(g28
(I0
tp4208
g30
tp4209
Rp4210
(I1
(I2
tp4211
g36
I00
S'\xd9\x00\x00\x00i\x00\x00\x00'
p4212
tp4213
bsba(i__main__
FrameData
p4214
(dp4215
g6
g3697
sg8
g9
(g13
S'7\xf9\xcf\xdao\xe1$@'
p4216
tp4217
Rp4218
sg19
I0
sg20
g21
(S'\x07\xdd\t\x1d\x13\r,\x0e\x9a}'
p4219
tp4220
Rp4221
sg25
I0
sg26
g27
(g28
(I0
tp4222
g30
tp4223
Rp4224
(I1
(I2
tp4225
g36
I00
S'\xd9\x00\x00\x00h\x00\x00\x00'
p4226
tp4227
bsba(i__main__
FrameData
p4228
(dp4229
g6
g3697
sg8
g9
(g13
S'\xeb\x12\xb2\xbb\xb2\xcd&@'
p4230
tp4231
Rp4232
sg19
I0
sg20
g21
(S'\x07\xdd\t\x1d\x13\r,\x0e\xdf\x14'
p4233
tp4234
Rp4235
sg25
I0
sg26
g27
(g28
(I0
tp4236
g30
tp4237
Rp4238
(I1
(I2
tp4239
g36
I00
S'\xd9\x00\x00\x00g\x00\x00\x00'
p4240
tp4241
bsba(i__main__
FrameData
p4242
(dp4243
g6
g3697
sg8
g9
(g13
S'\x8a\xe3\x07\x1a\x17\xbd(@'
p4244
tp4245
Rp4246
sg19
I0
sg20
g21
(S'\x07\xdd\t\x1d\x13\r,\x0f *'
p4247
tp4248
Rp4249
sg25
I0
sg26
g27
(g28
(I0
tp4250
g30
tp4251
Rp4252
(I1
(I2
tp4253
g36
I00
S'\xd9\x00\x00\x00f\x00\x00\x00'
p4254
tp4255
bsba(i__main__
FrameData
p4256
(dp4257
g6
g3697
sg8
g9
(g13
S')\x03\xec/C\x12,@'
p4258
tp4259
Rp4260
sg19
I0
sg20
g21
(S'\x07\xdd\t\x1d\x13\r-\x00\x1cH'
p4261
tp4262
Rp4263
sg25
I0
sg26
g27
(g28
(I0
tp4264
g30
tp4265
Rp4266
(I1
(I2
tp4267
g36
I00
S'\xd7\x00\x00\x00d\x00\x00\x00'
p4268
tp4269
bsba(i__main__
FrameData
p4270
(dp4271
g6
g3697
sg8
g9
(g13
S'\xaf_\x109\x0c\x11.@'
p4272
tp4273
Rp4274
sg19
I0
sg20
g21
(S'\x07\xdd\t\x1d\x13\r-\x00_\x96'
p4275
tp4276
Rp4277
sg25
I0
sg26
g27
(g28
(I0
tp4278
g30
tp4279
Rp4280
(I1
(I2
tp4281
g36
I00
S'\xd7\x00\x00\x00c\x00\x00\x00'
p4282
tp4283
bsba(i__main__
FrameData
p4284
(dp4285
g6
g3697
sg8
g9
(g13
S'p`\xff\x00\xfe\x070@'
p4286
tp4287
Rp4288
sg19
I0
sg20
g21
(S'\x07\xdd\t\x1d\x13\r-\x00\x9c\xbb'
p4289
tp4290
Rp4291
sg25
I0
sg26
g27
(g28
(I0
tp4292
g30
tp4293
Rp4294
(I1
(I2
tp4295
g36
I00
S'\xd7\x00\x00\x00b\x00\x00\x00'
p4296
tp4297
bsba(i__main__
FrameData
p4298
(dp4299
g6
g3697
sg8
g9
(g13
S')\x9ah\xdd\x85\x071@'
p4300
tp4301
Rp4302
sg19
I0
sg20
g21
(S'\x07\xdd\t\x1d\x13\r-\x00\xde\xb6'
p4303
tp4304
Rp4305
sg25
I0
sg26
g27
(g28
(I0
tp4306
g30
tp4307
Rp4308
(I1
(I2
tp4309
g36
I00
S'\xd7\x00\x00\x00a\x00\x00\x00'
p4310
tp4311
bsba(i__main__
FrameData
p4312
(dp4313
g6
g3697
sg8
g9
(g13
S'8\xd8\xbc\n\x1b\x072@'
p4314
tp4315
Rp4316
sg19
I0
sg20
g21
(S'\x07\xdd\t\x1d\x13\r-\x01"C'
p4317
tp4318
Rp4319
sg25
I0
sg26
g27
(g28
(I0
tp4320
g30
tp4321
Rp4322
(I1
(I2
tp4323
g36
I00
S'\xd7\x00\x00\x00`\x00\x00\x00'
p4324
tp4325
bsba(i__main__
FrameData
p4326
(dp4327
g6
g3697
sg8
g9
(g13
S'\xc3\xe7Zp\xbb\x063@'
p4328
tp4329
Rp4330
sg19
I0
sg20
g21
(S'\x07\xdd\t\x1d\x13\r-\x01c/'
p4331
tp4332
Rp4333
sg25
I0
sg26
g27
(g28
(I0
tp4334
g30
tp4335
Rp4336
(I1
(I2
tp4337
g36
I00
S'\xd7\x00\x00\x00_\x00\x00\x00'
p4338
tp4339
bsba(i__main__
FrameData
p4340
(dp4341
g6
g3697
sg8
g9
(g13
S'\x00\x00\x00\x00\x00\x004@'
p4342
tp4343
Rp4344
sg19
I0
sg20
g21
(S'\x07\xdd\t\x1d\x13\r-\x01\xa1\xb7'
p4345
tp4346
Rp4347
sg25
I0
sg26
g27
(g28
(I0
tp4348
g30
tp4349
Rp4350
(I1
(I2
tp4351
g36
I00
S'\xd6\x00\x00\x00^\x00\x00\x00'
p4352
tp4353
bsba(i__main__
FrameData
p4354
(dp4355
g6
g3697
sg8
g9
(g13
S'\x00\x00\x00\x00\x00\x005@'
p4356
tp4357
Rp4358
sg19
I0
sg20
g21
(S'\x07\xdd\t\x1d\x13\r-\x01\xe4\xf7'
p4359
tp4360
Rp4361
sg25
I0
sg26
g27
(g28
(I0
tp4362
g30
tp4363
Rp4364
(I1
(I2
tp4365
g36
I00
S'\xd6\x00\x00\x00]\x00\x00\x00'
p4366
tp4367
bsba(i__main__
FrameData
p4368
(dp4369
g6
S'p'
p4370
sg8
g9
(g13
S'\xcey?\xdc\x9a?4@'
p4371
tp4372
Rp4373
sg19
I0
sg20
g21
(S'\x07\xdd\t\x1d\x13\r-\x02%\xd7'
p4374
tp4375
Rp4376
sg25
I0
sg26
g27
(g28
(I0
tp4377
g30
tp4378
Rp4379
(I1
(I2
tp4380
g36
I00
S'\xd6\x00\x00\x00\\\x00\x00\x00'
p4381
tp4382
bsba(i__main__
FrameData
p4383
(dp4384
g6
g4370
sg8
g9
(g13
S'/vo\xf2\x9ej3@'
p4385
tp4386
Rp4387
sg19
I0
sg20
g21
(S'\x07\xdd\t\x1d\x13\r-\x02f+'
p4388
tp4389
Rp4390
sg25
I0
sg26
g27
(g28
(I0
tp4391
g30
tp4392
Rp4393
(I1
(I2
tp4394
g36
I00
S'\xd6\x00\x00\x00[\x00\x00\x00'
p4395
tp4396
bsba(i__main__
FrameData
p4397
(dp4398
g6
g3528
sg8
g9
(g13
S'u\x85\x18\x11\xe0\x992@'
p4399
tp4400
Rp4401
sg19
I0
sg20
g21
(S'\x07\xdd\t\x1d\x13\r-\x02\xa7\xbb'
p4402
tp4403
Rp4404
sg25
I0
sg26
g27
(g28
(I0
tp4405
g30
tp4406
Rp4407
(I1
(I2
tp4408
g36
I00
S'\xd5\x00\x00\x00Z\x00\x00\x00'
p4409
tp4410
bsba(i__main__
FrameData
p4411
(dp4412
g6
g3528
sg8
g9
(g13
S'\xd5?\x80N\xf3\xcd1@'
p4413
tp4414
Rp4415
sg19
I0
sg20
g21
(S'\x07\xdd\t\x1d\x13\r-\x03-^'
p4416
tp4417
Rp4418
sg25
I0
sg26
g27
(g28
(I0
tp4419
g30
tp4420
Rp4421
(I1
(I2
tp4422
g36
I00
S'\xd5\x00\x00\x00Y\x00\x00\x00'
p4423
tp4424
bsba(i__main__
FrameData
p4425
(dp4426
g6
g3528
sg8
g9
(g13
S'\x0f\xab\xa8Q\xb6f0@'
p4427
tp4428
Rp4429
sg19
I0
sg20
g21
(S'\x07\xdd\t\x1d\x13\r-\x03j\x86'
p4430
tp4431
Rp4432
sg25
I0
sg26
g27
(g28
(I0
tp4433
g30
tp4434
Rp4435
(I1
(I2
tp4436
g36
I00
S'\xd4\x00\x00\x00X\x00\x00\x00'
p4437
tp4438
bsba(i__main__
FrameData
p4439
(dp4440
g6
g3528
sg8
g9
(g13
S'\x00\x00\x00\x00\x00\x00.@'
p4441
tp4442
Rp4443
sg19
I0
sg20
g21
(S'\x07\xdd\t\x1d\x13\r-\x03\xf1>'
p4444
tp4445
Rp4446
sg25
I0
sg26
g27
(g28
(I0
tp4447
g30
tp4448
Rp4449
(I1
(I2
tp4450
g36
I00
S'\xd3\x00\x00\x00W\x00\x00\x00'
p4451
tp4452
bsba(i__main__
FrameData
p4453
(dp4454
g6
g3528
sg8
g9
(g13
S'?*\x98"\xe3l,@'
p4455
tp4456
Rp4457
sg19
I0
sg20
g21
(S'\x07\xdd\t\x1d\x13\r-\x04u\xc2'
p4458
tp4459
Rp4460
sg25
I0
sg26
g27
(g28
(I0
tp4461
g30
tp4462
Rp4463
(I1
(I2
tp4464
g36
I00
S'\xd3\x00\x00\x00V\x00\x00\x00'
p4465
tp4466
bsba(i__main__
FrameData
p4467
(dp4468
g6
g3528
sg8
g9
(g13
S'F#O3\xb2t)@'
p4469
tp4470
Rp4471
sg19
I0
sg20
g21
(S'\x07\xdd\t\x1d\x13\r-\x04\xb4K'
p4472
tp4473
Rp4474
sg25
I0
sg26
g27
(g28
(I0
tp4475
g30
tp4476
Rp4477
(I1
(I2
tp4478
g36
I00
S'\xd3\x00\x00\x00T\x00\x00\x00'
p4479
tp4480
bsba(i__main__
FrameData
p4481
(dp4482
g6
g3528
sg8
g9
(g13
S'&5w\xe2K\x15(@'
p4483
tp4484
Rp4485
sg19
I0
sg20
g21
(S'\x07\xdd\t\x1d\x13\r-\x04\xf3\xcb'
p4486
tp4487
Rp4488
sg25
I0
sg26
g27
(g28
(I0
tp4489
g30
tp4490
Rp4491
(I1
(I2
tp4492
g36
I00
S'\xd2\x00\x00\x00T\x00\x00\x00'
p4493
tp4494
bsba(i__main__
FrameData
p4495
(dp4496
g6
g3528
sg8
g9
(g13
S'6\xd0\xd2x\xa2B%@'
p4497
tp4498
Rp4499
sg19
I0
sg20
g21
(S'\x07\xdd\t\x1d\x13\r-\x059\xcf'
p4500
tp4501
Rp4502
sg25
I0
sg26
g27
(g28
(I0
tp4503
g30
tp4504
Rp4505
(I1
(I2
tp4506
g36
I00
S'\xd2\x00\x00\x00R\x00\x00\x00'
p4507
tp4508
bsba(i__main__
FrameData
p4509
(dp4510
g6
g3528
sg8
g9
(g13
S'\x9a.\x90!hp"@'
p4511
tp4512
Rp4513
sg19
I0
sg20
g21
(S'\x07\xdd\t\x1d\x13\r-\x05z\x80'
p4514
tp4515
Rp4516
sg25
I0
sg26
g27
(g28
(I0
tp4517
g30
tp4518
Rp4519
(I1
(I2
tp4520
g36
I00
S'\xd1\x00\x00\x00Q\x00\x00\x00'
p4521
tp4522
bsba(i__main__
FrameData
p4523
(dp4524
g6
g3528
sg8
g9
(g13
S'htN\x17\xb2=\x1f@'
p4525
tp4526
Rp4527
sg19
I0
sg20
g21
(S'\x07\xdd\t\x1d\x13\r-\x05\xb6\x96'
p4528
tp4529
Rp4530
sg25
I0
sg26
g27
(g28
(I0
tp4531
g30
tp4532
Rp4533
(I1
(I2
tp4534
g36
I00
S'\xd0\x00\x00\x00P\x00\x00\x00'
p4535
tp4536
bsba(i__main__
FrameData
p4537
(dp4538
g6
g3528
sg8
g9
(g13
S'\xf3YaD+\xd8\x1c@'
p4539
tp4540
Rp4541
sg19
I0
sg20
g21
(S'\x07\xdd\t\x1d\x13\r-\x05\xfb<'
p4542
tp4543
Rp4544
sg25
I0
sg26
g27
(g28
(I0
tp4545
g30
tp4546
Rp4547
(I1
(I2
tp4548
g36
I00
S'\xd0\x00\x00\x00O\x00\x00\x00'
p4549
tp4550
bsba(i__main__
FrameData
p4551
(dp4552
g6
g3528
sg8
g9
(g13
S'\xcd;\x7ff\x9e\xa0\x16@'
p4553
tp4554
Rp4555
sg19
I0
sg20
g21
(S'\x07\xdd\t\x1d\x13\r-\x06<\x1a'
p4556
tp4557
Rp4558
sg25
I0
sg26
g27
(g28
(I0
tp4559
g30
tp4560
Rp4561
(I1
(I2
tp4562
g36
I00
S'\xce\x00\x00\x00O\x00\x00\x00'
p4563
tp4564
bsba(i__main__
FrameData
p4565
(dp4566
g6
g3528
sg8
g9
(g13
S'\x00\x00\x00\x00\x00\x00\x14@'
p4567
tp4568
Rp4569
sg19
I0
sg20
g21
(S'\x07\xdd\t\x1d\x13\r-\x06zL'
p4570
tp4571
Rp4572
sg25
I0
sg26
g27
(g28
(I0
tp4573
g30
tp4574
Rp4575
(I1
(I2
tp4576
g36
I00
S'\xce\x00\x00\x00N\x00\x00\x00'
p4577
tp4578
bsba(i__main__
FrameData
p4579
(dp4580
g6
g3528
sg8
g9
(g13
S'\xd9l\xdf\xccv\xf8\x10@'
p4581
tp4582
Rp4583
sg19
I0
sg20
g21
(S'\x07\xdd\t\x1d\x13\r-\x06\xba$'
p4584
tp4585
Rp4586
sg25
I0
sg26
g27
(g28
(I0
tp4587
g30
tp4588
Rp4589
(I1
(I2
tp4590
g36
I00
S'\xcd\x00\x00\x00N\x00\x00\x00'
p4591
tp4592
bsba(i__main__
FrameData
p4593
(dp4594
g6
g3528
sg8
g9
(g13
S'\xcd;\x7ff\x9e\xa0\x06@'
p4595
tp4596
Rp4597
sg19
I0
sg20
g21
(S'\x07\xdd\t\x1d\x13\r-\x07C\x99'
p4598
tp4599
Rp4600
sg25
I0
sg26
g27
(g28
(I0
tp4601
g30
tp4602
Rp4603
(I1
(I2
tp4604
g36
I00
S'\xcc\x00\x00\x00M\x00\x00\x00'
p4605
tp4606
bsba(i__main__
FrameData
p4607
(dp4608
g6
g3528
sg8
g9
(g13
S'\x00\x00\x00\x00\x00\x00\x00@'
p4609
tp4610
Rp4611
sg19
I0
sg20
g21
(S'\x07\xdd\t\x1d\x13\r-\x07\x84t'
p4612
tp4613
Rp4614
sg25
I0
sg26
g27
(g28
(I0
tp4615
g30
tp4616
Rp4617
(I1
(I2
tp4618
g36
I00
S'\xcc\x00\x00\x00K\x00\x00\x00'
p4619
tp4620
bsba(i__main__
FrameData
p4621
(dp4622
g6
g3528
sg8
g9
(g13
S'\x00\x00\x00\x00\x00\x00\xf0?'
p4623
tp4624
Rp4625
sg19
I0
sg20
g21
(S'\x07\xdd\t\x1d\x13\r-\x08\x02\x7f'
p4626
tp4627
Rp4628
sg25
I0
sg26
g27
(g28
(I0
tp4629
g30
tp4630
Rp4631
(I1
(I2
tp4632
g36
I00
S'\xcb\x00\x00\x00K\x00\x00\x00'
p4633
tp4634
bsba(i__main__
FrameData
p4635
(dp4636
g6
g3528
sg8
g9
(g13
S'\xcd;\x7ff\x9e\xa0\xf6?'
p4637
tp4638
Rp4639
sg19
I0
sg20
g21
(S'\x07\xdd\t\x1d\x13\r-\t\x87\xec'
p4640
tp4641
Rp4642
sg25
I0
sg26
g27
(g28
(I0
tp4643
g30
tp4644
Rp4645
(I1
(I2
tp4646
g36
I00
S'\xcb\x00\x00\x00J\x00\x00\x00'
p4647
tp4648
bsba(i__main__
FrameData
p4649
(dp4650
g6
g3528
sg8
g9
(g13
S'\x00\x00\x00\x00\x00\x00\xf0?'
p4651
tp4652
Rp4653
sg19
I0
sg20
g21
(S'\x07\xdd\t\x1d\x13\r-\t\xcc\xa1'
p4654
tp4655
Rp4656
sg25
I0
sg26
g27
(g28
(I0
tp4657
g30
tp4658
Rp4659
(I1
(I2
tp4660
g36
I00
S'\xca\x00\x00\x00J\x00\x00\x00'
p4661
tp4662
bsba(i__main__
FrameData
p4663
(dp4664
g6
g3528
sg8
g9
(g13
S'\x00\x00\x00\x00\x00\x00\x00@'
p4665
tp4666
Rp4667
sg19
I0
sg20
g21
(S'\x07\xdd\t\x1d\x13\r-\nRp'
p4668
tp4669
Rp4670
sg25
I0
sg26
g27
(g28
(I0
tp4671
g30
tp4672
Rp4673
(I1
(I2
tp4674
g36
I00
S'\xca\x00\x00\x00I\x00\x00\x00'
p4675
tp4676
bsba(i__main__
FrameData
p4677
(dp4678
g6
g3528
sg8
g9
(g13
S'\x00\x00\x00\x00\x00\x00\x08@'
p4679
tp4680
Rp4681
sg19
I0
sg20
g21
(S'\x07\xdd\t\x1d\x13\r-\n\xd0P'
p4682
tp4683
Rp4684
sg25
I0
sg26
g27
(g28
(I0
tp4685
g30
tp4686
Rp4687
(I1
(I2
tp4688
g36
I00
S'\xca\x00\x00\x00H\x00\x00\x00'
p4689
tp4690
bsba(i__main__
FrameData
p4691
(dp4692
g6
g3528
sg8
g9
(g13
S'S[\xda:XL\t@'
p4693
tp4694
Rp4695
sg19
I0
sg20
g21
(S'\x07\xdd\t\x1d\x13\r-\x0b\x15\r'
p4696
tp4697
Rp4698
sg25
I0
sg26
g27
(g28
(I0
tp4699
g30
tp4700
Rp4701
(I1
(I2
tp4702
g36
I00
S'\xc9\x00\x00\x00H\x00\x00\x00'
p4703
tp4704
bsbasS'_fileName'
p4705
S'training/trajectory2013-09-29_19:13:32.666804'
p4706
sS'word'
p4707
S'armadillo'
p4708
sb.