(i__main__
SwypeTrajectory
p0
(dp1
S'_frameDataList'
p2
(lp3
(i__main__
FrameData
p4
(dp5
S'closestLetter'
p6
S't'
p7
sS'letterDistance'
p8
cnumpy.core.multiarray
scalar
p9
(cnumpy
dtype
p10
(S'f8'
p11
I0
I1
tp12
Rp13
(I3
S'<'
p14
NNNI-1
I-1
I0
tp15
bS'\x00\x00\x00\x00\x00\x00\x00\x00'
p16
tp17
Rp18
sS'accel'
p19
I0
sS'time'
p20
cdatetime
datetime
p21
(S'\x07\xdd\t\x1d\x13\t\x1d\r7\x86'
p22
tp23
Rp24
sS'velocity'
p25
I0
sS'position'
p26
cnumpy.core.multiarray
_reconstruct
p27
(cnumpy
ndarray
p28
(I0
tp29
S'b'
p30
tp31
Rp32
(I1
(I2
tp33
g10
(S'i4'
p34
I0
I1
tp35
Rp36
(I3
S'<'
p37
NNNI-1
I-1
I0
tp38
bI00
S'j\x00\x00\x00K\x00\x00\x00'
p39
tp40
bsba(i__main__
FrameData
p41
(dp42
g6
g7
sg8
g9
(g13
S'\xcd;\x7ff\x9e\xa0\xf6?'
p43
tp44
Rp45
sg19
I0
sg20
g21
(S'\x07\xdd\t\x1d\x13\t\x1d\ryB'
p46
tp47
Rp48
sg25
I0
sg26
g27
(g28
(I0
tp49
g30
tp50
Rp51
(I1
(I2
tp52
g36
I00
S'i\x00\x00\x00L\x00\x00\x00'
p53
tp54
bsba(i__main__
FrameData
p55
(dp56
g6
g7
sg8
g9
(g13
S'\xcd;\x7ff\x9e\xa0\x06@'
p57
tp58
Rp59
sg19
I0
sg20
g21
(S'\x07\xdd\t\x1d\x13\t\x1d\r\xb9\xc1'
p60
tp61
Rp62
sg25
I0
sg26
g27
(g28
(I0
tp63
g30
tp64
Rp65
(I1
(I2
tp66
g36
I00
S'h\x00\x00\x00M\x00\x00\x00'
p67
tp68
bsba(i__main__
FrameData
p69
(dp70
g6
g7
sg8
g9
(g13
S'\xa8\xf4\x97\x9bw\xe3\x11@'
p71
tp72
Rp73
sg19
I0
sg20
g21
(S'\x07\xdd\t\x1d\x13\t\x1d\r\xfa\xe8'
p74
tp75
Rp76
sg25
I0
sg26
g27
(g28
(I0
tp77
g30
tp78
Rp79
(I1
(I2
tp80
g36
I00
S'f\x00\x00\x00M\x00\x00\x00'
p81
tp82
bsba(i__main__
FrameData
p83
(dp84
g6
g7
sg8
g9
(g13
S'\x00\xff\x9f\x99\xcc\x9c\x19@'
p85
tp86
Rp87
sg19
I0
sg20
g21
(S'\x07\xdd\t\x1d\x13\t\x1d\x0e=\x17'
p88
tp89
Rp90
sg25
I0
sg26
g27
(g28
(I0
tp91
g30
tp92
Rp93
(I1
(I2
tp94
g36
I00
S'e\x00\x00\x00O\x00\x00\x00'
p95
tp96
bsba(i__main__
FrameData
p97
(dp98
g6
g7
sg8
g9
(g13
S'w\x03Is \xa2%@'
p99
tp100
Rp101
sg19
I0
sg20
g21
(S'\x07\xdd\t\x1d\x13\t\x1d\x0e|\xe1'
p102
tp103
Rp104
sg25
I0
sg26
g27
(g28
(I0
tp105
g30
tp106
Rp107
(I1
(I2
tp108
g36
I00
S'a\x00\x00\x00Q\x00\x00\x00'
p109
tp110
bsba(i__main__
FrameData
p111
(dp112
g6
S'r'
p113
sg8
g9
(g13
S'\xb9e(k\xee\xc8+@'
p114
tp115
Rp116
sg19
I0
sg20
g21
(S'\x07\xdd\t\x1d\x13\t\x1d\x0e\xbe\x00'
p117
tp118
Rp119
sg25
I0
sg26
g27
(g28
(I0
tp120
g30
tp121
Rp122
(I1
(I2
tp123
g36
I00
S'^\x00\x00\x00R\x00\x00\x00'
p124
tp125
bsba(i__main__
FrameData
p126
(dp127
g6
g113
sg8
g9
(g13
S'F\xc3\\\xa8\xc1i(@'
p128
tp129
Rp130
sg19
I0
sg20
g21
(S'\x07\xdd\t\x1d\x13\t\x1d\x0f\x00\x87'
p131
tp132
Rp133
sg25
I0
sg26
g27
(g28
(I0
tp134
g30
tp135
Rp136
(I1
(I2
tp137
g36
I00
S'\\\x00\x00\x00R\x00\x00\x00'
p138
tp139
bsba(i__main__
FrameData
p140
(dp141
g6
g113
sg8
g9
(g13
S'\xeb\x12\xb2\xbb\xb2\xcd&@'
p142
tp143
Rp144
sg19
I0
sg20
g21
(S'\x07\xdd\t\x1d\x13\t\x1d\x0f@O'
p145
tp146
Rp147
sg25
I0
sg26
g27
(g28
(I0
tp148
g30
tp149
Rp150
(I1
(I2
tp151
g36
I00
S'[\x00\x00\x00R\x00\x00\x00'
p152
tp153
bsba(i__main__
FrameData
p154
(dp155
g6
g113
sg8
g9
(g13
S'ST\xaf\x99\x8a\xcc#@'
p156
tp157
Rp158
sg19
I0
sg20
g21
(S'\x07\xdd\t\x1d\x13\t\x1e\x00?.'
p159
tp160
Rp161
sg25
I0
sg26
g27
(g28
(I0
tp162
g30
tp163
Rp164
(I1
(I2
tp165
g36
I00
S'Y\x00\x00\x00R\x00\x00\x00'
p166
tp167
bsba(i__main__
FrameData
p168
(dp169
g6
g113
sg8
g9
(g13
S'~\xc4#,B\xf9"@'
p170
tp171
Rp172
sg19
I0
sg20
g21
(S'\x07\xdd\t\x1d\x13\t\x1e\x00\x80a'
p173
tp174
Rp175
sg25
I0
sg26
g27
(g28
(I0
tp176
g30
tp177
Rp178
(I1
(I2
tp179
g36
I00
S'U\x00\x00\x00T\x00\x00\x00'
p180
tp181
bsba(i__main__
FrameData
p182
(dp183
g6
g113
sg8
g9
(g13
S'\x9a.\x90!hp"@'
p184
tp185
Rp186
sg19
I0
sg20
g21
(S'\x07\xdd\t\x1d\x13\t\x1e\x00\xc1\x8a'
p187
tp188
Rp189
sg25
I0
sg26
g27
(g28
(I0
tp190
g30
tp191
Rp192
(I1
(I2
tp193
g36
I00
S'T\x00\x00\x00T\x00\x00\x00'
p194
tp195
bsba(i__main__
FrameData
p196
(dp197
g6
g113
sg8
g9
(g13
S'$\xf8\xd9p[\x1c"@'
p198
tp199
Rp200
sg19
I0
sg20
g21
(S'\x07\xdd\t\x1d\x13\t\x1e\x01\x02\x9d'
p201
tp202
Rp203
sg25
I0
sg26
g27
(g28
(I0
tp204
g30
tp205
Rp206
(I1
(I2
tp207
g36
I00
S'S\x00\x00\x00T\x00\x00\x00'
p208
tp209
bsba(i__main__
FrameData
p210
(dp211
g6
g113
sg8
g9
(g13
S'$\xf8\xd9p[\x1c"@'
p212
tp213
Rp214
sg19
I0
sg20
g21
(S'\x07\xdd\t\x1d\x13\t\x1e\x01D\x11'
p215
tp216
Rp217
sg25
I0
sg26
g27
(g28
(I0
tp218
g30
tp219
Rp220
(I1
(I2
tp221
g36
I00
S'Q\x00\x00\x00T\x00\x00\x00'
p222
tp223
bsba(i__main__
FrameData
p224
(dp225
g6
g113
sg8
g9
(g13
S'\x9a.\x90!hp"@'
p226
tp227
Rp228
sg19
I0
sg20
g21
(S'\x07\xdd\t\x1d\x13\t\x1e\x01\x89\xb3'
p229
tp230
Rp231
sg25
I0
sg26
g27
(g28
(I0
tp232
g30
tp233
Rp234
(I1
(I2
tp235
g36
I00
S'P\x00\x00\x00T\x00\x00\x00'
p236
tp237
bsba(i__main__
FrameData
p238
(dp239
g6
g113
sg8
g9
(g13
S'~\xc4#,B\xf9"@'
p240
tp241
Rp242
sg19
I0
sg20
g21
(S'\x07\xdd\t\x1d\x13\t\x1e\x01\xc6\x84'
p243
tp244
Rp245
sg25
I0
sg26
g27
(g28
(I0
tp246
g30
tp247
Rp248
(I1
(I2
tp249
g36
I00
S'O\x00\x00\x00T\x00\x00\x00'
p250
tp251
bsba(i__main__
FrameData
p252
(dp253
g6
g113
sg8
g9
(g13
S'bVc}\x9d\xb2#@'
p254
tp255
Rp256
sg19
I0
sg20
g21
(S'\x07\xdd\t\x1d\x13\t\x1e\x02\x0b\x0f'
p257
tp258
Rp259
sg25
I0
sg26
g27
(g28
(I0
tp260
g30
tp261
Rp262
(I1
(I2
tp263
g36
I00
S'N\x00\x00\x00T\x00\x00\x00'
p264
tp265
bsba(i__main__
FrameData
p266
(dp267
g6
g113
sg8
g9
(g13
S'\x88\x80v\xd5\\\x97$@'
p268
tp269
Rp270
sg19
I0
sg20
g21
(S'\x07\xdd\t\x1d\x13\t\x1e\x02M\x1f'
p271
tp272
Rp273
sg25
I0
sg26
g27
(g28
(I0
tp274
g30
tp275
Rp276
(I1
(I2
tp277
g36
I00
S'M\x00\x00\x00T\x00\x00\x00'
p278
tp279
bsba(i__main__
FrameData
p280
(dp281
g6
g113
sg8
g9
(g13
S'w\x03Is \xa2%@'
p282
tp283
Rp284
sg19
I0
sg20
g21
(S'\x07\xdd\t\x1d\x13\t\x1e\x02\x8e;'
p285
tp286
Rp287
sg25
I0
sg26
g27
(g28
(I0
tp288
g30
tp289
Rp290
(I1
(I2
tp291
g36
I00
S'L\x00\x00\x00T\x00\x00\x00'
p292
tp293
bsba(i__main__
FrameData
p294
(dp295
g6
g113
sg8
g9
(g13
S'6\xd0\xd2x\xa2B%@'
p296
tp297
Rp298
sg19
I0
sg20
g21
(S'\x07\xdd\t\x1d\x13\t\x1e\x02\xcf/'
p299
tp300
Rp301
sg25
I0
sg26
g27
(g28
(I0
tp302
g30
tp303
Rp304
(I1
(I2
tp305
g36
I00
S'K\x00\x00\x00S\x00\x00\x00'
p306
tp307
bsba(i__main__
FrameData
p308
(dp309
g6
g113
sg8
g9
(g13
S'ST\xaf\x99\x8a\xcc#@'
p310
tp311
Rp312
sg19
I0
sg20
g21
(S'\x07\xdd\t\x1d\x13\t\x1e\x03\r\x91'
p313
tp314
Rp315
sg25
I0
sg26
g27
(g28
(I0
tp316
g30
tp317
Rp318
(I1
(I2
tp319
g36
I00
S'K\x00\x00\x00R\x00\x00\x00'
p320
tp321
bsba(i__main__
FrameData
p322
(dp323
g6
g113
sg8
g9
(g13
S'\xeb\x12\xb2\xbb\xb2\xcd&@'
p324
tp325
Rp326
sg19
I0
sg20
g21
(S'\x07\xdd\t\x1d\x13\t\x1e\x03Qt'
p327
tp328
Rp329
sg25
I0
sg26
g27
(g28
(I0
tp330
g30
tp331
Rp332
(I1
(I2
tp333
g36
I00
S'I\x00\x00\x00R\x00\x00\x00'
p334
tp335
bsba(i__main__
FrameData
p336
(dp337
g6
g113
sg8
g9
(g13
S"\xa2\xa3\xb3\r\xe5R'@"
p338
tp339
Rp340
sg19
I0
sg20
g21
(S'\x07\xdd\t\x1d\x13\t\x1e\x03\x93\xab'
p341
tp342
Rp343
sg25
I0
sg26
g27
(g28
(I0
tp344
g30
tp345
Rp346
(I1
(I2
tp347
g36
I00
S'H\x00\x00\x00Q\x00\x00\x00'
p348
tp349
bsba(i__main__
FrameData
p350
(dp351
g6
g113
sg8
g9
(g13
S'\xe4\x10\xe4sW\x0f)@'
p352
tp353
Rp354
sg19
I0
sg20
g21
(S'\x07\xdd\t\x1d\x13\t\x1e\x03\xd4\x01'
p355
tp356
Rp357
sg25
I0
sg26
g27
(g28
(I0
tp358
g30
tp359
Rp360
(I1
(I2
tp361
g36
I00
S'G\x00\x00\x00Q\x00\x00\x00'
p362
tp363
bsba(i__main__
FrameData
p364
(dp365
g6
S'e'
p366
sg8
g9
(g13
S"\xe0\x11<m\xceh'@"
p367
tp368
Rp369
sg19
I0
sg20
g21
(S'\x07\xdd\t\x1d\x13\t\x1e\x04\x13\xdb'
p370
tp371
Rp372
sg25
I0
sg26
g27
(g28
(I0
tp373
g30
tp374
Rp375
(I1
(I2
tp376
g36
I00
S'F\x00\x00\x00P\x00\x00\x00'
p377
tp378
bsba(i__main__
FrameData
p379
(dp380
g6
g366
sg8
g9
(g13
S'\xf3\xd9\xa8\xa4h\x8a%@'
p381
tp382
Rp383
sg19
I0
sg20
g21
(S'\x07\xdd\t\x1d\x13\t\x1e\x04Xa'
p384
tp385
Rp386
sg25
I0
sg26
g27
(g28
(I0
tp387
g30
tp388
Rp389
(I1
(I2
tp390
g36
I00
S'E\x00\x00\x00P\x00\x00\x00'
p391
tp392
bsba(i__main__
FrameData
p393
(dp394
g6
g366
sg8
g9
(g13
S'~\xc4#,B\xf9"@'
p395
tp396
Rp397
sg19
I0
sg20
g21
(S'\x07\xdd\t\x1d\x13\t\x1e\x04\x94\xf3'
p398
tp399
Rp400
sg25
I0
sg26
g27
(g28
(I0
tp401
g30
tp402
Rp403
(I1
(I2
tp404
g36
I00
S'D\x00\x00\x00O\x00\x00\x00'
p405
tp406
bsba(i__main__
FrameData
p407
(dp408
g6
g366
sg8
g9
(g13
S'\x9a.\x90!hp"@'
p409
tp410
Rp411
sg19
I0
sg20
g21
(S'\x07\xdd\t\x1d\x13\t\x1e\x04\xda\xde'
p412
tp413
Rp414
sg25
I0
sg26
g27
(g28
(I0
tp415
g30
tp416
Rp417
(I1
(I2
tp418
g36
I00
S'D\x00\x00\x00N\x00\x00\x00'
p419
tp420
bsba(i__main__
FrameData
p421
(dp422
g6
g366
sg8
g9
(g13
S'\x07\xed\xaff\x0f~ @'
p423
tp424
Rp425
sg19
I0
sg20
g21
(S'\x07\xdd\t\x1d\x13\t\x1e\x05\x1bI'
p426
tp427
Rp428
sg25
I0
sg26
g27
(g28
(I0
tp429
g30
tp430
Rp431
(I1
(I2
tp432
g36
I00
S'C\x00\x00\x00N\x00\x00\x00'
p433
tp434
bsba(i__main__
FrameData
p435
(dp436
g6
g366
sg8
g9
(g13
S'\xc0\n\x1f\x00\xc6H\x1c@'
p437
tp438
Rp439
sg19
I0
sg20
g21
(S'\x07\xdd\t\x1d\x13\t\x1e\x05\x9f\xeb'
p440
tp441
Rp442
sg25
I0
sg26
g27
(g28
(I0
tp443
g30
tp444
Rp445
(I1
(I2
tp446
g36
I00
S'B\x00\x00\x00M\x00\x00\x00'
p447
tp448
bsba(i__main__
FrameData
p449
(dp450
g6
g366
sg8
g9
(g13
S'9\xdcc\xb3\xbfT\x18@'
p451
tp452
Rp453
sg19
I0
sg20
g21
(S'\x07\xdd\t\x1d\x13\t\x1e\x05\xdd\xdf'
p454
tp455
Rp456
sg25
I0
sg26
g27
(g28
(I0
tp457
g30
tp458
Rp459
(I1
(I2
tp460
g36
I00
S'A\x00\x00\x00M\x00\x00\x00'
p461
tp462
bsba(i__main__
FrameData
p463
(dp464
g6
g366
sg8
g9
(g13
S'\x00\x00\x00\x00\x00\x00\x18@'
p465
tp466
Rp467
sg19
I0
sg20
g21
(S'\x07\xdd\t\x1d\x13\t\x1e\x06a+'
p468
tp469
Rp470
sg25
I0
sg26
g27
(g28
(I0
tp471
g30
tp472
Rp473
(I1
(I2
tp474
g36
I00
S'A\x00\x00\x00L\x00\x00\x00'
p475
tp476
bsba(i__main__
FrameData
p477
(dp478
g6
g366
sg8
g9
(g13
S'\x07\xed\xaff\x0f~\x10@'
p479
tp480
Rp481
sg19
I0
sg20
g21
(S'\x07\xdd\t\x1d\x13\t\x1e\x06\x9e\x10'
p482
tp483
Rp484
sg25
I0
sg26
g27
(g28
(I0
tp485
g30
tp486
Rp487
(I1
(I2
tp488
g36
I00
S'?\x00\x00\x00K\x00\x00\x00'
p489
tp490
bsba(i__main__
FrameData
p491
(dp492
g6
g366
sg8
g9
(g13
S'\xa8\xf4\x97\x9bw\xe3\x11@'
p493
tp494
Rp495
sg19
I0
sg20
g21
(S'\x07\xdd\t\x1d\x13\t\x1e\x07&-'
p496
tp497
Rp498
sg25
I0
sg26
g27
(g28
(I0
tp499
g30
tp500
Rp501
(I1
(I2
tp502
g36
I00
S'?\x00\x00\x00J\x00\x00\x00'
p503
tp504
bsba(i__main__
FrameData
p505
(dp506
g6
g366
sg8
g9
(g13
S'\xf3YaD+\xd8\x0c@'
p507
tp508
Rp509
sg19
I0
sg20
g21
(S'\x07\xdd\t\x1d\x13\t\x1e\x07b\xfe'
p510
tp511
Rp512
sg25
I0
sg26
g27
(g28
(I0
tp513
g30
tp514
Rp515
(I1
(I2
tp516
g36
I00
S'>\x00\x00\x00J\x00\x00\x00'
p517
tp518
bsba(i__main__
FrameData
p519
(dp520
g6
g366
sg8
g9
(g13
S'\xf3YaD+\xd8\x0c@'
p521
tp522
Rp523
sg19
I0
sg20
g21
(S'\x07\xdd\t\x1d\x13\t\x1e\x07\xe4A'
p524
tp525
Rp526
sg25
I0
sg26
g27
(g28
(I0
tp527
g30
tp528
Rp529
(I1
(I2
tp530
g36
I00
S'=\x00\x00\x00I\x00\x00\x00'
p531
tp532
bsba(i__main__
FrameData
p533
(dp534
g6
g366
sg8
g9
(g13
S'\xcd;\x7ff\x9e\xa0\x06@'
p535
tp536
Rp537
sg19
I0
sg20
g21
(S'\x07\xdd\t\x1d\x13\t\x1e\x0b|%'
p538
tp539
Rp540
sg25
I0
sg26
g27
(g28
(I0
tp541
g30
tp542
Rp543
(I1
(I2
tp544
g36
I00
S'=\x00\x00\x00J\x00\x00\x00'
p545
tp546
bsba(i__main__
FrameData
p547
(dp548
g6
g366
sg8
g9
(g13
S'\xa8\xf4\x97\x9bw\xe3\x01@'
p549
tp550
Rp551
sg19
I0
sg20
g21
(S'\x07\xdd\t\x1d\x13\t\x1e\x0b\xb8\xd5'
p552
tp553
Rp554
sg25
I0
sg26
g27
(g28
(I0
tp555
g30
tp556
Rp557
(I1
(I2
tp558
g36
I00
S'=\x00\x00\x00K\x00\x00\x00'
p559
tp560
bsba(i__main__
FrameData
p561
(dp562
g6
g366
sg8
g9
(g13
S'\x00\x00\x00\x00\x00\x00\x00@'
p563
tp564
Rp565
sg19
I0
sg20
g21
(S'\x07\xdd\t\x1d\x13\t\x1e\x0c9\x98'
p566
tp567
Rp568
sg25
I0
sg26
g27
(g28
(I0
tp569
g30
tp570
Rp571
(I1
(I2
tp572
g36
I00
S'=\x00\x00\x00L\x00\x00\x00'
p573
tp574
bsba(i__main__
FrameData
p575
(dp576
g6
g366
sg8
g9
(g13
S'\xa8\xf4\x97\x9bw\xe3\x01@'
p577
tp578
Rp579
sg19
I0
sg20
g21
(S'\x07\xdd\t\x1d\x13\t\x1e\x0c\xbfL'
p580
tp581
Rp582
sg25
I0
sg26
g27
(g28
(I0
tp583
g30
tp584
Rp585
(I1
(I2
tp586
g36
I00
S'=\x00\x00\x00M\x00\x00\x00'
p587
tp588
bsba(i__main__
FrameData
p589
(dp590
g6
g366
sg8
g9
(g13
S'\xcd;\x7ff\x9e\xa0\x06@'
p591
tp592
Rp593
sg19
I0
sg20
g21
(S'\x07\xdd\t\x1d\x13\t\x1e\x0c\xfe\xbd'
p594
tp595
Rp596
sg25
I0
sg26
g27
(g28
(I0
tp597
g30
tp598
Rp599
(I1
(I2
tp600
g36
I00
S'=\x00\x00\x00N\x00\x00\x00'
p601
tp602
bsba(i__main__
FrameData
p603
(dp604
g6
g366
sg8
g9
(g13
S'\xa8\xf4\x97\x9bw\xe3\x11@'
p605
tp606
Rp607
sg19
I0
sg20
g21
(S'\x07\xdd\t\x1d\x13\t\x1e\r?\x15'
p608
tp609
Rp610
sg25
I0
sg26
g27
(g28
(I0
tp611
g30
tp612
Rp613
(I1
(I2
tp614
g36
I00
S'?\x00\x00\x00N\x00\x00\x00'
p615
tp616
bsba(i__main__
FrameData
p617
(dp618
g6
g366
sg8
g9
(g13
S'\xa2\xa3\xb3\r\xe5R\x17@'
p619
tp620
Rp621
sg19
I0
sg20
g21
(S'\x07\xdd\t\x1d\x13\t\x1e\r\x7f\xa7'
p622
tp623
Rp624
sg25
I0
sg26
g27
(g28
(I0
tp625
g30
tp626
Rp627
(I1
(I2
tp628
g36
I00
S'@\x00\x00\x00O\x00\x00\x00'
p629
tp630
bsba(i__main__
FrameData
p631
(dp632
g6
g366
sg8
g9
(g13
S'6\xd0\xd2x\xa2B%@'
p633
tp634
Rp635
sg19
I0
sg20
g21
(S'\x07\xdd\t\x1d\x13\t\x1e\r\xc3\x9c'
p636
tp637
Rp638
sg25
I0
sg26
g27
(g28
(I0
tp639
g30
tp640
Rp641
(I1
(I2
tp642
g36
I00
S'C\x00\x00\x00S\x00\x00\x00'
p643
tp644
bsba(i__main__
FrameData
p645
(dp646
g6
g366
sg8
g9
(g13
S'\xc0\n\x1f\x00\xc6H,@'
p647
tp648
Rp649
sg19
I0
sg20
g21
(S'\x07\xdd\t\x1d\x13\t\x1e\x0e\x04\x03'
p650
tp651
Rp652
sg25
I0
sg26
g27
(g28
(I0
tp653
g30
tp654
Rp655
(I1
(I2
tp656
g36
I00
S'E\x00\x00\x00V\x00\x00\x00'
p657
tp658
bsba(i__main__
FrameData
p659
(dp660
g6
S'd'
p661
sg8
g9
(g13
S'\xc3\xe7Zp\xbb\x063@'
p662
tp663
Rp664
sg19
I0
sg20
g21
(S'\x07\xdd\t\x1d\x13\t\x1e\x0eD\xec'
p665
tp666
Rp667
sg25
I0
sg26
g27
(g28
(I0
tp668
g30
tp669
Rp670
(I1
(I2
tp671
g36
I00
S'J\x00\x00\x00^\x00\x00\x00'
p672
tp673
bsba(i__main__
FrameData
p674
(dp675
g6
g661
sg8
g9
(g13
S'\xb9e(k\xee\xc8+@'
p676
tp677
Rp678
sg19
I0
sg20
g21
(S'\x07\xdd\t\x1d\x13\t\x1e\x0e\x85T'
p679
tp680
Rp681
sg25
I0
sg26
g27
(g28
(I0
tp682
g30
tp683
Rp684
(I1
(I2
tp685
g36
I00
S'P\x00\x00\x00e\x00\x00\x00'
p686
tp687
bsba(i__main__
FrameData
p688
(dp689
g6
g661
sg8
g9
(g13
S'\x00\xff\x9f\x99\xcc\x9c)@'
p690
tp691
Rp692
sg19
I0
sg20
g21
(S'\x07\xdd\t\x1d\x13\t\x1e\x0e\xc5e'
p693
tp694
Rp695
sg25
I0
sg26
g27
(g28
(I0
tp696
g30
tp697
Rp698
(I1
(I2
tp699
g36
I00
S'Q\x00\x00\x00g\x00\x00\x00'
p700
tp701
bsba(i__main__
FrameData
p702
(dp703
g6
S'f'
p704
sg8
g9
(g13
S'\xd2\xf1}\x82U\\&@'
p705
tp706
Rp707
sg19
I0
sg20
g21
(S'\x07\xdd\t\x1d\x13\t\x1e\x0f\x089'
p708
tp709
Rp710
sg25
I0
sg26
g27
(g28
(I0
tp711
g30
tp712
Rp713
(I1
(I2
tp714
g36
I00
S'V\x00\x00\x00m\x00\x00\x00'
p715
tp716
bsba(i__main__
FrameData
p717
(dp718
g6
g704
sg8
g9
(g13
S'\xe9\xfbv \xd5\x1e\x1d@'
p719
tp720
Rp721
sg19
I0
sg20
g21
(S'\x07\xdd\t\x1d\x13\t\x1f\x00\x07\x9c'
p722
tp723
Rp724
sg25
I0
sg26
g27
(g28
(I0
tp725
g30
tp726
Rp727
(I1
(I2
tp728
g36
I00
S'Y\x00\x00\x00p\x00\x00\x00'
p729
tp730
bsba(i__main__
FrameData
p731
(dp732
g6
g704
sg8
g9
(g13
S'\x07\xed\xaff\x0f~\x10@'
p733
tp734
Rp735
sg19
I0
sg20
g21
(S'\x07\xdd\t\x1d\x13\t\x1f\x00H\x01'
p736
tp737
Rp738
sg25
I0
sg26
g27
(g28
(I0
tp739
g30
tp740
Rp741
(I1
(I2
tp742
g36
I00
S'\\\x00\x00\x00q\x00\x00\x00'
p743
tp744
bsba(i__main__
FrameData
p745
(dp746
g6
g704
sg8
g9
(g13
S'\x00\x00\x00\x00\x00\x00\x00@'
p747
tp748
Rp749
sg19
I0
sg20
g21
(S'\x07\xdd\t\x1d\x13\t\x1f\x00\x89\x1b'
p750
tp751
Rp752
sg25
I0
sg26
g27
(g28
(I0
tp753
g30
tp754
Rp755
(I1
(I2
tp756
g36
I00
S'^\x00\x00\x00r\x00\x00\x00'
p757
tp758
bsba(i__main__
FrameData
p759
(dp760
g6
g704
sg8
g9
(g13
S'\xf3YaD+\xd8\x0c@'
p761
tp762
Rp763
sg19
I0
sg20
g21
(S'\x07\xdd\t\x1d\x13\t\x1f\x00\xcc\xd2'
p764
tp765
Rp766
sg25
I0
sg26
g27
(g28
(I0
tp767
g30
tp768
Rp769
(I1
(I2
tp770
g36
I00
S'b\x00\x00\x00u\x00\x00\x00'
p771
tp772
bsba(i__main__
FrameData
p773
(dp774
g6
g704
sg8
g9
(g13
S'\x00\xff\x9f\x99\xcc\x9c\x19@'
p775
tp776
Rp777
sg19
I0
sg20
g21
(S'\x07\xdd\t\x1d\x13\t\x1f\x01\x0b\xcf'
p778
tp779
Rp780
sg25
I0
sg26
g27
(g28
(I0
tp781
g30
tp782
Rp783
(I1
(I2
tp784
g36
I00
S'd\x00\x00\x00w\x00\x00\x00'
p785
tp786
bsba(i__main__
FrameData
p787
(dp788
g6
g704
sg8
g9
(g13
S'ST\xaf\x99\x8a\xcc#@'
p789
tp790
Rp791
sg19
I0
sg20
g21
(S'\x07\xdd\t\x1d\x13\t\x1f\x01M\xd0'
p792
tp793
Rp794
sg25
I0
sg26
g27
(g28
(I0
tp795
g30
tp796
Rp797
(I1
(I2
tp798
g36
I00
S'g\x00\x00\x00y\x00\x00\x00'
p799
tp800
bsba(i__main__
FrameData
p801
(dp802
g6
g704
sg8
g9
(g13
S'\xcd;\x7ff\x9e\xa0&@'
p803
tp804
Rp805
sg19
I0
sg20
g21
(S'\x07\xdd\t\x1d\x13\t\x1f\x01\x8e\x01'
p806
tp807
Rp808
sg25
I0
sg26
g27
(g28
(I0
tp809
g30
tp810
Rp811
(I1
(I2
tp812
g36
I00
S'h\x00\x00\x00z\x00\x00\x00'
p813
tp814
bsba(i__main__
FrameData
p815
(dp816
g6
g704
sg8
g9
(g13
S'?*\x98"\xe3l,@'
p817
tp818
Rp819
sg19
I0
sg20
g21
(S'\x07\xdd\t\x1d\x13\t\x1f\x01\xd1J'
p820
tp821
Rp822
sg25
I0
sg26
g27
(g28
(I0
tp823
g30
tp824
Rp825
(I1
(I2
tp826
g36
I00
S'k\x00\x00\x00{\x00\x00\x00'
p827
tp828
bsba(i__main__
FrameData
p829
(dp830
g6
g704
sg8
g9
(g13
S'\x00\x00\x00\x00\x00\x00.@'
p831
tp832
Rp833
sg19
I0
sg20
g21
(S'\x07\xdd\t\x1d\x13\t\x1f\x02\x0f\xe6'
p834
tp835
Rp836
sg25
I0
sg26
g27
(g28
(I0
tp837
g30
tp838
Rp839
(I1
(I2
tp840
g36
I00
S'l\x00\x00\x00{\x00\x00\x00'
p841
tp842
bsba(i__main__
FrameData
p843
(dp844
g6
S'g'
p845
sg8
g9
(g13
S'\xc0\n\x1f\x00\xc6H,@'
p846
tp847
Rp848
sg19
I0
sg20
g21
(S'\x07\xdd\t\x1d\x13\t\x1f\x02Q\x14'
p849
tp850
Rp851
sg25
I0
sg26
g27
(g28
(I0
tp852
g30
tp853
Rp854
(I1
(I2
tp855
g36
I00
S'n\x00\x00\x00|\x00\x00\x00'
p856
tp857
bsba(i__main__
FrameData
p858
(dp859
g6
g845
sg8
g9
(g13
S'\xef\rI\xf1\xf33+@'
p860
tp861
Rp862
sg19
I0
sg20
g21
(S'\x07\xdd\t\x1d\x13\t\x1f\x02\x93&'
p863
tp864
Rp865
sg25
I0
sg26
g27
(g28
(I0
tp866
g30
tp867
Rp868
(I1
(I2
tp869
g36
I00
S'p\x00\x00\x00}\x00\x00\x00'
p870
tp871
bsba(i__main__
FrameData
p872
(dp873
g6
g845
sg8
g9
(g13
S'\xfc\xeeci3\xd5*@'
p874
tp875
Rp876
sg19
I0
sg20
g21
(S'\x07\xdd\t\x1d\x13\t\x1f\x02\xd7@'
p877
tp878
Rp879
sg25
I0
sg26
g27
(g28
(I0
tp880
g30
tp881
Rp882
(I1
(I2
tp883
g36
I00
S'r\x00\x00\x00~\x00\x00\x00'
p884
tp885
bsba(i__main__
FrameData
p886
(dp887
g6
g845
sg8
g9
(g13
S'8H\x9b\x97\xee\xae*@'
p888
tp889
Rp890
sg19
I0
sg20
g21
(S'\x07\xdd\t\x1d\x13\t\x1f\x03\x15\x8f'
p891
tp892
Rp893
sg25
I0
sg26
g27
(g28
(I0
tp894
g30
tp895
Rp896
(I1
(I2
tp897
g36
I00
S'u\x00\x00\x00\x7f\x00\x00\x00'
p898
tp899
bsba(i__main__
FrameData
p900
(dp901
g6
g845
sg8
g9
(g13
S'Qf\x99\xcb\xa9\x13*@'
p902
tp903
Rp904
sg19
I0
sg20
g21
(S'\x07\xdd\t\x1d\x13\t\x1f\x03V\xee'
p905
tp906
Rp907
sg25
I0
sg26
g27
(g28
(I0
tp908
g30
tp909
Rp910
(I1
(I2
tp911
g36
I00
S'y\x00\x00\x00\x7f\x00\x00\x00'
p912
tp913
bsba(i__main__
FrameData
p914
(dp915
g6
g845
sg8
g9
(g13
S'\xf7\x80Aq\xb9\xa2,@'
p916
tp917
Rp918
sg19
I0
sg20
g21
(S'\x07\xdd\t\x1d\x13\t\x1f\x03\x98\xa4'
p919
tp920
Rp921
sg25
I0
sg26
g27
(g28
(I0
tp922
g30
tp923
Rp924
(I1
(I2
tp925
g36
I00
S'{\x00\x00\x00\x80\x00\x00\x00'
p926
tp927
bsba(i__main__
FrameData
p928
(dp929
g6
g845
sg8
g9
(g13
S'p\xc4\x9d9\x8dv.@'
p930
tp931
Rp932
sg19
I0
sg20
g21
(S'\x07\xdd\t\x1d\x13\t\x1f\x03\xd9\x15'
p933
tp934
Rp935
sg25
I0
sg26
g27
(g28
(I0
tp936
g30
tp937
Rp938
(I1
(I2
tp939
g36
I00
S'~\x00\x00\x00\x80\x00\x00\x00'
p940
tp941
bsba(i__main__
FrameData
p942
(dp943
g6
g845
sg8
g9
(g13
S'\xb9\xbaF\xca+~1@'
p944
tp945
Rp946
sg19
I0
sg20
g21
(S'\x07\xdd\t\x1d\x13\t\x1f\x04\x1c\xec'
p947
tp948
Rp949
sg25
I0
sg26
g27
(g28
(I0
tp950
g30
tp951
Rp952
(I1
(I2
tp953
g36
I00
S'\x81\x00\x00\x00\x81\x00\x00\x00'
p954
tp955
bsba(i__main__
FrameData
p956
(dp957
g6
g845
sg8
g9
(g13
S'u\x85\x18\x11\xe0\x992@'
p958
tp959
Rp960
sg19
I0
sg20
g21
(S'\x07\xdd\t\x1d\x13\t\x1f\x04]r'
p961
tp962
Rp963
sg25
I0
sg26
g27
(g28
(I0
tp964
g30
tp965
Rp966
(I1
(I2
tp967
g36
I00
S'\x83\x00\x00\x00\x81\x00\x00\x00'
p968
tp969
bsba(i__main__
FrameData
p970
(dp971
g6
S'h'
p972
sg8
g9
(g13
S'A\x87b\xc62\xde2@'
p973
tp974
Rp975
sg19
I0
sg20
g21
(S'\x07\xdd\t\x1d\x13\t\x1f\x04\xa3\x9d'
p976
tp977
Rp978
sg25
I0
sg26
g27
(g28
(I0
tp979
g30
tp980
Rp981
(I1
(I2
tp982
g36
I00
S'\x86\x00\x00\x00\x82\x00\x00\x00'
p983
tp984
bsba(i__main__
FrameData
p985
(dp986
g6
g972
sg8
g9
(g13
S'\x96`G\xb3\x80b2@'
p987
tp988
Rp989
sg19
I0
sg20
g21
(S'\x07\xdd\t\x1d\x13\t\x1f\x04\xe1\xfd'
p990
tp991
Rp992
sg25
I0
sg26
g27
(g28
(I0
tp993
g30
tp994
Rp995
(I1
(I2
tp996
g36
I00
S'\x89\x00\x00\x00\x83\x00\x00\x00'
p997
tp998
bsba(i__main__
FrameData
p999
(dp1000
g6
g972
sg8
g9
(g13
S'\x9a.\x90!hp2@'
p1001
tp1002
Rp1003
sg19
I0
sg20
g21
(S'\x07\xdd\t\x1d\x13\t\x1f\x05"\x93'
p1004
tp1005
Rp1006
sg25
I0
sg26
g27
(g28
(I0
tp1007
g30
tp1008
Rp1009
(I1
(I2
tp1010
g36
I00
S'\x8c\x00\x00\x00\x84\x00\x00\x00'
p1011
tp1012
bsba(i__main__
FrameData
p1013
(dp1014
g6
g972
sg8
g9
(g13
S'^\x9e\x9f\x85\xdf\x1a3@'
p1015
tp1016
Rp1017
sg19
I0
sg20
g21
(S'\x07\xdd\t\x1d\x13\t\x1f\x05`\x9c'
p1018
tp1019
Rp1020
sg25
I0
sg26
g27
(g28
(I0
tp1021
g30
tp1022
Rp1023
(I1
(I2
tp1024
g36
I00
S'\x8e\x00\x00\x00\x85\x00\x00\x00'
p1025
tp1026
bsba(i__main__
FrameData
p1027
(dp1028
g6
g972
sg8
g9
(g13
S'\xc3\xe7Zp\xbb\x063@'
p1029
tp1030
Rp1031
sg19
I0
sg20
g21
(S'\x07\xdd\t\x1d\x13\t\x1f\x05\xa3X'
p1032
tp1033
Rp1034
sg25
I0
sg26
g27
(g28
(I0
tp1035
g30
tp1036
Rp1037
(I1
(I2
tp1038
g36
I00
S'\x91\x00\x00\x00\x85\x00\x00\x00'
p1039
tp1040
bsba(i__main__
FrameData
p1041
(dp1042
g6
g972
sg8
g9
(g13
S'\xf6/\x12_ee4@'
p1043
tp1044
Rp1045
sg19
I0
sg20
g21
(S'\x07\xdd\t\x1d\x13\t\x1f\x05\xe5\xe3'
p1046
tp1047
Rp1048
sg25
I0
sg26
g27
(g28
(I0
tp1049
g30
tp1050
Rp1051
(I1
(I2
tp1052
g36
I00
S'\x94\x00\x00\x00\x86\x00\x00\x00'
p1053
tp1054
bsba(i__main__
FrameData
p1055
(dp1056
g6
S'n'
p1057
sg8
g9
(g13
S'\xc9\xe0>!B<3@'
p1058
tp1059
Rp1060
sg19
I0
sg20
g21
(S"\x07\xdd\t\x1d\x13\t\x1f\x06'\xb7"
p1061
tp1062
Rp1063
sg25
I0
sg26
g27
(g28
(I0
tp1064
g30
tp1065
Rp1066
(I1
(I2
tp1067
g36
I00
S'\x97\x00\x00\x00\x88\x00\x00\x00'
p1068
tp1069
bsba(i__main__
FrameData
p1070
(dp1071
g6
g1057
sg8
g9
(g13
S'\x07\xed\xaff\x0f~0@'
p1072
tp1073
Rp1074
sg19
I0
sg20
g21
(S'\x07\xdd\t\x1d\x13\t\x1f\x06hE'
p1075
tp1076
Rp1077
sg25
I0
sg26
g27
(g28
(I0
tp1078
g30
tp1079
Rp1080
(I1
(I2
tp1081
g36
I00
S'\x9c\x00\x00\x00\x89\x00\x00\x00'
p1082
tp1083
bsba(i__main__
FrameData
p1084
(dp1085
g6
g1057
sg8
g9
(g13
S')\x03\xec/C\x12,@'
p1086
tp1087
Rp1088
sg19
I0
sg20
g21
(S'\x07\xdd\t\x1d\x13\t\x1f\x06\xa8\xd8'
p1089
tp1090
Rp1091
sg25
I0
sg26
g27
(g28
(I0
tp1092
g30
tp1093
Rp1094
(I1
(I2
tp1095
g36
I00
S'\x9f\x00\x00\x00\x8b\x00\x00\x00'
p1096
tp1097
bsba(i__main__
FrameData
p1098
(dp1099
g6
g1057
sg8
g9
(g13
S'\x8a\xe3\x07\x1a\x17\xbd(@'
p1100
tp1101
Rp1102
sg19
I0
sg20
g21
(S'\x07\xdd\t\x1d\x13\t\x1f\x06\xed\xbc'
p1103
tp1104
Rp1105
sg25
I0
sg26
g27
(g28
(I0
tp1106
g30
tp1107
Rp1108
(I1
(I2
tp1109
g36
I00
S'\xa3\x00\x00\x00\x8d\x00\x00\x00'
p1110
tp1111
bsba(i__main__
FrameData
p1112
(dp1113
g6
g1057
sg8
g9
(g13
S'lNy\x00\x85*(@'
p1114
tp1115
Rp1116
sg19
I0
sg20
g21
(S'\x07\xdd\t\x1d\x13\t\x1f\x07-\x11'
p1117
tp1118
Rp1119
sg25
I0
sg26
g27
(g28
(I0
tp1120
g30
tp1121
Rp1122
(I1
(I2
tp1123
g36
I00
S'\xa5\x00\x00\x00\x8e\x00\x00\x00'
p1124
tp1125
bsba(i__main__
FrameData
p1126
(dp1127
g6
g1057
sg8
g9
(g13
S"\xa2\xa3\xb3\r\xe5R'@"
p1128
tp1129
Rp1130
sg19
I0
sg20
g21
(S'\x07\xdd\t\x1d\x13\t\x1f\x07jQ'
p1131
tp1132
Rp1133
sg25
I0
sg26
g27
(g28
(I0
tp1134
g30
tp1135
Rp1136
(I1
(I2
tp1137
g36
I00
S'\xa6\x00\x00\x00\x8f\x00\x00\x00'
p1138
tp1139
bsba(i__main__
FrameData
p1140
(dp1141
g6
g1057
sg8
g9
(g13
S'\x00\xff\x9f\x99\xcc\x9c)@'
p1142
tp1143
Rp1144
sg19
I0
sg20
g21
(S'\x07\xdd\t\x1d\x13\t\x1f\x07\xb0C'
p1145
tp1146
Rp1147
sg25
I0
sg26
g27
(g28
(I0
tp1148
g30
tp1149
Rp1150
(I1
(I2
tp1151
g36
I00
S'\xa8\x00\x00\x00\x8f\x00\x00\x00'
p1152
tp1153
bsba(i__main__
FrameData
p1154
(dp1155
g6
g1057
sg8
g9
(g13
S'&5w\xe2K\x15(@'
p1156
tp1157
Rp1158
sg19
I0
sg20
g21
(S'\x07\xdd\t\x1d\x13\t\x1f\x07\xf2H'
p1159
tp1160
Rp1161
sg25
I0
sg26
g27
(g28
(I0
tp1162
g30
tp1163
Rp1164
(I1
(I2
tp1165
g36
I00
S'\xa8\x00\x00\x00\x90\x00\x00\x00'
p1166
tp1167
bsba(i__main__
FrameData
p1168
(dp1169
g6
g1057
sg8
g9
(g13
S'\xb4\xb8=iA\xe8*@'
p1170
tp1171
Rp1172
sg19
I0
sg20
g21
(S'\x07\xdd\t\x1d\x13\t\x1f\x08.\xe4'
p1173
tp1174
Rp1175
sg25
I0
sg26
g27
(g28
(I0
tp1176
g30
tp1177
Rp1178
(I1
(I2
tp1179
g36
I00
S'\xaa\x00\x00\x00\x90\x00\x00\x00'
p1180
tp1181
bsba(i__main__
FrameData
p1182
(dp1183
g6
g1057
sg8
g9
(g13
S'\x00\xff\x9f\x99\xcc\x9c)@'
p1184
tp1185
Rp1186
sg19
I0
sg20
g21
(S'\x07\xdd\t\x1d\x13\t\x1f\x08oe'
p1187
tp1188
Rp1189
sg25
I0
sg26
g27
(g28
(I0
tp1190
g30
tp1191
Rp1192
(I1
(I2
tp1193
g36
I00
S'\xaa\x00\x00\x00\x91\x00\x00\x00'
p1194
tp1195
bsba(i__main__
FrameData
p1196
(dp1197
g6
g1057
sg8
g9
(g13
S'Qf\x99\xcb\xa9\x13*@'
p1198
tp1199
Rp1200
sg19
I0
sg20
g21
(S'\x07\xdd\t\x1d\x13\t\x1f\x08\xf2a'
p1201
tp1202
Rp1203
sg25
I0
sg26
g27
(g28
(I0
tp1204
g30
tp1205
Rp1206
(I1
(I2
tp1207
g36
I00
S'\xab\x00\x00\x00\x92\x00\x00\x00'
p1208
tp1209
bsba(i__main__
FrameData
p1210
(dp1211
g6
g1057
sg8
g9
(g13
S'\xfc\xeeci3\xd5*@'
p1212
tp1213
Rp1214
sg19
I0
sg20
g21
(S'\x07\xdd\t\x1d\x13\t\x1f\t53'
p1215
tp1216
Rp1217
sg25
I0
sg26
g27
(g28
(I0
tp1218
g30
tp1219
Rp1220
(I1
(I2
tp1221
g36
I00
S'\xac\x00\x00\x00\x93\x00\x00\x00'
p1222
tp1223
bsba(i__main__
FrameData
p1224
(dp1225
g6
g1057
sg8
g9
(g13
S'\xf7\x80Aq\xb9\xa2,@'
p1226
tp1227
Rp1228
sg19
I0
sg20
g21
(S'\x07\xdd\t\x1d\x13\t\x1f\ttk'
p1229
tp1230
Rp1231
sg25
I0
sg26
g27
(g28
(I0
tp1232
g30
tp1233
Rp1234
(I1
(I2
tp1235
g36
I00
S'\xad\x00\x00\x00\x93\x00\x00\x00'
p1236
tp1237
bsba(i__main__
FrameData
p1238
(dp1239
g6
S'm'
p1240
sg8
g9
(g13
S'\xbc\xfdP\xb5U\xdb+@'
p1241
tp1242
Rp1243
sg19
I0
sg20
g21
(S'\x07\xdd\t\x1d\x13\t\x1f\t\xb5\x84'
p1244
tp1245
Rp1246
sg25
I0
sg26
g27
(g28
(I0
tp1247
g30
tp1248
Rp1249
(I1
(I2
tp1250
g36
I00
S'\xae\x00\x00\x00\x94\x00\x00\x00'
p1251
tp1252
bsba(i__main__
FrameData
p1253
(dp1254
g6
g1240
sg8
g9
(g13
S'\x00\x00\x00\x00\x00\x00*@'
p1255
tp1256
Rp1257
sg19
I0
sg20
g21
(S'\x07\xdd\t\x1d\x13\t\x1f\n9|'
p1258
tp1259
Rp1260
sg25
I0
sg26
g27
(g28
(I0
tp1261
g30
tp1262
Rp1263
(I1
(I2
tp1264
g36
I00
S'\xaf\x00\x00\x00\x94\x00\x00\x00'
p1265
tp1266
bsba(i__main__
FrameData
p1267
(dp1268
g6
g1240
sg8
g9
(g13
S"\xe0\x11<m\xceh'@"
p1269
tp1270
Rp1271
sg19
I0
sg20
g21
(S'\x07\xdd\t\x1d\x13\t\x1f\n\xbb\x97'
p1272
tp1273
Rp1274
sg25
I0
sg26
g27
(g28
(I0
tp1275
g30
tp1276
Rp1277
(I1
(I2
tp1278
g36
I00
S'\xb0\x00\x00\x00\x95\x00\x00\x00'
p1279
tp1280
bsba(i__main__
FrameData
p1281
(dp1282
g6
g1240
sg8
g9
(g13
S'\xf3\xd9\xa8\xa4h\x8a%@'
p1283
tp1284
Rp1285
sg19
I0
sg20
g21
(S'\x07\xdd\t\x1d\x13\t\x1f\n\xfel'
p1286
tp1287
Rp1288
sg25
I0
sg26
g27
(g28
(I0
tp1289
g30
tp1290
Rp1291
(I1
(I2
tp1292
g36
I00
S'\xb1\x00\x00\x00\x95\x00\x00\x00'
p1293
tp1294
bsba(i__main__
FrameData
p1295
(dp1296
g6
g1240
sg8
g9
(g13
S'bVc}\x9d\xb2#@'
p1297
tp1298
Rp1299
sg19
I0
sg20
g21
(S'\x07\xdd\t\x1d\x13\t\x1f\x0b<\x88'
p1300
tp1301
Rp1302
sg25
I0
sg26
g27
(g28
(I0
tp1303
g30
tp1304
Rp1305
(I1
(I2
tp1306
g36
I00
S'\xb2\x00\x00\x00\x95\x00\x00\x00'
p1307
tp1308
bsba(i__main__
FrameData
p1309
(dp1310
g6
g1240
sg8
g9
(g13
S'\x9a.\x90!hp"@'
p1311
tp1312
Rp1313
sg19
I0
sg20
g21
(S'\x07\xdd\t\x1d\x13\t\x1f\x0b\x82\xeb'
p1314
tp1315
Rp1316
sg25
I0
sg26
g27
(g28
(I0
tp1317
g30
tp1318
Rp1319
(I1
(I2
tp1320
g36
I00
S'\xb2\x00\x00\x00\x97\x00\x00\x00'
p1321
tp1322
bsba(i__main__
FrameData
p1323
(dp1324
g6
g1240
sg8
g9
(g13
S'\xe9\xfbv \xd5\x1e\x1d@'
p1325
tp1326
Rp1327
sg19
I0
sg20
g21
(S'\x07\xdd\t\x1d\x13\t\x1f\x0c\x03\xdc'
p1328
tp1329
Rp1330
sg25
I0
sg26
g27
(g28
(I0
tp1331
g30
tp1332
Rp1333
(I1
(I2
tp1334
g36
I00
S'\xb4\x00\x00\x00\x97\x00\x00\x00'
p1335
tp1336
bsba(i__main__
FrameData
p1337
(dp1338
g6
g1240
sg8
g9
(g13
S'S[\xda:XL\x19@'
p1339
tp1340
Rp1341
sg19
I0
sg20
g21
(S'\x07\xdd\t\x1d\x13\t\x1f\x0cE9'
p1342
tp1343
Rp1344
sg25
I0
sg26
g27
(g28
(I0
tp1345
g30
tp1346
Rp1347
(I1
(I2
tp1348
g36
I00
S'\xb5\x00\x00\x00\x97\x00\x00\x00'
p1349
tp1350
bsba(i__main__
FrameData
p1351
(dp1352
g6
g1240
sg8
g9
(g13
S'\xf6/\x12_ee\x14@'
p1353
tp1354
Rp1355
sg19
I0
sg20
g21
(S'\x07\xdd\t\x1d\x13\t\x1f\x0c\x84\xc1'
p1356
tp1357
Rp1358
sg25
I0
sg26
g27
(g28
(I0
tp1359
g30
tp1360
Rp1361
(I1
(I2
tp1362
g36
I00
S'\xb6\x00\x00\x00\x98\x00\x00\x00'
p1363
tp1364
bsba(i__main__
FrameData
p1365
(dp1366
g6
g1240
sg8
g9
(g13
S'\x07\xed\xaff\x0f~\x10@'
p1367
tp1368
Rp1369
sg19
I0
sg20
g21
(S'\x07\xdd\t\x1d\x13\t\x1f\x0c\xc8\xbf'
p1370
tp1371
Rp1372
sg25
I0
sg26
g27
(g28
(I0
tp1373
g30
tp1374
Rp1375
(I1
(I2
tp1376
g36
I00
S'\xb7\x00\x00\x00\x98\x00\x00\x00'
p1377
tp1378
bsba(i__main__
FrameData
p1379
(dp1380
g6
g1240
sg8
g9
(g13
S'S[\xda:XL\t@'
p1381
tp1382
Rp1383
sg19
I0
sg20
g21
(S'\x07\xdd\t\x1d\x13\t\x1f\r\x070'
p1384
tp1385
Rp1386
sg25
I0
sg26
g27
(g28
(I0
tp1387
g30
tp1388
Rp1389
(I1
(I2
tp1390
g36
I00
S'\xb8\x00\x00\x00\x98\x00\x00\x00'
p1391
tp1392
bsba(i__main__
FrameData
p1393
(dp1394
g6
g1240
sg8
g9
(g13
S'\xcd;\x7ff\x9e\xa0\xf6?'
p1395
tp1396
Rp1397
sg19
I0
sg20
g21
(S'\x07\xdd\t\x1d\x13\t\x1f\r\x8d\x8c'
p1398
tp1399
Rp1400
sg25
I0
sg26
g27
(g28
(I0
tp1401
g30
tp1402
Rp1403
(I1
(I2
tp1404
g36
I00
S'\xba\x00\x00\x00\x98\x00\x00\x00'
p1405
tp1406
bsba(i__main__
FrameData
p1407
(dp1408
g6
g1240
sg8
g9
(g13
S'\xa8\xf4\x97\x9bw\xe3\x01@'
p1409
tp1410
Rp1411
sg19
I0
sg20
g21
(S'\x07\xdd\t\x1d\x13\t \x01\x99\x9c'
p1412
tp1413
Rp1414
sg25
I0
sg26
g27
(g28
(I0
tp1415
g30
tp1416
Rp1417
(I1
(I2
tp1418
g36
I00
S'\xba\x00\x00\x00\x97\x00\x00\x00'
p1419
tp1420
bsba(i__main__
FrameData
p1421
(dp1422
g6
g1240
sg8
g9
(g13
S'\x07\xed\xaff\x0f~\x10@'
p1423
tp1424
Rp1425
sg19
I0
sg20
g21
(S'\x07\xdd\t\x1d\x13\t \x01\xd9\x0e'
p1426
tp1427
Rp1428
sg25
I0
sg26
g27
(g28
(I0
tp1429
g30
tp1430
Rp1431
(I1
(I2
tp1432
g36
I00
S'\xba\x00\x00\x00\x95\x00\x00\x00'
p1433
tp1434
bsba(i__main__
FrameData
p1435
(dp1436
g6
g1240
sg8
g9
(g13
S'\xf6/\x12_ee\x14@'
p1437
tp1438
Rp1439
sg19
I0
sg20
g21
(S'\x07\xdd\t\x1d\x13\t \x02\x1c\xe7'
p1440
tp1441
Rp1442
sg25
I0
sg26
g27
(g28
(I0
tp1443
g30
tp1444
Rp1445
(I1
(I2
tp1446
g36
I00
S'\xba\x00\x00\x00\x94\x00\x00\x00'
p1447
tp1448
bsba(i__main__
FrameData
p1449
(dp1450
g6
g1240
sg8
g9
(g13
S'\xc0\n\x1f\x00\xc6H\x1c@'
p1451
tp1452
Rp1453
sg19
I0
sg20
g21
(S'\x07\xdd\t\x1d\x13\t \x02[E'
p1454
tp1455
Rp1456
sg25
I0
sg26
g27
(g28
(I0
tp1457
g30
tp1458
Rp1459
(I1
(I2
tp1460
g36
I00
S'\xba\x00\x00\x00\x92\x00\x00\x00'
p1461
tp1462
bsba(i__main__
FrameData
p1463
(dp1464
g6
g1240
sg8
g9
(g13
S'$\xf8\xd9p[\x1c"@'
p1465
tp1466
Rp1467
sg19
I0
sg20
g21
(S'\x07\xdd\t\x1d\x13\t \x02\x9b/'
p1468
tp1469
Rp1470
sg25
I0
sg26
g27
(g28
(I0
tp1471
g30
tp1472
Rp1473
(I1
(I2
tp1474
g36
I00
S'\xba\x00\x00\x00\x90\x00\x00\x00'
p1475
tp1476
bsba(i__main__
FrameData
p1477
(dp1478
g6
g1240
sg8
g9
(g13
S'\xf0)#L\x89\x19$@'
p1479
tp1480
Rp1481
sg19
I0
sg20
g21
(S'\x07\xdd\t\x1d\x13\t \x02\xde4'
p1482
tp1483
Rp1484
sg25
I0
sg26
g27
(g28
(I0
tp1485
g30
tp1486
Rp1487
(I1
(I2
tp1488
g36
I00
S'\xba\x00\x00\x00\x8f\x00\x00\x00'
p1489
tp1490
bsba(i__main__
FrameData
p1491
(dp1492
g6
g1240
sg8
g9
(g13
S'&5w\xe2K\x15(@'
p1493
tp1494
Rp1495
sg19
I0
sg20
g21
(S'\x07\xdd\t\x1d\x13\t \x03\x1eE'
p1496
tp1497
Rp1498
sg25
I0
sg26
g27
(g28
(I0
tp1499
g30
tp1500
Rp1501
(I1
(I2
tp1502
g36
I00
S'\xba\x00\x00\x00\x8d\x00\x00\x00'
p1503
tp1504
bsba(i__main__
FrameData
p1505
(dp1506
g6
g1240
sg8
g9
(g13
S')\x03\xec/C\x12,@'
p1507
tp1508
Rp1509
sg19
I0
sg20
g21
(S'\x07\xdd\t\x1d\x13\t \x03b\xb7'
p1510
tp1511
Rp1512
sg25
I0
sg26
g27
(g28
(I0
tp1513
g30
tp1514
Rp1515
(I1
(I2
tp1516
g36
I00
S'\xba\x00\x00\x00\x8b\x00\x00\x00'
p1517
tp1518
bsba(i__main__
FrameData
p1519
(dp1520
g6
g1240
sg8
g9
(g13
S'\x00\x00\x00\x00\x00\x000@'
p1521
tp1522
Rp1523
sg19
I0
sg20
g21
(S'\x07\xdd\t\x1d\x13\t \x03\xa37'
p1524
tp1525
Rp1526
sg25
I0
sg26
g27
(g28
(I0
tp1527
g30
tp1528
Rp1529
(I1
(I2
tp1530
g36
I00
S'\xbb\x00\x00\x00\x89\x00\x00\x00'
p1531
tp1532
bsba(i__main__
FrameData
p1533
(dp1534
g6
S'k'
p1535
sg8
g9
(g13
S'$\xf8\xd9p[\x1c2@'
p1536
tp1537
Rp1538
sg19
I0
sg20
g21
(S'\x07\xdd\t\x1d\x13\t \x03\xe2\\'
p1539
tp1540
Rp1541
sg25
I0
sg26
g27
(g28
(I0
tp1542
g30
tp1543
Rp1544
(I1
(I2
tp1545
g36
I00
S'\xbc\x00\x00\x00\x84\x00\x00\x00'
p1546
tp1547
bsba(i__main__
FrameData
p1548
(dp1549
g6
g1535
sg8
g9
(g13
S'\xaf_\x109\x0c\x11.@'
p1550
tp1551
Rp1552
sg19
I0
sg20
g21
(S'\x07\xdd\t\x1d\x13\t \x04$\x0c'
p1553
tp1554
Rp1555
sg25
I0
sg26
g27
(g28
(I0
tp1556
g30
tp1557
Rp1558
(I1
(I2
tp1559
g36
I00
S'\xbd\x00\x00\x00\x81\x00\x00\x00'
p1560
tp1561
bsba(i__main__
FrameData
p1562
(dp1563
g6
g1535
sg8
g9
(g13
S'\x00\x00\x00\x00\x00\x00(@'
p1564
tp1565
Rp1566
sg19
I0
sg20
g21
(S'\x07\xdd\t\x1d\x13\t \x04d\x8e'
p1567
tp1568
Rp1569
sg25
I0
sg26
g27
(g28
(I0
tp1570
g30
tp1571
Rp1572
(I1
(I2
tp1573
g36
I00
S'\xbe\x00\x00\x00~\x00\x00\x00'
p1574
tp1575
bsba(i__main__
FrameData
p1576
(dp1577
g6
g1535
sg8
g9
(g13
S'\x9a.\x90!hp"@'
p1578
tp1579
Rp1580
sg19
I0
sg20
g21
(S'\x07\xdd\t\x1d\x13\t \x04\xa6>'
p1581
tp1582
Rp1583
sg25
I0
sg26
g27
(g28
(I0
tp1584
g30
tp1585
Rp1586
(I1
(I2
tp1587
g36
I00
S'\xc0\x00\x00\x00{\x00\x00\x00'
p1588
tp1589
bsba(i__main__
FrameData
p1590
(dp1591
g6
g1535
sg8
g9
(g13
S'\xfc\xeeci3\xd5\x1a@'
p1592
tp1593
Rp1594
sg19
I0
sg20
g21
(S'\x07\xdd\t\x1d\x13\t \x04\xe6}'
p1595
tp1596
Rp1597
sg25
I0
sg26
g27
(g28
(I0
tp1598
g30
tp1599
Rp1600
(I1
(I2
tp1601
g36
I00
S'\xc1\x00\x00\x00x\x00\x00\x00'
p1602
tp1603
bsba(i__main__
FrameData
p1604
(dp1605
g6
g1535
sg8
g9
(g13
S'\x00\x00\x00\x00\x00\x00\x14@'
p1606
tp1607
Rp1608
sg19
I0
sg20
g21
(S'\x07\xdd\t\x1d\x13\t \x05-\x02'
p1609
tp1610
Rp1611
sg25
I0
sg26
g27
(g28
(I0
tp1612
g30
tp1613
Rp1614
(I1
(I2
tp1615
g36
I00
S'\xc1\x00\x00\x00v\x00\x00\x00'
p1616
tp1617
bsba(i__main__
FrameData
p1618
(dp1619
g6
g1535
sg8
g9
(g13
S'\xd9l\xdf\xccv\xf8\x10@'
p1620
tp1621
Rp1622
sg19
I0
sg20
g21
(S'\x07\xdd\t\x1d\x13\t \x05h\x90'
p1623
tp1624
Rp1625
sg25
I0
sg26
g27
(g28
(I0
tp1626
g30
tp1627
Rp1628
(I1
(I2
tp1629
g36
I00
S'\xc1\x00\x00\x00u\x00\x00\x00'
p1630
tp1631
bsba(i__main__
FrameData
p1632
(dp1633
g6
g1535
sg8
g9
(g13
S'\xa2\xa3\xb3\r\xe5R\x17@'
p1634
tp1635
Rp1636
sg19
I0
sg20
g21
(S'\x07\xdd\t\x1d\x13\t \x05\xab\x89'
p1637
tp1638
Rp1639
sg25
I0
sg26
g27
(g28
(I0
tp1640
g30
tp1641
Rp1642
(I1
(I2
tp1643
g36
I00
S'\xc3\x00\x00\x00u\x00\x00\x00'
p1644
tp1645
bsba(i__main__
FrameData
p1646
(dp1647
g6
g1535
sg8
g9
(g13
S'\xf6/\x12_ee\x14@'
p1648
tp1649
Rp1650
sg19
I0
sg20
g21
(S'\x07\xdd\t\x1d\x13\t \x05\xea\xd2'
p1651
tp1652
Rp1653
sg25
I0
sg26
g27
(g28
(I0
tp1654
g30
tp1655
Rp1656
(I1
(I2
tp1657
g36
I00
S'\xc3\x00\x00\x00s\x00\x00\x00'
p1658
tp1659
bsba(i__main__
FrameData
p1660
(dp1661
g6
g1535
sg8
g9
(g13
S'\x00\x00\x00\x00\x00\x00\x14@'
p1662
tp1663
Rp1664
sg19
I0
sg20
g21
(S'\x07\xdd\t\x1d\x13\t \x06-L'
p1665
tp1666
Rp1667
sg25
I0
sg26
g27
(g28
(I0
tp1668
g30
tp1669
Rp1670
(I1
(I2
tp1671
g36
I00
S'\xc3\x00\x00\x00r\x00\x00\x00'
p1672
tp1673
bsba(i__main__
FrameData
p1674
(dp1675
g6
g1535
sg8
g9
(g13
S'\x00\x00\x00\x00\x00\x00\x18@'
p1676
tp1677
Rp1678
sg19
I0
sg20
g21
(S'\x07\xdd\t\x1d\x13\t \x06r\xc9'
p1679
tp1680
Rp1681
sg25
I0
sg26
g27
(g28
(I0
tp1682
g30
tp1683
Rp1684
(I1
(I2
tp1685
g36
I00
S'\xc4\x00\x00\x00r\x00\x00\x00'
p1686
tp1687
bsba(i__main__
FrameData
p1688
(dp1689
g6
g1535
sg8
g9
(g13
S'S[\xda:XL\x19@'
p1690
tp1691
Rp1692
sg19
I0
sg20
g21
(S'\x07\xdd\t\x1d\x13\t \x06\xae\xe1'
p1693
tp1694
Rp1695
sg25
I0
sg26
g27
(g28
(I0
tp1696
g30
tp1697
Rp1698
(I1
(I2
tp1699
g36
I00
S'\xc4\x00\x00\x00p\x00\x00\x00'
p1700
tp1701
bsba(i__main__
FrameData
p1702
(dp1703
g6
g1535
sg8
g9
(g13
S'\xfc\xeeci3\xd5\x1a@'
p1704
tp1705
Rp1706
sg19
I0
sg20
g21
(S'\x07\xdd\t\x1d\x13\t \x06\xf3%'
p1707
tp1708
Rp1709
sg25
I0
sg26
g27
(g28
(I0
tp1710
g30
tp1711
Rp1712
(I1
(I2
tp1713
g36
I00
S'\xc4\x00\x00\x00o\x00\x00\x00'
p1714
tp1715
bsba(i__main__
FrameData
p1716
(dp1717
g6
g1535
sg8
g9
(g13
S'\xd0\xbaa?\xe0\x1f @'
p1718
tp1719
Rp1720
sg19
I0
sg20
g21
(S'\x07\xdd\t\x1d\x13\t \x074P'
p1721
tp1722
Rp1723
sg25
I0
sg26
g27
(g28
(I0
tp1724
g30
tp1725
Rp1726
(I1
(I2
tp1727
g36
I00
S'\xc5\x00\x00\x00n\x00\x00\x00'
p1728
tp1729
bsba(i__main__
FrameData
p1730
(dp1731
g6
g1535
sg8
g9
(g13
S'N\x017\xfac4!@'
p1732
tp1733
Rp1734
sg19
I0
sg20
g21
(S'\x07\xdd\t\x1d\x13\t \x07t\xb5'
p1735
tp1736
Rp1737
sg25
I0
sg26
g27
(g28
(I0
tp1738
g30
tp1739
Rp1740
(I1
(I2
tp1741
g36
I00
S'\xc5\x00\x00\x00m\x00\x00\x00'
p1742
tp1743
bsba(i__main__
FrameData
p1744
(dp1745
g6
g1535
sg8
g9
(g13
S'\xeb\x12\xb2\xbb\xb2\xcd&@'
p1746
tp1747
Rp1748
sg19
I0
sg20
g21
(S'\x07\xdd\t\x1d\x13\t \x07\xb5D'
p1749
tp1750
Rp1751
sg25
I0
sg26
g27
(g28
(I0
tp1752
g30
tp1753
Rp1754
(I1
(I2
tp1755
g36
I00
S'\xc7\x00\x00\x00k\x00\x00\x00'
p1756
tp1757
bsba(i__main__
FrameData
p1758
(dp1759
g6
g1535
sg8
g9
(g13
S'/\xa4\xe3\\m\xbb-@'
p1760
tp1761
Rp1762
sg19
I0
sg20
g21
(S'\x07\xdd\t\x1d\x13\t \x07\xf8\xfd'
p1763
tp1764
Rp1765
sg25
I0
sg26
g27
(g28
(I0
tp1766
g30
tp1767
Rp1768
(I1
(I2
tp1769
g36
I00
S'\xc9\x00\x00\x00h\x00\x00\x00'
p1770
tp1771
bsba(i__main__
FrameData
p1772
(dp1773
g6
S'l'
p1774
sg8
g9
(g13
S'\x10\xb3]\xc9`G0@'
p1775
tp1776
Rp1777
sg19
I0
sg20
g21
(S'\x07\xdd\t\x1d\x13\t \x085\xf2'
p1778
tp1779
Rp1780
sg25
I0
sg26
g27
(g28
(I0
tp1781
g30
tp1782
Rp1783
(I1
(I2
tp1784
g36
I00
S'\xcb\x00\x00\x00f\x00\x00\x00'
p1785
tp1786
bsba(i__main__
FrameData
p1787
(dp1788
g6
g1774
sg8
g9
(g13
S'N\x017\xfac41@'
p1789
tp1790
Rp1791
sg19
I0
sg20
g21
(S'\x07\xdd\t\x1d\x13\t \x08y\xf7'
p1792
tp1793
Rp1794
sg25
I0
sg26
g27
(g28
(I0
tp1795
g30
tp1796
Rp1797
(I1
(I2
tp1798
g36
I00
S'\xcc\x00\x00\x00d\x00\x00\x00'
p1799
tp1800
bsba(i__main__
FrameData
p1801
(dp1802
g6
g1774
sg8
g9
(g13
S'\xb9\xbaF\xca+~1@'
p1803
tp1804
Rp1805
sg19
I0
sg20
g21
(S'\x07\xdd\t\x1d\x13\t \x08\xba\x83'
p1806
tp1807
Rp1808
sg25
I0
sg26
g27
(g28
(I0
tp1809
g30
tp1810
Rp1811
(I1
(I2
tp1812
g36
I00
S'\xcd\x00\x00\x00c\x00\x00\x00'
p1813
tp1814
bsba(i__main__
FrameData
p1815
(dp1816
g6
g1774
sg8
g9
(g13
S'\xa8\xf4\x97\x9bw\xe31@'
p1817
tp1818
Rp1819
sg19
I0
sg20
g21
(S'\x07\xdd\t\x1d\x13\t \x08\xfa\xfd'
p1820
tp1821
Rp1822
sg25
I0
sg26
g27
(g28
(I0
tp1823
g30
tp1824
Rp1825
(I1
(I2
tp1826
g36
I00
S'\xce\x00\x00\x00b\x00\x00\x00'
p1827
tp1828
bsba(i__main__
FrameData
p1829
(dp1830
g6
g1774
sg8
g9
(g13
S'~\xc4#,B\xf92@'
p1831
tp1832
Rp1833
sg19
I0
sg20
g21
(S'\x07\xdd\t\x1d\x13\t \t>o'
p1834
tp1835
Rp1836
sg25
I0
sg26
g27
(g28
(I0
tp1837
g30
tp1838
Rp1839
(I1
(I2
tp1840
g36
I00
S'\xd0\x00\x00\x00`\x00\x00\x00'
p1841
tp1842
bsba(i__main__
FrameData
p1843
(dp1844
g6
g1774
sg8
g9
(g13
S'W\xb2\xdb\x1a\x9a\xa53@'
p1845
tp1846
Rp1847
sg19
I0
sg20
g21
(S'\x07\xdd\t\x1d\x13\t \t\x82\xf7'
p1848
tp1849
Rp1850
sg25
I0
sg26
g27
(g28
(I0
tp1851
g30
tp1852
Rp1853
(I1
(I2
tp1854
g36
I00
S'\xd1\x00\x00\x00_\x00\x00\x00'
p1855
tp1856
bsba(i__main__
FrameData
p1857
(dp1858
g6
g1774
sg8
g9
(g13
S'\xf6/\x12_ee4@'
p1859
tp1860
Rp1861
sg19
I0
sg20
g21
(S'\x07\xdd\t\x1d\x13\t \t\xc3['
p1862
tp1863
Rp1864
sg25
I0
sg26
g27
(g28
(I0
tp1865
g30
tp1866
Rp1867
(I1
(I2
tp1868
g36
I00
S'\xd2\x00\x00\x00^\x00\x00\x00'
p1869
tp1870
bsba(i__main__
FrameData
p1871
(dp1872
g6
S'o'
p1873
sg8
g9
(g13
S'=\xf3\n\x8f\xe6\x1f4@'
p1874
tp1875
Rp1876
sg19
I0
sg20
g21
(S'\x07\xdd\t\x1d\x13\t \t\xff\xbd'
p1877
tp1878
Rp1879
sg25
I0
sg26
g27
(g28
(I0
tp1880
g30
tp1881
Rp1882
(I1
(I2
tp1883
g36
I00
S'\xd3\x00\x00\x00]\x00\x00\x00'
p1884
tp1885
bsba(i__main__
FrameData
p1886
(dp1887
g6
g1873
sg8
g9
(g13
S'A\x87b\xc62\xde2@'
p1888
tp1889
Rp1890
sg19
I0
sg20
g21
(S'\x07\xdd\t\x1d\x13\t \n@\x05'
p1891
tp1892
Rp1893
sg25
I0
sg26
g27
(g28
(I0
tp1894
g30
tp1895
Rp1896
(I1
(I2
tp1897
g36
I00
S'\xd4\x00\x00\x00[\x00\x00\x00'
p1898
tp1899
bsba(i__main__
FrameData
p1900
(dp1901
g6
g1873
sg8
g9
(g13
S'u\x85\x18\x11\xe0\x992@'
p1902
tp1903
Rp1904
sg19
I0
sg20
g21
(S'\x07\xdd\t\x1d\x13\t \n\x81\x0f'
p1905
tp1906
Rp1907
sg25
I0
sg26
g27
(g28
(I0
tp1908
g30
tp1909
Rp1910
(I1
(I2
tp1911
g36
I00
S'\xd5\x00\x00\x00Z\x00\x00\x00'
p1912
tp1913
bsba(i__main__
FrameData
p1914
(dp1915
g6
g1873
sg8
g9
(g13
S'\xd5?\x80N\xf3\xcd1@'
p1916
tp1917
Rp1918
sg19
I0
sg20
g21
(S'\x07\xdd\t\x1d\x13\t \n\xc2\x97'
p1919
tp1920
Rp1921
sg25
I0
sg26
g27
(g28
(I0
tp1922
g30
tp1923
Rp1924
(I1
(I2
tp1925
g36
I00
S'\xd5\x00\x00\x00Y\x00\x00\x00'
p1926
tp1927
bsba(i__main__
FrameData
p1928
(dp1929
g6
S'p'
p1930
sg8
g9
(g13
S'htN\x17\xb2=/@'
p1931
tp1932
Rp1933
sg19
I0
sg20
g21
(S'\x07\xdd\t\x1d\x13\t \x0b\x04\xd8'
p1934
tp1935
Rp1936
sg25
I0
sg26
g27
(g28
(I0
tp1937
g30
tp1938
Rp1939
(I1
(I2
tp1940
g36
I00
S'\xd7\x00\x00\x00W\x00\x00\x00'
p1941
tp1942
bsba(i__main__
FrameData
p1943
(dp1944
g6
g1930
sg8
g9
(g13
S'?*\x98"\xe3l,@'
p1945
tp1946
Rp1947
sg19
I0
sg20
g21
(S'\x07\xdd\t\x1d\x13\t \x0bI\x8d'
p1948
tp1949
Rp1950
sg25
I0
sg26
g27
(g28
(I0
tp1951
g30
tp1952
Rp1953
(I1
(I2
tp1954
g36
I00
S'\xd8\x00\x00\x00V\x00\x00\x00'
p1955
tp1956
bsba(i__main__
FrameData
p1957
(dp1958
g6
g1930
sg8
g9
(g13
S'\x00\xff\x9f\x99\xcc\x9c)@'
p1959
tp1960
Rp1961
sg19
I0
sg20
g21
(S'\x07\xdd\t\x1d\x13\t \x0b\x8b\x05'
p1962
tp1963
Rp1964
sg25
I0
sg26
g27
(g28
(I0
tp1965
g30
tp1966
Rp1967
(I1
(I2
tp1968
g36
I00
S'\xd9\x00\x00\x00U\x00\x00\x00'
p1969
tp1970
bsba(i__main__
FrameData
p1971
(dp1972
g6
g1930
sg8
g9
(g13
S'&5w\xe2K\x15(@'
p1973
tp1974
Rp1975
sg19
I0
sg20
g21
(S'\x07\xdd\t\x1d\x13\t \x0b\xca\x95'
p1976
tp1977
Rp1978
sg25
I0
sg26
g27
(g28
(I0
tp1979
g30
tp1980
Rp1981
(I1
(I2
tp1982
g36
I00
S'\xd9\x00\x00\x00T\x00\x00\x00'
p1983
tp1984
bsba(i__main__
FrameData
p1985
(dp1986
g6
g1930
sg8
g9
(g13
S'\xeb\x12\xb2\xbb\xb2\xcd&@'
p1987
tp1988
Rp1989
sg19
I0
sg20
g21
(S'\x07\xdd\t\x1d\x13\t \x0c\n\xe0'
p1990
tp1991
Rp1992
sg25
I0
sg26
g27
(g28
(I0
tp1993
g30
tp1994
Rp1995
(I1
(I2
tp1996
g36
I00
S'\xda\x00\x00\x00T\x00\x00\x00'
p1997
tp1998
bsba(i__main__
FrameData
p1999
(dp2000
g6
g1930
sg8
g9
(g13
S'ST\xaf\x99\x8a\xcc#@'
p2001
tp2002
Rp2003
sg19
I0
sg20
g21
(S'\x07\xdd\t\x1d\x13\t \x0cQ6'
p2004
tp2005
Rp2006
sg25
I0
sg26
g27
(g28
(I0
tp2007
g30
tp2008
Rp2009
(I1
(I2
tp2010
g36
I00
S'\xda\x00\x00\x00R\x00\x00\x00'
p2011
tp2012
bsba(i__main__
FrameData
p2013
(dp2014
g6
g1930
sg8
g9
(g13
S'\x9a.\x90!hp"@'
p2015
tp2016
Rp2017
sg19
I0
sg20
g21
(S'\x07\xdd\t\x1d\x13\t \x0c\x8fn'
p2018
tp2019
Rp2020
sg25
I0
sg26
g27
(g28
(I0
tp2021
g30
tp2022
Rp2023
(I1
(I2
tp2024
g36
I00
S'\xdb\x00\x00\x00R\x00\x00\x00'
p2025
tp2026
bsba(i__main__
FrameData
p2027
(dp2028
g6
g1930
sg8
g9
(g13
S'htN\x17\xb2=\x1f@'
p2029
tp2030
Rp2031
sg19
I0
sg20
g21
(S'\x07\xdd\t\x1d\x13\t \x0c\xccA'
p2032
tp2033
Rp2034
sg25
I0
sg26
g27
(g28
(I0
tp2035
g30
tp2036
Rp2037
(I1
(I2
tp2038
g36
I00
S'\xdb\x00\x00\x00P\x00\x00\x00'
p2039
tp2040
bsba(i__main__
FrameData
p2041
(dp2042
g6
g1930
sg8
g9
(g13
S'\xc0\n\x1f\x00\xc6H\x1c@'
p2043
tp2044
Rp2045
sg19
I0
sg20
g21
(S'\x07\xdd\t\x1d\x13\t \r\x0f\xf0'
p2046
tp2047
Rp2048
sg25
I0
sg26
g27
(g28
(I0
tp2049
g30
tp2050
Rp2051
(I1
(I2
tp2052
g36
I00
S'\xdc\x00\x00\x00P\x00\x00\x00'
p2053
tp2054
bsba(i__main__
FrameData
p2055
(dp2056
g6
g1930
sg8
g9
(g13
S'\xa2\xa3\xb3\r\xe5R\x17@'
p2057
tp2058
Rp2059
sg19
I0
sg20
g21
(S'\x07\xdd\t\x1d\x13\t \rO\x1e'
p2060
tp2061
Rp2062
sg25
I0
sg26
g27
(g28
(I0
tp2063
g30
tp2064
Rp2065
(I1
(I2
tp2066
g36
I00
S'\xdc\x00\x00\x00N\x00\x00\x00'
p2067
tp2068
bsba(i__main__
FrameData
p2069
(dp2070
g6
g1930
sg8
g9
(g13
S'\xa8\xf4\x97\x9bw\xe3\x11@'
p2071
tp2072
Rp2073
sg19
I0
sg20
g21
(S'\x07\xdd\t\x1d\x13\t \r\x918'
p2074
tp2075
Rp2076
sg25
I0
sg26
g27
(g28
(I0
tp2077
g30
tp2078
Rp2079
(I1
(I2
tp2080
g36
I00
S'\xdd\x00\x00\x00M\x00\x00\x00'
p2081
tp2082
bsba(i__main__
FrameData
p2083
(dp2084
g6
g1930
sg8
g9
(g13
S'\xf3YaD+\xd8\x0c@'
p2085
tp2086
Rp2087
sg19
I0
sg20
g21
(S'\x07\xdd\t\x1d\x13\t \r\xd1\xb6'
p2088
tp2089
Rp2090
sg25
I0
sg26
g27
(g28
(I0
tp2091
g30
tp2092
Rp2093
(I1
(I2
tp2094
g36
I00
S'\xde\x00\x00\x00M\x00\x00\x00'
p2095
tp2096
bsba(i__main__
FrameData
p2097
(dp2098
g6
g1930
sg8
g9
(g13
S'S[\xda:XL\t@'
p2099
tp2100
Rp2101
sg19
I0
sg20
g21
(S'\x07\xdd\t\x1d\x13\t \x0e\x196'
p2102
tp2103
Rp2104
sg25
I0
sg26
g27
(g28
(I0
tp2105
g30
tp2106
Rp2107
(I1
(I2
tp2108
g36
I00
S'\xde\x00\x00\x00L\x00\x00\x00'
p2109
tp2110
bsba(i__main__
FrameData
p2111
(dp2112
g6
g1930
sg8
g9
(g13
S'\xa8\xf4\x97\x9bw\xe3\x01@'
p2113
tp2114
Rp2115
sg19
I0
sg20
g21
(S'\x07\xdd\t\x1d\x13\t \x0e\x97\xc2'
p2116
tp2117
Rp2118
sg25
I0
sg26
g27
(g28
(I0
tp2119
g30
tp2120
Rp2121
(I1
(I2
tp2122
g36
I00
S'\xdf\x00\x00\x00L\x00\x00\x00'
p2123
tp2124
bsba(i__main__
FrameData
p2125
(dp2126
g6
g1930
sg8
g9
(g13
S'\x00\x00\x00\x00\x00\x00\xf0?'
p2127
tp2128
Rp2129
sg19
I0
sg20
g21
(S'\x07\xdd\t\x1d\x13\t \x0f\x1a\xfb'
p2130
tp2131
Rp2132
sg25
I0
sg26
g27
(g28
(I0
tp2133
g30
tp2134
Rp2135
(I1
(I2
tp2136
g36
I00
S'\xe0\x00\x00\x00K\x00\x00\x00'
p2137
tp2138
bsba(i__main__
FrameData
p2139
(dp2140
g6
g1930
sg8
g9
(g13
S'\xcd;\x7ff\x9e\xa0\xf6?'
p2141
tp2142
Rp2143
sg19
I0
sg20
g21
(S'\x07\xdd\t\x1d\x13\t!\x02\xa4+'
p2144
tp2145
Rp2146
sg25
I0
sg26
g27
(g28
(I0
tp2147
g30
tp2148
Rp2149
(I1
(I2
tp2150
g36
I00
S'\xe0\x00\x00\x00L\x00\x00\x00'
p2151
tp2152
bsba(i__main__
FrameData
p2153
(dp2154
g6
g1930
sg8
g9
(g13
S'\xa8\xf4\x97\x9bw\xe3\x01@'
p2155
tp2156
Rp2157
sg19
I0
sg20
g21
(S'\x07\xdd\t\x1d\x13\t!\x02\xe5H'
p2158
tp2159
Rp2160
sg25
I0
sg26
g27
(g28
(I0
tp2161
g30
tp2162
Rp2163
(I1
(I2
tp2164
g36
I00
S'\xe0\x00\x00\x00M\x00\x00\x00'
p2165
tp2166
bsba(i__main__
FrameData
p2167
(dp2168
g6
g1930
sg8
g9
(g13
S'\xcd;\x7ff\x9e\xa0\x06@'
p2169
tp2170
Rp2171
sg19
I0
sg20
g21
(S'\x07\xdd\t\x1d\x13\t!\x03)\x80'
p2172
tp2173
Rp2174
sg25
I0
sg26
g27
(g28
(I0
tp2175
g30
tp2176
Rp2177
(I1
(I2
tp2178
g36
I00
S'\xdf\x00\x00\x00M\x00\x00\x00'
p2179
tp2180
bsba(i__main__
FrameData
p2181
(dp2182
g6
g1930
sg8
g9
(g13
S'\xa8\xf4\x97\x9bw\xe3\x11@'
p2183
tp2184
Rp2185
sg19
I0
sg20
g21
(S'\x07\xdd\t\x1d\x13\t!\x03f\xcc'
p2186
tp2187
Rp2188
sg25
I0
sg26
g27
(g28
(I0
tp2189
g30
tp2190
Rp2191
(I1
(I2
tp2192
g36
I00
S'\xdf\x00\x00\x00O\x00\x00\x00'
p2193
tp2194
bsba(i__main__
FrameData
p2195
(dp2196
g6
g1930
sg8
g9
(g13
S'\xf3\xd9\xa8\xa4h\x8a\x15@'
p2197
tp2198
Rp2199
sg19
I0
sg20
g21
(S'\x07\xdd\t\x1d\x13\t!\x03\xaaE'
p2200
tp2201
Rp2202
sg25
I0
sg26
g27
(g28
(I0
tp2203
g30
tp2204
Rp2205
(I1
(I2
tp2206
g36
I00
S'\xdf\x00\x00\x00P\x00\x00\x00'
p2207
tp2208
bsba(i__main__
FrameData
p2209
(dp2210
g6
g1930
sg8
g9
(g13
S'S[\xda:XL\x19@'
p2211
tp2212
Rp2213
sg19
I0
sg20
g21
(S'\x07\xdd\t\x1d\x13\t!\x03\xec\xf6'
p2214
tp2215
Rp2216
sg25
I0
sg26
g27
(g28
(I0
tp2217
g30
tp2218
Rp2219
(I1
(I2
tp2220
g36
I00
S'\xdf\x00\x00\x00Q\x00\x00\x00'
p2221
tp2222
bsba(i__main__
FrameData
p2223
(dp2224
g6
g1930
sg8
g9
(g13
S'\xe9\xfbv \xd5\x1e\x1d@'
p2225
tp2226
Rp2227
sg19
I0
sg20
g21
(S'\x07\xdd\t\x1d\x13\t!\x04.\xc5'
p2228
tp2229
Rp2230
sg25
I0
sg26
g27
(g28
(I0
tp2231
g30
tp2232
Rp2233
(I1
(I2
tp2234
g36
I00
S'\xdf\x00\x00\x00R\x00\x00\x00'
p2235
tp2236
bsba(i__main__
FrameData
p2237
(dp2238
g6
g1930
sg8
g9
(g13
S'\x07\xed\xaff\x0f~ @'
p2239
tp2240
Rp2241
sg19
I0
sg20
g21
(S'\x07\xdd\t\x1d\x13\t!\x04\xb0\x15'
p2242
tp2243
Rp2244
sg25
I0
sg26
g27
(g28
(I0
tp2245
g30
tp2246
Rp2247
(I1
(I2
tp2248
g36
I00
S'\xdf\x00\x00\x00S\x00\x00\x00'
p2249
tp2250
bsba(i__main__
FrameData
p2251
(dp2252
g6
g1930
sg8
g9
(g13
S'\x9a.\x90!hp"@'
p2253
tp2254
Rp2255
sg19
I0
sg20
g21
(S'\x07\xdd\t\x1d\x13\t!\x04\xf1?'
p2256
tp2257
Rp2258
sg25
I0
sg26
g27
(g28
(I0
tp2259
g30
tp2260
Rp2261
(I1
(I2
tp2262
g36
I00
S'\xdf\x00\x00\x00T\x00\x00\x00'
p2263
tp2264
bsba(i__main__
FrameData
p2265
(dp2266
g6
g1930
sg8
g9
(g13
S'~\xc4#,B\xf9"@'
p2267
tp2268
Rp2269
sg19
I0
sg20
g21
(S'\x07\xdd\t\x1d\x13\t!\x050\x84'
p2270
tp2271
Rp2272
sg25
I0
sg26
g27
(g28
(I0
tp2273
g30
tp2274
Rp2275
(I1
(I2
tp2276
g36
I00
S'\xde\x00\x00\x00T\x00\x00\x00'
p2277
tp2278
bsba(i__main__
FrameData
p2279
(dp2280
g6
g1930
sg8
g9
(g13
S'7\xf9\xcf\xdao\xe1$@'
p2281
tp2282
Rp2283
sg19
I0
sg20
g21
(S'\x07\xdd\t\x1d\x13\t!\x05q\x13'
p2284
tp2285
Rp2286
sg25
I0
sg26
g27
(g28
(I0
tp2287
g30
tp2288
Rp2289
(I1
(I2
tp2290
g36
I00
S'\xde\x00\x00\x00U\x00\x00\x00'
p2291
tp2292
bsba(i__main__
FrameData
p2293
(dp2294
g6
g1930
sg8
g9
(g13
S'\xf3\xd9\xa8\xa4h\x8a%@'
p2295
tp2296
Rp2297
sg19
I0
sg20
g21
(S'\x07\xdd\t\x1d\x13\t!\x05\xf5Z'
p2298
tp2299
Rp2300
sg25
I0
sg26
g27
(g28
(I0
tp2301
g30
tp2302
Rp2303
(I1
(I2
tp2304
g36
I00
S'\xdd\x00\x00\x00U\x00\x00\x00'
p2305
tp2306
bsba(i__main__
FrameData
p2307
(dp2308
g6
g1930
sg8
g9
(g13
S'S[\xda:XL)@'
p2309
tp2310
Rp2311
sg19
I0
sg20
g21
(S'\x07\xdd\t\x1d\x13\t!\x06\xb6\xb1'
p2312
tp2313
Rp2314
sg25
I0
sg26
g27
(g28
(I0
tp2315
g30
tp2316
Rp2317
(I1
(I2
tp2318
g36
I00
S'\xdd\x00\x00\x00W\x00\x00\x00'
p2319
tp2320
bsba(i__main__
FrameData
p2321
(dp2322
g6
g1930
sg8
g9
(g13
S'\xef\rI\xf1\xf33+@'
p2323
tp2324
Rp2325
sg19
I0
sg20
g21
(S'\x07\xdd\t\x1d\x13\t!\x06\xf9\xf9'
p2326
tp2327
Rp2328
sg25
I0
sg26
g27
(g28
(I0
tp2329
g30
tp2330
Rp2331
(I1
(I2
tp2332
g36
I00
S'\xdd\x00\x00\x00X\x00\x00\x00'
p2333
tp2334
bsba(i__main__
FrameData
p2335
(dp2336
g6
g1930
sg8
g9
(g13
S'/\xa4\xe3\\m\xbb-@'
p2337
tp2338
Rp2339
sg19
I0
sg20
g21
(S'\x07\xdd\t\x1d\x13\t!\x07<H'
p2340
tp2341
Rp2342
sg25
I0
sg26
g27
(g28
(I0
tp2343
g30
tp2344
Rp2345
(I1
(I2
tp2346
g36
I00
S'\xdc\x00\x00\x00Y\x00\x00\x00'
p2347
tp2348
bsba(i__main__
FrameData
p2349
(dp2350
g6
g1930
sg8
g9
(g13
S"'\xf2\x90In\x9f/@"
p2351
tp2352
Rp2353
sg19
I0
sg20
g21
(S'\x07\xdd\t\x1d\x13\t!\x07{\x99'
p2354
tp2355
Rp2356
sg25
I0
sg26
g27
(g28
(I0
tp2357
g30
tp2358
Rp2359
(I1
(I2
tp2360
g36
I00
S'\xdc\x00\x00\x00Z\x00\x00\x00'
p2361
tp2362
bsba(i__main__
FrameData
p2363
(dp2364
g6
g1930
sg8
g9
(g13
S'>9\x15\x8cW\xc30@'
p2365
tp2366
Rp2367
sg19
I0
sg20
g21
(S'\x07\xdd\t\x1d\x13\t!\x07\xbda'
p2368
tp2369
Rp2370
sg25
I0
sg26
g27
(g28
(I0
tp2371
g30
tp2372
Rp2373
(I1
(I2
tp2374
g36
I00
S'\xdc\x00\x00\x00[\x00\x00\x00'
p2375
tp2376
bsba(i__main__
FrameData
p2377
(dp2378
g6
g1930
sg8
g9
(g13
S'~\xc4#,B\xf92@'
p2379
tp2380
Rp2381
sg19
I0
sg20
g21
(S'\x07\xdd\t\x1d\x13\t!\x08\x01\x94'
p2382
tp2383
Rp2384
sg25
I0
sg26
g27
(g28
(I0
tp2385
g30
tp2386
Rp2387
(I1
(I2
tp2388
g36
I00
S'\xdb\x00\x00\x00]\x00\x00\x00'
p2389
tp2390
bsba(i__main__
FrameData
p2391
(dp2392
g6
g1774
sg8
g9
(g13
S'/vo\xf2\x9ej3@'
p2393
tp2394
Rp2395
sg19
I0
sg20
g21
(S'\x07\xdd\t\x1d\x13\t!\x08@\xaf'
p2396
tp2397
Rp2398
sg25
I0
sg26
g27
(g28
(I0
tp2399
g30
tp2400
Rp2401
(I1
(I2
tp2402
g36
I00
S'\xda\x00\x00\x00_\x00\x00\x00'
p2403
tp2404
bsba(i__main__
FrameData
p2405
(dp2406
g6
g1774
sg8
g9
(g13
S'\xa8y\x0c\t\xd9v1@'
p2407
tp2408
Rp2409
sg19
I0
sg20
g21
(S'\x07\xdd\t\x1d\x13\t!\x08\x80\x1a'
p2410
tp2411
Rp2412
sg25
I0
sg26
g27
(g28
(I0
tp2413
g30
tp2414
Rp2415
(I1
(I2
tp2416
g36
I00
S'\xda\x00\x00\x00a\x00\x00\x00'
p2417
tp2418
bsba(i__main__
FrameData
p2419
(dp2420
g6
g1774
sg8
g9
(g13
S'\xf7\x80Aq\xb9\xa2,@'
p2421
tp2422
Rp2423
sg19
I0
sg20
g21
(S'\x07\xdd\t\x1d\x13\t!\x08\xc1f'
p2424
tp2425
Rp2426
sg25
I0
sg26
g27
(g28
(I0
tp2427
g30
tp2428
Rp2429
(I1
(I2
tp2430
g36
I00
S'\xd9\x00\x00\x00d\x00\x00\x00'
p2431
tp2432
bsba(i__main__
FrameData
p2433
(dp2434
g6
g1774
sg8
g9
(g13
S'\xd2\xf1}\x82U\\&@'
p2435
tp2436
Rp2437
sg19
I0
sg20
g21
(S'\x07\xdd\t\x1d\x13\t!\t\x01\xe0'
p2438
tp2439
Rp2440
sg25
I0
sg26
g27
(g28
(I0
tp2441
g30
tp2442
Rp2443
(I1
(I2
tp2444
g36
I00
S'\xd8\x00\x00\x00g\x00\x00\x00'
p2445
tp2446
bsba(i__main__
FrameData
p2447
(dp2448
g6
g1774
sg8
g9
(g13
S'\xf0)#L\x89\x19$@'
p2449
tp2450
Rp2451
sg19
I0
sg20
g21
(S'\x07\xdd\t\x1d\x13\t!\tC\xe7'
p2452
tp2453
Rp2454
sg25
I0
sg26
g27
(g28
(I0
tp2455
g30
tp2456
Rp2457
(I1
(I2
tp2458
g36
I00
S'\xd7\x00\x00\x00h\x00\x00\x00'
p2459
tp2460
bsba(i__main__
FrameData
p2461
(dp2462
g6
g1774
sg8
g9
(g13
S'\xd0\xbaa?\xe0\x1f @'
p2463
tp2464
Rp2465
sg19
I0
sg20
g21
(S'\x07\xdd\t\x1d\x13\t!\t\xc6\xdc'
p2466
tp2467
Rp2468
sg25
I0
sg26
g27
(g28
(I0
tp2469
g30
tp2470
Rp2471
(I1
(I2
tp2472
g36
I00
S'\xd7\x00\x00\x00j\x00\x00\x00'
p2473
tp2474
bsba(i__main__
FrameData
p2475
(dp2476
g6
g1774
sg8
g9
(g13
S'\xc0\n\x1f\x00\xc6H\x1c@'
p2477
tp2478
Rp2479
sg19
I0
sg20
g21
(S'\x07\xdd\t\x1d\x13\t!\n\x0b\xf7'
p2480
tp2481
Rp2482
sg25
I0
sg26
g27
(g28
(I0
tp2483
g30
tp2484
Rp2485
(I1
(I2
tp2486
g36
I00
S'\xd7\x00\x00\x00k\x00\x00\x00'
p2487
tp2488
bsba(i__main__
FrameData
p2489
(dp2490
g6
g1774
sg8
g9
(g13
S'\x00\x00\x00\x00\x00\x00\x18@'
p2491
tp2492
Rp2493
sg19
I0
sg20
g21
(S'\x07\xdd\t\x1d\x13\t!\nH\x14'
p2494
tp2495
Rp2496
sg25
I0
sg26
g27
(g28
(I0
tp2497
g30
tp2498
Rp2499
(I1
(I2
tp2500
g36
I00
S'\xd6\x00\x00\x00l\x00\x00\x00'
p2501
tp2502
bsba(i__main__
FrameData
p2503
(dp2504
g6
g1774
sg8
g9
(g13
S'\x00\x00\x00\x00\x00\x00\x10@'
p2505
tp2506
Rp2507
sg19
I0
sg20
g21
(S'\x07\xdd\t\x1d\x13\t!\n\x8b\xce'
p2508
tp2509
Rp2510
sg25
I0
sg26
g27
(g28
(I0
tp2511
g30
tp2512
Rp2513
(I1
(I2
tp2514
g36
I00
S'\xd6\x00\x00\x00n\x00\x00\x00'
p2515
tp2516
bsba(i__main__
FrameData
p2517
(dp2518
g6
g1774
sg8
g9
(g13
S'\x00\x00\x00\x00\x00\x00\x08@'
p2519
tp2520
Rp2521
sg19
I0
sg20
g21
(S'\x07\xdd\t\x1d\x13\t!\n\xcc/'
p2522
tp2523
Rp2524
sg25
I0
sg26
g27
(g28
(I0
tp2525
g30
tp2526
Rp2527
(I1
(I2
tp2528
g36
I00
S'\xd6\x00\x00\x00o\x00\x00\x00'
p2529
tp2530
bsba(i__main__
FrameData
p2531
(dp2532
g6
g1774
sg8
g9
(g13
S'\xa8\xf4\x97\x9bw\xe3\x01@'
p2533
tp2534
Rp2535
sg19
I0
sg20
g21
(S'\x07\xdd\t\x1d\x13\t!\x0b\x0c\xa5'
p2536
tp2537
Rp2538
sg25
I0
sg26
g27
(g28
(I0
tp2539
g30
tp2540
Rp2541
(I1
(I2
tp2542
g36
I00
S'\xd5\x00\x00\x00p\x00\x00\x00'
p2543
tp2544
bsba(i__main__
FrameData
p2545
(dp2546
g6
g1774
sg8
g9
(g13
S'\xcd;\x7ff\x9e\xa0\xf6?'
p2547
tp2548
Rp2549
sg19
I0
sg20
g21
(S'\x07\xdd\t\x1d\x13\t!\x0bP\xa7'
p2550
tp2551
Rp2552
sg25
I0
sg26
g27
(g28
(I0
tp2553
g30
tp2554
Rp2555
(I1
(I2
tp2556
g36
I00
S'\xd5\x00\x00\x00q\x00\x00\x00'
p2557
tp2558
bsba(i__main__
FrameData
p2559
(dp2560
g6
g1774
sg8
g9
(g13
S'\x00\x00\x00\x00\x00\x00\xf0?'
p2561
tp2562
Rp2563
sg19
I0
sg20
g21
(S'\x07\xdd\t\x1d\x13\t!\x0b\x91\x8f'
p2564
tp2565
Rp2566
sg25
I0
sg26
g27
(g28
(I0
tp2567
g30
tp2568
Rp2569
(I1
(I2
tp2570
g36
I00
S'\xd5\x00\x00\x00r\x00\x00\x00'
p2571
tp2572
bsba(i__main__
FrameData
p2573
(dp2574
g6
g1774
sg8
g9
(g13
S'\xcd;\x7ff\x9e\xa0\xf6?'
p2575
tp2576
Rp2577
sg19
I0
sg20
g21
(S'\x07\xdd\t\x1d\x13\t!\x0b\xd2\xa3'
p2578
tp2579
Rp2580
sg25
I0
sg26
g27
(g28
(I0
tp2581
g30
tp2582
Rp2583
(I1
(I2
tp2584
g36
I00
S'\xd5\x00\x00\x00s\x00\x00\x00'
p2585
tp2586
bsba(i__main__
FrameData
p2587
(dp2588
g6
g1774
sg8
g9
(g13
S'\xa8\xf4\x97\x9bw\xe3\x01@'
p2589
tp2590
Rp2591
sg19
I0
sg20
g21
(S'\x07\xdd\t\x1d\x13\t!\x0c\x11\xf1'
p2592
tp2593
Rp2594
sg25
I0
sg26
g27
(g28
(I0
tp2595
g30
tp2596
Rp2597
(I1
(I2
tp2598
g36
I00
S'\xd5\x00\x00\x00t\x00\x00\x00'
p2599
tp2600
bsba(i__main__
FrameData
p2601
(dp2602
g6
g1774
sg8
g9
(g13
S'S[\xda:XL\t@'
p2603
tp2604
Rp2605
sg19
I0
sg20
g21
(S'\x07\xdd\t\x1d\x13\t!\x0cSO'
p2606
tp2607
Rp2608
sg25
I0
sg26
g27
(g28
(I0
tp2609
g30
tp2610
Rp2611
(I1
(I2
tp2612
g36
I00
S'\xd5\x00\x00\x00u\x00\x00\x00'
p2613
tp2614
bsba(i__main__
FrameData
p2615
(dp2616
g6
g1774
sg8
g9
(g13
S'\x07\xed\xaff\x0f~\x10@'
p2617
tp2618
Rp2619
sg19
I0
sg20
g21
(S'\x07\xdd\t\x1d\x13\t!\x0c\xd6\xe2'
p2620
tp2621
Rp2622
sg25
I0
sg26
g27
(g28
(I0
tp2623
g30
tp2624
Rp2625
(I1
(I2
tp2626
g36
I00
S'\xd5\x00\x00\x00v\x00\x00\x00'
p2627
tp2628
bsba(i__main__
FrameData
p2629
(dp2630
g6
g1774
sg8
g9
(g13
S'\xa8\xf4\x97\x9bw\xe3\x11@'
p2631
tp2632
Rp2633
sg19
I0
sg20
g21
(S'\x07\xdd\t\x1d\x13\t"\x01i\xda'
p2634
tp2635
Rp2636
sg25
I0
sg26
g27
(g28
(I0
tp2637
g30
tp2638
Rp2639
(I1
(I2
tp2640
g36
I00
S'\xd4\x00\x00\x00v\x00\x00\x00'
p2641
tp2642
bsba(i__main__
FrameData
p2643
(dp2644
g6
g1774
sg8
g9
(g13
S'\xf3YaD+\xd8\x0c@'
p2645
tp2646
Rp2647
sg19
I0
sg20
g21
(S'\x07\xdd\t\x1d\x13\t"\x058,'
p2648
tp2649
Rp2650
sg25
I0
sg26
g27
(g28
(I0
tp2651
g30
tp2652
Rp2653
(I1
(I2
tp2654
g36
I00
S'\xd4\x00\x00\x00u\x00\x00\x00'
p2655
tp2656
bsba(i__main__
FrameData
p2657
(dp2658
g6
g1774
sg8
g9
(g13
S'\xcd;\x7ff\x9e\xa0\x06@'
p2659
tp2660
Rp2661
sg19
I0
sg20
g21
(S'\x07\xdd\t\x1d\x13\t"\x05\xbf\x99'
p2662
tp2663
Rp2664
sg25
I0
sg26
g27
(g28
(I0
tp2665
g30
tp2666
Rp2667
(I1
(I2
tp2668
g36
I00
S'\xd4\x00\x00\x00t\x00\x00\x00'
p2669
tp2670
bsba(i__main__
FrameData
p2671
(dp2672
g6
g1774
sg8
g9
(g13
S'S[\xda:XL\t@'
p2673
tp2674
Rp2675
sg19
I0
sg20
g21
(S'\x07\xdd\t\x1d\x13\t"\x06<\xda'
p2676
tp2677
Rp2678
sg25
I0
sg26
g27
(g28
(I0
tp2679
g30
tp2680
Rp2681
(I1
(I2
tp2682
g36
I00
S'\xd3\x00\x00\x00s\x00\x00\x00'
p2683
tp2684
bsba(i__main__
FrameData
p2685
(dp2686
g6
g1774
sg8
g9
(g13
S'\x00\x00\x00\x00\x00\x00\x08@'
p2687
tp2688
Rp2689
sg19
I0
sg20
g21
(S'\x07\xdd\t\x1d\x13\t"\x06\x82\x04'
p2690
tp2691
Rp2692
sg25
I0
sg26
g27
(g28
(I0
tp2693
g30
tp2694
Rp2695
(I1
(I2
tp2696
g36
I00
S'\xd3\x00\x00\x00r\x00\x00\x00'
p2697
tp2698
bsba(i__main__
FrameData
p2699
(dp2700
g6
g1774
sg8
g9
(g13
S'\x07\xed\xaff\x0f~\x10@'
p2701
tp2702
Rp2703
sg19
I0
sg20
g21
(S'\x07\xdd\t\x1d\x13\t"\x06\xc1O'
p2704
tp2705
Rp2706
sg25
I0
sg26
g27
(g28
(I0
tp2707
g30
tp2708
Rp2709
(I1
(I2
tp2710
g36
I00
S'\xd2\x00\x00\x00q\x00\x00\x00'
p2711
tp2712
bsba(i__main__
FrameData
p2713
(dp2714
g6
g1774
sg8
g9
(g13
S'\xf3\xd9\xa8\xa4h\x8a\x15@'
p2715
tp2716
Rp2717
sg19
I0
sg20
g21
(S'\x07\xdd\t\x1d\x13\t"\x07\x01\xc9'
p2718
tp2719
Rp2720
sg25
I0
sg26
g27
(g28
(I0
tp2721
g30
tp2722
Rp2723
(I1
(I2
tp2724
g36
I00
S'\xd1\x00\x00\x00p\x00\x00\x00'
p2725
tp2726
bsba(i__main__
FrameData
p2727
(dp2728
g6
g1774
sg8
g9
(g13
S'S[\xda:XL\x19@'
p2729
tp2730
Rp2731
sg19
I0
sg20
g21
(S'\x07\xdd\t\x1d\x13\t"\x07C_'
p2732
tp2733
Rp2734
sg25
I0
sg26
g27
(g28
(I0
tp2735
g30
tp2736
Rp2737
(I1
(I2
tp2738
g36
I00
S'\xd0\x00\x00\x00p\x00\x00\x00'
p2739
tp2740
bsba(i__main__
FrameData
p2741
(dp2742
g6
g1774
sg8
g9
(g13
S'\xa3\x14\xae\xa8\x87\x16!@'
p2743
tp2744
Rp2745
sg19
I0
sg20
g21
(S'\x07\xdd\t\x1d\x13\t"\x07\x83\x16'
p2746
tp2747
Rp2748
sg25
I0
sg26
g27
(g28
(I0
tp2749
g30
tp2750
Rp2751
(I1
(I2
tp2752
g36
I00
S'\xce\x00\x00\x00o\x00\x00\x00'
p2753
tp2754
bsba(i__main__
FrameData
p2755
(dp2756
g6
g1535
sg8
g9
(g13
S'\xfc\xeeci3\xd5*@'
p2757
tp2758
Rp2759
sg19
I0
sg20
g21
(S'\x07\xdd\t\x1d\x13\t"\x07\xc6\xaa'
p2760
tp2761
Rp2762
sg25
I0
sg26
g27
(g28
(I0
tp2763
g30
tp2764
Rp2765
(I1
(I2
tp2766
g36
I00
S'\xca\x00\x00\x00l\x00\x00\x00'
p2767
tp2768
bsba(i__main__
FrameData
p2769
(dp2770
g6
g1535
sg8
g9
(g13
S'\xeb\x12\xb2\xbb\xb2\xcd&@'
p2771
tp2772
Rp2773
sg19
I0
sg20
g21
(S'\x07\xdd\t\x1d\x13\t"\x08\n\xa7'
p2774
tp2775
Rp2776
sg25
I0
sg26
g27
(g28
(I0
tp2777
g30
tp2778
Rp2779
(I1
(I2
tp2780
g36
I00
S'\xc7\x00\x00\x00k\x00\x00\x00'
p2781
tp2782
bsba(i__main__
FrameData
p2783
(dp2784
g6
g1535
sg8
g9
(g13
S'6\xd0\xd2x\xa2B%@'
p2785
tp2786
Rp2787
sg19
I0
sg20
g21
(S'\x07\xdd\t\x1d\x13\t"\x08G\x84'
p2788
tp2789
Rp2790
sg25
I0
sg26
g27
(g28
(I0
tp2791
g30
tp2792
Rp2793
(I1
(I2
tp2794
g36
I00
S'\xc5\x00\x00\x00j\x00\x00\x00'
p2795
tp2796
bsba(i__main__
FrameData
p2797
(dp2798
g6
g1535
sg8
g9
(g13
S'bVc}\x9d\xb2#@'
p2799
tp2800
Rp2801
sg19
I0
sg20
g21
(S'\x07\xdd\t\x1d\x13\t"\x08\x8b\x84'
p2802
tp2803
Rp2804
sg25
I0
sg26
g27
(g28
(I0
tp2805
g30
tp2806
Rp2807
(I1
(I2
tp2808
g36
I00
S'\xc2\x00\x00\x00i\x00\x00\x00'
p2809
tp2810
bsba(i__main__
FrameData
p2811
(dp2812
g6
g1535
sg8
g9
(g13
S'\xf0)#L\x89\x19$@'
p2813
tp2814
Rp2815
sg19
I0
sg20
g21
(S'\x07\xdd\t\x1d\x13\t"\x08\xc9\xe2'
p2816
tp2817
Rp2818
sg25
I0
sg26
g27
(g28
(I0
tp2819
g30
tp2820
Rp2821
(I1
(I2
tp2822
g36
I00
S'\xbd\x00\x00\x00h\x00\x00\x00'
p2823
tp2824
bsba(i__main__
FrameData
p2825
(dp2826
g6
g1535
sg8
g9
(g13
S"\xe0\x11<m\xceh'@"
p2827
tp2828
Rp2829
sg19
I0
sg20
g21
(S'\x07\xdd\t\x1d\x13\t"\t\x0c\x87'
p2830
tp2831
Rp2832
sg25
I0
sg26
g27
(g28
(I0
tp2833
g30
tp2834
Rp2835
(I1
(I2
tp2836
g36
I00
S'\xba\x00\x00\x00g\x00\x00\x00'
p2837
tp2838
bsba(i__main__
FrameData
p2839
(dp2840
g6
g1535
sg8
g9
(g13
S'\xf3YaD+\xd8,@'
p2841
tp2842
Rp2843
sg19
I0
sg20
g21
(S'\x07\xdd\t\x1d\x13\t"\tOW'
p2844
tp2845
Rp2846
sg25
I0
sg26
g27
(g28
(I0
tp2847
g30
tp2848
Rp2849
(I1
(I2
tp2850
g36
I00
S'\xb6\x00\x00\x00f\x00\x00\x00'
p2851
tp2852
bsba(i__main__
FrameData
p2853
(dp2854
g6
S'j'
p2855
sg8
g9
(g13
S'\x10\xb3]\xc9`G0@'
p2856
tp2857
Rp2858
sg19
I0
sg20
g21
(S'\x07\xdd\t\x1d\x13\t"\t\x8d\xba'
p2859
tp2860
Rp2861
sg25
I0
sg26
g27
(g28
(I0
tp2862
g30
tp2863
Rp2864
(I1
(I2
tp2865
g36
I00
S'\xb2\x00\x00\x00f\x00\x00\x00'
p2866
tp2867
bsba(i__main__
FrameData
p2868
(dp2869
g6
g2855
sg8
g9
(g13
S'\xf7\x80Aq\xb9\xa2,@'
p2870
tp2871
Rp2872
sg19
I0
sg20
g21
(S'\x07\xdd\t\x1d\x13\t"\t\xd4\xe1'
p2873
tp2874
Rp2875
sg25
I0
sg26
g27
(g28
(I0
tp2876
g30
tp2877
Rp2878
(I1
(I2
tp2879
g36
I00
S'\xad\x00\x00\x00e\x00\x00\x00'
p2880
tp2881
bsba(i__main__
FrameData
p2882
(dp2883
g6
g2855
sg8
g9
(g13
S'\xc0\n\x1f\x00\xc6H,@'
p2884
tp2885
Rp2886
sg19
I0
sg20
g21
(S'\x07\xdd\t\x1d\x13\t"\n\x11\xb4'
p2887
tp2888
Rp2889
sg25
I0
sg26
g27
(g28
(I0
tp2890
g30
tp2891
Rp2892
(I1
(I2
tp2893
g36
I00
S'\xa9\x00\x00\x00d\x00\x00\x00'
p2894
tp2895
bsba(i__main__
FrameData
p2896
(dp2897
g6
g2855
sg8
g9
(g13
S'\x07\xed\xaff\x0f~0@'
p2898
tp2899
Rp2900
sg19
I0
sg20
g21
(S'\x07\xdd\t\x1d\x13\t"\nS;'
p2901
tp2902
Rp2903
sg25
I0
sg26
g27
(g28
(I0
tp2904
g30
tp2905
Rp2906
(I1
(I2
tp2907
g36
I00
S'\xa3\x00\x00\x00b\x00\x00\x00'
p2908
tp2909
bsba(i__main__
FrameData
p2910
(dp2911
g6
g2855
sg8
g9
(g13
S'5 \x89\xa6\xcd\xc92@'
p2912
tp2913
Rp2914
sg19
I0
sg20
g21
(S'\x07\xdd\t\x1d\x13\t"\n\x96A'
p2915
tp2916
Rp2917
sg25
I0
sg26
g27
(g28
(I0
tp2918
g30
tp2919
Rp2920
(I1
(I2
tp2921
g36
I00
S'\x9f\x00\x00\x00a\x00\x00\x00'
p2922
tp2923
bsba(i__main__
FrameData
p2924
(dp2925
g6
g972
sg8
g9
(g13
S'=\xf3\n\x8f\xe6\x1f4@'
p2926
tp2927
Rp2928
sg19
I0
sg20
g21
(S'\x07\xdd\t\x1d\x13\t"\n\xd3b'
p2929
tp2930
Rp2931
sg25
I0
sg26
g27
(g28
(I0
tp2932
g30
tp2933
Rp2934
(I1
(I2
tp2935
g36
I00
S'\x99\x00\x00\x00`\x00\x00\x00'
p2936
tp2937
bsba(i__main__
FrameData
p2938
(dp2939
g6
g972
sg8
g9
(g13
S'+\xe5\x8a\xc6\x8f?2@'
p2940
tp2941
Rp2942
sg19
I0
sg20
g21
(S'\x07\xdd\t\x1d\x13\t"\x0b\x1b\xe7'
p2943
tp2944
Rp2945
sg25
I0
sg26
g27
(g28
(I0
tp2946
g30
tp2947
Rp2948
(I1
(I2
tp2949
g36
I00
S'\x93\x00\x00\x00`\x00\x00\x00'
p2950
tp2951
bsba(i__main__
FrameData
p2952
(dp2953
g6
g972
sg8
g9
(g13
S'/vo\xf2\x9ej3@'
p2954
tp2955
Rp2956
sg19
I0
sg20
g21
(S'\x07\xdd\t\x1d\x13\t"\x0b["'
p2957
tp2958
Rp2959
sg25
I0
sg26
g27
(g28
(I0
tp2960
g30
tp2961
Rp2962
(I1
(I2
tp2963
g36
I00
S'\x8c\x00\x00\x00_\x00\x00\x00'
p2964
tp2965
bsba(i__main__
FrameData
p2966
(dp2967
g6
S'y'
p2968
sg8
g9
(g13
S'8\xd8\xbc\n\x1b\x072@'
p2969
tp2970
Rp2971
sg19
I0
sg20
g21
(S'\x07\xdd\t\x1d\x13\t"\x0b\x98\x15'
p2972
tp2973
Rp2974
sg25
I0
sg26
g27
(g28
(I0
tp2975
g30
tp2976
Rp2977
(I1
(I2
tp2978
g36
I00
S'\x88\x00\x00\x00^\x00\x00\x00'
p2979
tp2980
bsba(i__main__
FrameData
p2981
(dp2982
g6
g2968
sg8
g9
(g13
S'\xd0\xbaa?\xe0\x1f0@'
p2983
tp2984
Rp2985
sg19
I0
sg20
g21
(S'\x07\xdd\t\x1d\x13\t"\x0b\xd9\xb6'
p2986
tp2987
Rp2988
sg25
I0
sg26
g27
(g28
(I0
tp2989
g30
tp2990
Rp2991
(I1
(I2
tp2992
g36
I00
S'\x84\x00\x00\x00]\x00\x00\x00'
p2993
tp2994
bsba(i__main__
FrameData
p2995
(dp2996
g6
g2968
sg8
g9
(g13
S'p`\xff\x00\xfe\x070@'
p2997
tp2998
Rp2999
sg19
I0
sg20
g21
(S'\x07\xdd\t\x1d\x13\t"\x0c\x19\x1b'
p3000
tp3001
Rp3002
sg25
I0
sg26
g27
(g28
(I0
tp3003
g30
tp3004
Rp3005
(I1
(I2
tp3006
g36
I00
S'\x81\x00\x00\x00]\x00\x00\x00'
p3007
tp3008
bsba(i__main__
FrameData
p3009
(dp3010
g6
g2968
sg8
g9
(g13
S'\x10\xb3]\xc9`G0@'
p3011
tp3012
Rp3013
sg19
I0
sg20
g21
(S'\x07\xdd\t\x1d\x13\t"\x0cad'
p3014
tp3015
Rp3016
sg25
I0
sg26
g27
(g28
(I0
tp3017
g30
tp3018
Rp3019
(I1
(I2
tp3020
g36
I00
S'\x7f\x00\x00\x00]\x00\x00\x00'
p3021
tp3022
bsba(i__main__
FrameData
p3023
(dp3024
g6
g2968
sg8
g9
(g13
S'\x07\xed\xaff\x0f~0@'
p3025
tp3026
Rp3027
sg19
I0
sg20
g21
(S'\x07\xdd\t\x1d\x13\t"\x0c\x9c\x14'
p3028
tp3029
Rp3030
sg25
I0
sg26
g27
(g28
(I0
tp3031
g30
tp3032
Rp3033
(I1
(I2
tp3034
g36
I00
S'~\x00\x00\x00]\x00\x00\x00'
p3035
tp3036
bsba(i__main__
FrameData
p3037
(dp3038
g6
g2968
sg8
g9
(g13
S'\xa3\x14\xae\xa8\x87\x161@'
p3039
tp3040
Rp3041
sg19
I0
sg20
g21
(S'\x07\xdd\t\x1d\x13\t"\x0c\xe1~'
p3042
tp3043
Rp3044
sg25
I0
sg26
g27
(g28
(I0
tp3045
g30
tp3046
Rp3047
(I1
(I2
tp3048
g36
I00
S'|\x00\x00\x00]\x00\x00\x00'
p3049
tp3050
bsba(i__main__
FrameData
p3051
(dp3052
g6
g2968
sg8
g9
(g13
S'\xa8y\x0c\t\xd9v1@'
p3053
tp3054
Rp3055
sg19
I0
sg20
g21
(S'\x07\xdd\t\x1d\x13\t"\r\x1e{'
p3056
tp3057
Rp3058
sg25
I0
sg26
g27
(g28
(I0
tp3059
g30
tp3060
Rp3061
(I1
(I2
tp3062
g36
I00
S'{\x00\x00\x00]\x00\x00\x00'
p3063
tp3064
bsba(i__main__
FrameData
p3065
(dp3066
g6
g2968
sg8
g9
(g13
S'\xa8\xf4\x97\x9bw\xe31@'
p3067
tp3068
Rp3069
sg19
I0
sg20
g21
(S'\x07\xdd\t\x1d\x13\t"\rbl'
p3070
tp3071
Rp3072
sg25
I0
sg26
g27
(g28
(I0
tp3073
g30
tp3074
Rp3075
(I1
(I2
tp3076
g36
I00
S'z\x00\x00\x00]\x00\x00\x00'
p3077
tp3078
bsba(i__main__
FrameData
p3079
(dp3080
g6
g2968
sg8
g9
(g13
S'\xbf\x8f+\t\x89[2@'
p3081
tp3082
Rp3083
sg19
I0
sg20
g21
(S'\x07\xdd\t\x1d\x13\t"\r\xa6W'
p3084
tp3085
Rp3086
sg25
I0
sg26
g27
(g28
(I0
tp3087
g30
tp3088
Rp3089
(I1
(I2
tp3090
g36
I00
S'y\x00\x00\x00]\x00\x00\x00'
p3091
tp3092
bsba(i__main__
FrameData
p3093
(dp3094
g6
g2968
sg8
g9
(g13
S'A\x87b\xc62\xde2@'
p3095
tp3096
Rp3097
sg19
I0
sg20
g21
(S'\x07\xdd\t\x1d\x13\t"\x0e%\xbe'
p3098
tp3099
Rp3100
sg25
I0
sg26
g27
(g28
(I0
tp3101
g30
tp3102
Rp3103
(I1
(I2
tp3104
g36
I00
S'x\x00\x00\x00]\x00\x00\x00'
p3105
tp3106
bsba(i__main__
FrameData
p3107
(dp3108
g6
g2968
sg8
g9
(g13
S'/vo\xf2\x9ej3@'
p3109
tp3110
Rp3111
sg19
I0
sg20
g21
(S'\x07\xdd\t\x1d\x13\t"\x0eg\xce'
p3112
tp3113
Rp3114
sg25
I0
sg26
g27
(g28
(I0
tp3115
g30
tp3116
Rp3117
(I1
(I2
tp3118
g36
I00
S'w\x00\x00\x00]\x00\x00\x00'
p3119
tp3120
bsba(i__main__
FrameData
p3121
(dp3122
g6
g2968
sg8
g9
(g13
S'\x00\x00\x00\x00\x00\x004@'
p3123
tp3124
Rp3125
sg19
I0
sg20
g21
(S'\x07\xdd\t\x1d\x13\t"\x0e\xa8C'
p3126
tp3127
Rp3128
sg25
I0
sg26
g27
(g28
(I0
tp3129
g30
tp3130
Rp3131
(I1
(I2
tp3132
g36
I00
S'v\x00\x00\x00]\x00\x00\x00'
p3133
tp3134
bsba(i__main__
FrameData
p3135
(dp3136
g6
g2968
sg8
g9
(g13
S'I\xe8[@\x93\x9d4@'
p3137
tp3138
Rp3139
sg19
I0
sg20
g21
(S'\x07\xdd\t\x1d\x13\t"\x0e\xe8\xda'
p3140
tp3141
Rp3142
sg25
I0
sg26
g27
(g28
(I0
tp3143
g30
tp3144
Rp3145
(I1
(I2
tp3146
g36
I00
S'u\x00\x00\x00]\x00\x00\x00'
p3147
tp3148
bsba(i__main__
FrameData
p3149
(dp3150
g6
g7
sg8
g9
(g13
S'\x88\x80v\xd5\\\x974@'
p3151
tp3152
Rp3153
sg19
I0
sg20
g21
(S'\x07\xdd\t\x1d\x13\t"\x0f,\x95'
p3154
tp3155
Rp3156
sg25
I0
sg26
g27
(g28
(I0
tp3157
g30
tp3158
Rp3159
(I1
(I2
tp3160
g36
I00
S't\x00\x00\x00]\x00\x00\x00'
p3161
tp3162
bsba(i__main__
FrameData
p3163
(dp3164
g6
g7
sg8
g9
(g13
S'bVc}\x9d\xb23@'
p3165
tp3166
Rp3167
sg19
I0
sg20
g21
(S"\x07\xdd\t\x1d\x13\t#\x00'B"
p3168
tp3169
Rp3170
sg25
I0
sg26
g27
(g28
(I0
tp3171
g30
tp3172
Rp3173
(I1
(I2
tp3174
g36
I00
S'r\x00\x00\x00]\x00\x00\x00'
p3175
tp3176
bsba(i__main__
FrameData
p3177
(dp3178
g6
g7
sg8
g9
(g13
S'\xa0\x96\xf4\xe0T\xb81@'
p3179
tp3180
Rp3181
sg19
I0
sg20
g21
(S'\x07\xdd\t\x1d\x13\t#\x00l\xb8'
p3182
tp3183
Rp3184
sg25
I0
sg26
g27
(g28
(I0
tp3185
g30
tp3186
Rp3187
(I1
(I2
tp3188
g36
I00
S'o\x00\x00\x00\\\x00\x00\x00'
p3189
tp3190
bsba(i__main__
FrameData
p3191
(dp3192
g6
g7
sg8
g9
(g13
S'\x10\xb3]\xc9`G0@'
p3193
tp3194
Rp3195
sg19
I0
sg20
g21
(S'\x07\xdd\t\x1d\x13\t#\x00\xab\xaa'
p3196
tp3197
Rp3198
sg25
I0
sg26
g27
(g28
(I0
tp3199
g30
tp3200
Rp3201
(I1
(I2
tp3202
g36
I00
S'm\x00\x00\x00[\x00\x00\x00'
p3203
tp3204
bsba(i__main__
FrameData
p3205
(dp3206
g6
g7
sg8
g9
(g13
S'p`\xff\x00\xfe\x070@'
p3207
tp3208
Rp3209
sg19
I0
sg20
g21
(S'\x07\xdd\t\x1d\x13\t#\x00\xec\x14'
p3210
tp3211
Rp3212
sg25
I0
sg26
g27
(g28
(I0
tp3213
g30
tp3214
Rp3215
(I1
(I2
tp3216
g36
I00
S'k\x00\x00\x00[\x00\x00\x00'
p3217
tp3218
bsba(i__main__
FrameData
p3219
(dp3220
g6
g7
sg8
g9
(g13
S'p`\xff\x00\xfe\x070@'
p3221
tp3222
Rp3223
sg19
I0
sg20
g21
(S'\x07\xdd\t\x1d\x13\t#\x01,\x91'
p3224
tp3225
Rp3226
sg25
I0
sg26
g27
(g28
(I0
tp3227
g30
tp3228
Rp3229
(I1
(I2
tp3230
g36
I00
S'i\x00\x00\x00[\x00\x00\x00'
p3231
tp3232
bsba(i__main__
FrameData
p3233
(dp3234
g6
g7
sg8
g9
(g13
S'\x10\xb3]\xc9`G0@'
p3235
tp3236
Rp3237
sg19
I0
sg20
g21
(S'\x07\xdd\t\x1d\x13\t#\x01m]'
p3238
tp3239
Rp3240
sg25
I0
sg26
g27
(g28
(I0
tp3241
g30
tp3242
Rp3243
(I1
(I2
tp3244
g36
I00
S'g\x00\x00\x00[\x00\x00\x00'
p3245
tp3246
bsba(i__main__
FrameData
p3247
(dp3248
g6
g7
sg8
g9
(g13
S"v\xa3~{\xce'0@"
p3249
tp3250
Rp3251
sg19
I0
sg20
g21
(S'\x07\xdd\t\x1d\x13\t#\x01\xb0\xf5'
p3252
tp3253
Rp3254
sg25
I0
sg26
g27
(g28
(I0
tp3255
g30
tp3256
Rp3257
(I1
(I2
tp3258
g36
I00
S'd\x00\x00\x00Z\x00\x00\x00'
p3259
tp3260
bsba(i__main__
FrameData
p3261
(dp3262
g6
g7
sg8
g9
(g13
S'\xaa\xd9\xb1\xd3\x8d\x8d0@'
p3263
tp3264
Rp3265
sg19
I0
sg20
g21
(S'\x07\xdd\t\x1d\x13\t#\x01\xf2\x9a'
p3266
tp3267
Rp3268
sg25
I0
sg26
g27
(g28
(I0
tp3269
g30
tp3270
Rp3271
(I1
(I2
tp3272
g36
I00
S'c\x00\x00\x00Z\x00\x00\x00'
p3273
tp3274
bsba(i__main__
FrameData
p3275
(dp3276
g6
g7
sg8
g9
(g13
S'\xb9\x93\xe1k\xb0\xa40@'
p3277
tp3278
Rp3279
sg19
I0
sg20
g21
(S'\x07\xdd\t\x1d\x13\t#\x021\xf4'
p3280
tp3281
Rp3282
sg25
I0
sg26
g27
(g28
(I0
tp3283
g30
tp3284
Rp3285
(I1
(I2
tp3286
g36
I00
S'a\x00\x00\x00Y\x00\x00\x00'
p3287
tp3288
bsba(i__main__
FrameData
p3289
(dp3290
g6
g7
sg8
g9
(g13
S'N\x017\xfac41@'
p3291
tp3292
Rp3293
sg19
I0
sg20
g21
(S'\x07\xdd\t\x1d\x13\t#\x02rS'
p3294
tp3295
Rp3296
sg25
I0
sg26
g27
(g28
(I0
tp3297
g30
tp3298
Rp3299
(I1
(I2
tp3300
g36
I00
S'`\x00\x00\x00Y\x00\x00\x00'
p3301
tp3302
bsba(i__main__
FrameData
p3303
(dp3304
g6
g113
sg8
g9
(g13
S'l\xd0\xe82\x1a\xb11@'
p3305
tp3306
Rp3307
sg19
I0
sg20
g21
(S'\x07\xdd\t\x1d\x13\t#\x02\xb5\xbc'
p3308
tp3309
Rp3310
sg25
I0
sg26
g27
(g28
(I0
tp3311
g30
tp3312
Rp3313
(I1
(I2
tp3314
g36
I00
S'^\x00\x00\x00X\x00\x00\x00'
p3315
tp3316
bsba(i__main__
FrameData
p3317
(dp3318
g6
g113
sg8
g9
(g13
S')\x9ah\xdd\x85\x071@'
p3319
tp3320
Rp3321
sg19
I0
sg20
g21
(S'\x07\xdd\t\x1d\x13\t#\x02\xfaS'
p3322
tp3323
Rp3324
sg25
I0
sg26
g27
(g28
(I0
tp3325
g30
tp3326
Rp3327
(I1
(I2
tp3328
g36
I00
S']\x00\x00\x00X\x00\x00\x00'
p3329
tp3330
bsba(i__main__
FrameData
p3331
(dp3332
g6
g113
sg8
g9
(g13
S"'\xf2\x90In\x9f/@"
p3333
tp3334
Rp3335
sg19
I0
sg20
g21
(S'\x07\xdd\t\x1d\x13\t#\x037?'
p3336
tp3337
Rp3338
sg25
I0
sg26
g27
(g28
(I0
tp3339
g30
tp3340
Rp3341
(I1
(I2
tp3342
g36
I00
S'[\x00\x00\x00X\x00\x00\x00'
p3343
tp3344
bsba(i__main__
FrameData
p3345
(dp3346
g6
g113
sg8
g9
(g13
S'\xc5Bl?W\x87.@'
p3347
tp3348
Rp3349
sg19
I0
sg20
g21
(S'\x07\xdd\t\x1d\x13\t#\x03w\xd9'
p3350
tp3351
Rp3352
sg25
I0
sg26
g27
(g28
(I0
tp3353
g30
tp3354
Rp3355
(I1
(I2
tp3356
g36
I00
S'Z\x00\x00\x00X\x00\x00\x00'
p3357
tp3358
bsba(i__main__
FrameData
p3359
(dp3360
g6
g113
sg8
g9
(g13
S'\xe4\x10\xe4sW\x0f)@'
p3361
tp3362
Rp3363
sg19
I0
sg20
g21
(S'\x07\xdd\t\x1d\x13\t#\x03\xbb\x83'
p3364
tp3365
Rp3366
sg25
I0
sg26
g27
(g28
(I0
tp3367
g30
tp3368
Rp3369
(I1
(I2
tp3370
g36
I00
S'X\x00\x00\x00V\x00\x00\x00'
p3371
tp3372
bsba(i__main__
FrameData
p3373
(dp3374
g6
g113
sg8
g9
(g13
S'lNy\x00\x85*(@'
p3375
tp3376
Rp3377
sg19
I0
sg20
g21
(S'\x07\xdd\t\x1d\x13\t#\x03\xff\xbb'
p3378
tp3379
Rp3380
sg25
I0
sg26
g27
(g28
(I0
tp3381
g30
tp3382
Rp3383
(I1
(I2
tp3384
g36
I00
S'W\x00\x00\x00V\x00\x00\x00'
p3385
tp3386
bsba(i__main__
FrameData
p3387
(dp3388
g6
g113
sg8
g9
(g13
S'\xf3\xd9\xa8\xa4h\x8a%@'
p3389
tp3390
Rp3391
sg19
I0
sg20
g21
(S'\x07\xdd\t\x1d\x13\t#\x04<\x99'
p3392
tp3393
Rp3394
sg25
I0
sg26
g27
(g28
(I0
tp3395
g30
tp3396
Rp3397
(I1
(I2
tp3398
g36
I00
S'V\x00\x00\x00U\x00\x00\x00'
p3399
tp3400
bsba(i__main__
FrameData
p3401
(dp3402
g6
g113
sg8
g9
(g13
S'\xa8\xf4\x97\x9bw\xe3!@'
p3403
tp3404
Rp3405
sg19
I0
sg20
g21
(S'\x07\xdd\t\x1d\x13\t#\x04}\xb1'
p3406
tp3407
Rp3408
sg25
I0
sg26
g27
(g28
(I0
tp3409
g30
tp3410
Rp3411
(I1
(I2
tp3412
g36
I00
S'V\x00\x00\x00S\x00\x00\x00'
p3413
tp3414
bsba(i__main__
FrameData
p3415
(dp3416
g6
g113
sg8
g9
(g13
S'\xa3\x14\xae\xa8\x87\x16!@'
p3417
tp3418
Rp3419
sg19
I0
sg20
g21
(S'\x07\xdd\t\x1d\x13\t#\x04\xbdv'
p3420
tp3421
Rp3422
sg25
I0
sg26
g27
(g28
(I0
tp3423
g30
tp3424
Rp3425
(I1
(I2
tp3426
g36
I00
S'U\x00\x00\x00S\x00\x00\x00'
p3427
tp3428
bsba(i__main__
FrameData
p3429
(dp3430
g6
g113
sg8
g9
(g13
S'\x07\xed\xaff\x0f~ @'
p3431
tp3432
Rp3433
sg19
I0
sg20
g21
(S'\x07\xdd\t\x1d\x13\t#\x05\x01\x8e'
p3434
tp3435
Rp3436
sg25
I0
sg26
g27
(g28
(I0
tp3437
g30
tp3438
Rp3439
(I1
(I2
tp3440
g36
I00
S'T\x00\x00\x00S\x00\x00\x00'
p3441
tp3442
bsba(i__main__
FrameData
p3443
(dp3444
g6
g113
sg8
g9
(g13
S'\x00\x00\x00\x00\x00\x00 @'
p3445
tp3446
Rp3447
sg19
I0
sg20
g21
(S"\x07\xdd\t\x1d\x13\t#\x05@'"
p3448
tp3449
Rp3450
sg25
I0
sg26
g27
(g28
(I0
tp3451
g30
tp3452
Rp3453
(I1
(I2
tp3454
g36
I00
S'R\x00\x00\x00S\x00\x00\x00'
p3455
tp3456
bsba(i__main__
FrameData
p3457
(dp3458
g6
g113
sg8
g9
(g13
S'\xc0\n\x1f\x00\xc6H\x1c@'
p3459
tp3460
Rp3461
sg19
I0
sg20
g21
(S'\x07\xdd\t\x1d\x13\t#\x05\xc3\x17'
p3462
tp3463
Rp3464
sg25
I0
sg26
g27
(g28
(I0
tp3465
g30
tp3466
Rp3467
(I1
(I2
tp3468
g36
I00
S'Q\x00\x00\x00R\x00\x00\x00'
p3469
tp3470
bsba(i__main__
FrameData
p3471
(dp3472
g6
g113
sg8
g9
(g13
S'\xe9\xfbv \xd5\x1e\x1d@'
p3473
tp3474
Rp3475
sg19
I0
sg20
g21
(S'\x07\xdd\t\x1d\x13\t#\x06\x05<'
p3476
tp3477
Rp3478
sg25
I0
sg26
g27
(g28
(I0
tp3479
g30
tp3480
Rp3481
(I1
(I2
tp3482
g36
I00
S'P\x00\x00\x00R\x00\x00\x00'
p3483
tp3484
bsba(i__main__
FrameData
p3485
(dp3486
g6
g113
sg8
g9
(g13
S'\xfc\xeeci3\xd5\x1a@'
p3487
tp3488
Rp3489
sg19
I0
sg20
g21
(S'\x07\xdd\t\x1d\x13\t#\x06Ec'
p3490
tp3491
Rp3492
sg25
I0
sg26
g27
(g28
(I0
tp3493
g30
tp3494
Rp3495
(I1
(I2
tp3496
g36
I00
S'O\x00\x00\x00Q\x00\x00\x00'
p3497
tp3498
bsba(i__main__
FrameData
p3499
(dp3500
g6
g113
sg8
g9
(g13
S'\xf3YaD+\xd8\x1c@'
p3501
tp3502
Rp3503
sg19
I0
sg20
g21
(S'\x07\xdd\t\x1d\x13\t#\x06\x87\xdc'
p3504
tp3505
Rp3506
sg25
I0
sg26
g27
(g28
(I0
tp3507
g30
tp3508
Rp3509
(I1
(I2
tp3510
g36
I00
S'N\x00\x00\x00Q\x00\x00\x00'
p3511
tp3512
bsba(i__main__
FrameData
p3513
(dp3514
g6
g113
sg8
g9
(g13
S'\xd9l\xdf\xccv\xf8 @'
p3515
tp3516
Rp3517
sg19
I0
sg20
g21
(S'\x07\xdd\t\x1d\x13\t#\x06\xc8w'
p3518
tp3519
Rp3520
sg25
I0
sg26
g27
(g28
(I0
tp3521
g30
tp3522
Rp3523
(I1
(I2
tp3524
g36
I00
S'L\x00\x00\x00Q\x00\x00\x00'
p3525
tp3526
bsba(i__main__
FrameData
p3527
(dp3528
g6
g113
sg8
g9
(g13
S'N\x017\xfac4!@'
p3529
tp3530
Rp3531
sg19
I0
sg20
g21
(S'\x07\xdd\t\x1d\x13\t#\x07\x0c;'
p3532
tp3533
Rp3534
sg25
I0
sg26
g27
(g28
(I0
tp3535
g30
tp3536
Rp3537
(I1
(I2
tp3538
g36
I00
S'K\x00\x00\x00P\x00\x00\x00'
p3539
tp3540
bsba(i__main__
FrameData
p3541
(dp3542
g6
g113
sg8
g9
(g13
S'A\x87b\xc62\xde"@'
p3543
tp3544
Rp3545
sg19
I0
sg20
g21
(S'\x07\xdd\t\x1d\x13\t#\x07P:'
p3546
tp3547
Rp3548
sg25
I0
sg26
g27
(g28
(I0
tp3549
g30
tp3550
Rp3551
(I1
(I2
tp3552
g36
I00
S'J\x00\x00\x00P\x00\x00\x00'
p3553
tp3554
bsba(i__main__
FrameData
p3555
(dp3556
g6
g113
sg8
g9
(g13
S'bVc}\x9d\xb2#@'
p3557
tp3558
Rp3559
sg19
I0
sg20
g21
(S'\x07\xdd\t\x1d\x13\t#\x07\x8bA'
p3560
tp3561
Rp3562
sg25
I0
sg26
g27
(g28
(I0
tp3563
g30
tp3564
Rp3565
(I1
(I2
tp3566
g36
I00
S'I\x00\x00\x00O\x00\x00\x00'
p3567
tp3568
bsba(i__main__
FrameData
p3569
(dp3570
g6
g113
sg8
g9
(g13
S'\xf3\xd9\xa8\xa4h\x8a%@'
p3571
tp3572
Rp3573
sg19
I0
sg20
g21
(S'\x07\xdd\t\x1d\x13\t#\x07\xd1.'
p3574
tp3575
Rp3576
sg25
I0
sg26
g27
(g28
(I0
tp3577
g30
tp3578
Rp3579
(I1
(I2
tp3580
g36
I00
S'H\x00\x00\x00O\x00\x00\x00'
p3581
tp3582
bsba(i__main__
FrameData
p3583
(dp3584
g6
g113
sg8
g9
(g13
S"\xe0\x11<m\xceh'@"
p3585
tp3586
Rp3587
sg19
I0
sg20
g21
(S'\x07\xdd\t\x1d\x13\t#\x08\x11\x8c'
p3588
tp3589
Rp3590
sg25
I0
sg26
g27
(g28
(I0
tp3591
g30
tp3592
Rp3593
(I1
(I2
tp3594
g36
I00
S'G\x00\x00\x00O\x00\x00\x00'
p3595
tp3596
bsba(i__main__
FrameData
p3597
(dp3598
g6
g366
sg8
g9
(g13
S'\xeb\x12\xb2\xbb\xb2\xcd&@'
p3599
tp3600
Rp3601
sg19
I0
sg20
g21
(S'\x07\xdd\t\x1d\x13\t#\x08O\xe2'
p3602
tp3603
Rp3604
sg25
I0
sg26
g27
(g28
(I0
tp3605
g30
tp3606
Rp3607
(I1
(I2
tp3608
g36
I00
S'F\x00\x00\x00O\x00\x00\x00'
p3609
tp3610
bsba(i__main__
FrameData
p3611
(dp3612
g6
g366
sg8
g9
(g13
S'H\xaa*\x8f9\x17&@'
p3613
tp3614
Rp3615
sg19
I0
sg20
g21
(S'\x07\xdd\t\x1d\x13\t#\x08\x90\x08'
p3616
tp3617
Rp3618
sg25
I0
sg26
g27
(g28
(I0
tp3619
g30
tp3620
Rp3621
(I1
(I2
tp3622
g36
I00
S'F\x00\x00\x00M\x00\x00\x00'
p3623
tp3624
bsba(i__main__
FrameData
p3625
(dp3626
g6
g366
sg8
g9
(g13
S'\xf0)#L\x89\x19$@'
p3627
tp3628
Rp3629
sg19
I0
sg20
g21
(S'\x07\xdd\t\x1d\x13\t#\x08\xd5\xa0'
p3630
tp3631
Rp3632
sg25
I0
sg26
g27
(g28
(I0
tp3633
g30
tp3634
Rp3635
(I1
(I2
tp3636
g36
I00
S'E\x00\x00\x00M\x00\x00\x00'
p3637
tp3638
bsba(i__main__
FrameData
p3639
(dp3640
g6
g366
sg8
g9
(g13
S'\xd0\xbaa?\xe0\x1f @'
p3641
tp3642
Rp3643
sg19
I0
sg20
g21
(S'\x07\xdd\t\x1d\x13\t#\t\x13\xc9'
p3644
tp3645
Rp3646
sg25
I0
sg26
g27
(g28
(I0
tp3647
g30
tp3648
Rp3649
(I1
(I2
tp3650
g36
I00
S'C\x00\x00\x00K\x00\x00\x00'
p3651
tp3652
bsba(i__main__
FrameData
p3653
(dp3654
g6
g366
sg8
g9
(g13
S'\xc0\n\x1f\x00\xc6H\x1c@'
p3655
tp3656
Rp3657
sg19
I0
sg20
g21
(S'\x07\xdd\t\x1d\x13\t#\tTx'
p3658
tp3659
Rp3660
sg25
I0
sg26
g27
(g28
(I0
tp3661
g30
tp3662
Rp3663
(I1
(I2
tp3664
g36
I00
S'B\x00\x00\x00K\x00\x00\x00'
p3665
tp3666
bsba(i__main__
FrameData
p3667
(dp3668
g6
g366
sg8
g9
(g13
S'S[\xda:XL\x19@'
p3669
tp3670
Rp3671
sg19
I0
sg20
g21
(S'\x07\xdd\t\x1d\x13\t#\t\x97\xfa'
p3672
tp3673
Rp3674
sg25
I0
sg26
g27
(g28
(I0
tp3675
g30
tp3676
Rp3677
(I1
(I2
tp3678
g36
I00
S'A\x00\x00\x00J\x00\x00\x00'
p3679
tp3680
bsba(i__main__
FrameData
p3681
(dp3682
g6
g366
sg8
g9
(g13
S'\xf3\xd9\xa8\xa4h\x8a\x15@'
p3683
tp3684
Rp3685
sg19
I0
sg20
g21
(S'\x07\xdd\t\x1d\x13\t#\t\xd6,'
p3686
tp3687
Rp3688
sg25
I0
sg26
g27
(g28
(I0
tp3689
g30
tp3690
Rp3691
(I1
(I2
tp3692
g36
I00
S'@\x00\x00\x00J\x00\x00\x00'
p3693
tp3694
bsba(i__main__
FrameData
p3695
(dp3696
g6
g366
sg8
g9
(g13
S'\x00\x00\x00\x00\x00\x00\x14@'
p3697
tp3698
Rp3699
sg19
I0
sg20
g21
(S'\x07\xdd\t\x1d\x13\t#\n\x1cn'
p3700
tp3701
Rp3702
sg25
I0
sg26
g27
(g28
(I0
tp3703
g30
tp3704
Rp3705
(I1
(I2
tp3706
g36
I00
S'>\x00\x00\x00H\x00\x00\x00'
p3707
tp3708
bsba(i__main__
FrameData
p3709
(dp3710
g6
g366
sg8
g9
(g13
S'\xa8\xf4\x97\x9bw\xe3\x11@'
p3711
tp3712
Rp3713
sg19
I0
sg20
g21
(S'\x07\xdd\t\x1d\x13\t#\nYd'
p3714
tp3715
Rp3716
sg25
I0
sg26
g27
(g28
(I0
tp3717
g30
tp3718
Rp3719
(I1
(I2
tp3720
g36
I00
S'=\x00\x00\x00H\x00\x00\x00'
p3721
tp3722
bsba(i__main__
FrameData
p3723
(dp3724
g6
g366
sg8
g9
(g13
S'\xf3\xd9\xa8\xa4h\x8a\x15@'
p3725
tp3726
Rp3727
sg19
I0
sg20
g21
(S'\x07\xdd\t\x1d\x13\t#\n\x9a\xf9'
p3728
tp3729
Rp3730
sg25
I0
sg26
g27
(g28
(I0
tp3731
g30
tp3732
Rp3733
(I1
(I2
tp3734
g36
I00
S'=\x00\x00\x00G\x00\x00\x00'
p3735
tp3736
bsba(i__main__
FrameData
p3737
(dp3738
g6
g366
sg8
g9
(g13
S'\xf6/\x12_ee\x14@'
p3739
tp3740
Rp3741
sg19
I0
sg20
g21
(S'\x07\xdd\t\x1d\x13\t#\n\xdd\xe4'
p3742
tp3743
Rp3744
sg25
I0
sg26
g27
(g28
(I0
tp3745
g30
tp3746
Rp3747
(I1
(I2
tp3748
g36
I00
S'<\x00\x00\x00G\x00\x00\x00'
p3749
tp3750
bsba(i__main__
FrameData
p3751
(dp3752
g6
g366
sg8
g9
(g13
S'9\xdcc\xb3\xbfT\x18@'
p3753
tp3754
Rp3755
sg19
I0
sg20
g21
(S'\x07\xdd\t\x1d\x13\t#\x0b\x1e:'
p3756
tp3757
Rp3758
sg25
I0
sg26
g27
(g28
(I0
tp3759
g30
tp3760
Rp3761
(I1
(I2
tp3762
g36
I00
S'<\x00\x00\x00F\x00\x00\x00'
p3763
tp3764
bsba(i__main__
FrameData
p3765
(dp3766
g6
g366
sg8
g9
(g13
S'\x00\x00\x00\x00\x00\x00\x18@'
p3767
tp3768
Rp3769
sg19
I0
sg20
g21
(S'\x07\xdd\t\x1d\x13\t#\x0b\x9f\x18'
p3770
tp3771
Rp3772
sg25
I0
sg26
g27
(g28
(I0
tp3773
g30
tp3774
Rp3775
(I1
(I2
tp3776
g36
I00
S';\x00\x00\x00F\x00\x00\x00'
p3777
tp3778
bsba(i__main__
FrameData
p3779
(dp3780
g6
g366
sg8
g9
(g13
S'\x00\x00\x00\x00\x00\x00\x1c@'
p3781
tp3782
Rp3783
sg19
I0
sg20
g21
(S'\x07\xdd\t\x1d\x13\t#\x0b\xe3\x17'
p3784
tp3785
Rp3786
sg25
I0
sg26
g27
(g28
(I0
tp3787
g30
tp3788
Rp3789
(I1
(I2
tp3790
g36
I00
S';\x00\x00\x00E\x00\x00\x00'
p3791
tp3792
bsbasS'_fileName'
p3793
S'training/trajectory2013-09-29_19:09:23.594834'
p3794
sS'word'
p3795
S'temple'
p3796
sb.