(i__main__
SwypeTrajectory
p0
(dp1
S'_frameDataList'
p2
(lp3
(i__main__
FrameData
p4
(dp5
S'closestLetter'
p6
S'r'
p7
sS'letterDistance'
p8
cnumpy.core.multiarray
scalar
p9
(cnumpy
dtype
p10
(S'f8'
p11
I0
I1
tp12
Rp13
(I3
S'<'
p14
NNNI-1
I-1
I0
tp15
bS'\xcd;\x7ff\x9e\xa0\x06@'
p16
tp17
Rp18
sS'accel'
p19
I0
sS'time'
p20
cdatetime
datetime
p21
(S'\x07\xdd\t\x1d\x13\n \x05U\x15'
p22
tp23
Rp24
sS'velocity'
p25
I0
sS'position'
p26
cnumpy.core.multiarray
_reconstruct
p27
(cnumpy
ndarray
p28
(I0
tp29
S'b'
p30
tp31
Rp32
(I1
(I2
tp33
g10
(S'i4'
p34
I0
I1
tp35
Rp36
(I3
S'<'
p37
NNNI-1
I-1
I0
tp38
bI00
S'T\x00\x00\x00I\x00\x00\x00'
p39
tp40
bsba(i__main__
FrameData
p41
(dp42
g6
g7
sg8
g9
(g13
S'\xf3YaD+\xd8\x0c@'
p43
tp44
Rp45
sg19
I0
sg20
g21
(S'\x07\xdd\t\x1d\x13\n \x05\x9a\xb0'
p46
tp47
Rp48
sg25
I0
sg26
g27
(g28
(I0
tp49
g30
tp50
Rp51
(I1
(I2
tp52
g36
I00
S'U\x00\x00\x00I\x00\x00\x00'
p53
tp54
bsba(i__main__
FrameData
p55
(dp56
g6
g7
sg8
g9
(g13
S'\xf3\xd9\xa8\xa4h\x8a\x15@'
p57
tp58
Rp59
sg19
I0
sg20
g21
(S'\x07\xdd\t\x1d\x13\n \x05\xe9\xc1'
p60
tp61
Rp62
sg25
I0
sg26
g27
(g28
(I0
tp63
g30
tp64
Rp65
(I1
(I2
tp66
g36
I00
S'W\x00\x00\x00I\x00\x00\x00'
p67
tp68
bsba(i__main__
FrameData
p69
(dp70
g6
g7
sg8
g9
(g13
S'\xe9\xfbv \xd5\x1e\x1d@'
p71
tp72
Rp73
sg19
I0
sg20
g21
(S'\x07\xdd\t\x1d\x13\n \x06\x1f\x81'
p74
tp75
Rp76
sg25
I0
sg26
g27
(g28
(I0
tp77
g30
tp78
Rp79
(I1
(I2
tp80
g36
I00
S'Y\x00\x00\x00I\x00\x00\x00'
p81
tp82
bsba(i__main__
FrameData
p83
(dp84
g6
g7
sg8
g9
(g13
S'\xf0)#L\x89\x19$@'
p85
tp86
Rp87
sg19
I0
sg20
g21
(S'\x07\xdd\t\x1d\x13\n \x06Vl'
p88
tp89
Rp90
sg25
I0
sg26
g27
(g28
(I0
tp91
g30
tp92
Rp93
(I1
(I2
tp94
g36
I00
S'\\\x00\x00\x00J\x00\x00\x00'
p95
tp96
bsba(i__main__
FrameData
p97
(dp98
g6
S't'
p99
sg8
g9
(g13
S'$\xf8\xd9p[\x1c"@'
p100
tp101
Rp102
sg19
I0
sg20
g21
(S'\x07\xdd\t\x1d\x13\n \x06\xa4='
p103
tp104
Rp105
sg25
I0
sg26
g27
(g28
(I0
tp106
g30
tp107
Rp108
(I1
(I2
tp109
g36
I00
S'a\x00\x00\x00L\x00\x00\x00'
p110
tp111
bsba(i__main__
FrameData
p112
(dp113
g6
g99
sg8
g9
(g13
S'\x00\x00\x00\x00\x00\x00\x00@'
p114
tp115
Rp116
sg19
I0
sg20
g21
(S'\x07\xdd\t\x1d\x13\n \x06\xdb%'
p117
tp118
Rp119
sg25
I0
sg26
g27
(g28
(I0
tp120
g30
tp121
Rp122
(I1
(I2
tp123
g36
I00
S'j\x00\x00\x00M\x00\x00\x00'
p124
tp125
bsba(i__main__
FrameData
p126
(dp127
g6
g99
sg8
g9
(g13
S'\xd9l\xdf\xccv\xf8\x10@'
p128
tp129
Rp130
sg19
I0
sg20
g21
(S'\x07\xdd\t\x1d\x13\n \x07*\xaa'
p131
tp132
Rp133
sg25
I0
sg26
g27
(g28
(I0
tp134
g30
tp135
Rp136
(I1
(I2
tp137
g36
I00
S'm\x00\x00\x00N\x00\x00\x00'
p138
tp139
bsba(i__main__
FrameData
p140
(dp141
g6
g99
sg8
g9
(g13
S'\xf3YaD+\xd8\x1c@'
p142
tp143
Rp144
sg19
I0
sg20
g21
(S'\x07\xdd\t\x1d\x13\n \x07_+'
p145
tp146
Rp147
sg25
I0
sg26
g27
(g28
(I0
tp148
g30
tp149
Rp150
(I1
(I2
tp151
g36
I00
S'p\x00\x00\x00O\x00\x00\x00'
p152
tp153
bsba(i__main__
FrameData
p154
(dp155
g6
g99
sg8
g9
(g13
S'A\x87b\xc62\xde"@'
p156
tp157
Rp158
sg19
I0
sg20
g21
(S'\x07\xdd\t\x1d\x13\n \x07\x9c\x16'
p159
tp160
Rp161
sg25
I0
sg26
g27
(g28
(I0
tp162
g30
tp163
Rp164
(I1
(I2
tp165
g36
I00
S'r\x00\x00\x00P\x00\x00\x00'
p166
tp167
bsba(i__main__
FrameData
p168
(dp169
g6
g99
sg8
g9
(g13
S'\x88\x80v\xd5\\\x97$@'
p170
tp171
Rp172
sg19
I0
sg20
g21
(S'\x07\xdd\t\x1d\x13\n \x07\xde\x98'
p173
tp174
Rp175
sg25
I0
sg26
g27
(g28
(I0
tp176
g30
tp177
Rp178
(I1
(I2
tp179
g36
I00
S's\x00\x00\x00P\x00\x00\x00'
p180
tp181
bsba(i__main__
FrameData
p182
(dp183
g6
g99
sg8
g9
(g13
S'\xd2\xf1}\x82U\\&@'
p184
tp185
Rp186
sg19
I0
sg20
g21
(S'\x07\xdd\t\x1d\x13\n \x08;8'
p187
tp188
Rp189
sg25
I0
sg26
g27
(g28
(I0
tp190
g30
tp191
Rp192
(I1
(I2
tp193
g36
I00
S't\x00\x00\x00P\x00\x00\x00'
p194
tp195
bsba(i__main__
FrameData
p196
(dp197
g6
g99
sg8
g9
(g13
S'lNy\x00\x85*(@'
p198
tp199
Rp200
sg19
I0
sg20
g21
(S'\x07\xdd\t\x1d\x13\n \x08\xa0\xbf'
p201
tp202
Rp203
sg25
I0
sg26
g27
(g28
(I0
tp204
g30
tp205
Rp206
(I1
(I2
tp207
g36
I00
S'u\x00\x00\x00P\x00\x00\x00'
p208
tp209
bsba(i__main__
FrameData
p210
(dp211
g6
S'y'
p212
sg8
g9
(g13
S'\x8a\xe3\x07\x1a\x17\xbd(@'
p213
tp214
Rp215
sg19
I0
sg20
g21
(S'\x07\xdd\t\x1d\x13\n \x08\xe1\xe9'
p216
tp217
Rp218
sg25
I0
sg26
g27
(g28
(I0
tp219
g30
tp220
Rp221
(I1
(I2
tp222
g36
I00
S'v\x00\x00\x00P\x00\x00\x00'
p223
tp224
bsba(i__main__
FrameData
p225
(dp226
g6
g212
sg8
g9
(g13
S'\xeb\x12\xb2\xbb\xb2\xcd&@'
p227
tp228
Rp229
sg19
I0
sg20
g21
(S'\x07\xdd\t\x1d\x13\n \t#\xec'
p230
tp231
Rp232
sg25
I0
sg26
g27
(g28
(I0
tp233
g30
tp234
Rp235
(I1
(I2
tp236
g36
I00
S'w\x00\x00\x00P\x00\x00\x00'
p237
tp238
bsba(i__main__
FrameData
p239
(dp240
g6
g212
sg8
g9
(g13
S'~\xc4#,B\xf9"@'
p241
tp242
Rp243
sg19
I0
sg20
g21
(S'\x07\xdd\t\x1d\x13\n \td\x92'
p244
tp245
Rp246
sg25
I0
sg26
g27
(g28
(I0
tp247
g30
tp248
Rp249
(I1
(I2
tp250
g36
I00
S'y\x00\x00\x00P\x00\x00\x00'
p251
tp252
bsba(i__main__
FrameData
p253
(dp254
g6
g212
sg8
g9
(g13
S'\xfc\xeeci3\xd5\x1a@'
p255
tp256
Rp257
sg19
I0
sg20
g21
(S'\x07\xdd\t\x1d\x13\n \t\xc1\xc6'
p258
tp259
Rp260
sg25
I0
sg26
g27
(g28
(I0
tp261
g30
tp262
Rp263
(I1
(I2
tp264
g36
I00
S'|\x00\x00\x00P\x00\x00\x00'
p265
tp266
bsba(i__main__
FrameData
p267
(dp268
g6
g212
sg8
g9
(g13
S'\xd9l\xdf\xccv\xf8\x10@'
p269
tp270
Rp271
sg19
I0
sg20
g21
(S'\x07\xdd\t\x1d\x13\n \t\xe7\xcb'
p272
tp273
Rp274
sg25
I0
sg26
g27
(g28
(I0
tp275
g30
tp276
Rp277
(I1
(I2
tp278
g36
I00
S'\x7f\x00\x00\x00P\x00\x00\x00'
p279
tp280
bsba(i__main__
FrameData
p281
(dp282
g6
g212
sg8
g9
(g13
S'\xf3YaD+\xd8\x0c@'
p283
tp284
Rp285
sg19
I0
sg20
g21
(S'\x07\xdd\t\x1d\x13\n \n(\xae'
p286
tp287
Rp288
sg25
I0
sg26
g27
(g28
(I0
tp289
g30
tp290
Rp291
(I1
(I2
tp292
g36
I00
S'\x84\x00\x00\x00P\x00\x00\x00'
p293
tp294
bsba(i__main__
FrameData
p295
(dp296
g6
g212
sg8
g9
(g13
S'\xfc\xeeci3\xd5\x1a@'
p297
tp298
Rp299
sg19
I0
sg20
g21
(S'\x07\xdd\t\x1d\x13\n \n\x86Y'
p300
tp301
Rp302
sg25
I0
sg26
g27
(g28
(I0
tp303
g30
tp304
Rp305
(I1
(I2
tp306
g36
I00
S'\x88\x00\x00\x00P\x00\x00\x00'
p307
tp308
bsba(i__main__
FrameData
p309
(dp310
g6
g212
sg8
g9
(g13
S'\xa3\x14\xae\xa8\x87\x16!@'
p311
tp312
Rp313
sg19
I0
sg20
g21
(S'\x07\xdd\t\x1d\x13\n \n\xac\x14'
p314
tp315
Rp316
sg25
I0
sg26
g27
(g28
(I0
tp317
g30
tp318
Rp319
(I1
(I2
tp320
g36
I00
S'\x8a\x00\x00\x00P\x00\x00\x00'
p321
tp322
bsba(i__main__
FrameData
p323
(dp324
g6
g212
sg8
g9
(g13
S'7\xf9\xcf\xdao\xe1$@'
p325
tp326
Rp327
sg19
I0
sg20
g21
(S'\x07\xdd\t\x1d\x13\n \n\xec\x82'
p328
tp329
Rp330
sg25
I0
sg26
g27
(g28
(I0
tp331
g30
tp332
Rp333
(I1
(I2
tp334
g36
I00
S'\x8c\x00\x00\x00P\x00\x00\x00'
p335
tp336
bsba(i__main__
FrameData
p337
(dp338
g6
g212
sg8
g9
(g13
S'\xeb\x12\xb2\xbb\xb2\xcd&@'
p339
tp340
Rp341
sg19
I0
sg20
g21
(S'\x07\xdd\t\x1d\x13\n \x0bIp'
p342
tp343
Rp344
sg25
I0
sg26
g27
(g28
(I0
tp345
g30
tp346
Rp347
(I1
(I2
tp348
g36
I00
S'\x8d\x00\x00\x00P\x00\x00\x00'
p349
tp350
bsba(i__main__
FrameData
p351
(dp352
g6
S'u'
p353
sg8
g9
(g13
S"\xa2\xa3\xb3\r\xe5R'@"
p354
tp355
Rp356
sg19
I0
sg20
g21
(S'\x07\xdd\t\x1d\x13\n \x0bo<'
p357
tp358
Rp359
sg25
I0
sg26
g27
(g28
(I0
tp360
g30
tp361
Rp362
(I1
(I2
tp363
g36
I00
S'\x8e\x00\x00\x00P\x00\x00\x00'
p364
tp365
bsba(i__main__
FrameData
p366
(dp367
g6
g353
sg8
g9
(g13
S'w\x03Is \xa2%@'
p368
tp369
Rp370
sg19
I0
sg20
g21
(S'\x07\xdd\t\x1d\x13\n \x0b\xbe\xb0'
p371
tp372
Rp373
sg25
I0
sg26
g27
(g28
(I0
tp374
g30
tp375
Rp376
(I1
(I2
tp377
g36
I00
S'\x8f\x00\x00\x00P\x00\x00\x00'
p378
tp379
bsba(i__main__
FrameData
p380
(dp381
g6
g353
sg8
g9
(g13
S'\x00\x00\x00\x00\x00\x00$@'
p382
tp383
Rp384
sg19
I0
sg20
g21
(S'\x07\xdd\t\x1d\x13\n \x0cs\x83'
p385
tp386
Rp387
sg25
I0
sg26
g27
(g28
(I0
tp388
g30
tp389
Rp390
(I1
(I2
tp391
g36
I00
S'\x90\x00\x00\x00P\x00\x00\x00'
p392
tp393
bsba(i__main__
FrameData
p394
(dp395
g6
g353
sg8
g9
(g13
S'N\x017\xfac4!@'
p396
tp397
Rp398
sg19
I0
sg20
g21
(S'\x07\xdd\t\x1d\x13\n!\x00@\x92'
p399
tp400
Rp401
sg25
I0
sg26
g27
(g28
(I0
tp402
g30
tp403
Rp404
(I1
(I2
tp405
g36
I00
S'\x91\x00\x00\x00O\x00\x00\x00'
p406
tp407
bsba(i__main__
FrameData
p408
(dp409
g6
g353
sg8
g9
(g13
S'htN\x17\xb2=\x1f@'
p410
tp411
Rp412
sg19
I0
sg20
g21
(S'\x07\xdd\t\x1d\x13\n!\x00\xe9x'
p413
tp414
Rp415
sg25
I0
sg26
g27
(g28
(I0
tp416
g30
tp417
Rp418
(I1
(I2
tp419
g36
I00
S'\x92\x00\x00\x00O\x00\x00\x00'
p420
tp421
bsba(i__main__
FrameData
p422
(dp423
g6
g353
sg8
g9
(g13
S'\xc0\n\x1f\x00\xc6H\x1c@'
p424
tp425
Rp426
sg19
I0
sg20
g21
(S'\x07\xdd\t\x1d\x13\n!\x01\xc7\xde'
p427
tp428
Rp429
sg25
I0
sg26
g27
(g28
(I0
tp430
g30
tp431
Rp432
(I1
(I2
tp433
g36
I00
S'\x93\x00\x00\x00O\x00\x00\x00'
p434
tp435
bsba(i__main__
FrameData
p436
(dp437
g6
g353
sg8
g9
(g13
S'\xcd;\x7ff\x9e\xa0\x16@'
p438
tp439
Rp440
sg19
I0
sg20
g21
(S'\x07\xdd\t\x1d\x13\n!\x02\x8ce'
p441
tp442
Rp443
sg25
I0
sg26
g27
(g28
(I0
tp444
g30
tp445
Rp446
(I1
(I2
tp447
g36
I00
S'\x94\x00\x00\x00N\x00\x00\x00'
p448
tp449
bsba(i__main__
FrameData
p450
(dp451
g6
g353
sg8
g9
(g13
S'\x00\x00\x00\x00\x00\x00\x14@'
p452
tp453
Rp454
sg19
I0
sg20
g21
(S'\x07\xdd\t\x1d\x13\n!\x02\xcc{'
p455
tp456
Rp457
sg25
I0
sg26
g27
(g28
(I0
tp458
g30
tp459
Rp460
(I1
(I2
tp461
g36
I00
S'\x94\x00\x00\x00M\x00\x00\x00'
p462
tp463
bsba(i__main__
FrameData
p464
(dp465
g6
g353
sg8
g9
(g13
S'\xd9l\xdf\xccv\xf8\x10@'
p466
tp467
Rp468
sg19
I0
sg20
g21
(S'\x07\xdd\t\x1d\x13\n!\x03Y\x0f'
p469
tp470
Rp471
sg25
I0
sg26
g27
(g28
(I0
tp472
g30
tp473
Rp474
(I1
(I2
tp475
g36
I00
S'\x95\x00\x00\x00M\x00\x00\x00'
p476
tp477
bsba(i__main__
FrameData
p478
(dp479
g6
g353
sg8
g9
(g13
S'\xf3YaD+\xd8\x0c@'
p480
tp481
Rp482
sg19
I0
sg20
g21
(S'\x07\xdd\t\x1d\x13\n!\x05\xde&'
p483
tp484
Rp485
sg25
I0
sg26
g27
(g28
(I0
tp486
g30
tp487
Rp488
(I1
(I2
tp489
g36
I00
S'\x95\x00\x00\x00L\x00\x00\x00'
p490
tp491
bsba(i__main__
FrameData
p492
(dp493
g6
g353
sg8
g9
(g13
S'\xcd;\x7ff\x9e\xa0\x06@'
p494
tp495
Rp496
sg19
I0
sg20
g21
(S'\x07\xdd\t\x1d\x13\n!\x06g\xb2'
p497
tp498
Rp499
sg25
I0
sg26
g27
(g28
(I0
tp500
g30
tp501
Rp502
(I1
(I2
tp503
g36
I00
S'\x96\x00\x00\x00L\x00\x00\x00'
p504
tp505
bsba(i__main__
FrameData
p506
(dp507
g6
g353
sg8
g9
(g13
S'\xcd;\x7ff\x9e\xa0\xf6?'
p508
tp509
Rp510
sg19
I0
sg20
g21
(S'\x07\xdd\t\x1d\x13\n!\x06\xb5\x8e'
p511
tp512
Rp513
sg25
I0
sg26
g27
(g28
(I0
tp514
g30
tp515
Rp516
(I1
(I2
tp517
g36
I00
S'\x97\x00\x00\x00K\x00\x00\x00'
p518
tp519
bsba(i__main__
FrameData
p520
(dp521
g6
g353
sg8
g9
(g13
S'\x00\x00\x00\x00\x00\x00\xf0?'
p522
tp523
Rp524
sg19
I0
sg20
g21
(S'\x07\xdd\t\x1d\x13\n!\x07!\xdf'
p525
tp526
Rp527
sg25
I0
sg26
g27
(g28
(I0
tp528
g30
tp529
Rp530
(I1
(I2
tp531
g36
I00
S'\x98\x00\x00\x00K\x00\x00\x00'
p532
tp533
bsba(i__main__
FrameData
p534
(dp535
g6
g353
sg8
g9
(g13
S'\x00\x00\x00\x00\x00\x00\x00\x00'
p536
tp537
Rp538
sg19
I0
sg20
g21
(S'\x07\xdd\t\x1d\x13\n!\x07\xa5`'
p539
tp540
Rp541
sg25
I0
sg26
g27
(g28
(I0
tp542
g30
tp543
Rp544
(I1
(I2
tp545
g36
I00
S'\x98\x00\x00\x00J\x00\x00\x00'
p546
tp547
bsba(i__main__
FrameData
p548
(dp549
g6
g353
sg8
g9
(g13
S'\x00\x00\x00\x00\x00\x00\xf0?'
p550
tp551
Rp552
sg19
I0
sg20
g21
(S'\x07\xdd\t\x1d\x13\n!\tmJ'
p553
tp554
Rp555
sg25
I0
sg26
g27
(g28
(I0
tp556
g30
tp557
Rp558
(I1
(I2
tp559
g36
I00
S'\x98\x00\x00\x00K\x00\x00\x00'
p560
tp561
bsba(i__main__
FrameData
p562
(dp563
g6
g353
sg8
g9
(g13
S'\x00\x00\x00\x00\x00\x00\x00@'
p564
tp565
Rp566
sg19
I0
sg20
g21
(S'\x07\xdd\t\x1d\x13\n!\n\x03o'
p567
tp568
Rp569
sg25
I0
sg26
g27
(g28
(I0
tp570
g30
tp571
Rp572
(I1
(I2
tp573
g36
I00
S'\x98\x00\x00\x00L\x00\x00\x00'
p574
tp575
bsba(i__main__
FrameData
p576
(dp577
g6
g353
sg8
g9
(g13
S'\x00\x00\x00\x00\x00\x00\x08@'
p578
tp579
Rp580
sg19
I0
sg20
g21
(S'\x07\xdd\t\x1d\x13\n!\nr,'
p581
tp582
Rp583
sg25
I0
sg26
g27
(g28
(I0
tp584
g30
tp585
Rp586
(I1
(I2
tp587
g36
I00
S'\x98\x00\x00\x00M\x00\x00\x00'
p588
tp589
bsba(i__main__
FrameData
p590
(dp591
g6
g353
sg8
g9
(g13
S'\x07\xed\xaff\x0f~\x10@'
p592
tp593
Rp594
sg19
I0
sg20
g21
(S'\x07\xdd\t\x1d\x13\n!\n\xd4l'
p595
tp596
Rp597
sg25
I0
sg26
g27
(g28
(I0
tp598
g30
tp599
Rp600
(I1
(I2
tp601
g36
I00
S'\x97\x00\x00\x00N\x00\x00\x00'
p602
tp603
bsba(i__main__
FrameData
p604
(dp605
g6
g353
sg8
g9
(g13
S'\xf6/\x12_ee\x14@'
p606
tp607
Rp608
sg19
I0
sg20
g21
(S'\x07\xdd\t\x1d\x13\n!\n\xfbX'
p609
tp610
Rp611
sg25
I0
sg26
g27
(g28
(I0
tp612
g30
tp613
Rp614
(I1
(I2
tp615
g36
I00
S'\x97\x00\x00\x00O\x00\x00\x00'
p616
tp617
bsba(i__main__
FrameData
p618
(dp619
g6
g353
sg8
g9
(g13
S'S[\xda:XL\x19@'
p620
tp621
Rp622
sg19
I0
sg20
g21
(S'\x07\xdd\t\x1d\x13\n!\x0b7\x1b'
p623
tp624
Rp625
sg25
I0
sg26
g27
(g28
(I0
tp626
g30
tp627
Rp628
(I1
(I2
tp629
g36
I00
S'\x96\x00\x00\x00P\x00\x00\x00'
p630
tp631
bsba(i__main__
FrameData
p632
(dp633
g6
g353
sg8
g9
(g13
S'\xe9\xfbv \xd5\x1e\x1d@'
p634
tp635
Rp636
sg19
I0
sg20
g21
(S'\x07\xdd\t\x1d\x13\n!\x0b\x9d\xfa'
p637
tp638
Rp639
sg25
I0
sg26
g27
(g28
(I0
tp640
g30
tp641
Rp642
(I1
(I2
tp643
g36
I00
S'\x96\x00\x00\x00Q\x00\x00\x00'
p644
tp645
bsba(i__main__
FrameData
p646
(dp647
g6
g353
sg8
g9
(g13
S'\x07\xed\xaff\x0f~ @'
p648
tp649
Rp650
sg19
I0
sg20
g21
(S'\x07\xdd\t\x1d\x13\n!\x0b\xc56'
p651
tp652
Rp653
sg25
I0
sg26
g27
(g28
(I0
tp654
g30
tp655
Rp656
(I1
(I2
tp657
g36
I00
S'\x96\x00\x00\x00R\x00\x00\x00'
p658
tp659
bsba(i__main__
FrameData
p660
(dp661
g6
g353
sg8
g9
(g13
S'~\xc4#,B\xf9"@'
p662
tp663
Rp664
sg19
I0
sg20
g21
(S'\x07\xdd\t\x1d\x13\n!\x0c\x12\xb7'
p665
tp666
Rp667
sg25
I0
sg26
g27
(g28
(I0
tp668
g30
tp669
Rp670
(I1
(I2
tp671
g36
I00
S'\x95\x00\x00\x00S\x00\x00\x00'
p672
tp673
bsba(i__main__
FrameData
p674
(dp675
g6
g353
sg8
g9
(g13
S'7\xf9\xcf\xdao\xe1$@'
p676
tp677
Rp678
sg19
I0
sg20
g21
(S'\x07\xdd\t\x1d\x13\n!\x0cR\xf9'
p679
tp680
Rp681
sg25
I0
sg26
g27
(g28
(I0
tp682
g30
tp683
Rp684
(I1
(I2
tp685
g36
I00
S'\x95\x00\x00\x00T\x00\x00\x00'
p686
tp687
bsba(i__main__
FrameData
p688
(dp689
g6
g353
sg8
g9
(g13
S'\x8a\xe3\x07\x1a\x17\xbd(@'
p690
tp691
Rp692
sg19
I0
sg20
g21
(S'\x07\xdd\t\x1d\x13\n!\x0c\xd7b'
p693
tp694
Rp695
sg25
I0
sg26
g27
(g28
(I0
tp696
g30
tp697
Rp698
(I1
(I2
tp699
g36
I00
S'\x95\x00\x00\x00V\x00\x00\x00'
p700
tp701
bsba(i__main__
FrameData
p702
(dp703
g6
g353
sg8
g9
(g13
S'8H\x9b\x97\xee\xae*@'
p704
tp705
Rp706
sg19
I0
sg20
g21
(S'\x07\xdd\t\x1d\x13\n!\r%Q'
p707
tp708
Rp709
sg25
I0
sg26
g27
(g28
(I0
tp710
g30
tp711
Rp712
(I1
(I2
tp713
g36
I00
S'\x95\x00\x00\x00W\x00\x00\x00'
p714
tp715
bsba(i__main__
FrameData
p716
(dp717
g6
g353
sg8
g9
(g13
S'\xf7\x80Aq\xb9\xa2,@'
p718
tp719
Rp720
sg19
I0
sg20
g21
(S'\x07\xdd\t\x1d\x13\n!\rJ\xfe'
p721
tp722
Rp723
sg25
I0
sg26
g27
(g28
(I0
tp724
g30
tp725
Rp726
(I1
(I2
tp727
g36
I00
S'\x95\x00\x00\x00X\x00\x00\x00'
p728
tp729
bsba(i__main__
FrameData
p730
(dp731
g6
g353
sg8
g9
(g13
S'\xb3\xa73\xa0`\x0c/@'
p732
tp733
Rp734
sg19
I0
sg20
g21
(S'\x07\xdd\t\x1d\x13\n!\r\x90A'
p735
tp736
Rp737
sg25
I0
sg26
g27
(g28
(I0
tp738
g30
tp739
Rp740
(I1
(I2
tp741
g36
I00
S'\x94\x00\x00\x00Y\x00\x00\x00'
p742
tp743
bsba(i__main__
FrameData
p744
(dp745
g6
g353
sg8
g9
(g13
S'\xa8y\x0c\t\xd9v1@'
p746
tp747
Rp748
sg19
I0
sg20
g21
(S'\x07\xdd\t\x1d\x13\n!\r\xe9?'
p749
tp750
Rp751
sg25
I0
sg26
g27
(g28
(I0
tp752
g30
tp753
Rp754
(I1
(I2
tp755
g36
I00
S'\x94\x00\x00\x00[\x00\x00\x00'
p756
tp757
bsba(i__main__
FrameData
p758
(dp759
g6
g353
sg8
g9
(g13
S'\x9a.\x90!hp2@'
p760
tp761
Rp762
sg19
I0
sg20
g21
(S'\x07\xdd\t\x1d\x13\n!\x0e\x04\x12'
p763
tp764
Rp765
sg25
I0
sg26
g27
(g28
(I0
tp766
g30
tp767
Rp768
(I1
(I2
tp769
g36
I00
S'\x94\x00\x00\x00\\\x00\x00\x00'
p770
tp771
bsba(i__main__
FrameData
p772
(dp773
g6
g353
sg8
g9
(g13
S'/vo\xf2\x9ej3@'
p774
tp775
Rp776
sg19
I0
sg20
g21
(S'\x07\xdd\t\x1d\x13\n!\x0eE\xd5'
p777
tp778
Rp779
sg25
I0
sg26
g27
(g28
(I0
tp780
g30
tp781
Rp782
(I1
(I2
tp783
g36
I00
S'\x94\x00\x00\x00]\x00\x00\x00'
p784
tp785
bsba(i__main__
FrameData
p786
(dp787
g6
S'h'
p788
sg8
g9
(g13
S'/vo\xf2\x9ej3@'
p789
tp790
Rp791
sg19
I0
sg20
g21
(S'\x07\xdd\t\x1d\x13\n!\x0e\x9a '
p792
tp793
Rp794
sg25
I0
sg26
g27
(g28
(I0
tp795
g30
tp796
Rp797
(I1
(I2
tp798
g36
I00
S'\x94\x00\x00\x00_\x00\x00\x00'
p799
tp800
bsba(i__main__
FrameData
p801
(dp802
g6
g788
sg8
g9
(g13
S'\x9a.\x90!hp2@'
p803
tp804
Rp805
sg19
I0
sg20
g21
(S'\x07\xdd\t\x1d\x13\n!\x0e\xd2\xea'
p806
tp807
Rp808
sg25
I0
sg26
g27
(g28
(I0
tp809
g30
tp810
Rp811
(I1
(I2
tp812
g36
I00
S'\x94\x00\x00\x00`\x00\x00\x00'
p813
tp814
bsba(i__main__
FrameData
p815
(dp816
g6
g788
sg8
g9
(g13
S'\xa8y\x0c\t\xd9v1@'
p817
tp818
Rp819
sg19
I0
sg20
g21
(S'\x07\xdd\t\x1d\x13\n!\x0f \n'
p820
tp821
Rp822
sg25
I0
sg26
g27
(g28
(I0
tp823
g30
tp824
Rp825
(I1
(I2
tp826
g36
I00
S'\x94\x00\x00\x00a\x00\x00\x00'
p827
tp828
bsba(i__main__
FrameData
p829
(dp830
g6
g788
sg8
g9
(g13
S'\xb3\xa73\xa0`\x0c/@'
p831
tp832
Rp833
sg19
I0
sg20
g21
(S'\x07\xdd\t\x1d\x13\n"\x00\x07{'
p834
tp835
Rp836
sg25
I0
sg26
g27
(g28
(I0
tp837
g30
tp838
Rp839
(I1
(I2
tp840
g36
I00
S'\x94\x00\x00\x00c\x00\x00\x00'
p841
tp842
bsba(i__main__
FrameData
p843
(dp844
g6
g788
sg8
g9
(g13
S'\xef\rI\xf1\xf33+@'
p845
tp846
Rp847
sg19
I0
sg20
g21
(S'\x07\xdd\t\x1d\x13\n"\x00R\xcb'
p848
tp849
Rp850
sg25
I0
sg26
g27
(g28
(I0
tp851
g30
tp852
Rp853
(I1
(I2
tp854
g36
I00
S'\x94\x00\x00\x00e\x00\x00\x00'
p855
tp856
bsba(i__main__
FrameData
p857
(dp858
g6
g788
sg8
g9
(g13
S"\xe0\x11<m\xceh'@"
p859
tp860
Rp861
sg19
I0
sg20
g21
(S'\x07\xdd\t\x1d\x13\n"\x00\xa2/'
p862
tp863
Rp864
sg25
I0
sg26
g27
(g28
(I0
tp865
g30
tp866
Rp867
(I1
(I2
tp868
g36
I00
S'\x94\x00\x00\x00g\x00\x00\x00'
p869
tp870
bsba(i__main__
FrameData
p871
(dp872
g6
g788
sg8
g9
(g13
S'\xa8\xf4\x97\x9bw\xe3!@'
p873
tp874
Rp875
sg19
I0
sg20
g21
(S'\x07\xdd\t\x1d\x13\n"\x00\xd88'
p876
tp877
Rp878
sg25
I0
sg26
g27
(g28
(I0
tp879
g30
tp880
Rp881
(I1
(I2
tp882
g36
I00
S'\x94\x00\x00\x00j\x00\x00\x00'
p883
tp884
bsba(i__main__
FrameData
p885
(dp886
g6
g788
sg8
g9
(g13
S'\xcd;\x7ff\x9e\xa0\x16@'
p887
tp888
Rp889
sg19
I0
sg20
g21
(S'\x07\xdd\t\x1d\x13\n"\x01\x0c\xbc'
p890
tp891
Rp892
sg25
I0
sg26
g27
(g28
(I0
tp893
g30
tp894
Rp895
(I1
(I2
tp896
g36
I00
S'\x94\x00\x00\x00n\x00\x00\x00'
p897
tp898
bsba(i__main__
FrameData
p899
(dp900
g6
g788
sg8
g9
(g13
S'\xf3\xd9\xa8\xa4h\x8a\x15@'
p901
tp902
Rp903
sg19
I0
sg20
g21
(S'\x07\xdd\t\x1d\x13\n"\x01L\xce'
p904
tp905
Rp906
sg25
I0
sg26
g27
(g28
(I0
tp907
g30
tp908
Rp909
(I1
(I2
tp910
g36
I00
S'\x95\x00\x00\x00t\x00\x00\x00'
p911
tp912
bsba(i__main__
FrameData
p913
(dp914
g6
g788
sg8
g9
(g13
S'?*\x98"\xe3l,@'
p915
tp916
Rp917
sg19
I0
sg20
g21
(S'\x07\xdd\t\x1d\x13\n"\x01\xb46'
p918
tp919
Rp920
sg25
I0
sg26
g27
(g28
(I0
tp921
g30
tp922
Rp923
(I1
(I2
tp924
g36
I00
S'\x99\x00\x00\x00}\x00\x00\x00'
p925
tp926
bsba(i__main__
FrameData
p927
(dp928
g6
g788
sg8
g9
(g13
S'u\xa6<oS\x185@'
p929
tp930
Rp931
sg19
I0
sg20
g21
(S'\x07\xdd\t\x1d\x13\n"\x01\xda\xb0'
p932
tp933
Rp934
sg25
I0
sg26
g27
(g28
(I0
tp935
g30
tp936
Rp937
(I1
(I2
tp938
g36
I00
S'\x9b\x00\x00\x00\x84\x00\x00\x00'
p939
tp940
bsba(i__main__
FrameData
p941
(dp942
g6
S'n'
p943
sg8
g9
(g13
S'\xf2G\x9b\x0e\x18\x98.@'
p944
tp945
Rp946
sg19
I0
sg20
g21
(S'\x07\xdd\t\x1d\x13\n"\x02\x11\x93'
p947
tp948
Rp949
sg25
I0
sg26
g27
(g28
(I0
tp950
g30
tp951
Rp952
(I1
(I2
tp953
g36
I00
S'\x9d\x00\x00\x00\x8a\x00\x00\x00'
p954
tp955
bsba(i__main__
FrameData
p956
(dp957
g6
g943
sg8
g9
(g13
S'\xde4\xda\xfeNN*@'
p958
tp959
Rp960
sg19
I0
sg20
g21
(S'\x07\xdd\t\x1d\x13\n"\x02w)'
p961
tp962
Rp963
sg25
I0
sg26
g27
(g28
(I0
tp964
g30
tp965
Rp966
(I1
(I2
tp967
g36
I00
S'\x9e\x00\x00\x00\x8c\x00\x00\x00'
p968
tp969
bsba(i__main__
FrameData
p970
(dp971
g6
g943
sg8
g9
(g13
S'\xd2\xf1}\x82U\\&@'
p972
tp973
Rp974
sg19
I0
sg20
g21
(S'\x07\xdd\t\x1d\x13\n"\x02\x9e\xa3'
p975
tp976
Rp977
sg25
I0
sg26
g27
(g28
(I0
tp978
g30
tp979
Rp980
(I1
(I2
tp981
g36
I00
S'\x9e\x00\x00\x00\x8e\x00\x00\x00'
p982
tp983
bsba(i__main__
FrameData
p984
(dp985
g6
g943
sg8
g9
(g13
S'\xf6/\x12_ee$@'
p986
tp987
Rp988
sg19
I0
sg20
g21
(S'\x07\xdd\t\x1d\x13\n"\x02\xd5\xe7'
p989
tp990
Rp991
sg25
I0
sg26
g27
(g28
(I0
tp992
g30
tp993
Rp994
(I1
(I2
tp995
g36
I00
S'\x9e\x00\x00\x00\x8f\x00\x00\x00'
p996
tp997
bsba(i__main__
FrameData
p998
(dp999
g6
g943
sg8
g9
(g13
S'\xf0)#L\x89\x19$@'
p1000
tp1001
Rp1002
sg19
I0
sg20
g21
(S'\x07\xdd\t\x1d\x13\n"\x03:\x0b'
p1003
tp1004
Rp1005
sg25
I0
sg26
g27
(g28
(I0
tp1006
g30
tp1007
Rp1008
(I1
(I2
tp1009
g36
I00
S'\x9f\x00\x00\x00\x8f\x00\x00\x00'
p1010
tp1011
bsba(i__main__
FrameData
p1012
(dp1013
g6
g943
sg8
g9
(g13
S'$\xf8\xd9p[\x1c"@'
p1014
tp1015
Rp1016
sg19
I0
sg20
g21
(S'\x07\xdd\t\x1d\x13\n"\x03_\xf3'
p1017
tp1018
Rp1019
sg25
I0
sg26
g27
(g28
(I0
tp1020
g30
tp1021
Rp1022
(I1
(I2
tp1023
g36
I00
S'\x9f\x00\x00\x00\x90\x00\x00\x00'
p1024
tp1025
bsba(i__main__
FrameData
p1026
(dp1027
g6
g943
sg8
g9
(g13
S'\xc0\n\x1f\x00\xc6H\x1c@'
p1028
tp1029
Rp1030
sg19
I0
sg20
g21
(S'\x07\xdd\t\x1d\x13\n"\x03\x99T'
p1031
tp1032
Rp1033
sg25
I0
sg26
g27
(g28
(I0
tp1034
g30
tp1035
Rp1036
(I1
(I2
tp1037
g36
I00
S'\xa1\x00\x00\x00\x92\x00\x00\x00'
p1038
tp1039
bsba(i__main__
FrameData
p1040
(dp1041
g6
g943
sg8
g9
(g13
S'\xf6/\x12_ee\x14@'
p1042
tp1043
Rp1044
sg19
I0
sg20
g21
(S'\x07\xdd\t\x1d\x13\n"\x03\xf4:'
p1045
tp1046
Rp1047
sg25
I0
sg26
g27
(g28
(I0
tp1048
g30
tp1049
Rp1050
(I1
(I2
tp1051
g36
I00
S'\xa1\x00\x00\x00\x94\x00\x00\x00'
p1052
tp1053
bsba(i__main__
FrameData
p1054
(dp1055
g6
g943
sg8
g9
(g13
S'\x07\xed\xaff\x0f~\x10@'
p1056
tp1057
Rp1058
sg19
I0
sg20
g21
(S'\x07\xdd\t\x1d\x13\n"\x04\x1c,'
p1059
tp1060
Rp1061
sg25
I0
sg26
g27
(g28
(I0
tp1062
g30
tp1063
Rp1064
(I1
(I2
tp1065
g36
I00
S'\xa1\x00\x00\x00\x95\x00\x00\x00'
p1066
tp1067
bsba(i__main__
FrameData
p1068
(dp1069
g6
g943
sg8
g9
(g13
S'S[\xda:XL\t@'
p1070
tp1071
Rp1072
sg19
I0
sg20
g21
(S'\x07\xdd\t\x1d\x13\n"\x04qn'
p1073
tp1074
Rp1075
sg25
I0
sg26
g27
(g28
(I0
tp1076
g30
tp1077
Rp1078
(I1
(I2
tp1079
g36
I00
S'\xa1\x00\x00\x00\x96\x00\x00\x00'
p1080
tp1081
bsba(i__main__
FrameData
p1082
(dp1083
g6
g943
sg8
g9
(g13
S'\xf3YaD+\xd8\x0c@'
p1084
tp1085
Rp1086
sg19
I0
sg20
g21
(S'\x07\xdd\t\x1d\x13\n"\x04\x9d\xdc'
p1087
tp1088
Rp1089
sg25
I0
sg26
g27
(g28
(I0
tp1090
g30
tp1091
Rp1092
(I1
(I2
tp1093
g36
I00
S'\xa2\x00\x00\x00\x96\x00\x00\x00'
p1094
tp1095
bsba(i__main__
FrameData
p1096
(dp1097
g6
g943
sg8
g9
(g13
S'\xa8\xf4\x97\x9bw\xe3\x01@'
p1098
tp1099
Rp1100
sg19
I0
sg20
g21
(S'\x07\xdd\t\x1d\x13\n"\x04\xdf\xe7'
p1101
tp1102
Rp1103
sg25
I0
sg26
g27
(g28
(I0
tp1104
g30
tp1105
Rp1106
(I1
(I2
tp1107
g36
I00
S'\xa2\x00\x00\x00\x98\x00\x00\x00'
p1108
tp1109
bsba(i__main__
FrameData
p1110
(dp1111
g6
g943
sg8
g9
(g13
S'\xa8\xf4\x97\x9bw\xe3\x01@'
p1112
tp1113
Rp1114
sg19
I0
sg20
g21
(S'\x07\xdd\t\x1d\x13\n"\x05a\x89'
p1115
tp1116
Rp1117
sg25
I0
sg26
g27
(g28
(I0
tp1118
g30
tp1119
Rp1120
(I1
(I2
tp1121
g36
I00
S'\xa2\x00\x00\x00\x9a\x00\x00\x00'
p1122
tp1123
bsba(i__main__
FrameData
p1124
(dp1125
g6
g943
sg8
g9
(g13
S'\xcd;\x7ff\x9e\xa0\x06@'
p1126
tp1127
Rp1128
sg19
I0
sg20
g21
(S'\x07\xdd\t\x1d\x13\n"\x05\xa2V'
p1129
tp1130
Rp1131
sg25
I0
sg26
g27
(g28
(I0
tp1132
g30
tp1133
Rp1134
(I1
(I2
tp1135
g36
I00
S'\xa2\x00\x00\x00\x9b\x00\x00\x00'
p1136
tp1137
bsba(i__main__
FrameData
p1138
(dp1139
g6
g943
sg8
g9
(g13
S'\xa8\xf4\x97\x9bw\xe3\x01@'
p1140
tp1141
Rp1142
sg19
I0
sg20
g21
(S'\x07\xdd\t\x1d\x13\n"\t3\xfa'
p1143
tp1144
Rp1145
sg25
I0
sg26
g27
(g28
(I0
tp1146
g30
tp1147
Rp1148
(I1
(I2
tp1149
g36
I00
S'\xa1\x00\x00\x00\x9b\x00\x00\x00'
p1150
tp1151
bsba(i__main__
FrameData
p1152
(dp1153
g6
g943
sg8
g9
(g13
S'\x00\x00\x00\x00\x00\x00\x00@'
p1154
tp1155
Rp1156
sg19
I0
sg20
g21
(S'\x07\xdd\t\x1d\x13\n"\t\x9a\xbb'
p1157
tp1158
Rp1159
sg25
I0
sg26
g27
(g28
(I0
tp1160
g30
tp1161
Rp1162
(I1
(I2
tp1163
g36
I00
S'\xa0\x00\x00\x00\x9b\x00\x00\x00'
p1164
tp1165
bsba(i__main__
FrameData
p1166
(dp1167
g6
g943
sg8
g9
(g13
S'\x00\x00\x00\x00\x00\x00\xf0?'
p1168
tp1169
Rp1170
sg19
I0
sg20
g21
(S'\x07\xdd\t\x1d\x13\n"\t\xc0\xb4'
p1171
tp1172
Rp1173
sg25
I0
sg26
g27
(g28
(I0
tp1174
g30
tp1175
Rp1176
(I1
(I2
tp1177
g36
I00
S'\xa0\x00\x00\x00\x9a\x00\x00\x00'
p1178
tp1179
bsba(i__main__
FrameData
p1180
(dp1181
g6
g943
sg8
g9
(g13
S'\xcd;\x7ff\x9e\xa0\xf6?'
p1182
tp1183
Rp1184
sg19
I0
sg20
g21
(S'\x07\xdd\t\x1d\x13\n"\n\x0e\xd9'
p1185
tp1186
Rp1187
sg25
I0
sg26
g27
(g28
(I0
tp1188
g30
tp1189
Rp1190
(I1
(I2
tp1191
g36
I00
S'\x9f\x00\x00\x00\x9a\x00\x00\x00'
p1192
tp1193
bsba(i__main__
FrameData
p1194
(dp1195
g6
g943
sg8
g9
(g13
S'\x00\x00\x00\x00\x00\x00\xf0?'
p1196
tp1197
Rp1198
sg19
I0
sg20
g21
(S'\x07\xdd\t\x1d\x13\n"\nT\xd0'
p1199
tp1200
Rp1201
sg25
I0
sg26
g27
(g28
(I0
tp1202
g30
tp1203
Rp1204
(I1
(I2
tp1205
g36
I00
S'\x9f\x00\x00\x00\x99\x00\x00\x00'
p1206
tp1207
bsba(i__main__
FrameData
p1208
(dp1209
g6
g943
sg8
g9
(g13
S'\x00\x00\x00\x00\x00\x00\x08@'
p1210
tp1211
Rp1212
sg19
I0
sg20
g21
(S'\x07\xdd\t\x1d\x13\n"\n{\xec'
p1213
tp1214
Rp1215
sg25
I0
sg26
g27
(g28
(I0
tp1216
g30
tp1217
Rp1218
(I1
(I2
tp1219
g36
I00
S'\x9d\x00\x00\x00\x99\x00\x00\x00'
p1220
tp1221
bsba(i__main__
FrameData
p1222
(dp1223
g6
g943
sg8
g9
(g13
S'\xf3YaD+\xd8\x0c@'
p1224
tp1225
Rp1226
sg19
I0
sg20
g21
(S'\x07\xdd\t\x1d\x13\n"\x0b ]'
p1227
tp1228
Rp1229
sg25
I0
sg26
g27
(g28
(I0
tp1230
g30
tp1231
Rp1232
(I1
(I2
tp1233
g36
I00
S'\x9d\x00\x00\x00\x97\x00\x00\x00'
p1234
tp1235
bsba(i__main__
FrameData
p1236
(dp1237
g6
g943
sg8
g9
(g13
S'\x00\x00\x00\x00\x00\x00\x14@'
p1238
tp1239
Rp1240
sg19
I0
sg20
g21
(S'\x07\xdd\t\x1d\x13\n"\x0bHy'
p1241
tp1242
Rp1243
sg25
I0
sg26
g27
(g28
(I0
tp1244
g30
tp1245
Rp1246
(I1
(I2
tp1247
g36
I00
S'\x9c\x00\x00\x00\x96\x00\x00\x00'
p1248
tp1249
bsba(i__main__
FrameData
p1250
(dp1251
g6
g943
sg8
g9
(g13
S'\xcd;\x7ff\x9e\xa0\x16@'
p1252
tp1253
Rp1254
sg19
I0
sg20
g21
(S'\x07\xdd\t\x1d\x13\n"\x0b\x7fH'
p1255
tp1256
Rp1257
sg25
I0
sg26
g27
(g28
(I0
tp1258
g30
tp1259
Rp1260
(I1
(I2
tp1261
g36
I00
S'\x9c\x00\x00\x00\x95\x00\x00\x00'
p1262
tp1263
bsba(i__main__
FrameData
p1264
(dp1265
g6
g943
sg8
g9
(g13
S'\x00\xff\x9f\x99\xcc\x9c\x19@'
p1266
tp1267
Rp1268
sg19
I0
sg20
g21
(S'\x07\xdd\t\x1d\x13\n"\x0b\xe4\xb8'
p1269
tp1270
Rp1271
sg25
I0
sg26
g27
(g28
(I0
tp1272
g30
tp1273
Rp1274
(I1
(I2
tp1275
g36
I00
S'\x9c\x00\x00\x00\x94\x00\x00\x00'
p1276
tp1277
bsba(i__main__
FrameData
p1278
(dp1279
g6
g943
sg8
g9
(g13
S'\xd0\xbaa?\xe0\x1f @'
p1280
tp1281
Rp1282
sg19
I0
sg20
g21
(S'\x07\xdd\t\x1d\x13\n"\x0c\n\xbb'
p1283
tp1284
Rp1285
sg25
I0
sg26
g27
(g28
(I0
tp1286
g30
tp1287
Rp1288
(I1
(I2
tp1289
g36
I00
S'\x9c\x00\x00\x00\x92\x00\x00\x00'
p1290
tp1291
bsba(i__main__
FrameData
p1292
(dp1293
g6
g943
sg8
g9
(g13
S'\xa8\xf4\x97\x9bw\xe3!@'
p1294
tp1295
Rp1296
sg19
I0
sg20
g21
(S'\x07\xdd\t\x1d\x13\n"\x0cZ\x13'
p1297
tp1298
Rp1299
sg25
I0
sg26
g27
(g28
(I0
tp1300
g30
tp1301
Rp1302
(I1
(I2
tp1303
g36
I00
S'\x9c\x00\x00\x00\x91\x00\x00\x00'
p1304
tp1305
bsba(i__main__
FrameData
p1306
(dp1307
g6
g943
sg8
g9
(g13
S'bVc}\x9d\xb2#@'
p1308
tp1309
Rp1310
sg19
I0
sg20
g21
(S'\x07\xdd\t\x1d\x13\n"\x0c\xa84'
p1311
tp1312
Rp1313
sg25
I0
sg26
g27
(g28
(I0
tp1314
g30
tp1315
Rp1316
(I1
(I2
tp1317
g36
I00
S'\x9c\x00\x00\x00\x90\x00\x00\x00'
p1318
tp1319
bsba(i__main__
FrameData
p1320
(dp1321
g6
g943
sg8
g9
(g13
S'\xf3\xd9\xa8\xa4h\x8a%@'
p1322
tp1323
Rp1324
sg19
I0
sg20
g21
(S'\x07\xdd\t\x1d\x13\n"\x0c\xce\x00'
p1325
tp1326
Rp1327
sg25
I0
sg26
g27
(g28
(I0
tp1328
g30
tp1329
Rp1330
(I1
(I2
tp1331
g36
I00
S'\x9c\x00\x00\x00\x8f\x00\x00\x00'
p1332
tp1333
bsba(i__main__
FrameData
p1334
(dp1335
g6
g943
sg8
g9
(g13
S"\xe0\x11<m\xceh'@"
p1336
tp1337
Rp1338
sg19
I0
sg20
g21
(S'\x07\xdd\t\x1d\x13\n"\r\x07\x0f'
p1339
tp1340
Rp1341
sg25
I0
sg26
g27
(g28
(I0
tp1342
g30
tp1343
Rp1344
(I1
(I2
tp1345
g36
I00
S'\x9c\x00\x00\x00\x8e\x00\x00\x00'
p1346
tp1347
bsba(i__main__
FrameData
p1348
(dp1349
g6
g943
sg8
g9
(g13
S'\x8a\xe3\x07\x1a\x17\xbd(@'
p1350
tp1351
Rp1352
sg19
I0
sg20
g21
(S'\x07\xdd\t\x1d\x13\n"\rjB'
p1353
tp1354
Rp1355
sg25
I0
sg26
g27
(g28
(I0
tp1356
g30
tp1357
Rp1358
(I1
(I2
tp1359
g36
I00
S'\x9d\x00\x00\x00\x8d\x00\x00\x00'
p1360
tp1361
bsba(i__main__
FrameData
p1362
(dp1363
g6
g943
sg8
g9
(g13
S'\xde4\xda\xfeNN*@'
p1364
tp1365
Rp1366
sg19
I0
sg20
g21
(S'\x07\xdd\t\x1d\x13\n"\r\xca\xb3'
p1367
tp1368
Rp1369
sg25
I0
sg26
g27
(g28
(I0
tp1370
g30
tp1371
Rp1372
(I1
(I2
tp1373
g36
I00
S'\x9e\x00\x00\x00\x8c\x00\x00\x00'
p1374
tp1375
bsba(i__main__
FrameData
p1376
(dp1377
g6
g943
sg8
g9
(g13
S'Qf\x99\xcb\xa9\x13*@'
p1378
tp1379
Rp1380
sg19
I0
sg20
g21
(S'\x07\xdd\t\x1d\x13\n"\x0eL\xab'
p1381
tp1382
Rp1383
sg25
I0
sg26
g27
(g28
(I0
tp1384
g30
tp1385
Rp1386
(I1
(I2
tp1387
g36
I00
S'\x9f\x00\x00\x00\x8c\x00\x00\x00'
p1388
tp1389
bsba(i__main__
FrameData
p1390
(dp1391
g6
g943
sg8
g9
(g13
S'\x00\x00\x00\x00\x00\x00*@'
p1392
tp1393
Rp1394
sg19
I0
sg20
g21
(S'\x07\xdd\t\x1d\x13\n"\x0f\x1c"'
p1395
tp1396
Rp1397
sg25
I0
sg26
g27
(g28
(I0
tp1398
g30
tp1399
Rp1400
(I1
(I2
tp1401
g36
I00
S'\xa0\x00\x00\x00\x8c\x00\x00\x00'
p1402
tp1403
bsba(i__main__
FrameData
p1404
(dp1405
g6
g943
sg8
g9
(g13
S'Qf\x99\xcb\xa9\x13*@'
p1406
tp1407
Rp1408
sg19
I0
sg20
g21
(S'\x07\xdd\t\x1d\x13\n#\x00\x11\x18'
p1409
tp1410
Rp1411
sg25
I0
sg26
g27
(g28
(I0
tp1412
g30
tp1413
Rp1414
(I1
(I2
tp1415
g36
I00
S'\xa1\x00\x00\x00\x8c\x00\x00\x00'
p1416
tp1417
bsba(i__main__
FrameData
p1418
(dp1419
g6
g943
sg8
g9
(g13
S'&5w\xe2K\x15(@'
p1420
tp1421
Rp1422
sg19
I0
sg20
g21
(S'\x07\xdd\t\x1d\x13\n#\x00\xd3\xe4'
p1423
tp1424
Rp1425
sg25
I0
sg26
g27
(g28
(I0
tp1426
g30
tp1427
Rp1428
(I1
(I2
tp1429
g36
I00
S'\xa1\x00\x00\x00\x8d\x00\x00\x00'
p1430
tp1431
bsba(i__main__
FrameData
p1432
(dp1433
g6
g943
sg8
g9
(g13
S'H\xaa*\x8f9\x17&@'
p1434
tp1435
Rp1436
sg19
I0
sg20
g21
(S'\x07\xdd\t\x1d\x13\n#\x01+Z'
p1437
tp1438
Rp1439
sg25
I0
sg26
g27
(g28
(I0
tp1440
g30
tp1441
Rp1442
(I1
(I2
tp1443
g36
I00
S'\xa1\x00\x00\x00\x8e\x00\x00\x00'
p1444
tp1445
bsba(i__main__
FrameData
p1446
(dp1447
g6
g943
sg8
g9
(g13
S'\xf0)#L\x89\x19$@'
p1448
tp1449
Rp1450
sg19
I0
sg20
g21
(S'\x07\xdd\t\x1d\x13\n#\x01p['
p1451
tp1452
Rp1453
sg25
I0
sg26
g27
(g28
(I0
tp1454
g30
tp1455
Rp1456
(I1
(I2
tp1457
g36
I00
S'\xa1\x00\x00\x00\x8f\x00\x00\x00'
p1458
tp1459
bsba(i__main__
FrameData
p1460
(dp1461
g6
g943
sg8
g9
(g13
S'$\xf8\xd9p[\x1c"@'
p1462
tp1463
Rp1464
sg19
I0
sg20
g21
(S'\x07\xdd\t\x1d\x13\n#\x01\x97\x92'
p1465
tp1466
Rp1467
sg25
I0
sg26
g27
(g28
(I0
tp1468
g30
tp1469
Rp1470
(I1
(I2
tp1471
g36
I00
S'\xa1\x00\x00\x00\x90\x00\x00\x00'
p1472
tp1473
bsba(i__main__
FrameData
p1474
(dp1475
g6
g943
sg8
g9
(g13
S'\xc0\n\x1f\x00\xc6H\x1c@'
p1476
tp1477
Rp1478
sg19
I0
sg20
g21
(S'\x07\xdd\t\x1d\x13\n#\x01\xd8\x87'
p1479
tp1480
Rp1481
sg25
I0
sg26
g27
(g28
(I0
tp1482
g30
tp1483
Rp1484
(I1
(I2
tp1485
g36
I00
S'\xa1\x00\x00\x00\x92\x00\x00\x00'
p1486
tp1487
bsba(i__main__
FrameData
p1488
(dp1489
g6
g943
sg8
g9
(g13
S'9\xdcc\xb3\xbfT\x18@'
p1490
tp1491
Rp1492
sg19
I0
sg20
g21
(S'\x07\xdd\t\x1d\x13\n#\x02(k'
p1493
tp1494
Rp1495
sg25
I0
sg26
g27
(g28
(I0
tp1496
g30
tp1497
Rp1498
(I1
(I2
tp1499
g36
I00
S'\xa1\x00\x00\x00\x93\x00\x00\x00'
p1500
tp1501
bsba(i__main__
FrameData
p1502
(dp1503
g6
g943
sg8
g9
(g13
S'\xf6/\x12_ee\x14@'
p1504
tp1505
Rp1506
sg19
I0
sg20
g21
(S'\x07\xdd\t\x1d\x13\n#\x02d\x1c'
p1507
tp1508
Rp1509
sg25
I0
sg26
g27
(g28
(I0
tp1510
g30
tp1511
Rp1512
(I1
(I2
tp1513
g36
I00
S'\xa1\x00\x00\x00\x94\x00\x00\x00'
p1514
tp1515
bsba(i__main__
FrameData
p1516
(dp1517
g6
g943
sg8
g9
(g13
S'S[\xda:XL\t@'
p1518
tp1519
Rp1520
sg19
I0
sg20
g21
(S'\x07\xdd\t\x1d\x13\n#\x02\xad\x9f'
p1521
tp1522
Rp1523
sg25
I0
sg26
g27
(g28
(I0
tp1524
g30
tp1525
Rp1526
(I1
(I2
tp1527
g36
I00
S'\xa1\x00\x00\x00\x96\x00\x00\x00'
p1528
tp1529
bsba(i__main__
FrameData
p1530
(dp1531
g6
g943
sg8
g9
(g13
S'\xa8\xf4\x97\x9bw\xe3\x01@'
p1532
tp1533
Rp1534
sg19
I0
sg20
g21
(S'\x07\xdd\t\x1d\x13\n#\x02\xdc\xfe'
p1535
tp1536
Rp1537
sg25
I0
sg26
g27
(g28
(I0
tp1538
g30
tp1539
Rp1540
(I1
(I2
tp1541
g36
I00
S'\xa1\x00\x00\x00\x97\x00\x00\x00'
p1542
tp1543
bsba(i__main__
FrameData
p1544
(dp1545
g6
g943
sg8
g9
(g13
S'\xcd;\x7ff\x9e\xa0\xf6?'
p1546
tp1547
Rp1548
sg19
I0
sg20
g21
(S'\x07\xdd\t\x1d\x13\n#\x03v\\'
p1549
tp1550
Rp1551
sg25
I0
sg26
g27
(g28
(I0
tp1552
g30
tp1553
Rp1554
(I1
(I2
tp1555
g36
I00
S'\xa1\x00\x00\x00\x98\x00\x00\x00'
p1556
tp1557
bsba(i__main__
FrameData
p1558
(dp1559
g6
g943
sg8
g9
(g13
S'\x00\x00\x00\x00\x00\x00\xf0?'
p1560
tp1561
Rp1562
sg19
I0
sg20
g21
(S'\x07\xdd\t\x1d\x13\n#\x03\xc0\xc9'
p1563
tp1564
Rp1565
sg25
I0
sg26
g27
(g28
(I0
tp1566
g30
tp1567
Rp1568
(I1
(I2
tp1569
g36
I00
S'\xa0\x00\x00\x00\x98\x00\x00\x00'
p1570
tp1571
bsba(i__main__
FrameData
p1572
(dp1573
g6
g943
sg8
g9
(g13
S'\x00\x00\x00\x00\x00\x00\x00\x00'
p1574
tp1575
Rp1576
sg19
I0
sg20
g21
(S'\x07\xdd\t\x1d\x13\n#\x03\xe2\xab'
p1577
tp1578
Rp1579
sg25
I0
sg26
g27
(g28
(I0
tp1580
g30
tp1581
Rp1582
(I1
(I2
tp1583
g36
I00
S'\xa0\x00\x00\x00\x99\x00\x00\x00'
p1584
tp1585
bsba(i__main__
FrameData
p1586
(dp1587
g6
g943
sg8
g9
(g13
S'\x00\x00\x00\x00\x00\x00\xf0?'
p1588
tp1589
Rp1590
sg19
I0
sg20
g21
(S'\x07\xdd\t\x1d\x13\n#\x04\x88\xb1'
p1591
tp1592
Rp1593
sg25
I0
sg26
g27
(g28
(I0
tp1594
g30
tp1595
Rp1596
(I1
(I2
tp1597
g36
I00
S'\x9f\x00\x00\x00\x99\x00\x00\x00'
p1598
tp1599
bsba(i__main__
FrameData
p1600
(dp1601
g6
g943
sg8
g9
(g13
S'\x00\x00\x00\x00\x00\x00\x00@'
p1602
tp1603
Rp1604
sg19
I0
sg20
g21
(S'\x07\xdd\t\x1d\x13\n#\x04\xe7*'
p1605
tp1606
Rp1607
sg25
I0
sg26
g27
(g28
(I0
tp1608
g30
tp1609
Rp1610
(I1
(I2
tp1611
g36
I00
S'\x9e\x00\x00\x00\x99\x00\x00\x00'
p1612
tp1613
bsba(i__main__
FrameData
p1614
(dp1615
g6
g943
sg8
g9
(g13
S'\xa8\xf4\x97\x9bw\xe3\x01@'
p1616
tp1617
Rp1618
sg19
I0
sg20
g21
(S'\x07\xdd\t\x1d\x13\n#\x06-q'
p1619
tp1620
Rp1621
sg25
I0
sg26
g27
(g28
(I0
tp1622
g30
tp1623
Rp1624
(I1
(I2
tp1625
g36
I00
S'\x9e\x00\x00\x00\x98\x00\x00\x00'
p1626
tp1627
bsba(i__main__
FrameData
p1628
(dp1629
g6
g943
sg8
g9
(g13
S'\xf3YaD+\xd8\x0c@'
p1630
tp1631
Rp1632
sg19
I0
sg20
g21
(S'\x07\xdd\t\x1d\x13\n#\x06\x83\xa9'
p1633
tp1634
Rp1635
sg25
I0
sg26
g27
(g28
(I0
tp1636
g30
tp1637
Rp1638
(I1
(I2
tp1639
g36
I00
S'\x9d\x00\x00\x00\x97\x00\x00\x00'
p1640
tp1641
bsba(i__main__
FrameData
p1642
(dp1643
g6
g943
sg8
g9
(g13
S'\xd9l\xdf\xccv\xf8\x10@'
p1644
tp1645
Rp1646
sg19
I0
sg20
g21
(S'\x07\xdd\t\x1d\x13\n#\x06\xd1\xd4'
p1647
tp1648
Rp1649
sg25
I0
sg26
g27
(g28
(I0
tp1650
g30
tp1651
Rp1652
(I1
(I2
tp1653
g36
I00
S'\x9d\x00\x00\x00\x96\x00\x00\x00'
p1654
tp1655
bsba(i__main__
FrameData
p1656
(dp1657
g6
g943
sg8
g9
(g13
S'\x00\x00\x00\x00\x00\x00\x14@'
p1658
tp1659
Rp1660
sg19
I0
sg20
g21
(S'\x07\xdd\t\x1d\x13\n#\x06\xf0\xf9'
p1661
tp1662
Rp1663
sg25
I0
sg26
g27
(g28
(I0
tp1664
g30
tp1665
Rp1666
(I1
(I2
tp1667
g36
I00
S'\x9d\x00\x00\x00\x95\x00\x00\x00'
p1668
tp1669
bsba(i__main__
FrameData
p1670
(dp1671
g6
g943
sg8
g9
(g13
S'\xfc\xeeci3\xd5\x1a@'
p1672
tp1673
Rp1674
sg19
I0
sg20
g21
(S'\x07\xdd\t\x1d\x13\n#\x077\xc9'
p1675
tp1676
Rp1677
sg25
I0
sg26
g27
(g28
(I0
tp1678
g30
tp1679
Rp1680
(I1
(I2
tp1681
g36
I00
S'\x9d\x00\x00\x00\x93\x00\x00\x00'
p1682
tp1683
bsba(i__main__
FrameData
p1684
(dp1685
g6
g943
sg8
g9
(g13
S'p\xc4\x9d9\x8dv\x1e@'
p1686
tp1687
Rp1688
sg19
I0
sg20
g21
(S'\x07\xdd\t\x1d\x13\n#\x07wL'
p1689
tp1690
Rp1691
sg25
I0
sg26
g27
(g28
(I0
tp1692
g30
tp1693
Rp1694
(I1
(I2
tp1695
g36
I00
S'\x9d\x00\x00\x00\x92\x00\x00\x00'
p1696
tp1697
bsba(i__main__
FrameData
p1698
(dp1699
g6
g943
sg8
g9
(g13
S'\xa3\x14\xae\xa8\x87\x16!@'
p1700
tp1701
Rp1702
sg19
I0
sg20
g21
(S'\x07\xdd\t\x1d\x13\n#\x07\xb4\xcf'
p1703
tp1704
Rp1705
sg25
I0
sg26
g27
(g28
(I0
tp1706
g30
tp1707
Rp1708
(I1
(I2
tp1709
g36
I00
S'\x9d\x00\x00\x00\x91\x00\x00\x00'
p1710
tp1711
bsba(i__main__
FrameData
p1712
(dp1713
g6
g943
sg8
g9
(g13
S'~\xc4#,B\xf9"@'
p1714
tp1715
Rp1716
sg19
I0
sg20
g21
(S'\x07\xdd\t\x1d\x13\n#\x07\xf5\xe8'
p1717
tp1718
Rp1719
sg25
I0
sg26
g27
(g28
(I0
tp1720
g30
tp1721
Rp1722
(I1
(I2
tp1723
g36
I00
S'\x9d\x00\x00\x00\x90\x00\x00\x00'
p1724
tp1725
bsba(i__main__
FrameData
p1726
(dp1727
g6
g943
sg8
g9
(g13
S'\xf3\xd9\xa8\xa4h\x8a%@'
p1728
tp1729
Rp1730
sg19
I0
sg20
g21
(S'\x07\xdd\t\x1d\x13\n#\x08R\xb3'
p1731
tp1732
Rp1733
sg25
I0
sg26
g27
(g28
(I0
tp1734
g30
tp1735
Rp1736
(I1
(I2
tp1737
g36
I00
S'\x9c\x00\x00\x00\x8f\x00\x00\x00'
p1738
tp1739
bsba(i__main__
FrameData
p1740
(dp1741
g6
g943
sg8
g9
(g13
S"\xe0\x11<m\xceh'@"
p1742
tp1743
Rp1744
sg19
I0
sg20
g21
(S'\x07\xdd\t\x1d\x13\n#\x08zM'
p1745
tp1746
Rp1747
sg25
I0
sg26
g27
(g28
(I0
tp1748
g30
tp1749
Rp1750
(I1
(I2
tp1751
g36
I00
S'\x9c\x00\x00\x00\x8e\x00\x00\x00'
p1752
tp1753
bsba(i__main__
FrameData
p1754
(dp1755
g6
g943
sg8
g9
(g13
S'S[\xda:XL)@'
p1756
tp1757
Rp1758
sg19
I0
sg20
g21
(S'\x07\xdd\t\x1d\x13\n#\x08\xc8\xe6'
p1759
tp1760
Rp1761
sg25
I0
sg26
g27
(g28
(I0
tp1762
g30
tp1763
Rp1764
(I1
(I2
tp1765
g36
I00
S'\x9c\x00\x00\x00\x8d\x00\x00\x00'
p1766
tp1767
bsba(i__main__
FrameData
p1768
(dp1769
g6
g943
sg8
g9
(g13
S'\xef\rI\xf1\xf33+@'
p1770
tp1771
Rp1772
sg19
I0
sg20
g21
(S'\x07\xdd\t\x1d\x13\n#\t\x10$'
p1773
tp1774
Rp1775
sg25
I0
sg26
g27
(g28
(I0
tp1776
g30
tp1777
Rp1778
(I1
(I2
tp1779
g36
I00
S'\x9c\x00\x00\x00\x8c\x00\x00\x00'
p1780
tp1781
bsba(i__main__
FrameData
p1782
(dp1783
g6
g943
sg8
g9
(g13
S'\xb3\xa73\xa0`\x0c/@'
p1784
tp1785
Rp1786
sg19
I0
sg20
g21
(S'\x07\xdd\t\x1d\x13\n#\t}\\'
p1787
tp1788
Rp1789
sg25
I0
sg26
g27
(g28
(I0
tp1790
g30
tp1791
Rp1792
(I1
(I2
tp1793
g36
I00
S'\x9c\x00\x00\x00\x8a\x00\x00\x00'
p1794
tp1795
bsba(i__main__
FrameData
p1796
(dp1797
g6
g943
sg8
g9
(g13
S'\x07\xed\xaff\x0f~0@'
p1798
tp1799
Rp1800
sg19
I0
sg20
g21
(S'\x07\xdd\t\x1d\x13\n#\t\xd9\xa8'
p1801
tp1802
Rp1803
sg25
I0
sg26
g27
(g28
(I0
tp1804
g30
tp1805
Rp1806
(I1
(I2
tp1807
g36
I00
S'\x9c\x00\x00\x00\x89\x00\x00\x00'
p1808
tp1809
bsba(i__main__
FrameData
p1810
(dp1811
g6
g943
sg8
g9
(g13
S'X(/\x84y\xae2@'
p1812
tp1813
Rp1814
sg19
I0
sg20
g21
(S'\x07\xdd\t\x1d\x13\n#\t\xff\x90'
p1815
tp1816
Rp1817
sg25
I0
sg26
g27
(g28
(I0
tp1818
g30
tp1819
Rp1820
(I1
(I2
tp1821
g36
I00
S'\x9b\x00\x00\x00\x87\x00\x00\x00'
p1822
tp1823
bsba(i__main__
FrameData
p1824
(dp1825
g6
g943
sg8
g9
(g13
S'I\xe8[@\x93\x9d4@'
p1826
tp1827
Rp1828
sg19
I0
sg20
g21
(S'\x07\xdd\t\x1d\x13\n#\nM\xbb'
p1829
tp1830
Rp1831
sg25
I0
sg26
g27
(g28
(I0
tp1832
g30
tp1833
Rp1834
(I1
(I2
tp1835
g36
I00
S'\x9b\x00\x00\x00\x85\x00\x00\x00'
p1836
tp1837
bsba(i__main__
FrameData
p1838
(dp1839
g6
g788
sg8
g9
(g13
S':\xf0c\xf6\x1b\xb93@'
p1840
tp1841
Rp1842
sg19
I0
sg20
g21
(S'\x07\xdd\t\x1d\x13\n#\n\x8c\\'
p1843
tp1844
Rp1845
sg25
I0
sg26
g27
(g28
(I0
tp1846
g30
tp1847
Rp1848
(I1
(I2
tp1849
g36
I00
S'\x9a\x00\x00\x00\x83\x00\x00\x00'
p1850
tp1851
bsba(i__main__
FrameData
p1852
(dp1853
g6
g788
sg8
g9
(g13
S'\xbf\x8f+\t\x89[2@'
p1854
tp1855
Rp1856
sg19
I0
sg20
g21
(S'\x07\xdd\t\x1d\x13\n#\n\xc9\xbf'
p1857
tp1858
Rp1859
sg25
I0
sg26
g27
(g28
(I0
tp1860
g30
tp1861
Rp1862
(I1
(I2
tp1863
g36
I00
S'\x99\x00\x00\x00\x82\x00\x00\x00'
p1864
tp1865
bsba(i__main__
FrameData
p1866
(dp1867
g6
g788
sg8
g9
(g13
S'\xd0\xbaa?\xe0\x1f0@'
p1868
tp1869
Rp1870
sg19
I0
sg20
g21
(S'\x07\xdd\t\x1d\x13\n#\x0b\x04\xbf'
p1871
tp1872
Rp1873
sg25
I0
sg26
g27
(g28
(I0
tp1874
g30
tp1875
Rp1876
(I1
(I2
tp1877
g36
I00
S'\x98\x00\x00\x00\x80\x00\x00\x00'
p1878
tp1879
bsba(i__main__
FrameData
p1880
(dp1881
g6
g788
sg8
g9
(g13
S'\xb2\xdb]\xe3\x96\x87-@'
p1882
tp1883
Rp1884
sg19
I0
sg20
g21
(S'\x07\xdd\t\x1d\x13\n#\x0bF\x00'
p1885
tp1886
Rp1887
sg25
I0
sg26
g27
(g28
(I0
tp1888
g30
tp1889
Rp1890
(I1
(I2
tp1891
g36
I00
S'\x97\x00\x00\x00\x7f\x00\x00\x00'
p1892
tp1893
bsba(i__main__
FrameData
p1894
(dp1895
g6
g788
sg8
g9
(g13
S'lNy\x00\x85*(@'
p1896
tp1897
Rp1898
sg19
I0
sg20
g21
(S'\x07\xdd\t\x1d\x13\n#\x0b\x8a\x10'
p1899
tp1900
Rp1901
sg25
I0
sg26
g27
(g28
(I0
tp1902
g30
tp1903
Rp1904
(I1
(I2
tp1905
g36
I00
S'\x95\x00\x00\x00}\x00\x00\x00'
p1906
tp1907
bsba(i__main__
FrameData
p1908
(dp1909
g6
g788
sg8
g9
(g13
S'~\xc4#,B\xf9"@'
p1910
tp1911
Rp1912
sg19
I0
sg20
g21
(S'\x07\xdd\t\x1d\x13\n#\x0b\xc8\xe8'
p1913
tp1914
Rp1915
sg25
I0
sg26
g27
(g28
(I0
tp1916
g30
tp1917
Rp1918
(I1
(I2
tp1919
g36
I00
S'\x93\x00\x00\x00{\x00\x00\x00'
p1920
tp1921
bsba(i__main__
FrameData
p1922
(dp1923
g6
g788
sg8
g9
(g13
S'\x00\x00\x00\x00\x00\x00\x14@'
p1924
tp1925
Rp1926
sg19
I0
sg20
g21
(S'\x07\xdd\t\x1d\x13\n#\x0c\x0eN'
p1927
tp1928
Rp1929
sg25
I0
sg26
g27
(g28
(I0
tp1930
g30
tp1931
Rp1932
(I1
(I2
tp1933
g36
I00
S'\x90\x00\x00\x00w\x00\x00\x00'
p1934
tp1935
bsba(i__main__
FrameData
p1936
(dp1937
g6
g788
sg8
g9
(g13
S'\x00\x00\x00\x00\x00\x00\x14@'
p1938
tp1939
Rp1940
sg19
I0
sg20
g21
(S'\x07\xdd\t\x1d\x13\n#\x0c\\Z'
p1941
tp1942
Rp1943
sg25
I0
sg26
g27
(g28
(I0
tp1944
g30
tp1945
Rp1946
(I1
(I2
tp1947
g36
I00
S'\x8b\x00\x00\x00r\x00\x00\x00'
p1948
tp1949
bsba(i__main__
FrameData
p1950
(dp1951
g6
g788
sg8
g9
(g13
S'\xe4\x10\xe4sW\x0f)@'
p1952
tp1953
Rp1954
sg19
I0
sg20
g21
(S'\x07\xdd\t\x1d\x13\n#\x0c\x8c4'
p1955
tp1956
Rp1957
sg25
I0
sg26
g27
(g28
(I0
tp1958
g30
tp1959
Rp1960
(I1
(I2
tp1961
g36
I00
S'\x85\x00\x00\x00l\x00\x00\x00'
p1962
tp1963
bsba(i__main__
FrameData
p1964
(dp1965
g6
S'g'
p1966
sg8
g9
(g13
S'F#O3\xb2t)@'
p1967
tp1968
Rp1969
sg19
I0
sg20
g21
(S"\x07\xdd\t\x1d\x13\n#\x0c\xf5'"
p1970
tp1971
Rp1972
sg25
I0
sg26
g27
(g28
(I0
tp1973
g30
tp1974
Rp1975
(I1
(I2
tp1976
g36
I00
S'\x81\x00\x00\x00i\x00\x00\x00'
p1977
tp1978
bsba(i__main__
FrameData
p1979
(dp1980
g6
g1966
sg8
g9
(g13
S'\xef\rI\xf1\xf33+@'
p1981
tp1982
Rp1983
sg19
I0
sg20
g21
(S'\x07\xdd\t\x1d\x13\n#\r\x12G'
p1984
tp1985
Rp1986
sg25
I0
sg26
g27
(g28
(I0
tp1987
g30
tp1988
Rp1989
(I1
(I2
tp1990
g36
I00
S'|\x00\x00\x00e\x00\x00\x00'
p1991
tp1992
bsba(i__main__
FrameData
p1993
(dp1994
g6
g1966
sg8
g9
(g13
S'\x00\x00\x00\x00\x00\x000@'
p1995
tp1996
Rp1997
sg19
I0
sg20
g21
(S'\x07\xdd\t\x1d\x13\n#\rQ\xe1'
p1998
tp1999
Rp2000
sg25
I0
sg26
g27
(g28
(I0
tp2001
g30
tp2002
Rp2003
(I1
(I2
tp2004
g36
I00
S'x\x00\x00\x00b\x00\x00\x00'
p2005
tp2006
bsba(i__main__
FrameData
p2007
(dp2008
g6
g1966
sg8
g9
(g13
S'W\xb2\xdb\x1a\x9a\xa53@'
p2009
tp2010
Rp2011
sg19
I0
sg20
g21
(S'\x07\xdd\t\x1d\x13\n#\r\x9f\xb3'
p2012
tp2013
Rp2014
sg25
I0
sg26
g27
(g28
(I0
tp2015
g30
tp2016
Rp2017
(I1
(I2
tp2018
g36
I00
S's\x00\x00\x00_\x00\x00\x00'
p2019
tp2020
bsba(i__main__
FrameData
p2021
(dp2022
g6
g99
sg8
g9
(g13
S'\x9a.\x90!hp2@'
p2023
tp2024
Rp2025
sg19
I0
sg20
g21
(S'\x07\xdd\t\x1d\x13\n#\r\xd7G'
p2026
tp2027
Rp2028
sg25
I0
sg26
g27
(g28
(I0
tp2029
g30
tp2030
Rp2031
(I1
(I2
tp2032
g36
I00
S'n\x00\x00\x00]\x00\x00\x00'
p2033
tp2034
bsba(i__main__
FrameData
p2035
(dp2036
g6
g99
sg8
g9
(g13
S'p`\xff\x00\xfe\x070@'
p2037
tp2038
Rp2039
sg19
I0
sg20
g21
(S'\x07\xdd\t\x1d\x13\n#\x0e(\x10'
p2040
tp2041
Rp2042
sg25
I0
sg26
g27
(g28
(I0
tp2043
g30
tp2044
Rp2045
(I1
(I2
tp2046
g36
I00
S'k\x00\x00\x00[\x00\x00\x00'
p2047
tp2048
bsba(i__main__
FrameData
p2049
(dp2050
g6
g99
sg8
g9
(g13
S'[y\xf7F\xf7C.@'
p2051
tp2052
Rp2053
sg19
I0
sg20
g21
(S'\x07\xdd\t\x1d\x13\n#\x0eT\x83'
p2054
tp2055
Rp2056
sg25
I0
sg26
g27
(g28
(I0
tp2057
g30
tp2058
Rp2059
(I1
(I2
tp2060
g36
I00
S'h\x00\x00\x00Z\x00\x00\x00'
p2061
tp2062
bsba(i__main__
FrameData
p2063
(dp2064
g6
g99
sg8
g9
(g13
S'\xe9\xfbv \xd5\x1e-@'
p2065
tp2066
Rp2067
sg19
I0
sg20
g21
(S'\x07\xdd\t\x1d\x13\n#\x0e\xa3\x04'
p2068
tp2069
Rp2070
sg25
I0
sg26
g27
(g28
(I0
tp2071
g30
tp2072
Rp2073
(I1
(I2
tp2074
g36
I00
S'f\x00\x00\x00Y\x00\x00\x00'
p2075
tp2076
bsba(i__main__
FrameData
p2077
(dp2078
g6
g99
sg8
g9
(g13
S'p\xc4\x9d9\x8dv.@'
p2079
tp2080
Rp2081
sg19
I0
sg20
g21
(S'\x07\xdd\t\x1d\x13\n#\x0e\xf2f'
p2082
tp2083
Rp2084
sg25
I0
sg26
g27
(g28
(I0
tp2085
g30
tp2086
Rp2087
(I1
(I2
tp2088
g36
I00
S'd\x00\x00\x00Y\x00\x00\x00'
p2089
tp2090
bsba(i__main__
FrameData
p2091
(dp2092
g6
g99
sg8
g9
(g13
S'\xd0\xbaa?\xe0\x1f0@'
p2093
tp2094
Rp2095
sg19
I0
sg20
g21
(S'\x07\xdd\t\x1d\x13\n#\x0f\x18\xfd'
p2096
tp2097
Rp2098
sg25
I0
sg26
g27
(g28
(I0
tp2099
g30
tp2100
Rp2101
(I1
(I2
tp2102
g36
I00
S'b\x00\x00\x00Y\x00\x00\x00'
p2103
tp2104
bsba(i__main__
FrameData
p2105
(dp2106
g6
g99
sg8
g9
(g13
S"'\xf2\x90In\x9f/@"
p2107
tp2108
Rp2109
sg19
I0
sg20
g21
(S'\x07\xdd\t\x1d\x13\n$\x00$V'
p2110
tp2111
Rp2112
sg25
I0
sg26
g27
(g28
(I0
tp2113
g30
tp2114
Rp2115
(I1
(I2
tp2116
g36
I00
S'a\x00\x00\x00X\x00\x00\x00'
p2117
tp2118
bsba(i__main__
FrameData
p2119
(dp2120
g6
g99
sg8
g9
(g13
S'\x0f\xab\xa8Q\xb6f0@'
p2121
tp2122
Rp2123
sg19
I0
sg20
g21
(S'\x07\xdd\t\x1d\x13\n$\x00s\xab'
p2124
tp2125
Rp2126
sg25
I0
sg26
g27
(g28
(I0
tp2127
g30
tp2128
Rp2129
(I1
(I2
tp2130
g36
I00
S'`\x00\x00\x00X\x00\x00\x00'
p2131
tp2132
bsba(i__main__
FrameData
p2133
(dp2134
g6
g99
sg8
g9
(g13
S')\x9ah\xdd\x85\x071@'
p2135
tp2136
Rp2137
sg19
I0
sg20
g21
(S'\x07\xdd\t\x1d\x13\n$\x00\xa9A'
p2138
tp2139
Rp2140
sg25
I0
sg26
g27
(g28
(I0
tp2141
g30
tp2142
Rp2143
(I1
(I2
tp2144
g36
I00
S'_\x00\x00\x00X\x00\x00\x00'
p2145
tp2146
bsba(i__main__
FrameData
p2147
(dp2148
g6
g7
sg8
g9
(g13
S'l\xd0\xe82\x1a\xb11@'
p2149
tp2150
Rp2151
sg19
I0
sg20
g21
(S'\x07\xdd\t\x1d\x13\n$\x00\xdb\xa2'
p2152
tp2153
Rp2154
sg25
I0
sg26
g27
(g28
(I0
tp2155
g30
tp2156
Rp2157
(I1
(I2
tp2158
g36
I00
S'^\x00\x00\x00X\x00\x00\x00'
p2159
tp2160
bsba(i__main__
FrameData
p2161
(dp2162
g6
g7
sg8
g9
(g13
S'\x0f\xab\xa8Q\xb6f0@'
p2163
tp2164
Rp2165
sg19
I0
sg20
g21
(S'\x07\xdd\t\x1d\x13\n$\x016\xa8'
p2166
tp2167
Rp2168
sg25
I0
sg26
g27
(g28
(I0
tp2169
g30
tp2170
Rp2171
(I1
(I2
tp2172
g36
I00
S'\\\x00\x00\x00X\x00\x00\x00'
p2173
tp2174
bsba(i__main__
FrameData
p2175
(dp2176
g6
g7
sg8
g9
(g13
S"'\xf2\x90In\x9f/@"
p2177
tp2178
Rp2179
sg19
I0
sg20
g21
(S'\x07\xdd\t\x1d\x13\n$\x01^\xc1'
p2180
tp2181
Rp2182
sg25
I0
sg26
g27
(g28
(I0
tp2183
g30
tp2184
Rp2185
(I1
(I2
tp2186
g36
I00
S'[\x00\x00\x00X\x00\x00\x00'
p2187
tp2188
bsba(i__main__
FrameData
p2189
(dp2190
g6
g7
sg8
g9
(g13
S'\xc5Bl?W\x87.@'
p2191
tp2192
Rp2193
sg19
I0
sg20
g21
(S'\x07\xdd\t\x1d\x13\n$\x01\xa2\x1e'
p2194
tp2195
Rp2196
sg25
I0
sg26
g27
(g28
(I0
tp2197
g30
tp2198
Rp2199
(I1
(I2
tp2200
g36
I00
S'Z\x00\x00\x00X\x00\x00\x00'
p2201
tp2202
bsba(i__main__
FrameData
p2203
(dp2204
g6
g7
sg8
g9
(g13
S'\xb2\xdb]\xe3\x96\x87-@'
p2205
tp2206
Rp2207
sg19
I0
sg20
g21
(S'\x07\xdd\t\x1d\x13\n$\x01\xe0\xa3'
p2208
tp2209
Rp2210
sg25
I0
sg26
g27
(g28
(I0
tp2211
g30
tp2212
Rp2213
(I1
(I2
tp2214
g36
I00
S'Y\x00\x00\x00X\x00\x00\x00'
p2215
tp2216
bsba(i__main__
FrameData
p2217
(dp2218
g6
g7
sg8
g9
(g13
S'\xf7\x80Aq\xb9\xa2,@'
p2219
tp2220
Rp2221
sg19
I0
sg20
g21
(S'\x07\xdd\t\x1d\x13\n$\x02!\xaa'
p2222
tp2223
Rp2224
sg25
I0
sg26
g27
(g28
(I0
tp2225
g30
tp2226
Rp2227
(I1
(I2
tp2228
g36
I00
S'X\x00\x00\x00X\x00\x00\x00'
p2229
tp2230
bsba(i__main__
FrameData
p2231
(dp2232
g6
g7
sg8
g9
(g13
S'\xbc\xfdP\xb5U\xdb+@'
p2233
tp2234
Rp2235
sg19
I0
sg20
g21
(S'\x07\xdd\t\x1d\x13\n$\x02b\xb8'
p2236
tp2237
Rp2238
sg25
I0
sg26
g27
(g28
(I0
tp2239
g30
tp2240
Rp2241
(I1
(I2
tp2242
g36
I00
S'W\x00\x00\x00X\x00\x00\x00'
p2243
tp2244
bsba(i__main__
FrameData
p2245
(dp2246
g6
g7
sg8
g9
(g13
S'S[\xda:XL)@'
p2247
tp2248
Rp2249
sg19
I0
sg20
g21
(S'\x07\xdd\t\x1d\x13\n$\x02\xa7"'
p2250
tp2251
Rp2252
sg25
I0
sg26
g27
(g28
(I0
tp2253
g30
tp2254
Rp2255
(I1
(I2
tp2256
g36
I00
S'V\x00\x00\x00W\x00\x00\x00'
p2257
tp2258
bsba(i__main__
FrameData
p2259
(dp2260
g6
g7
sg8
g9
(g13
S'9\xdcc\xb3\xbfT(@'
p2261
tp2262
Rp2263
sg19
I0
sg20
g21
(S'\x07\xdd\t\x1d\x13\n$\x02\xf1i'
p2264
tp2265
Rp2266
sg25
I0
sg26
g27
(g28
(I0
tp2267
g30
tp2268
Rp2269
(I1
(I2
tp2270
g36
I00
S'T\x00\x00\x00W\x00\x00\x00'
p2271
tp2272
bsba(i__main__
FrameData
p2273
(dp2274
g6
g7
sg8
g9
(g13
S'&5w\xe2K\x15(@'
p2275
tp2276
Rp2277
sg19
I0
sg20
g21
(S'\x07\xdd\t\x1d\x13\n$\x03,S'
p2278
tp2279
Rp2280
sg25
I0
sg26
g27
(g28
(I0
tp2281
g30
tp2282
Rp2283
(I1
(I2
tp2284
g36
I00
S'S\x00\x00\x00W\x00\x00\x00'
p2285
tp2286
bsba(i__main__
FrameData
p2287
(dp2288
g6
g7
sg8
g9
(g13
S'\x00\x00\x00\x00\x00\x00&@'
p2289
tp2290
Rp2291
sg19
I0
sg20
g21
(S'\x07\xdd\t\x1d\x13\n$\x03x\x9e'
p2292
tp2293
Rp2294
sg25
I0
sg26
g27
(g28
(I0
tp2295
g30
tp2296
Rp2297
(I1
(I2
tp2298
g36
I00
S'R\x00\x00\x00V\x00\x00\x00'
p2299
tp2300
bsba(i__main__
FrameData
p2301
(dp2302
g6
g7
sg8
g9
(g13
S'\xd2\xf1}\x82U\\&@'
p2303
tp2304
Rp2305
sg19
I0
sg20
g21
(S'\x07\xdd\t\x1d\x13\n$\x03\xb1w'
p2306
tp2307
Rp2308
sg25
I0
sg26
g27
(g28
(I0
tp2309
g30
tp2310
Rp2311
(I1
(I2
tp2312
g36
I00
S'P\x00\x00\x00V\x00\x00\x00'
p2313
tp2314
bsba(i__main__
FrameData
p2315
(dp2316
g6
g7
sg8
g9
(g13
S'7\xf9\xcf\xdao\xe1$@'
p2317
tp2318
Rp2319
sg19
I0
sg20
g21
(S'\x07\xdd\t\x1d\x13\n$\x03\xea\x10'
p2320
tp2321
Rp2322
sg25
I0
sg26
g27
(g28
(I0
tp2323
g30
tp2324
Rp2325
(I1
(I2
tp2326
g36
I00
S'O\x00\x00\x00U\x00\x00\x00'
p2327
tp2328
bsba(i__main__
FrameData
p2329
(dp2330
g6
g7
sg8
g9
(g13
S'\xd2\xf1}\x82U\\&@'
p2331
tp2332
Rp2333
sg19
I0
sg20
g21
(S'\x07\xdd\t\x1d\x13\n$\x043`'
p2334
tp2335
Rp2336
sg25
I0
sg26
g27
(g28
(I0
tp2337
g30
tp2338
Rp2339
(I1
(I2
tp2340
g36
I00
S'M\x00\x00\x00U\x00\x00\x00'
p2341
tp2342
bsba(i__main__
FrameData
p2343
(dp2344
g6
g7
sg8
g9
(g13
S"\xa2\xa3\xb3\r\xe5R'@"
p2345
tp2346
Rp2347
sg19
I0
sg20
g21
(S'\x07\xdd\t\x1d\x13\n$\x04p\xb4'
p2348
tp2349
Rp2350
sg25
I0
sg26
g27
(g28
(I0
tp2351
g30
tp2352
Rp2353
(I1
(I2
tp2354
g36
I00
S'L\x00\x00\x00U\x00\x00\x00'
p2355
tp2356
bsba(i__main__
FrameData
p2357
(dp2358
g6
g7
sg8
g9
(g13
S'&5w\xe2K\x15(@'
p2359
tp2360
Rp2361
sg19
I0
sg20
g21
(S'\x07\xdd\t\x1d\x13\n$\x04\xaf5'
p2362
tp2363
Rp2364
sg25
I0
sg26
g27
(g28
(I0
tp2365
g30
tp2366
Rp2367
(I1
(I2
tp2368
g36
I00
S'J\x00\x00\x00T\x00\x00\x00'
p2369
tp2370
bsba(i__main__
FrameData
p2371
(dp2372
g6
g7
sg8
g9
(g13
S'F#O3\xb2t)@'
p2373
tp2374
Rp2375
sg19
I0
sg20
g21
(S'\x07\xdd\t\x1d\x13\n$\x04\xf6\xc9'
p2376
tp2377
Rp2378
sg25
I0
sg26
g27
(g28
(I0
tp2379
g30
tp2380
Rp2381
(I1
(I2
tp2382
g36
I00
S'I\x00\x00\x00T\x00\x00\x00'
p2383
tp2384
bsba(i__main__
FrameData
p2385
(dp2386
g6
g7
sg8
g9
(g13
S'\x00\xff\x9f\x99\xcc\x9c)@'
p2387
tp2388
Rp2389
sg19
I0
sg20
g21
(S'\x07\xdd\t\x1d\x13\n$\x052\x1a'
p2390
tp2391
Rp2392
sg25
I0
sg26
g27
(g28
(I0
tp2393
g30
tp2394
Rp2395
(I1
(I2
tp2396
g36
I00
S'H\x00\x00\x00S\x00\x00\x00'
p2397
tp2398
bsba(i__main__
FrameData
p2399
(dp2400
g6
g7
sg8
g9
(g13
S'\xef\rI\xf1\xf33+@'
p2401
tp2402
Rp2403
sg19
I0
sg20
g21
(S'\x07\xdd\t\x1d\x13\n$\x05|\xd4'
p2404
tp2405
Rp2406
sg25
I0
sg26
g27
(g28
(I0
tp2407
g30
tp2408
Rp2409
(I1
(I2
tp2410
g36
I00
S'G\x00\x00\x00S\x00\x00\x00'
p2411
tp2412
bsba(i__main__
FrameData
p2413
(dp2414
g6
S'e'
p2415
sg8
g9
(g13
S'Qf\x99\xcb\xa9\x13*@'
p2416
tp2417
Rp2418
sg19
I0
sg20
g21
(S'\x07\xdd\t\x1d\x13\n$\x05\xb7='
p2419
tp2420
Rp2421
sg25
I0
sg26
g27
(g28
(I0
tp2422
g30
tp2423
Rp2424
(I1
(I2
tp2425
g36
I00
S'F\x00\x00\x00S\x00\x00\x00'
p2426
tp2427
bsba(i__main__
FrameData
p2428
(dp2429
g6
g2415
sg8
g9
(g13
S"\xa2\xa3\xb3\r\xe5R'@"
p2430
tp2431
Rp2432
sg19
I0
sg20
g21
(S'\x07\xdd\t\x1d\x13\n$\x06\x02\xda'
p2433
tp2434
Rp2435
sg25
I0
sg26
g27
(g28
(I0
tp2436
g30
tp2437
Rp2438
(I1
(I2
tp2439
g36
I00
S'E\x00\x00\x00R\x00\x00\x00'
p2440
tp2441
bsba(i__main__
FrameData
p2442
(dp2443
g6
g2415
sg8
g9
(g13
S'w\x03Is \xa2%@'
p2444
tp2445
Rp2446
sg19
I0
sg20
g21
(S'\x07\xdd\t\x1d\x13\n$\x068D'
p2447
tp2448
Rp2449
sg25
I0
sg26
g27
(g28
(I0
tp2450
g30
tp2451
Rp2452
(I1
(I2
tp2453
g36
I00
S'D\x00\x00\x00R\x00\x00\x00'
p2454
tp2455
bsba(i__main__
FrameData
p2456
(dp2457
g6
g2415
sg8
g9
(g13
S'A\x87b\xc62\xde"@'
p2458
tp2459
Rp2460
sg19
I0
sg20
g21
(S'\x07\xdd\t\x1d\x13\n$\x06}Q'
p2461
tp2462
Rp2463
sg25
I0
sg26
g27
(g28
(I0
tp2464
g30
tp2465
Rp2466
(I1
(I2
tp2467
g36
I00
S'C\x00\x00\x00Q\x00\x00\x00'
p2468
tp2469
bsba(i__main__
FrameData
p2470
(dp2471
g6
g2415
sg8
g9
(g13
S'N\x017\xfac4!@'
p2472
tp2473
Rp2474
sg19
I0
sg20
g21
(S'\x07\xdd\t\x1d\x13\n$\x06\xbc@'
p2475
tp2476
Rp2477
sg25
I0
sg26
g27
(g28
(I0
tp2478
g30
tp2479
Rp2480
(I1
(I2
tp2481
g36
I00
S'B\x00\x00\x00Q\x00\x00\x00'
p2482
tp2483
bsba(i__main__
FrameData
p2484
(dp2485
g6
g2415
sg8
g9
(g13
S'htN\x17\xb2=\x1f@'
p2486
tp2487
Rp2488
sg19
I0
sg20
g21
(S'\x07\xdd\t\x1d\x13\n$\x06\xfc\xce'
p2489
tp2490
Rp2491
sg25
I0
sg26
g27
(g28
(I0
tp2492
g30
tp2493
Rp2494
(I1
(I2
tp2495
g36
I00
S'A\x00\x00\x00Q\x00\x00\x00'
p2496
tp2497
bsba(i__main__
FrameData
p2498
(dp2499
g6
g2415
sg8
g9
(g13
S'\x00\xff\x9f\x99\xcc\x9c\x19@'
p2500
tp2501
Rp2502
sg19
I0
sg20
g21
(S'\x07\xdd\t\x1d\x13\n$\x07?\x7f'
p2503
tp2504
Rp2505
sg25
I0
sg26
g27
(g28
(I0
tp2506
g30
tp2507
Rp2508
(I1
(I2
tp2509
g36
I00
S'@\x00\x00\x00P\x00\x00\x00'
p2510
tp2511
bsba(i__main__
FrameData
p2512
(dp2513
g6
g2415
sg8
g9
(g13
S'\xcd;\x7ff\x9e\xa0\x16@'
p2514
tp2515
Rp2516
sg19
I0
sg20
g21
(S'\x07\xdd\t\x1d\x13\n$\x07\x83H'
p2517
tp2518
Rp2519
sg25
I0
sg26
g27
(g28
(I0
tp2520
g30
tp2521
Rp2522
(I1
(I2
tp2523
g36
I00
S'?\x00\x00\x00P\x00\x00\x00'
p2524
tp2525
bsba(i__main__
FrameData
p2526
(dp2527
g6
g2415
sg8
g9
(g13
S'\xa8\xf4\x97\x9bw\xe3\x11@'
p2528
tp2529
Rp2530
sg19
I0
sg20
g21
(S'\x07\xdd\t\x1d\x13\n$\x07\xbc\xe0'
p2531
tp2532
Rp2533
sg25
I0
sg26
g27
(g28
(I0
tp2534
g30
tp2535
Rp2536
(I1
(I2
tp2537
g36
I00
S'?\x00\x00\x00N\x00\x00\x00'
p2538
tp2539
bsba(i__main__
FrameData
p2540
(dp2541
g6
g2415
sg8
g9
(g13
S'\xa8\xf4\x97\x9bw\xe3\x01@'
p2542
tp2543
Rp2544
sg19
I0
sg20
g21
(S'\x07\xdd\t\x1d\x13\n$\x08BV'
p2545
tp2546
Rp2547
sg25
I0
sg26
g27
(g28
(I0
tp2548
g30
tp2549
Rp2550
(I1
(I2
tp2551
g36
I00
S'=\x00\x00\x00M\x00\x00\x00'
p2552
tp2553
bsba(i__main__
FrameData
p2554
(dp2555
g6
g2415
sg8
g9
(g13
S'\xcd;\x7ff\x9e\xa0\xf6?'
p2556
tp2557
Rp2558
sg19
I0
sg20
g21
(S'\x07\xdd\t\x1d\x13\n$\x08\xc1\xf0'
p2559
tp2560
Rp2561
sg25
I0
sg26
g27
(g28
(I0
tp2562
g30
tp2563
Rp2564
(I1
(I2
tp2565
g36
I00
S'<\x00\x00\x00M\x00\x00\x00'
p2566
tp2567
bsba(i__main__
FrameData
p2568
(dp2569
g6
g2415
sg8
g9
(g13
S'\x00\x00\x00\x00\x00\x00\x00\x00'
p2570
tp2571
Rp2572
sg19
I0
sg20
g21
(S'\x07\xdd\t\x1d\x13\n$\t\t\xe6'
p2573
tp2574
Rp2575
sg25
I0
sg26
g27
(g28
(I0
tp2576
g30
tp2577
Rp2578
(I1
(I2
tp2579
g36
I00
S';\x00\x00\x00L\x00\x00\x00'
p2580
tp2581
bsba(i__main__
FrameData
p2582
(dp2583
g6
g2415
sg8
g9
(g13
S'\x00\x00\x00\x00\x00\x00\x00@'
p2584
tp2585
Rp2586
sg19
I0
sg20
g21
(S'\x07\xdd\t\x1d\x13\n$\tM\xb0'
p2587
tp2588
Rp2589
sg25
I0
sg26
g27
(g28
(I0
tp2590
g30
tp2591
Rp2592
(I1
(I2
tp2593
g36
I00
S';\x00\x00\x00J\x00\x00\x00'
p2594
tp2595
bsba(i__main__
FrameData
p2596
(dp2597
g6
g2415
sg8
g9
(g13
S'\x00\x00\x00\x00\x00\x00\x08@'
p2598
tp2599
Rp2600
sg19
I0
sg20
g21
(S'\x07\xdd\t\x1d\x13\n$\t\xc7\x98'
p2601
tp2602
Rp2603
sg25
I0
sg26
g27
(g28
(I0
tp2604
g30
tp2605
Rp2606
(I1
(I2
tp2607
g36
I00
S';\x00\x00\x00I\x00\x00\x00'
p2608
tp2609
bsba(i__main__
FrameData
p2610
(dp2611
g6
g2415
sg8
g9
(g13
S'S[\xda:XL\t@'
p2612
tp2613
Rp2614
sg19
I0
sg20
g21
(S'\x07\xdd\t\x1d\x13\n$\n\r('
p2615
tp2616
Rp2617
sg25
I0
sg26
g27
(g28
(I0
tp2618
g30
tp2619
Rp2620
(I1
(I2
tp2621
g36
I00
S':\x00\x00\x00I\x00\x00\x00'
p2622
tp2623
bsba(i__main__
FrameData
p2624
(dp2625
g6
g2415
sg8
g9
(g13
S'\x00\x00\x00\x00\x00\x00\x08@'
p2626
tp2627
Rp2628
sg19
I0
sg20
g21
(S'\x07\xdd\t\x1d\x13\n$\x0c\xd5\xf2'
p2629
tp2630
Rp2631
sg25
I0
sg26
g27
(g28
(I0
tp2632
g30
tp2633
Rp2634
(I1
(I2
tp2635
g36
I00
S';\x00\x00\x00I\x00\x00\x00'
p2636
tp2637
bsba(i__main__
FrameData
p2638
(dp2639
g6
g2415
sg8
g9
(g13
S'\xa8\xf4\x97\x9bw\xe3\x01@'
p2640
tp2641
Rp2642
sg19
I0
sg20
g21
(S'\x07\xdd\t\x1d\x13\n$\r\x1c\xc2'
p2643
tp2644
Rp2645
sg25
I0
sg26
g27
(g28
(I0
tp2646
g30
tp2647
Rp2648
(I1
(I2
tp2649
g36
I00
S'<\x00\x00\x00J\x00\x00\x00'
p2650
tp2651
bsba(i__main__
FrameData
p2652
(dp2653
g6
g2415
sg8
g9
(g13
S'\xcd;\x7ff\x9e\xa0\x06@'
p2654
tp2655
Rp2656
sg19
I0
sg20
g21
(S'\x07\xdd\t\x1d\x13\n$\rYq'
p2657
tp2658
Rp2659
sg25
I0
sg26
g27
(g28
(I0
tp2660
g30
tp2661
Rp2662
(I1
(I2
tp2663
g36
I00
S'=\x00\x00\x00J\x00\x00\x00'
p2664
tp2665
bsba(i__main__
FrameData
p2666
(dp2667
g6
g2415
sg8
g9
(g13
S'S[\xda:XL\t@'
p2668
tp2669
Rp2670
sg19
I0
sg20
g21
(S'\x07\xdd\t\x1d\x13\n$\r\xa3#'
p2671
tp2672
Rp2673
sg25
I0
sg26
g27
(g28
(I0
tp2674
g30
tp2675
Rp2676
(I1
(I2
tp2677
g36
I00
S'>\x00\x00\x00K\x00\x00\x00'
p2678
tp2679
bsba(i__main__
FrameData
p2680
(dp2681
g6
g2415
sg8
g9
(g13
S'\x07\xed\xaff\x0f~\x10@'
p2682
tp2683
Rp2684
sg19
I0
sg20
g21
(S'\x07\xdd\t\x1d\x13\n$\r\xdde'
p2685
tp2686
Rp2687
sg25
I0
sg26
g27
(g28
(I0
tp2688
g30
tp2689
Rp2690
(I1
(I2
tp2691
g36
I00
S'?\x00\x00\x00K\x00\x00\x00'
p2692
tp2693
bsba(i__main__
FrameData
p2694
(dp2695
g6
g2415
sg8
g9
(g13
S'\x07\xed\xaff\x0f~\x10@'
p2696
tp2697
Rp2698
sg19
I0
sg20
g21
(S'\x07\xdd\t\x1d\x13\n$\x0e \xd9'
p2699
tp2700
Rp2701
sg25
I0
sg26
g27
(g28
(I0
tp2702
g30
tp2703
Rp2704
(I1
(I2
tp2705
g36
I00
S'?\x00\x00\x00M\x00\x00\x00'
p2706
tp2707
bsba(i__main__
FrameData
p2708
(dp2709
g6
g2415
sg8
g9
(g13
S'\xf6/\x12_ee\x14@'
p2710
tp2711
Rp2712
sg19
I0
sg20
g21
(S'\x07\xdd\t\x1d\x13\n$\x0e]\xb7'
p2713
tp2714
Rp2715
sg25
I0
sg26
g27
(g28
(I0
tp2716
g30
tp2717
Rp2718
(I1
(I2
tp2719
g36
I00
S'@\x00\x00\x00M\x00\x00\x00'
p2720
tp2721
bsba(i__main__
FrameData
p2722
(dp2723
g6
g2415
sg8
g9
(g13
S'9\xdcc\xb3\xbfT\x18@'
p2724
tp2725
Rp2726
sg19
I0
sg20
g21
(S'\x07\xdd\t\x1d\x13\n$\x0e\xe2Y'
p2727
tp2728
Rp2729
sg25
I0
sg26
g27
(g28
(I0
tp2730
g30
tp2731
Rp2732
(I1
(I2
tp2733
g36
I00
S'A\x00\x00\x00M\x00\x00\x00'
p2734
tp2735
bsba(i__main__
FrameData
p2736
(dp2737
g6
g2415
sg8
g9
(g13
S'\xc0\n\x1f\x00\xc6H\x1c@'
p2738
tp2739
Rp2740
sg19
I0
sg20
g21
(S'\x07\xdd\t\x1d\x13\n$\x0f!\xda'
p2741
tp2742
Rp2743
sg25
I0
sg26
g27
(g28
(I0
tp2744
g30
tp2745
Rp2746
(I1
(I2
tp2747
g36
I00
S'B\x00\x00\x00M\x00\x00\x00'
p2748
tp2749
bsba(i__main__
FrameData
p2750
(dp2751
g6
g2415
sg8
g9
(g13
S'\xd0\xbaa?\xe0\x1f @'
p2752
tp2753
Rp2754
sg19
I0
sg20
g21
(S'\x07\xdd\t\x1d\x13\n%\x00f\x03'
p2755
tp2756
Rp2757
sg25
I0
sg26
g27
(g28
(I0
tp2758
g30
tp2759
Rp2760
(I1
(I2
tp2761
g36
I00
S'C\x00\x00\x00M\x00\x00\x00'
p2762
tp2763
bsba(i__main__
FrameData
p2764
(dp2765
g6
g2415
sg8
g9
(g13
S'$\xf8\xd9p[\x1c"@'
p2766
tp2767
Rp2768
sg19
I0
sg20
g21
(S'\x07\xdd\t\x1d\x13\n%\x00\xa2\xcb'
p2769
tp2770
Rp2771
sg25
I0
sg26
g27
(g28
(I0
tp2772
g30
tp2773
Rp2774
(I1
(I2
tp2775
g36
I00
S'D\x00\x00\x00M\x00\x00\x00'
p2776
tp2777
bsba(i__main__
FrameData
p2778
(dp2779
g6
g2415
sg8
g9
(g13
S'\xf0)#L\x89\x19$@'
p2780
tp2781
Rp2782
sg19
I0
sg20
g21
(S'\x07\xdd\t\x1d\x13\n%\x00\xeb\x02'
p2783
tp2784
Rp2785
sg25
I0
sg26
g27
(g28
(I0
tp2786
g30
tp2787
Rp2788
(I1
(I2
tp2789
g36
I00
S'E\x00\x00\x00M\x00\x00\x00'
p2790
tp2791
bsba(i__main__
FrameData
p2792
(dp2793
g6
g2415
sg8
g9
(g13
S'H\xaa*\x8f9\x17&@'
p2794
tp2795
Rp2796
sg19
I0
sg20
g21
(S'\x07\xdd\t\x1d\x13\n%\x01,\xc5'
p2797
tp2798
Rp2799
sg25
I0
sg26
g27
(g28
(I0
tp2800
g30
tp2801
Rp2802
(I1
(I2
tp2803
g36
I00
S'F\x00\x00\x00M\x00\x00\x00'
p2804
tp2805
bsba(i__main__
FrameData
p2806
(dp2807
g6
g7
sg8
g9
(g13
S'\xd2\xf1}\x82U\\&@'
p2808
tp2809
Rp2810
sg19
I0
sg20
g21
(S'\x07\xdd\t\x1d\x13\n%\x01gI'
p2811
tp2812
Rp2813
sg25
I0
sg26
g27
(g28
(I0
tp2814
g30
tp2815
Rp2816
(I1
(I2
tp2817
g36
I00
S'G\x00\x00\x00M\x00\x00\x00'
p2818
tp2819
bsba(i__main__
FrameData
p2820
(dp2821
g6
g7
sg8
g9
(g13
S'\xf6/\x12_ee$@'
p2822
tp2823
Rp2824
sg19
I0
sg20
g21
(S'\x07\xdd\t\x1d\x13\n%\x01\xab\x95'
p2825
tp2826
Rp2827
sg25
I0
sg26
g27
(g28
(I0
tp2828
g30
tp2829
Rp2830
(I1
(I2
tp2831
g36
I00
S'H\x00\x00\x00M\x00\x00\x00'
p2832
tp2833
bsba(i__main__
FrameData
p2834
(dp2835
g6
g7
sg8
g9
(g13
S'\x9a.\x90!hp"@'
p2836
tp2837
Rp2838
sg19
I0
sg20
g21
(S'\x07\xdd\t\x1d\x13\n%\x02*\xb3'
p2839
tp2840
Rp2841
sg25
I0
sg26
g27
(g28
(I0
tp2842
g30
tp2843
Rp2844
(I1
(I2
tp2845
g36
I00
S'I\x00\x00\x00M\x00\x00\x00'
p2846
tp2847
bsba(i__main__
FrameData
p2848
(dp2849
g6
g7
sg8
g9
(g13
S'\x07\xed\xaff\x0f~ @'
p2850
tp2851
Rp2852
sg19
I0
sg20
g21
(S'\x07\xdd\t\x1d\x13\n%\x02n\xf2'
p2853
tp2854
Rp2855
sg25
I0
sg26
g27
(g28
(I0
tp2856
g30
tp2857
Rp2858
(I1
(I2
tp2859
g36
I00
S'J\x00\x00\x00M\x00\x00\x00'
p2860
tp2861
bsba(i__main__
FrameData
p2862
(dp2863
g6
g7
sg8
g9
(g13
S'\xe9\xfbv \xd5\x1e\x1d@'
p2864
tp2865
Rp2866
sg19
I0
sg20
g21
(S'\x07\xdd\t\x1d\x13\n%\x02\xb6\x1b'
p2867
tp2868
Rp2869
sg25
I0
sg26
g27
(g28
(I0
tp2870
g30
tp2871
Rp2872
(I1
(I2
tp2873
g36
I00
S'K\x00\x00\x00M\x00\x00\x00'
p2874
tp2875
bsba(i__main__
FrameData
p2876
(dp2877
g6
g7
sg8
g9
(g13
S'S[\xda:XL\x19@'
p2878
tp2879
Rp2880
sg19
I0
sg20
g21
(S'\x07\xdd\t\x1d\x13\n%\x02\xeeo'
p2881
tp2882
Rp2883
sg25
I0
sg26
g27
(g28
(I0
tp2884
g30
tp2885
Rp2886
(I1
(I2
tp2887
g36
I00
S'L\x00\x00\x00M\x00\x00\x00'
p2888
tp2889
bsba(i__main__
FrameData
p2890
(dp2891
g6
g7
sg8
g9
(g13
S'\xf6/\x12_ee\x14@'
p2892
tp2893
Rp2894
sg19
I0
sg20
g21
(S'\x07\xdd\t\x1d\x13\n%\x030V'
p2895
tp2896
Rp2897
sg25
I0
sg26
g27
(g28
(I0
tp2898
g30
tp2899
Rp2900
(I1
(I2
tp2901
g36
I00
S'M\x00\x00\x00L\x00\x00\x00'
p2902
tp2903
bsba(i__main__
FrameData
p2904
(dp2905
g6
g7
sg8
g9
(g13
S'\x07\xed\xaff\x0f~\x10@'
p2906
tp2907
Rp2908
sg19
I0
sg20
g21
(S'\x07\xdd\t\x1d\x13\n%\x03v.'
p2909
tp2910
Rp2911
sg25
I0
sg26
g27
(g28
(I0
tp2912
g30
tp2913
Rp2914
(I1
(I2
tp2915
g36
I00
S'N\x00\x00\x00L\x00\x00\x00'
p2916
tp2917
bsba(i__main__
FrameData
p2918
(dp2919
g6
g7
sg8
g9
(g13
S'S[\xda:XL\t@'
p2920
tp2921
Rp2922
sg19
I0
sg20
g21
(S'\x07\xdd\t\x1d\x13\n%\x03\xb3m'
p2923
tp2924
Rp2925
sg25
I0
sg26
g27
(g28
(I0
tp2926
g30
tp2927
Rp2928
(I1
(I2
tp2929
g36
I00
S'O\x00\x00\x00L\x00\x00\x00'
p2930
tp2931
bsba(i__main__
FrameData
p2932
(dp2933
g6
g7
sg8
g9
(g13
S'\x00\x00\x00\x00\x00\x00\x08@'
p2934
tp2935
Rp2936
sg19
I0
sg20
g21
(S'\x07\xdd\t\x1d\x13\n%\x046b'
p2937
tp2938
Rp2939
sg25
I0
sg26
g27
(g28
(I0
tp2940
g30
tp2941
Rp2942
(I1
(I2
tp2943
g36
I00
S'O\x00\x00\x00K\x00\x00\x00'
p2944
tp2945
bsba(i__main__
FrameData
p2946
(dp2947
g6
g7
sg8
g9
(g13
S'\x00\x00\x00\x00\x00\x00\xf0?'
p2948
tp2949
Rp2950
sg19
I0
sg20
g21
(S'\x07\xdd\t\x1d\x13\n%\x04u\x96'
p2951
tp2952
Rp2953
sg25
I0
sg26
g27
(g28
(I0
tp2954
g30
tp2955
Rp2956
(I1
(I2
tp2957
g36
I00
S'Q\x00\x00\x00K\x00\x00\x00'
p2958
tp2959
bsba(i__main__
FrameData
p2960
(dp2961
g6
g7
sg8
g9
(g13
S'\x00\x00\x00\x00\x00\x00\xf0?'
p2962
tp2963
Rp2964
sg19
I0
sg20
g21
(S'\x07\xdd\t\x1d\x13\n%\x05\x05\x1c'
p2965
tp2966
Rp2967
sg25
I0
sg26
g27
(g28
(I0
tp2968
g30
tp2969
Rp2970
(I1
(I2
tp2971
g36
I00
S'R\x00\x00\x00J\x00\x00\x00'
p2972
tp2973
bsba(i__main__
FrameData
p2974
(dp2975
g6
g7
sg8
g9
(g13
S'\x00\x00\x00\x00\x00\x00\x00@'
p2976
tp2977
Rp2978
sg19
I0
sg20
g21
(S'\x07\xdd\t\x1d\x13\n%\x05zO'
p2979
tp2980
Rp2981
sg25
I0
sg26
g27
(g28
(I0
tp2982
g30
tp2983
Rp2984
(I1
(I2
tp2985
g36
I00
S'R\x00\x00\x00I\x00\x00\x00'
p2986
tp2987
bsba(i__main__
FrameData
p2988
(dp2989
g6
g7
sg8
g9
(g13
S'\xa8\xf4\x97\x9bw\xe3\x01@'
p2990
tp2991
Rp2992
sg19
I0
sg20
g21
(S'\x07\xdd\t\x1d\x13\n%\x05\xc6\x03'
p2993
tp2994
Rp2995
sg25
I0
sg26
g27
(g28
(I0
tp2996
g30
tp2997
Rp2998
(I1
(I2
tp2999
g36
I00
S'S\x00\x00\x00I\x00\x00\x00'
p3000
tp3001
bsba(i__main__
FrameData
p3002
(dp3003
g6
g7
sg8
g9
(g13
S'S[\xda:XL\t@'
p3004
tp3005
Rp3006
sg19
I0
sg20
g21
(S'\x07\xdd\t\x1d\x13\n%\x06Ly'
p3007
tp3008
Rp3009
sg25
I0
sg26
g27
(g28
(I0
tp3010
g30
tp3011
Rp3012
(I1
(I2
tp3013
g36
I00
S'S\x00\x00\x00H\x00\x00\x00'
p3014
tp3015
bsbasS'_fileName'
p3016
S'training/trajectory2013-09-29_19:10:15.465304'
p3017
sS'word'
p3018
S'runner'
p3019
sb.