(i__main__
SwypeTrajectory
p0
(dp1
S'_frameDataList'
p2
(lp3
(i__main__
FrameData
p4
(dp5
S'closestLetter'
p6
S'q'
p7
sS'letterDistance'
p8
cnumpy.core.multiarray
scalar
p9
(cnumpy
dtype
p10
(S'f8'
p11
I0
I1
tp12
Rp13
(I3
S'<'
p14
NNNI-1
I-1
I0
tp15
bS'\xf6/\x12_ee\x14@'
p16
tp17
Rp18
sS'accel'
p19
I0
sS'time'
p20
cdatetime
datetime
p21
(S'\x07\xdd\t\x1d\x13\t\n\x0c\x16S'
p22
tp23
Rp24
sS'velocity'
p25
I0
sS'position'
p26
cnumpy.core.multiarray
_reconstruct
p27
(cnumpy
ndarray
p28
(I0
tp29
S'b'
p30
tp31
Rp32
(I1
(I2
tp33
g10
(S'i4'
p34
I0
I1
tp35
Rp36
(I3
S'<'
p37
NNNI-1
I-1
I0
tp38
bI00
S'\r\x00\x00\x00O\x00\x00\x00'
p39
tp40
bsba(i__main__
FrameData
p41
(dp42
g6
g7
sg8
g9
(g13
S'p\xc4\x9d9\x8dv\x1e@'
p43
tp44
Rp45
sg19
I0
sg20
g21
(S'\x07\xdd\t\x1d\x13\t\n\x0c]\\'
p46
tp47
Rp48
sg25
I0
sg26
g27
(g28
(I0
tp49
g30
tp50
Rp51
(I1
(I2
tp52
g36
I00
S'\x0f\x00\x00\x00Q\x00\x00\x00'
p53
tp54
bsba(i__main__
FrameData
p55
(dp56
g6
g7
sg8
g9
(g13
S'Qf\x99\xcb\xa9\x13*@'
p57
tp58
Rp59
sg19
I0
sg20
g21
(S'\x07\xdd\t\x1d\x13\t\n\x0c\x9c\x10'
p60
tp61
Rp62
sg25
I0
sg26
g27
(g28
(I0
tp63
g30
tp64
Rp65
(I1
(I2
tp66
g36
I00
S'\x13\x00\x00\x00U\x00\x00\x00'
p67
tp68
bsba(i__main__
FrameData
p69
(dp70
g6
g7
sg8
g9
(g13
S'\x0f\xab\xa8Q\xb6f0@'
p71
tp72
Rp73
sg19
I0
sg20
g21
(S'\x07\xdd\t\x1d\x13\t\n\x0c\xdc\x01'
p74
tp75
Rp76
sg25
I0
sg26
g27
(g28
(I0
tp77
g30
tp78
Rp79
(I1
(I2
tp80
g36
I00
S'\x16\x00\x00\x00W\x00\x00\x00'
p81
tp82
bsba(i__main__
FrameData
p83
(dp84
g6
S'w'
p85
sg8
g9
(g13
S'=\xf3\n\x8f\xe6\x1f4@'
p86
tp87
Rp88
sg19
I0
sg20
g21
(S'\x07\xdd\t\x1d\x13\t\n\r\x1f\r'
p89
tp90
Rp91
sg25
I0
sg26
g27
(g28
(I0
tp92
g30
tp93
Rp94
(I1
(I2
tp95
g36
I00
S'\x19\x00\x00\x00Z\x00\x00\x00'
p96
tp97
bsba(i__main__
FrameData
p98
(dp99
g6
g85
sg8
g9
(g13
S'\xcey?\xdc\x9a?4@'
p100
tp101
Rp102
sg19
I0
sg20
g21
(S'\x07\xdd\t\x1d\x13\t\n\r^\xbf'
p103
tp104
Rp105
sg25
I0
sg26
g27
(g28
(I0
tp106
g30
tp107
Rp108
(I1
(I2
tp109
g36
I00
S'\x1b\x00\x00\x00[\x00\x00\x00'
p110
tp111
bsba(i__main__
FrameData
p112
(dp113
g6
S'a'
p114
sg8
g9
(g13
S'\xa5\xf4a\xf1\x8a05@'
p115
tp116
Rp117
sg19
I0
sg20
g21
(S'\x07\xdd\t\x1d\x13\t\n\r\x9e\xb8'
p118
tp119
Rp120
sg25
I0
sg26
g27
(g28
(I0
tp121
g30
tp122
Rp123
(I1
(I2
tp124
g36
I00
S'\x1e\x00\x00\x00]\x00\x00\x00'
p125
tp126
bsba(i__main__
FrameData
p127
(dp128
g6
g114
sg8
g9
(g13
S'\x88\x80v\xd5\\\x974@'
p129
tp130
Rp131
sg19
I0
sg20
g21
(S'\x07\xdd\t\x1d\x13\t\n\r\xe1\xa8'
p132
tp133
Rp134
sg25
I0
sg26
g27
(g28
(I0
tp135
g30
tp136
Rp137
(I1
(I2
tp138
g36
I00
S'!\x00\x00\x00_\x00\x00\x00'
p139
tp140
bsba(i__main__
FrameData
p141
(dp142
g6
g114
sg8
g9
(g13
S'\xd0Z\x0e\xd2\x03\xcf4@'
p143
tp144
Rp145
sg19
I0
sg20
g21
(S'\x07\xdd\t\x1d\x13\t\n\x0e I'
p146
tp147
Rp148
sg25
I0
sg26
g27
(g28
(I0
tp149
g30
tp150
Rp151
(I1
(I2
tp152
g36
I00
S'#\x00\x00\x00`\x00\x00\x00'
p153
tp154
bsba(i__main__
FrameData
p155
(dp156
g6
S's'
p157
sg8
g9
(g13
S'\x00\x00\x00\x00\x00\x004@'
p158
tp159
Rp160
sg19
I0
sg20
g21
(S'\x07\xdd\t\x1d\x13\t\n\x0eda'
p161
tp162
Rp163
sg25
I0
sg26
g27
(g28
(I0
tp164
g30
tp165
Rp166
(I1
(I2
tp167
g36
I00
S'%\x00\x00\x00a\x00\x00\x00'
p168
tp169
bsba(i__main__
FrameData
p170
(dp171
g6
g157
sg8
g9
(g13
S'A\x87b\xc62\xde2@'
p172
tp173
Rp174
sg19
I0
sg20
g21
(S'\x07\xdd\t\x1d\x13\t\n\x0e\xa7_'
p175
tp176
Rp177
sg25
I0
sg26
g27
(g28
(I0
tp178
g30
tp179
Rp180
(I1
(I2
tp181
g36
I00
S"'\x00\x00\x00a\x00\x00\x00"
p182
tp183
bsba(i__main__
FrameData
p184
(dp185
g6
g157
sg8
g9
(g13
S'\x00\x00\x00\x00\x00\x001@'
p186
tp187
Rp188
sg19
I0
sg20
g21
(S'\x07\xdd\t\x1d\x13\t\n\x0e\xe70'
p189
tp190
Rp191
sg25
I0
sg26
g27
(g28
(I0
tp192
g30
tp193
Rp194
(I1
(I2
tp195
g36
I00
S')\x00\x00\x00b\x00\x00\x00'
p196
tp197
bsba(i__main__
FrameData
p198
(dp199
g6
g157
sg8
g9
(g13
S"v\xa3~{\xce'0@"
p200
tp201
Rp202
sg19
I0
sg20
g21
(S"\x07\xdd\t\x1d\x13\t\n\x0f'\x1a"
p203
tp204
Rp205
sg25
I0
sg26
g27
(g28
(I0
tp206
g30
tp207
Rp208
(I1
(I2
tp209
g36
I00
S'+\x00\x00\x00b\x00\x00\x00'
p210
tp211
bsba(i__main__
FrameData
p212
(dp213
g6
g157
sg8
g9
(g13
S'\xf7\x80Aq\xb9\xa2,@'
p214
tp215
Rp216
sg19
I0
sg20
g21
(S"\x07\xdd\t\x1d\x13\t\x0b\x00'\xa4"
p217
tp218
Rp219
sg25
I0
sg26
g27
(g28
(I0
tp220
g30
tp221
Rp222
(I1
(I2
tp223
g36
I00
S'.\x00\x00\x00c\x00\x00\x00'
p224
tp225
bsba(i__main__
FrameData
p226
(dp227
g6
g157
sg8
g9
(g13
S'Qf\x99\xcb\xa9\x13*@'
p228
tp229
Rp230
sg19
I0
sg20
g21
(S'\x07\xdd\t\x1d\x13\t\x0b\x00e\xe4'
p231
tp232
Rp233
sg25
I0
sg26
g27
(g28
(I0
tp234
g30
tp235
Rp236
(I1
(I2
tp237
g36
I00
S'0\x00\x00\x00d\x00\x00\x00'
p238
tp239
bsba(i__main__
FrameData
p240
(dp241
g6
g157
sg8
g9
(g13
S'S[\xda:XL)@'
p242
tp243
Rp244
sg19
I0
sg20
g21
(S'\x07\xdd\t\x1d\x13\t\x0b\x00\xaa\xb5'
p245
tp246
Rp247
sg25
I0
sg26
g27
(g28
(I0
tp248
g30
tp249
Rp250
(I1
(I2
tp251
g36
I00
S'5\x00\x00\x00e\x00\x00\x00'
p252
tp253
bsba(i__main__
FrameData
p254
(dp255
g6
g157
sg8
g9
(g13
S'\xb4\xb8=iA\xe8*@'
p256
tp257
Rp258
sg19
I0
sg20
g21
(S'\x07\xdd\t\x1d\x13\t\x0b\x00\xe7\xb0'
p259
tp260
Rp261
sg25
I0
sg26
g27
(g28
(I0
tp262
g30
tp263
Rp264
(I1
(I2
tp265
g36
I00
S':\x00\x00\x00g\x00\x00\x00'
p266
tp267
bsba(i__main__
FrameData
p268
(dp269
g6
S'd'
p270
sg8
g9
(g13
S'?*\x98"\xe3l,@'
p271
tp272
Rp273
sg19
I0
sg20
g21
(S'\x07\xdd\t\x1d\x13\t\x0b\x01)N'
p274
tp275
Rp276
sg25
I0
sg26
g27
(g28
(I0
tp277
g30
tp278
Rp279
(I1
(I2
tp280
g36
I00
S'>\x00\x00\x00h\x00\x00\x00'
p281
tp282
bsba(i__main__
FrameData
p283
(dp284
g6
g270
sg8
g9
(g13
S'&5w\xe2K\x15(@'
p285
tp286
Rp287
sg19
I0
sg20
g21
(S'\x07\xdd\t\x1d\x13\t\x0b\x01m`'
p288
tp289
Rp290
sg25
I0
sg26
g27
(g28
(I0
tp291
g30
tp292
Rp293
(I1
(I2
tp294
g36
I00
S'A\x00\x00\x00h\x00\x00\x00'
p295
tp296
bsba(i__main__
FrameData
p297
(dp298
g6
g270
sg8
g9
(g13
S'\x88\x80v\xd5\\\x97$@'
p299
tp300
Rp301
sg19
I0
sg20
g21
(S'\x07\xdd\t\x1d\x13\t\x0b\x01\xb0#'
p302
tp303
Rp304
sg25
I0
sg26
g27
(g28
(I0
tp305
g30
tp306
Rp307
(I1
(I2
tp308
g36
I00
S'D\x00\x00\x00h\x00\x00\x00'
p309
tp310
bsba(i__main__
FrameData
p311
(dp312
g6
g270
sg8
g9
(g13
S'\x9a.\x90!hp"@'
p313
tp314
Rp315
sg19
I0
sg20
g21
(S'\x07\xdd\t\x1d\x13\t\x0b\x01\xf2\xf2'
p316
tp317
Rp318
sg25
I0
sg26
g27
(g28
(I0
tp319
g30
tp320
Rp321
(I1
(I2
tp322
g36
I00
S'G\x00\x00\x00h\x00\x00\x00'
p323
tp324
bsba(i__main__
FrameData
p325
(dp326
g6
g270
sg8
g9
(g13
S'\x9a.\x90!hp"@'
p327
tp328
Rp329
sg19
I0
sg20
g21
(S'\x07\xdd\t\x1d\x13\t\x0b\x020\xa3'
p330
tp331
Rp332
sg25
I0
sg26
g27
(g28
(I0
tp333
g30
tp334
Rp335
(I1
(I2
tp336
g36
I00
S'K\x00\x00\x00h\x00\x00\x00'
p337
tp338
bsba(i__main__
FrameData
p339
(dp340
g6
g270
sg8
g9
(g13
S'&5w\xe2K\x15(@'
p341
tp342
Rp343
sg19
I0
sg20
g21
(S'\x07\xdd\t\x1d\x13\t\x0b\x02o\xca'
p344
tp345
Rp346
sg25
I0
sg26
g27
(g28
(I0
tp347
g30
tp348
Rp349
(I1
(I2
tp350
g36
I00
S'Q\x00\x00\x00h\x00\x00\x00'
p351
tp352
bsba(i__main__
FrameData
p353
(dp354
g6
S'f'
p355
sg8
g9
(g13
S'F#O3\xb2t)@'
p356
tp357
Rp358
sg19
I0
sg20
g21
(S'\x07\xdd\t\x1d\x13\t\x0b\x02\xb1('
p359
tp360
Rp361
sg25
I0
sg26
g27
(g28
(I0
tp362
g30
tp363
Rp364
(I1
(I2
tp365
g36
I00
S'W\x00\x00\x00i\x00\x00\x00'
p366
tp367
bsba(i__main__
FrameData
p368
(dp369
g6
g355
sg8
g9
(g13
S'bVc}\x9d\xb2#@'
p370
tp371
Rp372
sg19
I0
sg20
g21
(S'\x07\xdd\t\x1d\x13\t\x0b\x02\xf3\xff'
p373
tp374
Rp375
sg25
I0
sg26
g27
(g28
(I0
tp376
g30
tp377
Rp378
(I1
(I2
tp379
g36
I00
S'\\\x00\x00\x00i\x00\x00\x00'
p380
tp381
bsba(i__main__
FrameData
p382
(dp383
g6
g355
sg8
g9
(g13
S'$\xf8\xd9p[\x1c"@'
p384
tp385
Rp386
sg19
I0
sg20
g21
(S'\x07\xdd\t\x1d\x13\t\x0b\x032b'
p387
tp388
Rp389
sg25
I0
sg26
g27
(g28
(I0
tp390
g30
tp391
Rp392
(I1
(I2
tp393
g36
I00
S'_\x00\x00\x00i\x00\x00\x00'
p394
tp395
bsba(i__main__
FrameData
p396
(dp397
g6
g355
sg8
g9
(g13
S'\x9a.\x90!hp"@'
p398
tp399
Rp400
sg19
I0
sg20
g21
(S'\x07\xdd\t\x1d\x13\t\x0b\x03v\xb8'
p401
tp402
Rp403
sg25
I0
sg26
g27
(g28
(I0
tp404
g30
tp405
Rp406
(I1
(I2
tp407
g36
I00
S'b\x00\x00\x00i\x00\x00\x00'
p408
tp409
bsba(i__main__
FrameData
p410
(dp411
g6
g355
sg8
g9
(g13
S'bVc}\x9d\xb2#@'
p412
tp413
Rp414
sg19
I0
sg20
g21
(S'\x07\xdd\t\x1d\x13\t\x0b\x03\xb5\x9e'
p415
tp416
Rp417
sg25
I0
sg26
g27
(g28
(I0
tp418
g30
tp419
Rp420
(I1
(I2
tp421
g36
I00
S'd\x00\x00\x00i\x00\x00\x00'
p422
tp423
bsba(i__main__
FrameData
p424
(dp425
g6
g355
sg8
g9
(g13
S'w\x03Is \xa2%@'
p426
tp427
Rp428
sg19
I0
sg20
g21
(S'\x07\xdd\t\x1d\x13\t\x0b\x03\xf6\xed'
p429
tp430
Rp431
sg25
I0
sg26
g27
(g28
(I0
tp432
g30
tp433
Rp434
(I1
(I2
tp435
g36
I00
S'f\x00\x00\x00i\x00\x00\x00'
p436
tp437
bsba(i__main__
FrameData
p438
(dp439
g6
g355
sg8
g9
(g13
S'&5w\xe2K\x15(@'
p440
tp441
Rp442
sg19
I0
sg20
g21
(S'\x07\xdd\t\x1d\x13\t\x0b\x04;\x14'
p443
tp444
Rp445
sg25
I0
sg26
g27
(g28
(I0
tp446
g30
tp447
Rp448
(I1
(I2
tp449
g36
I00
S'h\x00\x00\x00i\x00\x00\x00'
p450
tp451
bsba(i__main__
FrameData
p452
(dp453
g6
g355
sg8
g9
(g13
S'\xb4\xb8=iA\xe8*@'
p454
tp455
Rp456
sg19
I0
sg20
g21
(S'\x07\xdd\t\x1d\x13\t\x0b\x04z\x8c'
p457
tp458
Rp459
sg25
I0
sg26
g27
(g28
(I0
tp460
g30
tp461
Rp462
(I1
(I2
tp463
g36
I00
S'j\x00\x00\x00i\x00\x00\x00'
p464
tp465
bsba(i__main__
FrameData
p466
(dp467
g6
g355
sg8
g9
(g13
S'\x00\x00\x00\x00\x00\x00.@'
p468
tp469
Rp470
sg19
I0
sg20
g21
(S'\x07\xdd\t\x1d\x13\t\x0b\x04\xc8\xc0'
p471
tp472
Rp473
sg25
I0
sg26
g27
(g28
(I0
tp474
g30
tp475
Rp476
(I1
(I2
tp477
g36
I00
S'l\x00\x00\x00i\x00\x00\x00'
p478
tp479
bsba(i__main__
FrameData
p480
(dp481
g6
S'g'
p482
sg8
g9
(g13
S'?*\x98"\xe3l,@'
p483
tp484
Rp485
sg19
I0
sg20
g21
(S'\x07\xdd\t\x1d\x13\t\x0b\x05\x11\x83'
p486
tp487
Rp488
sg25
I0
sg26
g27
(g28
(I0
tp489
g30
tp490
Rp491
(I1
(I2
tp492
g36
I00
S'm\x00\x00\x00i\x00\x00\x00'
p493
tp494
bsba(i__main__
FrameData
p495
(dp496
g6
g482
sg8
g9
(g13
S'\xb4\xb8=iA\xe8*@'
p497
tp498
Rp499
sg19
I0
sg20
g21
(S'\x07\xdd\t\x1d\x13\t\x0b\x05=\x17'
p500
tp501
Rp502
sg25
I0
sg26
g27
(g28
(I0
tp503
g30
tp504
Rp505
(I1
(I2
tp506
g36
I00
S'n\x00\x00\x00i\x00\x00\x00'
p507
tp508
bsba(i__main__
FrameData
p509
(dp510
g6
g482
sg8
g9
(g13
S'&5w\xe2K\x15(@'
p511
tp512
Rp513
sg19
I0
sg20
g21
(S"\x07\xdd\t\x1d\x13\t\x0b\x05\x8c'"
p514
tp515
Rp516
sg25
I0
sg26
g27
(g28
(I0
tp517
g30
tp518
Rp519
(I1
(I2
tp520
g36
I00
S'p\x00\x00\x00i\x00\x00\x00'
p521
tp522
bsba(i__main__
FrameData
p523
(dp524
g6
g482
sg8
g9
(g13
S'\xeb\x12\xb2\xbb\xb2\xcd&@'
p525
tp526
Rp527
sg19
I0
sg20
g21
(S'\x07\xdd\t\x1d\x13\t\x0b\x05\xcb\xb9'
p528
tp529
Rp530
sg25
I0
sg26
g27
(g28
(I0
tp531
g30
tp532
Rp533
(I1
(I2
tp534
g36
I00
S'q\x00\x00\x00i\x00\x00\x00'
p535
tp536
bsba(i__main__
FrameData
p537
(dp538
g6
g482
sg8
g9
(g13
S"\xa2\xa3\xb3\r\xe5R'@"
p539
tp540
Rp541
sg19
I0
sg20
g21
(S'\x07\xdd\t\x1d\x13\t\x0b\x06\x01\x8a'
p542
tp543
Rp544
sg25
I0
sg26
g27
(g28
(I0
tp545
g30
tp546
Rp547
(I1
(I2
tp548
g36
I00
S'r\x00\x00\x00h\x00\x00\x00'
p549
tp550
bsba(i__main__
FrameData
p551
(dp552
g6
g482
sg8
g9
(g13
S"\xe0\x11<m\xceh'@"
p553
tp554
Rp555
sg19
I0
sg20
g21
(S'\x07\xdd\t\x1d\x13\t\x0b\x06H\x8c'
p556
tp557
Rp558
sg25
I0
sg26
g27
(g28
(I0
tp559
g30
tp560
Rp561
(I1
(I2
tp562
g36
I00
S't\x00\x00\x00g\x00\x00\x00'
p563
tp564
bsba(i__main__
FrameData
p565
(dp566
g6
g482
sg8
g9
(g13
S'\x8a\xe3\x07\x1a\x17\xbd(@'
p567
tp568
Rp569
sg19
I0
sg20
g21
(S'\x07\xdd\t\x1d\x13\t\x0b\x06\x88\xe8'
p570
tp571
Rp572
sg25
I0
sg26
g27
(g28
(I0
tp573
g30
tp574
Rp575
(I1
(I2
tp576
g36
I00
S'u\x00\x00\x00f\x00\x00\x00'
p577
tp578
bsba(i__main__
FrameData
p579
(dp580
g6
g482
sg8
g9
(g13
S'Qf\x99\xcb\xa9\x13*@'
p581
tp582
Rp583
sg19
I0
sg20
g21
(S'\x07\xdd\t\x1d\x13\t\x0b\x06\xc5\xb1'
p584
tp585
Rp586
sg25
I0
sg26
g27
(g28
(I0
tp587
g30
tp588
Rp589
(I1
(I2
tp590
g36
I00
S'w\x00\x00\x00e\x00\x00\x00'
p591
tp592
bsba(i__main__
FrameData
p593
(dp594
g6
g482
sg8
g9
(g13
S'\xf7\x80Aq\xb9\xa2,@'
p595
tp596
Rp597
sg19
I0
sg20
g21
(S'\x07\xdd\t\x1d\x13\t\x0b\x07\x13\xa3'
p598
tp599
Rp600
sg25
I0
sg26
g27
(g28
(I0
tp601
g30
tp602
Rp603
(I1
(I2
tp604
g36
I00
S'{\x00\x00\x00d\x00\x00\x00'
p605
tp606
bsba(i__main__
FrameData
p607
(dp608
g6
g482
sg8
g9
(g13
S"'\xf2\x90In\x9f/@"
p609
tp610
Rp611
sg19
I0
sg20
g21
(S'\x07\xdd\t\x1d\x13\t\x0b\x07P\xd7'
p612
tp613
Rp614
sg25
I0
sg26
g27
(g28
(I0
tp615
g30
tp616
Rp617
(I1
(I2
tp618
g36
I00
S'}\x00\x00\x00c\x00\x00\x00'
p619
tp620
bsba(i__main__
FrameData
p621
(dp622
g6
g482
sg8
g9
(g13
S'\xa3\x14\xae\xa8\x87\x161@'
p623
tp624
Rp625
sg19
I0
sg20
g21
(S'\x07\xdd\t\x1d\x13\t\x0b\x07\x87\xe5'
p626
tp627
Rp628
sg25
I0
sg26
g27
(g28
(I0
tp629
g30
tp630
Rp631
(I1
(I2
tp632
g36
I00
S'~\x00\x00\x00b\x00\x00\x00'
p633
tp634
bsba(i__main__
FrameData
p635
(dp636
g6
g482
sg8
g9
(g13
S'\xa8\xf4\x97\x9bw\xe31@'
p637
tp638
Rp639
sg19
I0
sg20
g21
(S'\x07\xdd\t\x1d\x13\t\x0b\x07\xc9R'
p640
tp641
Rp642
sg25
I0
sg26
g27
(g28
(I0
tp643
g30
tp644
Rp645
(I1
(I2
tp646
g36
I00
S'\x80\x00\x00\x00b\x00\x00\x00'
p647
tp648
bsba(i__main__
FrameData
p649
(dp650
g6
g482
sg8
g9
(g13
S'\xc9\xe0>!B<3@'
p651
tp652
Rp653
sg19
I0
sg20
g21
(S'\x07\xdd\t\x1d\x13\t\x0b\x08\x11\xdd'
p654
tp655
Rp656
sg25
I0
sg26
g27
(g28
(I0
tp657
g30
tp658
Rp659
(I1
(I2
tp660
g36
I00
S'\x81\x00\x00\x00a\x00\x00\x00'
p661
tp662
bsba(i__main__
FrameData
p663
(dp664
g6
g482
sg8
g9
(g13
S':\xf0c\xf6\x1b\xb93@'
p665
tp666
Rp667
sg19
I0
sg20
g21
(S'\x07\xdd\t\x1d\x13\t\x0b\x08L\x96'
p668
tp669
Rp670
sg25
I0
sg26
g27
(g28
(I0
tp671
g30
tp672
Rp673
(I1
(I2
tp674
g36
I00
S'\x82\x00\x00\x00a\x00\x00\x00'
p675
tp676
bsba(i__main__
FrameData
p677
(dp678
g6
S'y'
p679
sg8
g9
(g13
S'$\xf8\xd9p[\x1c2@'
p680
tp681
Rp682
sg19
I0
sg20
g21
(S'\x07\xdd\t\x1d\x13\t\x0b\x08\x9a\x89'
p683
tp684
Rp685
sg25
I0
sg26
g27
(g28
(I0
tp686
g30
tp687
Rp688
(I1
(I2
tp689
g36
I00
S'\x84\x00\x00\x00_\x00\x00\x00'
p690
tp691
bsba(i__main__
FrameData
p692
(dp693
g6
g679
sg8
g9
(g13
S'+\xe5\x8a\xc6\x8f?2@'
p694
tp695
Rp696
sg19
I0
sg20
g21
(S'\x07\xdd\t\x1d\x13\t\x0b\x08\xe0\xb6'
p697
tp698
Rp699
sg25
I0
sg26
g27
(g28
(I0
tp700
g30
tp701
Rp702
(I1
(I2
tp703
g36
I00
S'\x85\x00\x00\x00_\x00\x00\x00'
p704
tp705
bsba(i__main__
FrameData
p706
(dp707
g6
g679
sg8
g9
(g13
S'\xa8y\x0c\t\xd9v1@'
p708
tp709
Rp710
sg19
I0
sg20
g21
(S'\x07\xdd\t\x1d\x13\t\x0b\t e'
p711
tp712
Rp713
sg25
I0
sg26
g27
(g28
(I0
tp714
g30
tp715
Rp716
(I1
(I2
tp717
g36
I00
S'\x86\x00\x00\x00^\x00\x00\x00'
p718
tp719
bsba(i__main__
FrameData
p720
(dp721
g6
g679
sg8
g9
(g13
S'>9\x15\x8cW\xc30@'
p722
tp723
Rp724
sg19
I0
sg20
g21
(S'\x07\xdd\t\x1d\x13\t\x0b\tVU'
p725
tp726
Rp727
sg25
I0
sg26
g27
(g28
(I0
tp728
g30
tp729
Rp730
(I1
(I2
tp731
g36
I00
S'\x87\x00\x00\x00]\x00\x00\x00'
p732
tp733
bsba(i__main__
FrameData
p734
(dp735
g6
g679
sg8
g9
(g13
S'\xc5Bl?W\x87.@'
p736
tp737
Rp738
sg19
I0
sg20
g21
(S'\x07\xdd\t\x1d\x13\t\x0b\t\x9c\x04'
p739
tp740
Rp741
sg25
I0
sg26
g27
(g28
(I0
tp742
g30
tp743
Rp744
(I1
(I2
tp745
g36
I00
S'\x8a\x00\x00\x00Z\x00\x00\x00'
p746
tp747
bsba(i__main__
FrameData
p748
(dp749
g6
g679
sg8
g9
(g13
S'/\xa4\xe3\\m\xbb-@'
p750
tp751
Rp752
sg19
I0
sg20
g21
(S'\x07\xdd\t\x1d\x13\t\x0b\t\xd8\x8c'
p753
tp754
Rp755
sg25
I0
sg26
g27
(g28
(I0
tp756
g30
tp757
Rp758
(I1
(I2
tp759
g36
I00
S'\x8c\x00\x00\x00X\x00\x00\x00'
p760
tp761
bsba(i__main__
FrameData
p762
(dp763
g6
g679
sg8
g9
(g13
S'\xb4\xb8=iA\xe8*@'
p764
tp765
Rp766
sg19
I0
sg20
g21
(S'\x07\xdd\t\x1d\x13\t\x0b\n\x1f\xe3'
p767
tp768
Rp769
sg25
I0
sg26
g27
(g28
(I0
tp770
g30
tp771
Rp772
(I1
(I2
tp773
g36
I00
S'\x8c\x00\x00\x00V\x00\x00\x00'
p774
tp775
bsba(i__main__
FrameData
p776
(dp777
g6
g679
sg8
g9
(g13
S'\xf3YaD+\xd8,@'
p778
tp779
Rp780
sg19
I0
sg20
g21
(S'\x07\xdd\t\x1d\x13\t\x0b\n_\x86'
p781
tp782
Rp783
sg25
I0
sg26
g27
(g28
(I0
tp784
g30
tp785
Rp786
(I1
(I2
tp787
g36
I00
S'\x8e\x00\x00\x00U\x00\x00\x00'
p788
tp789
bsba(i__main__
FrameData
p790
(dp791
g6
S'u'
p792
sg8
g9
(g13
S'\xcd;\x7ff\x9e\xa0&@'
p793
tp794
Rp795
sg19
I0
sg20
g21
(S'\x07\xdd\t\x1d\x13\t\x0b\n\x97\xf4'
p796
tp797
Rp798
sg25
I0
sg26
g27
(g28
(I0
tp799
g30
tp800
Rp801
(I1
(I2
tp802
g36
I00
S'\x90\x00\x00\x00R\x00\x00\x00'
p803
tp804
bsba(i__main__
FrameData
p805
(dp806
g6
g792
sg8
g9
(g13
S'\x00\x00\x00\x00\x00\x00$@'
p807
tp808
Rp809
sg19
I0
sg20
g21
(S'\x07\xdd\t\x1d\x13\t\x0b\n\xe3-'
p810
tp811
Rp812
sg25
I0
sg26
g27
(g28
(I0
tp813
g30
tp814
Rp815
(I1
(I2
tp816
g36
I00
S'\x90\x00\x00\x00P\x00\x00\x00'
p817
tp818
bsba(i__main__
FrameData
p819
(dp820
g6
g792
sg8
g9
(g13
S'\xf3YaD+\xd8\x1c@'
p821
tp822
Rp823
sg19
I0
sg20
g21
(S'\x07\xdd\t\x1d\x13\t\x0b\x0b1\xb7'
p824
tp825
Rp826
sg25
I0
sg26
g27
(g28
(I0
tp827
g30
tp828
Rp829
(I1
(I2
tp830
g36
I00
S'\x92\x00\x00\x00N\x00\x00\x00'
p831
tp832
bsba(i__main__
FrameData
p833
(dp834
g6
g792
sg8
g9
(g13
S'\xfc\xeeci3\xd5\x1a@'
p835
tp836
Rp837
sg19
I0
sg20
g21
(S'\x07\xdd\t\x1d\x13\t\x0b\x0bg\xa4'
p838
tp839
Rp840
sg25
I0
sg26
g27
(g28
(I0
tp841
g30
tp842
Rp843
(I1
(I2
tp844
g36
I00
S'\x92\x00\x00\x00M\x00\x00\x00'
p845
tp846
bsba(i__main__
FrameData
p847
(dp848
g6
g792
sg8
g9
(g13
S'\xf3\xd9\xa8\xa4h\x8a\x15@'
p849
tp850
Rp851
sg19
I0
sg20
g21
(S'\x07\xdd\t\x1d\x13\t\x0b\x0b\xa6\xa2'
p852
tp853
Rp854
sg25
I0
sg26
g27
(g28
(I0
tp855
g30
tp856
Rp857
(I1
(I2
tp858
g36
I00
S'\x93\x00\x00\x00L\x00\x00\x00'
p859
tp860
bsba(i__main__
FrameData
p861
(dp862
g6
g792
sg8
g9
(g13
S'\x00\x00\x00\x00\x00\x00\x08@'
p863
tp864
Rp865
sg19
I0
sg20
g21
(S'\x07\xdd\t\x1d\x13\t\x0b\x0b\xee\x18'
p866
tp867
Rp868
sg25
I0
sg26
g27
(g28
(I0
tp869
g30
tp870
Rp871
(I1
(I2
tp872
g36
I00
S'\x95\x00\x00\x00J\x00\x00\x00'
p873
tp874
bsba(i__main__
FrameData
p875
(dp876
g6
g792
sg8
g9
(g13
S'S[\xda:XL\t@'
p877
tp878
Rp879
sg19
I0
sg20
g21
(S'\x07\xdd\t\x1d\x13\t\x0b\x0ci\xf4'
p880
tp881
Rp882
sg25
I0
sg26
g27
(g28
(I0
tp883
g30
tp884
Rp885
(I1
(I2
tp886
g36
I00
S'\x95\x00\x00\x00I\x00\x00\x00'
p887
tp888
bsba(i__main__
FrameData
p889
(dp890
g6
g792
sg8
g9
(g13
S'\xa8\xf4\x97\x9bw\xe3\x01@'
p891
tp892
Rp893
sg19
I0
sg20
g21
(S'\x07\xdd\t\x1d\x13\t\x0b\x0c\xa9G'
p894
tp895
Rp896
sg25
I0
sg26
g27
(g28
(I0
tp897
g30
tp898
Rp899
(I1
(I2
tp900
g36
I00
S'\x96\x00\x00\x00I\x00\x00\x00'
p901
tp902
bsba(i__main__
FrameData
p903
(dp904
g6
g792
sg8
g9
(g13
S'\xcd;\x7ff\x9e\xa0\x06@'
p905
tp906
Rp907
sg19
I0
sg20
g21
(S'\x07\xdd\t\x1d\x13\t\x0b\x0c\xe8\xdb'
p908
tp909
Rp910
sg25
I0
sg26
g27
(g28
(I0
tp911
g30
tp912
Rp913
(I1
(I2
tp914
g36
I00
S'\x96\x00\x00\x00H\x00\x00\x00'
p915
tp916
bsba(i__main__
FrameData
p917
(dp918
g6
g792
sg8
g9
(g13
S'S[\xda:XL\t@'
p919
tp920
Rp921
sg19
I0
sg20
g21
(S'\x07\xdd\t\x1d\x13\t\x0b\rd\xa1'
p922
tp923
Rp924
sg25
I0
sg26
g27
(g28
(I0
tp925
g30
tp926
Rp927
(I1
(I2
tp928
g36
I00
S'\x97\x00\x00\x00G\x00\x00\x00'
p929
tp930
bsba(i__main__
FrameData
p931
(dp932
g6
g792
sg8
g9
(g13
S'\x07\xed\xaff\x0f~\x10@'
p933
tp934
Rp935
sg19
I0
sg20
g21
(S'\x07\xdd\t\x1d\x13\t\x0b\r\xac\xc4'
p936
tp937
Rp938
sg25
I0
sg26
g27
(g28
(I0
tp939
g30
tp940
Rp941
(I1
(I2
tp942
g36
I00
S'\x97\x00\x00\x00F\x00\x00\x00'
p943
tp944
bsba(i__main__
FrameData
p945
(dp946
g6
g792
sg8
g9
(g13
S'\x00\x00\x00\x00\x00\x00\x14@'
p947
tp948
Rp949
sg19
I0
sg20
g21
(S'\x07\xdd\t\x1d\x13\t\x0b\r\xffz'
p950
tp951
Rp952
sg25
I0
sg26
g27
(g28
(I0
tp953
g30
tp954
Rp955
(I1
(I2
tp956
g36
I00
S'\x98\x00\x00\x00E\x00\x00\x00'
p957
tp958
bsba(i__main__
FrameData
p959
(dp960
g6
g792
sg8
g9
(g13
S'\x00\x00\x00\x00\x00\x00\x10@'
p961
tp962
Rp963
sg19
I0
sg20
g21
(S'\x07\xdd\t\x1d\x13\t\x0c\x01\xca\x8f'
p964
tp965
Rp966
sg25
I0
sg26
g27
(g28
(I0
tp967
g30
tp968
Rp969
(I1
(I2
tp970
g36
I00
S'\x98\x00\x00\x00F\x00\x00\x00'
p971
tp972
bsba(i__main__
FrameData
p973
(dp974
g6
g792
sg8
g9
(g13
S'\x00\x00\x00\x00\x00\x00\x08@'
p975
tp976
Rp977
sg19
I0
sg20
g21
(S'\x07\xdd\t\x1d\x13\t\x0c\x02>}'
p978
tp979
Rp980
sg25
I0
sg26
g27
(g28
(I0
tp981
g30
tp982
Rp983
(I1
(I2
tp984
g36
I00
S'\x98\x00\x00\x00G\x00\x00\x00'
p985
tp986
bsba(i__main__
FrameData
p987
(dp988
g6
g792
sg8
g9
(g13
S'\x00\x00\x00\x00\x00\x00\x00@'
p989
tp990
Rp991
sg19
I0
sg20
g21
(S'\x07\xdd\t\x1d\x13\t\x0c\x02\x8a\x04'
p992
tp993
Rp994
sg25
I0
sg26
g27
(g28
(I0
tp995
g30
tp996
Rp997
(I1
(I2
tp998
g36
I00
S'\x98\x00\x00\x00H\x00\x00\x00'
p999
tp1000
bsba(i__main__
FrameData
p1001
(dp1002
g6
g792
sg8
g9
(g13
S'\xa8\xf4\x97\x9bw\xe3\x01@'
p1003
tp1004
Rp1005
sg19
I0
sg20
g21
(S'\x07\xdd\t\x1d\x13\t\x0c\x02\xc1\x9e'
p1006
tp1007
Rp1008
sg25
I0
sg26
g27
(g28
(I0
tp1009
g30
tp1010
Rp1011
(I1
(I2
tp1012
g36
I00
S'\x97\x00\x00\x00H\x00\x00\x00'
p1013
tp1014
bsba(i__main__
FrameData
p1015
(dp1016
g6
g792
sg8
g9
(g13
S'\x00\x00\x00\x00\x00\x00\xf0?'
p1017
tp1018
Rp1019
sg19
I0
sg20
g21
(S'\x07\xdd\t\x1d\x13\t\x0c\x03\x00m'
p1020
tp1021
Rp1022
sg25
I0
sg26
g27
(g28
(I0
tp1023
g30
tp1024
Rp1025
(I1
(I2
tp1026
g36
I00
S'\x97\x00\x00\x00J\x00\x00\x00'
p1027
tp1028
bsba(i__main__
FrameData
p1029
(dp1030
g6
g792
sg8
g9
(g13
S'\xcd;\x7ff\x9e\xa0\xf6?'
p1031
tp1032
Rp1033
sg19
I0
sg20
g21
(S'\x07\xdd\t\x1d\x13\t\x0c\x03CI'
p1034
tp1035
Rp1036
sg25
I0
sg26
g27
(g28
(I0
tp1037
g30
tp1038
Rp1039
(I1
(I2
tp1040
g36
I00
S'\x97\x00\x00\x00K\x00\x00\x00'
p1041
tp1042
bsba(i__main__
FrameData
p1043
(dp1044
g6
g792
sg8
g9
(g13
S'\xa8\xf4\x97\x9bw\xe3\x01@'
p1045
tp1046
Rp1047
sg19
I0
sg20
g21
(S'\x07\xdd\t\x1d\x13\t\x0c\x03~E'
p1048
tp1049
Rp1050
sg25
I0
sg26
g27
(g28
(I0
tp1051
g30
tp1052
Rp1053
(I1
(I2
tp1054
g36
I00
S'\x97\x00\x00\x00L\x00\x00\x00'
p1055
tp1056
bsba(i__main__
FrameData
p1057
(dp1058
g6
g792
sg8
g9
(g13
S'\xf3YaD+\xd8\x0c@'
p1059
tp1060
Rp1061
sg19
I0
sg20
g21
(S'\x07\xdd\t\x1d\x13\t\x0c\x03\xc0+'
p1062
tp1063
Rp1064
sg25
I0
sg26
g27
(g28
(I0
tp1065
g30
tp1066
Rp1067
(I1
(I2
tp1068
g36
I00
S'\x95\x00\x00\x00L\x00\x00\x00'
p1069
tp1070
bsba(i__main__
FrameData
p1071
(dp1072
g6
g792
sg8
g9
(g13
S'\x00\x00\x00\x00\x00\x00\x14@'
p1073
tp1074
Rp1075
sg19
I0
sg20
g21
(S'\x07\xdd\t\x1d\x13\t\x0c\x04\x00h'
p1076
tp1077
Rp1078
sg25
I0
sg26
g27
(g28
(I0
tp1079
g30
tp1080
Rp1081
(I1
(I2
tp1082
g36
I00
S'\x94\x00\x00\x00M\x00\x00\x00'
p1083
tp1084
bsba(i__main__
FrameData
p1085
(dp1086
g6
g792
sg8
g9
(g13
S'\xd9l\xdf\xccv\xf8 @'
p1087
tp1088
Rp1089
sg19
I0
sg20
g21
(S'\x07\xdd\t\x1d\x13\t\x0c\x04S\x93'
p1090
tp1091
Rp1092
sg25
I0
sg26
g27
(g28
(I0
tp1093
g30
tp1094
Rp1095
(I1
(I2
tp1096
g36
I00
S'\x92\x00\x00\x00P\x00\x00\x00'
p1097
tp1098
bsba(i__main__
FrameData
p1099
(dp1100
g6
g792
sg8
g9
(g13
S'&5w\xe2K\x15(@'
p1101
tp1102
Rp1103
sg19
I0
sg20
g21
(S'\x07\xdd\t\x1d\x13\t\x0c\x04\x81\xc0'
p1104
tp1105
Rp1106
sg25
I0
sg26
g27
(g28
(I0
tp1107
g30
tp1108
Rp1109
(I1
(I2
tp1110
g36
I00
S'\x90\x00\x00\x00S\x00\x00\x00'
p1111
tp1112
bsba(i__main__
FrameData
p1113
(dp1114
g6
g792
sg8
g9
(g13
S'\xb4\xb8=iA\xe8*@'
p1115
tp1116
Rp1117
sg19
I0
sg20
g21
(S'\x07\xdd\t\x1d\x13\t\x0c\x04\xc3N'
p1118
tp1119
Rp1120
sg25
I0
sg26
g27
(g28
(I0
tp1121
g30
tp1122
Rp1123
(I1
(I2
tp1124
g36
I00
S'\x8f\x00\x00\x00T\x00\x00\x00'
p1125
tp1126
bsba(i__main__
FrameData
p1127
(dp1128
g6
g679
sg8
g9
(g13
S'\xb4\xb8=iA\xe8*@'
p1129
tp1130
Rp1131
sg19
I0
sg20
g21
(S'\x07\xdd\t\x1d\x13\t\x0c\x05\x1e\n'
p1132
tp1133
Rp1134
sg25
I0
sg26
g27
(g28
(I0
tp1135
g30
tp1136
Rp1137
(I1
(I2
tp1138
g36
I00
S'\x8c\x00\x00\x00V\x00\x00\x00'
p1139
tp1140
bsba(i__main__
FrameData
p1141
(dp1142
g6
g679
sg8
g9
(g13
S'\xef\rI\xf1\xf33+@'
p1143
tp1144
Rp1145
sg19
I0
sg20
g21
(S'\x07\xdd\t\x1d\x13\t\x0c\x05E\xa7'
p1146
tp1147
Rp1148
sg25
I0
sg26
g27
(g28
(I0
tp1149
g30
tp1150
Rp1151
(I1
(I2
tp1152
g36
I00
S'\x8a\x00\x00\x00X\x00\x00\x00'
p1153
tp1154
bsba(i__main__
FrameData
p1155
(dp1156
g6
g679
sg8
g9
(g13
S'[y\xf7F\xf7C.@'
p1157
tp1158
Rp1159
sg19
I0
sg20
g21
(S'\x07\xdd\t\x1d\x13\t\x0c\x05\x92d'
p1160
tp1161
Rp1162
sg25
I0
sg26
g27
(g28
(I0
tp1163
g30
tp1164
Rp1165
(I1
(I2
tp1166
g36
I00
S'\x84\x00\x00\x00\\\x00\x00\x00'
p1167
tp1168
bsba(i__main__
FrameData
p1169
(dp1170
g6
g679
sg8
g9
(g13
S'\x9a.\x90!hp2@'
p1171
tp1172
Rp1173
sg19
I0
sg20
g21
(S'\x07\xdd\t\x1d\x13\t\x0c\x05\xdcg'
p1174
tp1175
Rp1176
sg25
I0
sg26
g27
(g28
(I0
tp1177
g30
tp1178
Rp1179
(I1
(I2
tp1180
g36
I00
S'~\x00\x00\x00_\x00\x00\x00'
p1181
tp1182
bsba(i__main__
FrameData
p1183
(dp1184
g6
g482
sg8
g9
(g13
S'$\xf8\xd9p[\x1c2@'
p1185
tp1186
Rp1187
sg19
I0
sg20
g21
(S'\x07\xdd\t\x1d\x13\t\x0c\x06\x10\xa8'
p1188
tp1189
Rp1190
sg25
I0
sg26
g27
(g28
(I0
tp1191
g30
tp1192
Rp1193
(I1
(I2
tp1194
g36
I00
S'z\x00\x00\x00`\x00\x00\x00'
p1195
tp1196
bsba(i__main__
FrameData
p1197
(dp1198
g6
g482
sg8
g9
(g13
S'p`\xff\x00\xfe\x070@'
p1199
tp1200
Rp1201
sg19
I0
sg20
g21
(S'\x07\xdd\t\x1d\x13\t\x0c\x06PS'
p1202
tp1203
Rp1204
sg25
I0
sg26
g27
(g28
(I0
tp1205
g30
tp1206
Rp1207
(I1
(I2
tp1208
g36
I00
S'w\x00\x00\x00b\x00\x00\x00'
p1209
tp1210
bsba(i__main__
FrameData
p1211
(dp1212
g6
g482
sg8
g9
(g13
S"v\xa3~{\xce'0@"
p1213
tp1214
Rp1215
sg19
I0
sg20
g21
(S'\x07\xdd\t\x1d\x13\t\x0c\x06\x97\x01'
p1216
tp1217
Rp1218
sg25
I0
sg26
g27
(g28
(I0
tp1219
g30
tp1220
Rp1221
(I1
(I2
tp1222
g36
I00
S'r\x00\x00\x00c\x00\x00\x00'
p1223
tp1224
bsba(i__main__
FrameData
p1225
(dp1226
g6
g482
sg8
g9
(g13
S'\xb9\xbaF\xca+~1@'
p1227
tp1228
Rp1229
sg19
I0
sg20
g21
(S'\x07\xdd\t\x1d\x13\t\x0c\x06\xcdi'
p1230
tp1231
Rp1232
sg25
I0
sg26
g27
(g28
(I0
tp1233
g30
tp1234
Rp1235
(I1
(I2
tp1236
g36
I00
S'o\x00\x00\x00c\x00\x00\x00'
p1237
tp1238
bsba(i__main__
FrameData
p1239
(dp1240
g6
g355
sg8
g9
(g13
S'8\xd8\xbc\n\x1b\x072@'
p1241
tp1242
Rp1243
sg19
I0
sg20
g21
(S'\x07\xdd\t\x1d\x13\t\x0c\x07\x1cr'
p1244
tp1245
Rp1246
sg25
I0
sg26
g27
(g28
(I0
tp1247
g30
tp1248
Rp1249
(I1
(I2
tp1250
g36
I00
S'j\x00\x00\x00c\x00\x00\x00'
p1251
tp1252
bsba(i__main__
FrameData
p1253
(dp1254
g6
g355
sg8
g9
(g13
S'\x00\x00\x00\x00\x00\x001@'
p1255
tp1256
Rp1257
sg19
I0
sg20
g21
(S'\x07\xdd\t\x1d\x13\t\x0c\x07P\x07'
p1258
tp1259
Rp1260
sg25
I0
sg26
g27
(g28
(I0
tp1261
g30
tp1262
Rp1263
(I1
(I2
tp1264
g36
I00
S'h\x00\x00\x00c\x00\x00\x00'
p1265
tp1266
bsba(i__main__
FrameData
p1267
(dp1268
g6
g355
sg8
g9
(g13
S'\xf2G\x9b\x0e\x18\x98.@'
p1269
tp1270
Rp1271
sg19
I0
sg20
g21
(S'\x07\xdd\t\x1d\x13\t\x0c\x07\x90\n'
p1272
tp1273
Rp1274
sg25
I0
sg26
g27
(g28
(I0
tp1275
g30
tp1276
Rp1277
(I1
(I2
tp1278
g36
I00
S'c\x00\x00\x00c\x00\x00\x00'
p1279
tp1280
bsba(i__main__
FrameData
p1281
(dp1282
g6
g355
sg8
g9
(g13
S'[y\xf7F\xf7C.@'
p1283
tp1284
Rp1285
sg19
I0
sg20
g21
(S'\x07\xdd\t\x1d\x13\t\x0c\x07\xdf\xeb'
p1286
tp1287
Rp1288
sg25
I0
sg26
g27
(g28
(I0
tp1289
g30
tp1290
Rp1291
(I1
(I2
tp1292
g36
I00
S'^\x00\x00\x00c\x00\x00\x00'
p1293
tp1294
bsba(i__main__
FrameData
p1295
(dp1296
g6
g355
sg8
g9
(g13
S"v\xa3~{\xce'0@"
p1297
tp1298
Rp1299
sg19
I0
sg20
g21
(S'\x07\xdd\t\x1d\x13\t\x0c\x08.g'
p1300
tp1301
Rp1302
sg25
I0
sg26
g27
(g28
(I0
tp1303
g30
tp1304
Rp1305
(I1
(I2
tp1306
g36
I00
S'Z\x00\x00\x00c\x00\x00\x00'
p1307
tp1308
bsba(i__main__
FrameData
p1309
(dp1310
g6
g270
sg8
g9
(g13
S'\x9a.\x90!hp2@'
p1311
tp1312
Rp1313
sg19
I0
sg20
g21
(S'\x07\xdd\t\x1d\x13\t\x0c\x08V\x07'
p1314
tp1315
Rp1316
sg25
I0
sg26
g27
(g28
(I0
tp1317
g30
tp1318
Rp1319
(I1
(I2
tp1320
g36
I00
S'U\x00\x00\x00c\x00\x00\x00'
p1321
tp1322
bsba(i__main__
FrameData
p1323
(dp1324
g6
g270
sg8
g9
(g13
S'\xd0\xbaa?\xe0\x1f0@'
p1325
tp1326
Rp1327
sg19
I0
sg20
g21
(S'\x07\xdd\t\x1d\x13\t\x0c\x08\x96\x81'
p1328
tp1329
Rp1330
sg25
I0
sg26
g27
(g28
(I0
tp1331
g30
tp1332
Rp1333
(I1
(I2
tp1334
g36
I00
S'Q\x00\x00\x00c\x00\x00\x00'
p1335
tp1336
bsba(i__main__
FrameData
p1337
(dp1338
g6
g270
sg8
g9
(g13
S'\xe9\xfbv \xd5\x1e-@'
p1339
tp1340
Rp1341
sg19
I0
sg20
g21
(S'\x07\xdd\t\x1d\x13\t\x0c\x08\xe5>'
p1342
tp1343
Rp1344
sg25
I0
sg26
g27
(g28
(I0
tp1345
g30
tp1346
Rp1347
(I1
(I2
tp1348
g36
I00
S'M\x00\x00\x00c\x00\x00\x00'
p1349
tp1350
bsba(i__main__
FrameData
p1351
(dp1352
g6
g270
sg8
g9
(g13
S')\x03\xec/C\x12,@'
p1353
tp1354
Rp1355
sg19
I0
sg20
g21
(S'\x07\xdd\t\x1d\x13\t\x0c\t,\xe3'
p1356
tp1357
Rp1358
sg25
I0
sg26
g27
(g28
(I0
tp1359
g30
tp1360
Rp1361
(I1
(I2
tp1362
g36
I00
S'J\x00\x00\x00c\x00\x00\x00'
p1363
tp1364
bsba(i__main__
FrameData
p1365
(dp1366
g6
g270
sg8
g9
(g13
S'\xc0\n\x1f\x00\xc6H,@'
p1367
tp1368
Rp1369
sg19
I0
sg20
g21
(S'\x07\xdd\t\x1d\x13\t\x0c\teA'
p1370
tp1371
Rp1372
sg25
I0
sg26
g27
(g28
(I0
tp1373
g30
tp1374
Rp1375
(I1
(I2
tp1376
g36
I00
S'G\x00\x00\x00c\x00\x00\x00'
p1377
tp1378
bsba(i__main__
FrameData
p1379
(dp1380
g6
g270
sg8
g9
(g13
S"v\xa3~{\xce'0@"
p1381
tp1382
Rp1383
sg19
I0
sg20
g21
(S'\x07\xdd\t\x1d\x13\t\x0c\t\xa11'
p1384
tp1385
Rp1386
sg25
I0
sg26
g27
(g28
(I0
tp1387
g30
tp1388
Rp1389
(I1
(I2
tp1390
g36
I00
S'C\x00\x00\x00b\x00\x00\x00'
p1391
tp1392
bsba(i__main__
FrameData
p1393
(dp1394
g6
g270
sg8
g9
(g13
S'\xa8y\x0c\t\xd9v1@'
p1395
tp1396
Rp1397
sg19
I0
sg20
g21
(S'\x07\xdd\t\x1d\x13\t\x0c\t\xe3;'
p1398
tp1399
Rp1400
sg25
I0
sg26
g27
(g28
(I0
tp1401
g30
tp1402
Rp1403
(I1
(I2
tp1404
g36
I00
S'B\x00\x00\x00a\x00\x00\x00'
p1405
tp1406
bsba(i__main__
FrameData
p1407
(dp1408
g6
g270
sg8
g9
(g13
S'\xbf\x8f+\t\x89[2@'
p1409
tp1410
Rp1411
sg19
I0
sg20
g21
(S'\x07\xdd\t\x1d\x13\t\x0c\n \xbc'
p1412
tp1413
Rp1414
sg25
I0
sg26
g27
(g28
(I0
tp1415
g30
tp1416
Rp1417
(I1
(I2
tp1418
g36
I00
S'@\x00\x00\x00a\x00\x00\x00'
p1419
tp1420
bsba(i__main__
FrameData
p1421
(dp1422
g6
g270
sg8
g9
(g13
S'/vo\xf2\x9ej3@'
p1423
tp1424
Rp1425
sg19
I0
sg20
g21
(S'\x07\xdd\t\x1d\x13\t\x0c\n_\x80'
p1426
tp1427
Rp1428
sg25
I0
sg26
g27
(g28
(I0
tp1429
g30
tp1430
Rp1431
(I1
(I2
tp1432
g36
I00
S'>\x00\x00\x00a\x00\x00\x00'
p1433
tp1434
bsba(i__main__
FrameData
p1435
(dp1436
g6
S'e'
p1437
sg8
g9
(g13
S'\xf0)#L\x89\x194@'
p1438
tp1439
Rp1440
sg19
I0
sg20
g21
(S'\x07\xdd\t\x1d\x13\t\x0c\n\xb2\xa6'
p1441
tp1442
Rp1443
sg25
I0
sg26
g27
(g28
(I0
tp1444
g30
tp1445
Rp1446
(I1
(I2
tp1447
g36
I00
S'=\x00\x00\x00`\x00\x00\x00'
p1448
tp1449
bsba(i__main__
FrameData
p1450
(dp1451
g6
g1437
sg8
g9
(g13
S'^\x9e\x9f\x85\xdf\x1a3@'
p1452
tp1453
Rp1454
sg19
I0
sg20
g21
(S'\x07\xdd\t\x1d\x13\t\x0c\n\xfa\x99'
p1455
tp1456
Rp1457
sg25
I0
sg26
g27
(g28
(I0
tp1458
g30
tp1459
Rp1460
(I1
(I2
tp1461
g36
I00
S'=\x00\x00\x00_\x00\x00\x00'
p1462
tp1463
bsba(i__main__
FrameData
p1464
(dp1465
g6
g1437
sg8
g9
(g13
S'\x00\x00\x00\x00\x00\x003@'
p1466
tp1467
Rp1468
sg19
I0
sg20
g21
(S"\x07\xdd\t\x1d\x13\t\x0c\x0b'\xd8"
p1469
tp1470
Rp1471
sg25
I0
sg26
g27
(g28
(I0
tp1472
g30
tp1473
Rp1474
(I1
(I2
tp1475
g36
I00
S';\x00\x00\x00_\x00\x00\x00'
p1476
tp1477
bsba(i__main__
FrameData
p1478
(dp1479
g6
g1437
sg8
g9
(g13
S'\x00\x00\x00\x00\x00\x001@'
p1480
tp1481
Rp1482
sg19
I0
sg20
g21
(S'\x07\xdd\t\x1d\x13\t\x0c\x0bd\xd6'
p1483
tp1484
Rp1485
sg25
I0
sg26
g27
(g28
(I0
tp1486
g30
tp1487
Rp1488
(I1
(I2
tp1489
g36
I00
S';\x00\x00\x00]\x00\x00\x00'
p1490
tp1491
bsba(i__main__
FrameData
p1492
(dp1493
g6
g1437
sg8
g9
(g13
S'p`\xff\x00\xfe\x070@'
p1494
tp1495
Rp1496
sg19
I0
sg20
g21
(S'\x07\xdd\t\x1d\x13\t\x0c\x0b\xb3?'
p1497
tp1498
Rp1499
sg25
I0
sg26
g27
(g28
(I0
tp1500
g30
tp1501
Rp1502
(I1
(I2
tp1503
g36
I00
S':\x00\x00\x00\\\x00\x00\x00'
p1504
tp1505
bsba(i__main__
FrameData
p1506
(dp1507
g6
g1437
sg8
g9
(g13
S')\x03\xec/C\x12,@'
p1508
tp1509
Rp1510
sg19
I0
sg20
g21
(S'\x07\xdd\t\x1d\x13\t\x0c\x0c\x01\x1e'
p1511
tp1512
Rp1513
sg25
I0
sg26
g27
(g28
(I0
tp1514
g30
tp1515
Rp1516
(I1
(I2
tp1517
g36
I00
S':\x00\x00\x00Z\x00\x00\x00'
p1518
tp1519
bsba(i__main__
FrameData
p1520
(dp1521
g6
g1437
sg8
g9
(g13
S'\xde4\xda\xfeNN*@'
p1522
tp1523
Rp1524
sg19
I0
sg20
g21
(S'\x07\xdd\t\x1d\x13\t\x0c\x0cv\x89'
p1525
tp1526
Rp1527
sg25
I0
sg26
g27
(g28
(I0
tp1528
g30
tp1529
Rp1530
(I1
(I2
tp1531
g36
I00
S'9\x00\x00\x00Y\x00\x00\x00'
p1532
tp1533
bsba(i__main__
FrameData
p1534
(dp1535
g6
g1437
sg8
g9
(g13
S'9\xdcc\xb3\xbfT(@'
p1536
tp1537
Rp1538
sg19
I0
sg20
g21
(S'\x07\xdd\t\x1d\x13\t\x0c\x0c\xa95'
p1539
tp1540
Rp1541
sg25
I0
sg26
g27
(g28
(I0
tp1542
g30
tp1543
Rp1544
(I1
(I2
tp1545
g36
I00
S'9\x00\x00\x00X\x00\x00\x00'
p1546
tp1547
bsba(i__main__
FrameData
p1548
(dp1549
g6
g1437
sg8
g9
(g13
S'\xd2\xf1}\x82U\\&@'
p1550
tp1551
Rp1552
sg19
I0
sg20
g21
(S'\x07\xdd\t\x1d\x13\t\x0c\x0c\xeb\xc7'
p1553
tp1554
Rp1555
sg25
I0
sg26
g27
(g28
(I0
tp1556
g30
tp1557
Rp1558
(I1
(I2
tp1559
g36
I00
S'9\x00\x00\x00W\x00\x00\x00'
p1560
tp1561
bsba(i__main__
FrameData
p1562
(dp1563
g6
g1437
sg8
g9
(g13
S'\xf6/\x12_ee$@'
p1564
tp1565
Rp1566
sg19
I0
sg20
g21
(S'\x07\xdd\t\x1d\x13\t\x0c\r9\xd0'
p1567
tp1568
Rp1569
sg25
I0
sg26
g27
(g28
(I0
tp1570
g30
tp1571
Rp1572
(I1
(I2
tp1573
g36
I00
S'9\x00\x00\x00V\x00\x00\x00'
p1574
tp1575
bsba(i__main__
FrameData
p1576
(dp1577
g6
g1437
sg8
g9
(g13
S'\x9a.\x90!hp"@'
p1578
tp1579
Rp1580
sg19
I0
sg20
g21
(S'\x07\xdd\t\x1d\x13\t\x0c\r\x87\xa7'
p1581
tp1582
Rp1583
sg25
I0
sg26
g27
(g28
(I0
tp1584
g30
tp1585
Rp1586
(I1
(I2
tp1587
g36
I00
S'9\x00\x00\x00U\x00\x00\x00'
p1588
tp1589
bsba(i__main__
FrameData
p1590
(dp1591
g6
g1437
sg8
g9
(g13
S'\x00\xff\x9f\x99\xcc\x9c\x19@'
p1592
tp1593
Rp1594
sg19
I0
sg20
g21
(S'\x07\xdd\t\x1d\x13\t\x0c\r\xae\xd5'
p1595
tp1596
Rp1597
sg25
I0
sg26
g27
(g28
(I0
tp1598
g30
tp1599
Rp1600
(I1
(I2
tp1601
g36
I00
S'7\x00\x00\x00Q\x00\x00\x00'
p1602
tp1603
bsba(i__main__
FrameData
p1604
(dp1605
g6
g1437
sg8
g9
(g13
S'\xcd;\x7ff\x9e\xa0\x16@'
p1606
tp1607
Rp1608
sg19
I0
sg20
g21
(S'\x07\xdd\t\x1d\x13\t\x0c\r\xfd_'
p1609
tp1610
Rp1611
sg25
I0
sg26
g27
(g28
(I0
tp1612
g30
tp1613
Rp1614
(I1
(I2
tp1615
g36
I00
S'7\x00\x00\x00P\x00\x00\x00'
p1616
tp1617
bsba(i__main__
FrameData
p1618
(dp1619
g6
g1437
sg8
g9
(g13
S'\x00\x00\x00\x00\x00\x00\x14@'
p1620
tp1621
Rp1622
sg19
I0
sg20
g21
(S'\x07\xdd\t\x1d\x13\t\x0c\x0eK4'
p1623
tp1624
Rp1625
sg25
I0
sg26
g27
(g28
(I0
tp1626
g30
tp1627
Rp1628
(I1
(I2
tp1629
g36
I00
S'7\x00\x00\x00O\x00\x00\x00'
p1630
tp1631
bsba(i__main__
FrameData
p1632
(dp1633
g6
g1437
sg8
g9
(g13
S'\xa8\xf4\x97\x9bw\xe3\x11@'
p1634
tp1635
Rp1636
sg19
I0
sg20
g21
(S'\x07\xdd\t\x1d\x13\t\x0c\x0e\x99\x16'
p1637
tp1638
Rp1639
sg25
I0
sg26
g27
(g28
(I0
tp1640
g30
tp1641
Rp1642
(I1
(I2
tp1643
g36
I00
S'7\x00\x00\x00N\x00\x00\x00'
p1644
tp1645
bsba(i__main__
FrameData
p1646
(dp1647
g6
g1437
sg8
g9
(g13
S'\x07\xed\xaff\x0f~\x10@'
p1648
tp1649
Rp1650
sg19
I0
sg20
g21
(S'\x07\xdd\t\x1d\x13\t\x0c\x0f\x0e}'
p1651
tp1652
Rp1653
sg25
I0
sg26
g27
(g28
(I0
tp1654
g30
tp1655
Rp1656
(I1
(I2
tp1657
g36
I00
S'7\x00\x00\x00M\x00\x00\x00'
p1658
tp1659
bsba(i__main__
FrameData
p1660
(dp1661
g6
g1437
sg8
g9
(g13
S'\x00\x00\x00\x00\x00\x00\x10@'
p1662
tp1663
Rp1664
sg19
I0
sg20
g21
(S'\x07\xdd\t\x1d\x13\t\x0c\x0f5\xdf'
p1665
tp1666
Rp1667
sg25
I0
sg26
g27
(g28
(I0
tp1668
g30
tp1669
Rp1670
(I1
(I2
tp1671
g36
I00
S'7\x00\x00\x00L\x00\x00\x00'
p1672
tp1673
bsba(i__main__
FrameData
p1674
(dp1675
g6
g1437
sg8
g9
(g13
S'\x07\xed\xaff\x0f~\x10@'
p1676
tp1677
Rp1678
sg19
I0
sg20
g21
(S'\x07\xdd\t\x1d\x13\t\r\x00Ab'
p1679
tp1680
Rp1681
sg25
I0
sg26
g27
(g28
(I0
tp1682
g30
tp1683
Rp1684
(I1
(I2
tp1685
g36
I00
S'7\x00\x00\x00K\x00\x00\x00'
p1686
tp1687
bsba(i__main__
FrameData
p1688
(dp1689
g6
g1437
sg8
g9
(g13
S'\x00\x00\x00\x00\x00\x00\x10@'
p1690
tp1691
Rp1692
sg19
I0
sg20
g21
(S'\x07\xdd\t\x1d\x13\t\r\x07\x1d\xff'
p1693
tp1694
Rp1695
sg25
I0
sg26
g27
(g28
(I0
tp1696
g30
tp1697
Rp1698
(I1
(I2
tp1699
g36
I00
S'7\x00\x00\x00L\x00\x00\x00'
p1700
tp1701
bsba(i__main__
FrameData
p1702
(dp1703
g6
g1437
sg8
g9
(g13
S'\x07\xed\xaff\x0f~\x10@'
p1704
tp1705
Rp1706
sg19
I0
sg20
g21
(S'\x07\xdd\t\x1d\x13\t\r\x07\x98\x93'
p1707
tp1708
Rp1709
sg25
I0
sg26
g27
(g28
(I0
tp1710
g30
tp1711
Rp1712
(I1
(I2
tp1713
g36
I00
S'7\x00\x00\x00M\x00\x00\x00'
p1714
tp1715
bsba(i__main__
FrameData
p1716
(dp1717
g6
g1437
sg8
g9
(g13
S'\xa8\xf4\x97\x9bw\xe3\x11@'
p1718
tp1719
Rp1720
sg19
I0
sg20
g21
(S'\x07\xdd\t\x1d\x13\t\r\x07\xd9\x9e'
p1721
tp1722
Rp1723
sg25
I0
sg26
g27
(g28
(I0
tp1724
g30
tp1725
Rp1726
(I1
(I2
tp1727
g36
I00
S'7\x00\x00\x00N\x00\x00\x00'
p1728
tp1729
bsba(i__main__
FrameData
p1730
(dp1731
g6
g1437
sg8
g9
(g13
S'\x00\x00\x00\x00\x00\x00\x14@'
p1732
tp1733
Rp1734
sg19
I0
sg20
g21
(S'\x07\xdd\t\x1d\x13\t\r\x080n'
p1735
tp1736
Rp1737
sg25
I0
sg26
g27
(g28
(I0
tp1738
g30
tp1739
Rp1740
(I1
(I2
tp1741
g36
I00
S'7\x00\x00\x00O\x00\x00\x00'
p1742
tp1743
bsba(i__main__
FrameData
p1744
(dp1745
g6
g1437
sg8
g9
(g13
S'\x00\xff\x9f\x99\xcc\x9c\x19@'
p1746
tp1747
Rp1748
sg19
I0
sg20
g21
(S'\x07\xdd\t\x1d\x13\t\r\x08~\xae'
p1749
tp1750
Rp1751
sg25
I0
sg26
g27
(g28
(I0
tp1752
g30
tp1753
Rp1754
(I1
(I2
tp1755
g36
I00
S'7\x00\x00\x00Q\x00\x00\x00'
p1756
tp1757
bsba(i__main__
FrameData
p1758
(dp1759
g6
g1437
sg8
g9
(g13
S'\xf3YaD+\xd8\x1c@'
p1760
tp1761
Rp1762
sg19
I0
sg20
g21
(S'\x07\xdd\t\x1d\x13\t\r\x08\xa6\x86'
p1763
tp1764
Rp1765
sg25
I0
sg26
g27
(g28
(I0
tp1766
g30
tp1767
Rp1768
(I1
(I2
tp1769
g36
I00
S'7\x00\x00\x00R\x00\x00\x00'
p1770
tp1771
bsba(i__main__
FrameData
p1772
(dp1773
g6
g1437
sg8
g9
(g13
S'\xd0\xbaa?\xe0\x1f @'
p1774
tp1775
Rp1776
sg19
I0
sg20
g21
(S'\x07\xdd\t\x1d\x13\t\r\x08\xf2\xa2'
p1777
tp1778
Rp1779
sg25
I0
sg26
g27
(g28
(I0
tp1780
g30
tp1781
Rp1782
(I1
(I2
tp1783
g36
I00
S'7\x00\x00\x00S\x00\x00\x00'
p1784
tp1785
bsba(i__main__
FrameData
p1786
(dp1787
g6
g1437
sg8
g9
(g13
S'\xa8\xf4\x97\x9bw\xe3!@'
p1788
tp1789
Rp1790
sg19
I0
sg20
g21
(S'\x07\xdd\t\x1d\x13\t\r\t,)'
p1791
tp1792
Rp1793
sg25
I0
sg26
g27
(g28
(I0
tp1794
g30
tp1795
Rp1796
(I1
(I2
tp1797
g36
I00
S'7\x00\x00\x00T\x00\x00\x00'
p1798
tp1799
bsba(i__main__
FrameData
p1800
(dp1801
g6
g1437
sg8
g9
(g13
S'bVc}\x9d\xb2#@'
p1802
tp1803
Rp1804
sg19
I0
sg20
g21
(S'\x07\xdd\t\x1d\x13\t\r\ti\x8a'
p1805
tp1806
Rp1807
sg25
I0
sg26
g27
(g28
(I0
tp1808
g30
tp1809
Rp1810
(I1
(I2
tp1811
g36
I00
S'7\x00\x00\x00U\x00\x00\x00'
p1812
tp1813
bsba(i__main__
FrameData
p1814
(dp1815
g6
g1437
sg8
g9
(g13
S"\xe0\x11<m\xceh'@"
p1816
tp1817
Rp1818
sg19
I0
sg20
g21
(S'\x07\xdd\t\x1d\x13\t\r\t\xb8\x1a'
p1819
tp1820
Rp1821
sg25
I0
sg26
g27
(g28
(I0
tp1822
g30
tp1823
Rp1824
(I1
(I2
tp1825
g36
I00
S'7\x00\x00\x00W\x00\x00\x00'
p1826
tp1827
bsba(i__main__
FrameData
p1828
(dp1829
g6
g1437
sg8
g9
(g13
S'S[\xda:XL)@'
p1830
tp1831
Rp1832
sg19
I0
sg20
g21
(S'\x07\xdd\t\x1d\x13\t\r\n\x07\x02'
p1833
tp1834
Rp1835
sg25
I0
sg26
g27
(g28
(I0
tp1836
g30
tp1837
Rp1838
(I1
(I2
tp1839
g36
I00
S'7\x00\x00\x00X\x00\x00\x00'
p1840
tp1841
bsba(i__main__
FrameData
p1842
(dp1843
g6
g1437
sg8
g9
(g13
S'\xe9\xfbv \xd5\x1e-@'
p1844
tp1845
Rp1846
sg19
I0
sg20
g21
(S'\x07\xdd\t\x1d\x13\t\r\n,7'
p1847
tp1848
Rp1849
sg25
I0
sg26
g27
(g28
(I0
tp1850
g30
tp1851
Rp1852
(I1
(I2
tp1853
g36
I00
S'7\x00\x00\x00Z\x00\x00\x00'
p1854
tp1855
bsba(i__main__
FrameData
p1856
(dp1857
g6
g1437
sg8
g9
(g13
S'\x07\xed\xaff\x0f~0@'
p1858
tp1859
Rp1860
sg19
I0
sg20
g21
(S'\x07\xdd\t\x1d\x13\t\r\nh\xdb'
p1861
tp1862
Rp1863
sg25
I0
sg26
g27
(g28
(I0
tp1864
g30
tp1865
Rp1866
(I1
(I2
tp1867
g36
I00
S'7\x00\x00\x00\\\x00\x00\x00'
p1868
tp1869
bsba(i__main__
FrameData
p1870
(dp1871
g6
g1437
sg8
g9
(g13
S'\xa8y\x0c\t\xd9v1@'
p1872
tp1873
Rp1874
sg19
I0
sg20
g21
(S'\x07\xdd\t\x1d\x13\t\r\n\xc8i'
p1875
tp1876
Rp1877
sg25
I0
sg26
g27
(g28
(I0
tp1878
g30
tp1879
Rp1880
(I1
(I2
tp1881
g36
I00
S'7\x00\x00\x00]\x00\x00\x00'
p1882
tp1883
bsba(i__main__
FrameData
p1884
(dp1885
g6
g157
sg8
g9
(g13
S'~\xc4#,B\xf92@'
p1886
tp1887
Rp1888
sg19
I0
sg20
g21
(S'\x07\xdd\t\x1d\x13\t\r\n\xef\x99'
p1889
tp1890
Rp1891
sg25
I0
sg26
g27
(g28
(I0
tp1892
g30
tp1893
Rp1894
(I1
(I2
tp1895
g36
I00
S'7\x00\x00\x00_\x00\x00\x00'
p1896
tp1897
bsba(i__main__
FrameData
p1898
(dp1899
g6
g157
sg8
g9
(g13
S'8\xd8\xbc\n\x1b\x072@'
p1900
tp1901
Rp1902
sg19
I0
sg20
g21
(S'\x07\xdd\t\x1d\x13\t\r\x0b<h'
p1903
tp1904
Rp1905
sg25
I0
sg26
g27
(g28
(I0
tp1906
g30
tp1907
Rp1908
(I1
(I2
tp1909
g36
I00
S'7\x00\x00\x00`\x00\x00\x00'
p1910
tp1911
bsba(i__main__
FrameData
p1912
(dp1913
g6
g157
sg8
g9
(g13
S"v\xa3~{\xce'0@"
p1914
tp1915
Rp1916
sg19
I0
sg20
g21
(S'\x07\xdd\t\x1d\x13\t\r\x0b\x8de'
p1917
tp1918
Rp1919
sg25
I0
sg26
g27
(g28
(I0
tp1920
g30
tp1921
Rp1922
(I1
(I2
tp1923
g36
I00
S'7\x00\x00\x00b\x00\x00\x00'
p1924
tp1925
bsba(i__main__
FrameData
p1926
(dp1927
g6
g157
sg8
g9
(g13
S'p\xc4\x9d9\x8dv.@'
p1928
tp1929
Rp1930
sg19
I0
sg20
g21
(S'\x07\xdd\t\x1d\x13\t\r\x0b\xeew'
p1931
tp1932
Rp1933
sg25
I0
sg26
g27
(g28
(I0
tp1934
g30
tp1935
Rp1936
(I1
(I2
tp1937
g36
I00
S'7\x00\x00\x00c\x00\x00\x00'
p1938
tp1939
bsba(i__main__
FrameData
p1940
(dp1941
g6
g157
sg8
g9
(g13
S'\xf7\x80Aq\xb9\xa2,@'
p1942
tp1943
Rp1944
sg19
I0
sg20
g21
(S'\x07\xdd\t\x1d\x13\t\r\x0cO\x13'
p1945
tp1946
Rp1947
sg25
I0
sg26
g27
(g28
(I0
tp1948
g30
tp1949
Rp1950
(I1
(I2
tp1951
g36
I00
S'7\x00\x00\x00d\x00\x00\x00'
p1952
tp1953
bsba(i__main__
FrameData
p1954
(dp1955
g6
g157
sg8
g9
(g13
S'\xe4\x10\xe4sW\x0f)@'
p1956
tp1957
Rp1958
sg19
I0
sg20
g21
(S'\x07\xdd\t\x1d\x13\t\r\x0cu\x04'
p1959
tp1960
Rp1961
sg25
I0
sg26
g27
(g28
(I0
tp1962
g30
tp1963
Rp1964
(I1
(I2
tp1965
g36
I00
S'7\x00\x00\x00f\x00\x00\x00'
p1966
tp1967
bsba(i__main__
FrameData
p1968
(dp1969
g6
g157
sg8
g9
(g13
S'\xd2\xf1}\x82U\\&@'
p1970
tp1971
Rp1972
sg19
I0
sg20
g21
(S'\x07\xdd\t\x1d\x13\t\r\x0c\xc4z'
p1973
tp1974
Rp1975
sg25
I0
sg26
g27
(g28
(I0
tp1976
g30
tp1977
Rp1978
(I1
(I2
tp1979
g36
I00
S'6\x00\x00\x00g\x00\x00\x00'
p1980
tp1981
bsba(i__main__
FrameData
p1982
(dp1983
g6
g157
sg8
g9
(g13
S'A\x87b\xc62\xde"@'
p1984
tp1985
Rp1986
sg19
I0
sg20
g21
(S'\x07\xdd\t\x1d\x13\t\r\r\x12\x16'
p1987
tp1988
Rp1989
sg25
I0
sg26
g27
(g28
(I0
tp1990
g30
tp1991
Rp1992
(I1
(I2
tp1993
g36
I00
S'6\x00\x00\x00i\x00\x00\x00'
p1994
tp1995
bsba(i__main__
FrameData
p1996
(dp1997
g6
g157
sg8
g9
(g13
S'N\x017\xfac4!@'
p1998
tp1999
Rp2000
sg19
I0
sg20
g21
(S'\x07\xdd\t\x1d\x13\t\r\r9\x85'
p2001
tp2002
Rp2003
sg25
I0
sg26
g27
(g28
(I0
tp2004
g30
tp2005
Rp2006
(I1
(I2
tp2007
g36
I00
S'6\x00\x00\x00j\x00\x00\x00'
p2008
tp2009
bsba(i__main__
FrameData
p2010
(dp2011
g6
g157
sg8
g9
(g13
S'htN\x17\xb2=\x1f@'
p2012
tp2013
Rp2014
sg19
I0
sg20
g21
(S'\x07\xdd\t\x1d\x13\t\r\r\x87n'
p2015
tp2016
Rp2017
sg25
I0
sg26
g27
(g28
(I0
tp2018
g30
tp2019
Rp2020
(I1
(I2
tp2021
g36
I00
S'6\x00\x00\x00k\x00\x00\x00'
p2022
tp2023
bsba(i__main__
FrameData
p2024
(dp2025
g6
g157
sg8
g9
(g13
S'\xc0\n\x1f\x00\xc6H\x1c@'
p2026
tp2027
Rp2028
sg19
I0
sg20
g21
(S'\x07\xdd\t\x1d\x13\t\r\r\xc6<'
p2029
tp2030
Rp2031
sg25
I0
sg26
g27
(g28
(I0
tp2032
g30
tp2033
Rp2034
(I1
(I2
tp2035
g36
I00
S'6\x00\x00\x00l\x00\x00\x00'
p2036
tp2037
bsba(i__main__
FrameData
p2038
(dp2039
g6
g157
sg8
g9
(g13
S'\xa2\xa3\xb3\r\xe5R\x17@'
p2040
tp2041
Rp2042
sg19
I0
sg20
g21
(S'\x07\xdd\t\x1d\x13\t\r\r\xfc\xf3'
p2043
tp2044
Rp2045
sg25
I0
sg26
g27
(g28
(I0
tp2046
g30
tp2047
Rp2048
(I1
(I2
tp2049
g36
I00
S'4\x00\x00\x00l\x00\x00\x00'
p2050
tp2051
bsba(i__main__
FrameData
p2052
(dp2053
g6
g157
sg8
g9
(g13
S'\x00\x00\x00\x00\x00\x00\x14@'
p2054
tp2055
Rp2056
sg19
I0
sg20
g21
(S'\x07\xdd\t\x1d\x13\t\r\x0e91'
p2057
tp2058
Rp2059
sg25
I0
sg26
g27
(g28
(I0
tp2060
g30
tp2061
Rp2062
(I1
(I2
tp2063
g36
I00
S'4\x00\x00\x00m\x00\x00\x00'
p2064
tp2065
bsba(i__main__
FrameData
p2066
(dp2067
g6
g157
sg8
g9
(g13
S'\xf3YaD+\xd8\x0c@'
p2068
tp2069
Rp2070
sg19
I0
sg20
g21
(S'\x07\xdd\t\x1d\x13\t\r\x0e\x9d\xa8'
p2071
tp2072
Rp2073
sg25
I0
sg26
g27
(g28
(I0
tp2074
g30
tp2075
Rp2076
(I1
(I2
tp2077
g36
I00
S'4\x00\x00\x00o\x00\x00\x00'
p2078
tp2079
bsba(i__main__
FrameData
p2080
(dp2081
g6
g157
sg8
g9
(g13
S'S[\xda:XL\t@'
p2082
tp2083
Rp2084
sg19
I0
sg20
g21
(S'\x07\xdd\t\x1d\x13\t\r\x0e\xc0L'
p2085
tp2086
Rp2087
sg25
I0
sg26
g27
(g28
(I0
tp2088
g30
tp2089
Rp2090
(I1
(I2
tp2091
g36
I00
S'4\x00\x00\x00p\x00\x00\x00'
p2092
tp2093
bsba(i__main__
FrameData
p2094
(dp2095
g6
g157
sg8
g9
(g13
S'\xcd;\x7ff\x9e\xa0\xf6?'
p2096
tp2097
Rp2098
sg19
I0
sg20
g21
(S'\x07\xdd\t\x1d\x13\t\r\x0f\x00_'
p2099
tp2100
Rp2101
sg25
I0
sg26
g27
(g28
(I0
tp2102
g30
tp2103
Rp2104
(I1
(I2
tp2105
g36
I00
S'2\x00\x00\x00p\x00\x00\x00'
p2106
tp2107
bsba(i__main__
FrameData
p2108
(dp2109
g6
g157
sg8
g9
(g13
S'\x00\x00\x00\x00\x00\x00\xf0?'
p2110
tp2111
Rp2112
sg19
I0
sg20
g21
(S'\x07\xdd\t\x1d\x13\t\x0e\x00\x00\xbc'
p2113
tp2114
Rp2115
sg25
I0
sg26
g27
(g28
(I0
tp2116
g30
tp2117
Rp2118
(I1
(I2
tp2119
g36
I00
S'2\x00\x00\x00q\x00\x00\x00'
p2120
tp2121
bsba(i__main__
FrameData
p2122
(dp2123
g6
g157
sg8
g9
(g13
S'\xcd;\x7ff\x9e\xa0\xf6?'
p2124
tp2125
Rp2126
sg19
I0
sg20
g21
(S'\x07\xdd\t\x1d\x13\t\x0e\x00PF'
p2127
tp2128
Rp2129
sg25
I0
sg26
g27
(g28
(I0
tp2130
g30
tp2131
Rp2132
(I1
(I2
tp2133
g36
I00
S'2\x00\x00\x00r\x00\x00\x00'
p2134
tp2135
bsba(i__main__
FrameData
p2136
(dp2137
g6
g157
sg8
g9
(g13
S'\x00\x00\x00\x00\x00\x00\x00@'
p2138
tp2139
Rp2140
sg19
I0
sg20
g21
(S'\x07\xdd\t\x1d\x13\t\x0e\x00\x9c\xfe'
p2141
tp2142
Rp2143
sg25
I0
sg26
g27
(g28
(I0
tp2144
g30
tp2145
Rp2146
(I1
(I2
tp2147
g36
I00
S'1\x00\x00\x00s\x00\x00\x00'
p2148
tp2149
bsba(i__main__
FrameData
p2150
(dp2151
g6
g157
sg8
g9
(g13
S'\xa8\xf4\x97\x9bw\xe3\x01@'
p2152
tp2153
Rp2154
sg19
I0
sg20
g21
(S'\x07\xdd\t\x1d\x13\t\x0e\x01\x05\x9f'
p2155
tp2156
Rp2157
sg25
I0
sg26
g27
(g28
(I0
tp2158
g30
tp2159
Rp2160
(I1
(I2
tp2161
g36
I00
S'0\x00\x00\x00s\x00\x00\x00'
p2162
tp2163
bsba(i__main__
FrameData
p2164
(dp2165
g6
g157
sg8
g9
(g13
S'\xcd;\x7ff\x9e\xa0\x06@'
p2166
tp2167
Rp2168
sg19
I0
sg20
g21
(S'\x07\xdd\t\x1d\x13\t\x0e\x01\xc46'
p2169
tp2170
Rp2171
sg25
I0
sg26
g27
(g28
(I0
tp2172
g30
tp2173
Rp2174
(I1
(I2
tp2175
g36
I00
S'/\x00\x00\x00s\x00\x00\x00'
p2176
tp2177
bsba(i__main__
FrameData
p2178
(dp2179
g6
g157
sg8
g9
(g13
S'\xa8\xf4\x97\x9bw\xe3\x11@'
p2180
tp2181
Rp2182
sg19
I0
sg20
g21
(S'\x07\xdd\t\x1d\x13\t\x0e\x02$\xab'
p2183
tp2184
Rp2185
sg25
I0
sg26
g27
(g28
(I0
tp2186
g30
tp2187
Rp2188
(I1
(I2
tp2189
g36
I00
S'/\x00\x00\x00u\x00\x00\x00'
p2190
tp2191
bsba(i__main__
FrameData
p2192
(dp2193
g6
g157
sg8
g9
(g13
S'\x00\x00\x00\x00\x00\x00\x14@'
p2194
tp2195
Rp2196
sg19
I0
sg20
g21
(S'\x07\xdd\t\x1d\x13\t\x0e\x02\x99\xe2'
p2197
tp2198
Rp2199
sg25
I0
sg26
g27
(g28
(I0
tp2200
g30
tp2201
Rp2202
(I1
(I2
tp2203
g36
I00
S'.\x00\x00\x00u\x00\x00\x00'
p2204
tp2205
bsba(i__main__
FrameData
p2206
(dp2207
g6
g157
sg8
g9
(g13
S'\xd9l\xdf\xccv\xf8\x10@'
p2208
tp2209
Rp2210
sg19
I0
sg20
g21
(S'\x07\xdd\t\x1d\x13\t\x0e\x06id'
p2211
tp2212
Rp2213
sg25
I0
sg26
g27
(g28
(I0
tp2214
g30
tp2215
Rp2216
(I1
(I2
tp2217
g36
I00
S'.\x00\x00\x00t\x00\x00\x00'
p2218
tp2219
bsba(i__main__
FrameData
p2220
(dp2221
g6
g157
sg8
g9
(g13
S'\xf3YaD+\xd8\x0c@'
p2222
tp2223
Rp2224
sg19
I0
sg20
g21
(S'\x07\xdd\t\x1d\x13\t\x0e\x06\xdf\xb7'
p2225
tp2226
Rp2227
sg25
I0
sg26
g27
(g28
(I0
tp2228
g30
tp2229
Rp2230
(I1
(I2
tp2231
g36
I00
S'/\x00\x00\x00t\x00\x00\x00'
p2232
tp2233
bsba(i__main__
FrameData
p2234
(dp2235
g6
g157
sg8
g9
(g13
S'\xcd;\x7ff\x9e\xa0\x06@'
p2236
tp2237
Rp2238
sg19
I0
sg20
g21
(S'\x07\xdd\t\x1d\x13\t\x0e\x07\x1e]'
p2239
tp2240
Rp2241
sg25
I0
sg26
g27
(g28
(I0
tp2242
g30
tp2243
Rp2244
(I1
(I2
tp2245
g36
I00
S'/\x00\x00\x00s\x00\x00\x00'
p2246
tp2247
bsba(i__main__
FrameData
p2248
(dp2249
g6
g157
sg8
g9
(g13
S'\x00\x00\x00\x00\x00\x00\x00@'
p2250
tp2251
Rp2252
sg19
I0
sg20
g21
(S'\x07\xdd\t\x1d\x13\t\x0e\x07_\x9d'
p2253
tp2254
Rp2255
sg25
I0
sg26
g27
(g28
(I0
tp2256
g30
tp2257
Rp2258
(I1
(I2
tp2259
g36
I00
S'1\x00\x00\x00s\x00\x00\x00'
p2260
tp2261
bsba(i__main__
FrameData
p2262
(dp2263
g6
g157
sg8
g9
(g13
S'\xa8\xf4\x97\x9bw\xe3\x01@'
p2264
tp2265
Rp2266
sg19
I0
sg20
g21
(S'\x07\xdd\t\x1d\x13\t\x0e\x07\xa3\xca'
p2267
tp2268
Rp2269
sg25
I0
sg26
g27
(g28
(I0
tp2270
g30
tp2271
Rp2272
(I1
(I2
tp2273
g36
I00
S'2\x00\x00\x00s\x00\x00\x00'
p2274
tp2275
bsba(i__main__
FrameData
p2276
(dp2277
g6
g157
sg8
g9
(g13
S'\xcd;\x7ff\x9e\xa0\x06@'
p2278
tp2279
Rp2280
sg19
I0
sg20
g21
(S'\x07\xdd\t\x1d\x13\t\x0e\x08(s'
p2281
tp2282
Rp2283
sg25
I0
sg26
g27
(g28
(I0
tp2284
g30
tp2285
Rp2286
(I1
(I2
tp2287
g36
I00
S'3\x00\x00\x00s\x00\x00\x00'
p2288
tp2289
bsba(i__main__
FrameData
p2290
(dp2291
g6
g157
sg8
g9
(g13
S'\xf3YaD+\xd8\x0c@'
p2292
tp2293
Rp2294
sg19
I0
sg20
g21
(S'\x07\xdd\t\x1d\x13\t\x0e\x08\xecE'
p2295
tp2296
Rp2297
sg25
I0
sg26
g27
(g28
(I0
tp2298
g30
tp2299
Rp2300
(I1
(I2
tp2301
g36
I00
S'4\x00\x00\x00s\x00\x00\x00'
p2302
tp2303
bsba(i__main__
FrameData
p2304
(dp2305
g6
g157
sg8
g9
(g13
S'\xa8\xf4\x97\x9bw\xe3\x11@'
p2306
tp2307
Rp2308
sg19
I0
sg20
g21
(S'\x07\xdd\t\x1d\x13\t\x0e\t+\xd3'
p2309
tp2310
Rp2311
sg25
I0
sg26
g27
(g28
(I0
tp2312
g30
tp2313
Rp2314
(I1
(I2
tp2315
g36
I00
S'5\x00\x00\x00s\x00\x00\x00'
p2316
tp2317
bsba(i__main__
FrameData
p2318
(dp2319
g6
g157
sg8
g9
(g13
S'\xf3\xd9\xa8\xa4h\x8a\x15@'
p2320
tp2321
Rp2322
sg19
I0
sg20
g21
(S'\x07\xdd\t\x1d\x13\t\x0e\tv\xe7'
p2323
tp2324
Rp2325
sg25
I0
sg26
g27
(g28
(I0
tp2326
g30
tp2327
Rp2328
(I1
(I2
tp2329
g36
I00
S'6\x00\x00\x00s\x00\x00\x00'
p2330
tp2331
bsba(i__main__
FrameData
p2332
(dp2333
g6
g157
sg8
g9
(g13
S'S[\xda:XL\x19@'
p2334
tp2335
Rp2336
sg19
I0
sg20
g21
(S'\x07\xdd\t\x1d\x13\t\x0e\t\xae\x97'
p2337
tp2338
Rp2339
sg25
I0
sg26
g27
(g28
(I0
tp2340
g30
tp2341
Rp2342
(I1
(I2
tp2343
g36
I00
S'7\x00\x00\x00s\x00\x00\x00'
p2344
tp2345
bsba(i__main__
FrameData
p2346
(dp2347
g6
g157
sg8
g9
(g13
S'\x07\xed\xaff\x0f~ @'
p2348
tp2349
Rp2350
sg19
I0
sg20
g21
(S'\x07\xdd\t\x1d\x13\t\x0e\t\xf2\xa1'
p2351
tp2352
Rp2353
sg25
I0
sg26
g27
(g28
(I0
tp2354
g30
tp2355
Rp2356
(I1
(I2
tp2357
g36
I00
S'9\x00\x00\x00s\x00\x00\x00'
p2358
tp2359
bsba(i__main__
FrameData
p2360
(dp2361
g6
g157
sg8
g9
(g13
S'H\xaa*\x8f9\x17&@'
p2362
tp2363
Rp2364
sg19
I0
sg20
g21
(S'\x07\xdd\t\x1d\x13\t\x0e\n8\x1f'
p2365
tp2366
Rp2367
sg25
I0
sg26
g27
(g28
(I0
tp2368
g30
tp2369
Rp2370
(I1
(I2
tp2371
g36
I00
S'<\x00\x00\x00r\x00\x00\x00'
p2372
tp2373
bsba(i__main__
FrameData
p2374
(dp2375
g6
g270
sg8
g9
(g13
S'\x00\x00\x00\x00\x00\x00&@'
p2376
tp2377
Rp2378
sg19
I0
sg20
g21
(S'\x07\xdd\t\x1d\x13\t\x0e\np\xd9'
p2379
tp2380
Rp2381
sg25
I0
sg26
g27
(g28
(I0
tp2382
g30
tp2383
Rp2384
(I1
(I2
tp2385
g36
I00
S'>\x00\x00\x00q\x00\x00\x00'
p2386
tp2387
bsba(i__main__
FrameData
p2388
(dp2389
g6
g270
sg8
g9
(g13
S'$\xf8\xd9p[\x1c"@'
p2390
tp2391
Rp2392
sg19
I0
sg20
g21
(S'\x07\xdd\t\x1d\x13\t\x0e\n\xb4\xf6'
p2393
tp2394
Rp2395
sg25
I0
sg26
g27
(g28
(I0
tp2396
g30
tp2397
Rp2398
(I1
(I2
tp2399
g36
I00
S'@\x00\x00\x00p\x00\x00\x00'
p2400
tp2401
bsba(i__main__
FrameData
p2402
(dp2403
g6
g270
sg8
g9
(g13
S'S[\xda:XL\x19@'
p2404
tp2405
Rp2406
sg19
I0
sg20
g21
(S'\x07\xdd\t\x1d\x13\t\x0e\n\xf3\x81'
p2407
tp2408
Rp2409
sg25
I0
sg26
g27
(g28
(I0
tp2410
g30
tp2411
Rp2412
(I1
(I2
tp2413
g36
I00
S'C\x00\x00\x00o\x00\x00\x00'
p2414
tp2415
bsba(i__main__
FrameData
p2416
(dp2417
g6
g270
sg8
g9
(g13
S'\xd9l\xdf\xccv\xf8\x10@'
p2418
tp2419
Rp2420
sg19
I0
sg20
g21
(S'\x07\xdd\t\x1d\x13\t\x0e\x0b24'
p2421
tp2422
Rp2423
sg25
I0
sg26
g27
(g28
(I0
tp2424
g30
tp2425
Rp2426
(I1
(I2
tp2427
g36
I00
S'F\x00\x00\x00n\x00\x00\x00'
p2428
tp2429
bsba(i__main__
FrameData
p2430
(dp2431
g6
g270
sg8
g9
(g13
S'\x00\x00\x00\x00\x00\x00\x10@'
p2432
tp2433
Rp2434
sg19
I0
sg20
g21
(S'\x07\xdd\t\x1d\x13\t\x0e\x0b\x8b\xda'
p2435
tp2436
Rp2437
sg25
I0
sg26
g27
(g28
(I0
tp2438
g30
tp2439
Rp2440
(I1
(I2
tp2441
g36
I00
S'I\x00\x00\x00m\x00\x00\x00'
p2442
tp2443
bsba(i__main__
FrameData
p2444
(dp2445
g6
g270
sg8
g9
(g13
S'\xf6/\x12_ee\x14@'
p2446
tp2447
Rp2448
sg19
I0
sg20
g21
(S'\x07\xdd\t\x1d\x13\t\x0e\x0b\xb8\x03'
p2449
tp2450
Rp2451
sg25
I0
sg26
g27
(g28
(I0
tp2452
g30
tp2453
Rp2454
(I1
(I2
tp2455
g36
I00
S'J\x00\x00\x00l\x00\x00\x00'
p2456
tp2457
bsba(i__main__
FrameData
p2458
(dp2459
g6
g270
sg8
g9
(g13
S'\xa2\xa3\xb3\r\xe5R\x17@'
p2460
tp2461
Rp2462
sg19
I0
sg20
g21
(S'\x07\xdd\t\x1d\x13\t\x0e\x0c\x02u'
p2463
tp2464
Rp2465
sg25
I0
sg26
g27
(g28
(I0
tp2466
g30
tp2467
Rp2468
(I1
(I2
tp2469
g36
I00
S'L\x00\x00\x00l\x00\x00\x00'
p2470
tp2471
bsba(i__main__
FrameData
p2472
(dp2473
g6
g270
sg8
g9
(g13
S'\xd0\xbaa?\xe0\x1f @'
p2474
tp2475
Rp2476
sg19
I0
sg20
g21
(S'\x07\xdd\t\x1d\x13\t\x0e\x0cLs'
p2477
tp2478
Rp2479
sg25
I0
sg26
g27
(g28
(I0
tp2480
g30
tp2481
Rp2482
(I1
(I2
tp2483
g36
I00
S'M\x00\x00\x00j\x00\x00\x00'
p2484
tp2485
bsba(i__main__
FrameData
p2486
(dp2487
g6
g270
sg8
g9
(g13
S'\x9a.\x90!hp"@'
p2488
tp2489
Rp2490
sg19
I0
sg20
g21
(S'\x07\xdd\t\x1d\x13\t\x0e\x0c\x89\xca'
p2491
tp2492
Rp2493
sg25
I0
sg26
g27
(g28
(I0
tp2494
g30
tp2495
Rp2496
(I1
(I2
tp2497
g36
I00
S'O\x00\x00\x00j\x00\x00\x00'
p2498
tp2499
bsba(i__main__
FrameData
p2500
(dp2501
g6
g270
sg8
g9
(g13
S'6\xd0\xd2x\xa2B%@'
p2502
tp2503
Rp2504
sg19
I0
sg20
g21
(S'\x07\xdd\t\x1d\x13\t\x0e\x0c\xc4\xd4'
p2505
tp2506
Rp2507
sg25
I0
sg26
g27
(g28
(I0
tp2508
g30
tp2509
Rp2510
(I1
(I2
tp2511
g36
I00
S'P\x00\x00\x00i\x00\x00\x00'
p2512
tp2513
bsba(i__main__
FrameData
p2514
(dp2515
g6
g270
sg8
g9
(g13
S'&5w\xe2K\x15(@'
p2516
tp2517
Rp2518
sg19
I0
sg20
g21
(S'\x07\xdd\t\x1d\x13\t\x0e\r\x02,'
p2519
tp2520
Rp2521
sg25
I0
sg26
g27
(g28
(I0
tp2522
g30
tp2523
Rp2524
(I1
(I2
tp2525
g36
I00
S'R\x00\x00\x00i\x00\x00\x00'
p2526
tp2527
bsba(i__main__
FrameData
p2528
(dp2529
g6
g270
sg8
g9
(g13
S'\xb4\xb8=iA\xe8*@'
p2530
tp2531
Rp2532
sg19
I0
sg20
g21
(S'\x07\xdd\t\x1d\x13\t\x0e\rEm'
p2533
tp2534
Rp2535
sg25
I0
sg26
g27
(g28
(I0
tp2536
g30
tp2537
Rp2538
(I1
(I2
tp2539
g36
I00
S'S\x00\x00\x00h\x00\x00\x00'
p2540
tp2541
bsba(i__main__
FrameData
p2542
(dp2543
g6
g270
sg8
g9
(g13
S'/\xa4\xe3\\m\xbb-@'
p2544
tp2545
Rp2546
sg19
I0
sg20
g21
(S'\x07\xdd\t\x1d\x13\t\x0e\r\x84\xf5'
p2547
tp2548
Rp2549
sg25
I0
sg26
g27
(g28
(I0
tp2550
g30
tp2551
Rp2552
(I1
(I2
tp2553
g36
I00
S'T\x00\x00\x00g\x00\x00\x00'
p2554
tp2555
bsba(i__main__
FrameData
p2556
(dp2557
g6
g270
sg8
g9
(g13
S'\x10\xb3]\xc9`G0@'
p2558
tp2559
Rp2560
sg19
I0
sg20
g21
(S'\x07\xdd\t\x1d\x13\t\x0e\r\xc2X'
p2561
tp2562
Rp2563
sg25
I0
sg26
g27
(g28
(I0
tp2564
g30
tp2565
Rp2566
(I1
(I2
tp2567
g36
I00
S'U\x00\x00\x00f\x00\x00\x00'
p2568
tp2569
bsba(i__main__
FrameData
p2570
(dp2571
g6
g355
sg8
g9
(g13
S'htN\x17\xb2=/@'
p2572
tp2573
Rp2574
sg19
I0
sg20
g21
(S'\x07\xdd\t\x1d\x13\t\x0e\x0e\x00\xe5'
p2575
tp2576
Rp2577
sg25
I0
sg26
g27
(g28
(I0
tp2578
g30
tp2579
Rp2580
(I1
(I2
tp2581
g36
I00
S'V\x00\x00\x00f\x00\x00\x00'
p2582
tp2583
bsba(i__main__
FrameData
p2584
(dp2585
g6
g355
sg8
g9
(g13
S'N\x017\xfac41@'
p2586
tp2587
Rp2588
sg19
I0
sg20
g21
(S'\x07\xdd\t\x1d\x13\t\x0e\x0eL\x89'
p2589
tp2590
Rp2591
sg25
I0
sg26
g27
(g28
(I0
tp2592
g30
tp2593
Rp2594
(I1
(I2
tp2595
g36
I00
S'V\x00\x00\x00d\x00\x00\x00'
p2596
tp2597
bsba(i__main__
FrameData
p2598
(dp2599
g6
g355
sg8
g9
(g13
S'\xb9\xbaF\xca+~1@'
p2600
tp2601
Rp2602
sg19
I0
sg20
g21
(S'\x07\xdd\t\x1d\x13\t\x0e\x0e\x85]'
p2603
tp2604
Rp2605
sg25
I0
sg26
g27
(g28
(I0
tp2606
g30
tp2607
Rp2608
(I1
(I2
tp2609
g36
I00
S'W\x00\x00\x00c\x00\x00\x00'
p2610
tp2611
bsba(i__main__
FrameData
p2612
(dp2613
g6
g355
sg8
g9
(g13
S'\x00\x00\x00\x00\x00\x001@'
p2614
tp2615
Rp2616
sg19
I0
sg20
g21
(S'\x07\xdd\t\x1d\x13\t\x0e\x0e\xc4W'
p2617
tp2618
Rp2619
sg25
I0
sg26
g27
(g28
(I0
tp2620
g30
tp2621
Rp2622
(I1
(I2
tp2623
g36
I00
S'X\x00\x00\x00c\x00\x00\x00'
p2624
tp2625
bsba(i__main__
FrameData
p2626
(dp2627
g6
g355
sg8
g9
(g13
S'\xa8y\x0c\t\xd9v1@'
p2628
tp2629
Rp2630
sg19
I0
sg20
g21
(S'\x07\xdd\t\x1d\x13\t\x0e\x0f\x0fT'
p2631
tp2632
Rp2633
sg25
I0
sg26
g27
(g28
(I0
tp2634
g30
tp2635
Rp2636
(I1
(I2
tp2637
g36
I00
S'Y\x00\x00\x00b\x00\x00\x00'
p2638
tp2639
bsba(i__main__
FrameData
p2640
(dp2641
g6
g355
sg8
g9
(g13
S'\x96`G\xb3\x80b2@'
p2642
tp2643
Rp2644
sg19
I0
sg20
g21
(S'\x07\xdd\t\x1d\x13\t\x0f\x00\x17@'
p2645
tp2646
Rp2647
sg25
I0
sg26
g27
(g28
(I0
tp2648
g30
tp2649
Rp2650
(I1
(I2
tp2651
g36
I00
S'Y\x00\x00\x00a\x00\x00\x00'
p2652
tp2653
bsba(i__main__
FrameData
p2654
(dp2655
g6
g355
sg8
g9
(g13
S'~\xc4#,B\xf92@'
p2656
tp2657
Rp2658
sg19
I0
sg20
g21
(S'\x07\xdd\t\x1d\x13\t\x0f\x00T\xe6'
p2659
tp2660
Rp2661
sg25
I0
sg26
g27
(g28
(I0
tp2662
g30
tp2663
Rp2664
(I1
(I2
tp2665
g36
I00
S'Z\x00\x00\x00`\x00\x00\x00'
p2666
tp2667
bsba(i__main__
FrameData
p2668
(dp2669
g6
g355
sg8
g9
(g13
S'W\xb2\xdb\x1a\x9a\xa53@'
p2670
tp2671
Rp2672
sg19
I0
sg20
g21
(S'\x07\xdd\t\x1d\x13\t\x0f\x00\x92l'
p2673
tp2674
Rp2675
sg25
I0
sg26
g27
(g28
(I0
tp2676
g30
tp2677
Rp2678
(I1
(I2
tp2679
g36
I00
S'[\x00\x00\x00_\x00\x00\x00'
p2680
tp2681
bsba(i__main__
FrameData
p2682
(dp2683
g6
S'r'
p2684
sg8
g9
(g13
S'=\xf3\n\x8f\xe6\x1f4@'
p2685
tp2686
Rp2687
sg19
I0
sg20
g21
(S'\x07\xdd\t\x1d\x13\t\x0f\x00\xd3\xcf'
p2688
tp2689
Rp2690
sg25
I0
sg26
g27
(g28
(I0
tp2691
g30
tp2692
Rp2693
(I1
(I2
tp2694
g36
I00
S'[\x00\x00\x00]\x00\x00\x00'
p2695
tp2696
bsba(i__main__
FrameData
p2697
(dp2698
g6
g2684
sg8
g9
(g13
S'\xcey?\xdc\x9a?4@'
p2699
tp2700
Rp2701
sg19
I0
sg20
g21
(S'\x07\xdd\t\x1d\x13\t\x0f\x01\x10\xbd'
p2702
tp2703
Rp2704
sg25
I0
sg26
g27
(g28
(I0
tp2705
g30
tp2706
Rp2707
(I1
(I2
tp2708
g36
I00
S']\x00\x00\x00\\\x00\x00\x00'
p2709
tp2710
bsba(i__main__
FrameData
p2711
(dp2712
g6
g2684
sg8
g9
(g13
S'u\x85\x18\x11\xe0\x992@'
p2713
tp2714
Rp2715
sg19
I0
sg20
g21
(S'\x07\xdd\t\x1d\x13\t\x0f\x01`@'
p2716
tp2717
Rp2718
sg25
I0
sg26
g27
(g28
(I0
tp2719
g30
tp2720
Rp2721
(I1
(I2
tp2722
g36
I00
S']\x00\x00\x00Z\x00\x00\x00'
p2723
tp2724
bsba(i__main__
FrameData
p2725
(dp2726
g6
g2684
sg8
g9
(g13
S'l\xd0\xe82\x1a\xb11@'
p2727
tp2728
Rp2729
sg19
I0
sg20
g21
(S'\x07\xdd\t\x1d\x13\t\x0f\x01\x95\x10'
p2730
tp2731
Rp2732
sg25
I0
sg26
g27
(g28
(I0
tp2733
g30
tp2734
Rp2735
(I1
(I2
tp2736
g36
I00
S'^\x00\x00\x00X\x00\x00\x00'
p2737
tp2738
bsba(i__main__
FrameData
p2739
(dp2740
g6
g2684
sg8
g9
(g13
S'\xd9l\xdf\xccv\xf80@'
p2741
tp2742
Rp2743
sg19
I0
sg20
g21
(S'\x07\xdd\t\x1d\x13\t\x0f\x01\xd3\xaf'
p2744
tp2745
Rp2746
sg25
I0
sg26
g27
(g28
(I0
tp2747
g30
tp2748
Rp2749
(I1
(I2
tp2750
g36
I00
S'^\x00\x00\x00W\x00\x00\x00'
p2751
tp2752
bsba(i__main__
FrameData
p2753
(dp2754
g6
S't'
p2755
sg8
g9
(g13
S'9\xf2\xee\xcc\xd9\x1c/@'
p2756
tp2757
Rp2758
sg19
I0
sg20
g21
(S'\x07\xdd\t\x1d\x13\t\x0f\x02\x1b\xad'
p2759
tp2760
Rp2761
sg25
I0
sg26
g27
(g28
(I0
tp2762
g30
tp2763
Rp2764
(I1
(I2
tp2765
g36
I00
S'_\x00\x00\x00V\x00\x00\x00'
p2766
tp2767
bsba(i__main__
FrameData
p2768
(dp2769
g6
g2755
sg8
g9
(g13
S'F#O3\xb2t)@'
p2770
tp2771
Rp2772
sg19
I0
sg20
g21
(S'\x07\xdd\t\x1d\x13\t\x0f\x02Oy'
p2773
tp2774
Rp2775
sg25
I0
sg26
g27
(g28
(I0
tp2776
g30
tp2777
Rp2778
(I1
(I2
tp2779
g36
I00
S'a\x00\x00\x00T\x00\x00\x00'
p2780
tp2781
bsba(i__main__
FrameData
p2782
(dp2783
g6
g2755
sg8
g9
(g13
S'\x00\x00\x00\x00\x00\x00$@'
p2784
tp2785
Rp2786
sg19
I0
sg20
g21
(S'\x07\xdd\t\x1d\x13\t\x0f\x02\x9f\x11'
p2787
tp2788
Rp2789
sg25
I0
sg26
g27
(g28
(I0
tp2790
g30
tp2791
Rp2792
(I1
(I2
tp2793
g36
I00
S'b\x00\x00\x00Q\x00\x00\x00'
p2794
tp2795
bsba(i__main__
FrameData
p2796
(dp2797
g6
g2755
sg8
g9
(g13
S'N\x017\xfac4!@'
p2798
tp2799
Rp2800
sg19
I0
sg20
g21
(S'\x07\xdd\t\x1d\x13\t\x0f\x02\xd6\x17'
p2801
tp2802
Rp2803
sg25
I0
sg26
g27
(g28
(I0
tp2804
g30
tp2805
Rp2806
(I1
(I2
tp2807
g36
I00
S'c\x00\x00\x00P\x00\x00\x00'
p2808
tp2809
bsba(i__main__
FrameData
p2810
(dp2811
g6
g2755
sg8
g9
(g13
S'\xf3YaD+\xd8\x1c@'
p2812
tp2813
Rp2814
sg19
I0
sg20
g21
(S'\x07\xdd\t\x1d\x13\t\x0f\x03\x14i'
p2815
tp2816
Rp2817
sg25
I0
sg26
g27
(g28
(I0
tp2818
g30
tp2819
Rp2820
(I1
(I2
tp2821
g36
I00
S'd\x00\x00\x00O\x00\x00\x00'
p2822
tp2823
bsba(i__main__
FrameData
p2824
(dp2825
g6
g2755
sg8
g9
(g13
S'S[\xda:XL\x19@'
p2826
tp2827
Rp2828
sg19
I0
sg20
g21
(S'\x07\xdd\t\x1d\x13\t\x0f\x03^*'
p2829
tp2830
Rp2831
sg25
I0
sg26
g27
(g28
(I0
tp2832
g30
tp2833
Rp2834
(I1
(I2
tp2835
g36
I00
S'd\x00\x00\x00M\x00\x00\x00'
p2836
tp2837
bsba(i__main__
FrameData
p2838
(dp2839
g6
g2755
sg8
g9
(g13
S'\xa8\xf4\x97\x9bw\xe3\x11@'
p2840
tp2841
Rp2842
sg19
I0
sg20
g21
(S'\x07\xdd\t\x1d\x13\t\x0f\x03\xde\xf9'
p2843
tp2844
Rp2845
sg25
I0
sg26
g27
(g28
(I0
tp2846
g30
tp2847
Rp2848
(I1
(I2
tp2849
g36
I00
S'f\x00\x00\x00M\x00\x00\x00'
p2850
tp2851
bsba(i__main__
FrameData
p2852
(dp2853
g6
g2755
sg8
g9
(g13
S'S[\xda:XL\t@'
p2854
tp2855
Rp2856
sg19
I0
sg20
g21
(S'\x07\xdd\t\x1d\x13\t\x0f\x04\x182'
p2857
tp2858
Rp2859
sg25
I0
sg26
g27
(g28
(I0
tp2860
g30
tp2861
Rp2862
(I1
(I2
tp2863
g36
I00
S'g\x00\x00\x00L\x00\x00\x00'
p2864
tp2865
bsba(i__main__
FrameData
p2866
(dp2867
g6
g2755
sg8
g9
(g13
S'\x00\x00\x00\x00\x00\x00\x00@'
p2868
tp2869
Rp2870
sg19
I0
sg20
g21
(S'\x07\xdd\t\x1d\x13\t\x0f\x04\xa1,'
p2871
tp2872
Rp2873
sg25
I0
sg26
g27
(g28
(I0
tp2874
g30
tp2875
Rp2876
(I1
(I2
tp2877
g36
I00
S'h\x00\x00\x00K\x00\x00\x00'
p2878
tp2879
bsba(i__main__
FrameData
p2880
(dp2881
g6
g2755
sg8
g9
(g13
S'\xa8\xf4\x97\x9bw\xe3\x01@'
p2882
tp2883
Rp2884
sg19
I0
sg20
g21
(S'\x07\xdd\t\x1d\x13\t\x0f\x04\xde&'
p2885
tp2886
Rp2887
sg25
I0
sg26
g27
(g28
(I0
tp2888
g30
tp2889
Rp2890
(I1
(I2
tp2891
g36
I00
S'h\x00\x00\x00J\x00\x00\x00'
p2892
tp2893
bsba(i__main__
FrameData
p2894
(dp2895
g6
g2755
sg8
g9
(g13
S'\xa8\xf4\x97\x9bw\xe3\x01@'
p2896
tp2897
Rp2898
sg19
I0
sg20
g21
(S'\x07\xdd\t\x1d\x13\t\x0f\x05 )'
p2899
tp2900
Rp2901
sg25
I0
sg26
g27
(g28
(I0
tp2902
g30
tp2903
Rp2904
(I1
(I2
tp2905
g36
I00
S'i\x00\x00\x00I\x00\x00\x00'
p2906
tp2907
bsba(i__main__
FrameData
p2908
(dp2909
g6
g2755
sg8
g9
(g13
S'\xa8\xf4\x97\x9bw\xe3\x01@'
p2910
tp2911
Rp2912
sg19
I0
sg20
g21
(S'\x07\xdd\t\x1d\x13\t\x0f\x05\x9f?'
p2913
tp2914
Rp2915
sg25
I0
sg26
g27
(g28
(I0
tp2916
g30
tp2917
Rp2918
(I1
(I2
tp2919
g36
I00
S'k\x00\x00\x00I\x00\x00\x00'
p2920
tp2921
bsba(i__main__
FrameData
p2922
(dp2923
g6
g2755
sg8
g9
(g13
S'\xcd;\x7ff\x9e\xa0\xf6?'
p2924
tp2925
Rp2926
sg19
I0
sg20
g21
(S'\x07\xdd\t\x1d\x13\t\x0f\n=\xb1'
p2927
tp2928
Rp2929
sg25
I0
sg26
g27
(g28
(I0
tp2930
g30
tp2931
Rp2932
(I1
(I2
tp2933
g36
I00
S'k\x00\x00\x00J\x00\x00\x00'
p2934
tp2935
bsba(i__main__
FrameData
p2936
(dp2937
g6
g2755
sg8
g9
(g13
S'\x00\x00\x00\x00\x00\x00\xf0?'
p2938
tp2939
Rp2940
sg19
I0
sg20
g21
(S'\x07\xdd\t\x1d\x13\t\x0f\nx\xb8'
p2941
tp2942
Rp2943
sg25
I0
sg26
g27
(g28
(I0
tp2944
g30
tp2945
Rp2946
(I1
(I2
tp2947
g36
I00
S'k\x00\x00\x00K\x00\x00\x00'
p2948
tp2949
bsba(i__main__
FrameData
p2950
(dp2951
g6
g2755
sg8
g9
(g13
S'\xcd;\x7ff\x9e\xa0\xf6?'
p2952
tp2953
Rp2954
sg19
I0
sg20
g21
(S'\x07\xdd\t\x1d\x13\t\x0f\n\xfe\x0c'
p2955
tp2956
Rp2957
sg25
I0
sg26
g27
(g28
(I0
tp2958
g30
tp2959
Rp2960
(I1
(I2
tp2961
g36
I00
S'k\x00\x00\x00L\x00\x00\x00'
p2962
tp2963
bsba(i__main__
FrameData
p2964
(dp2965
g6
g2755
sg8
g9
(g13
S'\xa8\xf4\x97\x9bw\xe3\x01@'
p2966
tp2967
Rp2968
sg19
I0
sg20
g21
(S'\x07\xdd\t\x1d\x13\t\x0f\x0b;\xa3'
p2969
tp2970
Rp2971
sg25
I0
sg26
g27
(g28
(I0
tp2972
g30
tp2973
Rp2974
(I1
(I2
tp2975
g36
I00
S'k\x00\x00\x00M\x00\x00\x00'
p2976
tp2977
bsba(i__main__
FrameData
p2978
(dp2979
g6
g2755
sg8
g9
(g13
S'S[\xda:XL\t@'
p2980
tp2981
Rp2982
sg19
I0
sg20
g21
(S'\x07\xdd\t\x1d\x13\t\x0f\x0b\xbe\x95'
p2983
tp2984
Rp2985
sg25
I0
sg26
g27
(g28
(I0
tp2986
g30
tp2987
Rp2988
(I1
(I2
tp2989
g36
I00
S'k\x00\x00\x00N\x00\x00\x00'
p2990
tp2991
bsba(i__main__
FrameData
p2992
(dp2993
g6
g2755
sg8
g9
(g13
S'\x07\xed\xaff\x0f~\x10@'
p2994
tp2995
Rp2996
sg19
I0
sg20
g21
(S'\x07\xdd\t\x1d\x13\t\x0f\x0cB!'
p2997
tp2998
Rp2999
sg25
I0
sg26
g27
(g28
(I0
tp3000
g30
tp3001
Rp3002
(I1
(I2
tp3003
g36
I00
S'k\x00\x00\x00O\x00\x00\x00'
p3004
tp3005
bsba(i__main__
FrameData
p3006
(dp3007
g6
g2755
sg8
g9
(g13
S'\xf6/\x12_ee\x14@'
p3008
tp3009
Rp3010
sg19
I0
sg20
g21
(S'\x07\xdd\t\x1d\x13\t\x0f\x0c\x882'
p3011
tp3012
Rp3013
sg25
I0
sg26
g27
(g28
(I0
tp3014
g30
tp3015
Rp3016
(I1
(I2
tp3017
g36
I00
S'k\x00\x00\x00P\x00\x00\x00'
p3018
tp3019
bsba(i__main__
FrameData
p3020
(dp3021
g6
g2755
sg8
g9
(g13
S'\xf3\xd9\xa8\xa4h\x8a\x15@'
p3022
tp3023
Rp3024
sg19
I0
sg20
g21
(S'\x07\xdd\t\x1d\x13\t\x0f\x0c\xc2\xdc'
p3025
tp3026
Rp3027
sg25
I0
sg26
g27
(g28
(I0
tp3028
g30
tp3029
Rp3030
(I1
(I2
tp3031
g36
I00
S'l\x00\x00\x00P\x00\x00\x00'
p3032
tp3033
bsba(i__main__
FrameData
p3034
(dp3035
g6
g2755
sg8
g9
(g13
S'\xe9\xfbv \xd5\x1e\x1d@'
p3036
tp3037
Rp3038
sg19
I0
sg20
g21
(S'\x07\xdd\t\x1d\x13\t\x0f\r\x0c\xc4'
p3039
tp3040
Rp3041
sg25
I0
sg26
g27
(g28
(I0
tp3042
g30
tp3043
Rp3044
(I1
(I2
tp3045
g36
I00
S'l\x00\x00\x00R\x00\x00\x00'
p3046
tp3047
bsba(i__main__
FrameData
p3048
(dp3049
g6
g2755
sg8
g9
(g13
S'bVc}\x9d\xb2#@'
p3050
tp3051
Rp3052
sg19
I0
sg20
g21
(S'\x07\xdd\t\x1d\x13\t\x0f\r\x86\x8b'
p3053
tp3054
Rp3055
sg25
I0
sg26
g27
(g28
(I0
tp3056
g30
tp3057
Rp3058
(I1
(I2
tp3059
g36
I00
S'n\x00\x00\x00T\x00\x00\x00'
p3060
tp3061
bsba(i__main__
FrameData
p3062
(dp3063
g6
g2755
sg8
g9
(g13
S'\xd2\xf1}\x82U\\&@'
p3064
tp3065
Rp3066
sg19
I0
sg20
g21
(S'\x07\xdd\t\x1d\x13\t\x0f\r\xccn'
p3067
tp3068
Rp3069
sg25
I0
sg26
g27
(g28
(I0
tp3070
g30
tp3071
Rp3072
(I1
(I2
tp3073
g36
I00
S'o\x00\x00\x00U\x00\x00\x00'
p3074
tp3075
bsba(i__main__
FrameData
p3076
(dp3077
g6
g2755
sg8
g9
(g13
S"\xa2\xa3\xb3\r\xe5R'@"
p3078
tp3079
Rp3080
sg19
I0
sg20
g21
(S'\x07\xdd\t\x1d\x13\t\x0f\x0e\t\xa0'
p3081
tp3082
Rp3083
sg25
I0
sg26
g27
(g28
(I0
tp3084
g30
tp3085
Rp3086
(I1
(I2
tp3087
g36
I00
S'p\x00\x00\x00U\x00\x00\x00'
p3088
tp3089
bsba(i__main__
FrameData
p3090
(dp3091
g6
g2755
sg8
g9
(g13
S'Qf\x99\xcb\xa9\x13*@'
p3092
tp3093
Rp3094
sg19
I0
sg20
g21
(S'\x07\xdd\t\x1d\x13\t\x0f\x0eO\x9e'
p3095
tp3096
Rp3097
sg25
I0
sg26
g27
(g28
(I0
tp3098
g30
tp3099
Rp3100
(I1
(I2
tp3101
g36
I00
S'q\x00\x00\x00V\x00\x00\x00'
p3102
tp3103
bsba(i__main__
FrameData
p3104
(dp3105
g6
g2755
sg8
g9
(g13
S'?*\x98"\xe3l,@'
p3106
tp3107
Rp3108
sg19
I0
sg20
g21
(S'\x07\xdd\t\x1d\x13\t\x0f\x0e\x8d\x00'
p3109
tp3110
Rp3111
sg25
I0
sg26
g27
(g28
(I0
tp3112
g30
tp3113
Rp3114
(I1
(I2
tp3115
g36
I00
S's\x00\x00\x00V\x00\x00\x00'
p3116
tp3117
bsba(i__main__
FrameData
p3118
(dp3119
g6
g2755
sg8
g9
(g13
S'\x10\xb3]\xc9`G0@'
p3120
tp3121
Rp3122
sg19
I0
sg20
g21
(S'\x07\xdd\t\x1d\x13\t\x0f\x0e\xcb\xbe'
p3123
tp3124
Rp3125
sg25
I0
sg26
g27
(g28
(I0
tp3126
g30
tp3127
Rp3128
(I1
(I2
tp3129
g36
I00
S'u\x00\x00\x00W\x00\x00\x00'
p3130
tp3131
bsba(i__main__
FrameData
p3132
(dp3133
g6
g679
sg8
g9
(g13
S'9\xf2\xee\xcc\xd9\x1c/@'
p3134
tp3135
Rp3136
sg19
I0
sg20
g21
(S'\x07\xdd\t\x1d\x13\t\x0f\x0f\x18\xfc'
p3137
tp3138
Rp3139
sg25
I0
sg26
g27
(g28
(I0
tp3140
g30
tp3141
Rp3142
(I1
(I2
tp3143
g36
I00
S'w\x00\x00\x00X\x00\x00\x00'
p3144
tp3145
bsba(i__main__
FrameData
p3146
(dp3147
g6
g679
sg8
g9
(g13
S'\xef\rI\xf1\xf33+@'
p3148
tp3149
Rp3150
sg19
I0
sg20
g21
(S'\x07\xdd\t\x1d\x13\t\x10\x00\x15['
p3151
tp3152
Rp3153
sg25
I0
sg26
g27
(g28
(I0
tp3154
g30
tp3155
Rp3156
(I1
(I2
tp3157
g36
I00
S'z\x00\x00\x00X\x00\x00\x00'
p3158
tp3159
bsba(i__main__
FrameData
p3160
(dp3161
g6
g679
sg8
g9
(g13
S'\xfc\xeeci3\xd5*@'
p3162
tp3163
Rp3164
sg19
I0
sg20
g21
(S'\x07\xdd\t\x1d\x13\t\x10\x00Ql'
p3165
tp3166
Rp3167
sg25
I0
sg26
g27
(g28
(I0
tp3168
g30
tp3169
Rp3170
(I1
(I2
tp3171
g36
I00
S'|\x00\x00\x00Y\x00\x00\x00'
p3172
tp3173
bsba(i__main__
FrameData
p3174
(dp3175
g6
g679
sg8
g9
(g13
S'S[\xda:XL)@'
p3176
tp3177
Rp3178
sg19
I0
sg20
g21
(S'\x07\xdd\t\x1d\x13\t\x10\x00\x97k'
p3179
tp3180
Rp3181
sg25
I0
sg26
g27
(g28
(I0
tp3182
g30
tp3183
Rp3184
(I1
(I2
tp3185
g36
I00
S'~\x00\x00\x00Y\x00\x00\x00'
p3186
tp3187
bsba(i__main__
FrameData
p3188
(dp3189
g6
g679
sg8
g9
(g13
S'&5w\xe2K\x15(@'
p3190
tp3191
Rp3192
sg19
I0
sg20
g21
(S'\x07\xdd\t\x1d\x13\t\x10\x00\xd4\xc4'
p3193
tp3194
Rp3195
sg25
I0
sg26
g27
(g28
(I0
tp3196
g30
tp3197
Rp3198
(I1
(I2
tp3199
g36
I00
S'\x81\x00\x00\x00Y\x00\x00\x00'
p3200
tp3201
bsba(i__main__
FrameData
p3202
(dp3203
g6
g679
sg8
g9
(g13
S'\xde4\xda\xfeNN*@'
p3204
tp3205
Rp3206
sg19
I0
sg20
g21
(S'\x07\xdd\t\x1d\x13\t\x10\x01\x12-'
p3207
tp3208
Rp3209
sg25
I0
sg26
g27
(g28
(I0
tp3210
g30
tp3211
Rp3212
(I1
(I2
tp3213
g36
I00
S'\x84\x00\x00\x00Z\x00\x00\x00'
p3214
tp3215
bsba(i__main__
FrameData
p3216
(dp3217
g6
g679
sg8
g9
(g13
S'\xef\rI\xf1\xf33+@'
p3218
tp3219
Rp3220
sg19
I0
sg20
g21
(S'\x07\xdd\t\x1d\x13\t\x10\x01X,'
p3221
tp3222
Rp3223
sg25
I0
sg26
g27
(g28
(I0
tp3224
g30
tp3225
Rp3226
(I1
(I2
tp3227
g36
I00
S'\x86\x00\x00\x00Z\x00\x00\x00'
p3228
tp3229
bsba(i__main__
FrameData
p3230
(dp3231
g6
g679
sg8
g9
(g13
S'&\xecIP\x11N/@'
p3232
tp3233
Rp3234
sg19
I0
sg20
g21
(S'\x07\xdd\t\x1d\x13\t\x10\x01\x93\xcd'
p3235
tp3236
Rp3237
sg25
I0
sg26
g27
(g28
(I0
tp3238
g30
tp3239
Rp3240
(I1
(I2
tp3241
g36
I00
S'\x89\x00\x00\x00[\x00\x00\x00'
p3242
tp3243
bsba(i__main__
FrameData
p3244
(dp3245
g6
g679
sg8
g9
(g13
S'\xb9\x93\xe1k\xb0\xa40@'
p3246
tp3247
Rp3248
sg19
I0
sg20
g21
(S'\x07\xdd\t\x1d\x13\t\x10\x01\xdb\x8a'
p3249
tp3250
Rp3251
sg25
I0
sg26
g27
(g28
(I0
tp3252
g30
tp3253
Rp3254
(I1
(I2
tp3255
g36
I00
S'\x8b\x00\x00\x00[\x00\x00\x00'
p3256
tp3257
bsba(i__main__
FrameData
p3258
(dp3259
g6
g679
sg8
g9
(g13
S'N\x017\xfac41@'
p3260
tp3261
Rp3262
sg19
I0
sg20
g21
(S'\x07\xdd\t\x1d\x13\t\x10\x02\x18\xf2'
p3263
tp3264
Rp3265
sg25
I0
sg26
g27
(g28
(I0
tp3266
g30
tp3267
Rp3268
(I1
(I2
tp3269
g36
I00
S'\x8c\x00\x00\x00[\x00\x00\x00'
p3270
tp3271
bsba(i__main__
FrameData
p3272
(dp3273
g6
g679
sg8
g9
(g13
S'\xd5?\x80N\xf3\xcd1@'
p3274
tp3275
Rp3276
sg19
I0
sg20
g21
(S'\x07\xdd\t\x1d\x13\t\x10\x02W\xa6'
p3277
tp3278
Rp3279
sg25
I0
sg26
g27
(g28
(I0
tp3280
g30
tp3281
Rp3282
(I1
(I2
tp3283
g36
I00
S'\x8d\x00\x00\x00[\x00\x00\x00'
p3284
tp3285
bsba(i__main__
FrameData
p3286
(dp3287
g6
g679
sg8
g9
(g13
S'^\x9e\x9f\x85\xdf\x1a3@'
p3288
tp3289
Rp3290
sg19
I0
sg20
g21
(S'\x07\xdd\t\x1d\x13\t\x10\x02\x9c%'
p3291
tp3292
Rp3293
sg25
I0
sg26
g27
(g28
(I0
tp3294
g30
tp3295
Rp3296
(I1
(I2
tp3297
g36
I00
S'\x8f\x00\x00\x00[\x00\x00\x00'
p3298
tp3299
bsba(i__main__
FrameData
p3300
(dp3301
g6
g792
sg8
g9
(g13
S'\x96`G\xb3\x80b2@'
p3302
tp3303
Rp3304
sg19
I0
sg20
g21
(S'\x07\xdd\t\x1d\x13\t\x10\x02\xdaL'
p3305
tp3306
Rp3307
sg25
I0
sg26
g27
(g28
(I0
tp3308
g30
tp3309
Rp3310
(I1
(I2
tp3311
g36
I00
S'\x91\x00\x00\x00[\x00\x00\x00'
p3312
tp3313
bsba(i__main__
FrameData
p3314
(dp3315
g6
g792
sg8
g9
(g13
S'8\xd8\xbc\n\x1b\x072@'
p3316
tp3317
Rp3318
sg19
I0
sg20
g21
(S'\x07\xdd\t\x1d\x13\t\x10\x03\x1f\x8e'
p3319
tp3320
Rp3321
sg25
I0
sg26
g27
(g28
(I0
tp3322
g30
tp3323
Rp3324
(I1
(I2
tp3325
g36
I00
S'\x92\x00\x00\x00[\x00\x00\x00'
p3326
tp3327
bsba(i__main__
FrameData
p3328
(dp3329
g6
g792
sg8
g9
(g13
S'\xa8y\x0c\t\xd9v1@'
p3330
tp3331
Rp3332
sg19
I0
sg20
g21
(S'\x07\xdd\t\x1d\x13\t\x10\x03\\\xf1'
p3333
tp3334
Rp3335
sg25
I0
sg26
g27
(g28
(I0
tp3336
g30
tp3337
Rp3338
(I1
(I2
tp3339
g36
I00
S'\x94\x00\x00\x00[\x00\x00\x00'
p3340
tp3341
bsba(i__main__
FrameData
p3342
(dp3343
g6
g792
sg8
g9
(g13
S'\xfb\xefg\xc4>C1@'
p3344
tp3345
Rp3346
sg19
I0
sg20
g21
(S'\x07\xdd\t\x1d\x13\t\x10\x03\xa2\xe1'
p3347
tp3348
Rp3349
sg25
I0
sg26
g27
(g28
(I0
tp3350
g30
tp3351
Rp3352
(I1
(I2
tp3353
g36
I00
S'\x95\x00\x00\x00[\x00\x00\x00'
p3354
tp3355
bsba(i__main__
FrameData
p3356
(dp3357
g6
g792
sg8
g9
(g13
S')\x9ah\xdd\x85\x071@'
p3358
tp3359
Rp3360
sg19
I0
sg20
g21
(S'\x07\xdd\t\x1d\x13\t\x10\x03\xe0N'
p3361
tp3362
Rp3363
sg25
I0
sg26
g27
(g28
(I0
tp3364
g30
tp3365
Rp3366
(I1
(I2
tp3367
g36
I00
S'\x97\x00\x00\x00[\x00\x00\x00'
p3368
tp3369
bsba(i__main__
FrameData
p3370
(dp3371
g6
g792
sg8
g9
(g13
S'f\xee@\x9f\x03\x1e1@'
p3372
tp3373
Rp3374
sg19
I0
sg20
g21
(S"\x07\xdd\t\x1d\x13\t\x10\x04'}"
p3375
tp3376
Rp3377
sg25
I0
sg26
g27
(g28
(I0
tp3378
g30
tp3379
Rp3380
(I1
(I2
tp3381
g36
I00
S'\x9a\x00\x00\x00[\x00\x00\x00'
p3382
tp3383
bsba(i__main__
FrameData
p3384
(dp3385
g6
g792
sg8
g9
(g13
S'\x07\xed\xaff\x0f~0@'
p3386
tp3387
Rp3388
sg19
I0
sg20
g21
(S'\x07\xdd\t\x1d\x13\t\x10\x04lm'
p3389
tp3390
Rp3391
sg25
I0
sg26
g27
(g28
(I0
tp3392
g30
tp3393
Rp3394
(I1
(I2
tp3395
g36
I00
S'\x9c\x00\x00\x00Z\x00\x00\x00'
p3396
tp3397
bsba(i__main__
FrameData
p3398
(dp3399
g6
g792
sg8
g9
(g13
S"v\xa3~{\xce'0@"
p3400
tp3401
Rp3402
sg19
I0
sg20
g21
(S'\x07\xdd\t\x1d\x13\t\x10\x04\xa9\xc9'
p3403
tp3404
Rp3405
sg25
I0
sg26
g27
(g28
(I0
tp3406
g30
tp3407
Rp3408
(I1
(I2
tp3409
g36
I00
S'\x9e\x00\x00\x00Y\x00\x00\x00'
p3410
tp3411
bsba(i__main__
FrameData
p3412
(dp3413
g6
g792
sg8
g9
(g13
S'\xb9\xbaF\xca+~1@'
p3414
tp3415
Rp3416
sg19
I0
sg20
g21
(S'\x07\xdd\t\x1d\x13\t\x10\x04\xe7\x08'
p3417
tp3418
Rp3419
sg25
I0
sg26
g27
(g28
(I0
tp3420
g30
tp3421
Rp3422
(I1
(I2
tp3423
g36
I00
S'\xa1\x00\x00\x00Y\x00\x00\x00'
p3424
tp3425
bsba(i__main__
FrameData
p3426
(dp3427
g6
g792
sg8
g9
(g13
S'N\x017\xfac41@'
p3428
tp3429
Rp3430
sg19
I0
sg20
g21
(S'\x07\xdd\t\x1d\x13\t\x10\x05&2'
p3431
tp3432
Rp3433
sg25
I0
sg26
g27
(g28
(I0
tp3434
g30
tp3435
Rp3436
(I1
(I2
tp3437
g36
I00
S'\xa2\x00\x00\x00X\x00\x00\x00'
p3438
tp3439
bsba(i__main__
FrameData
p3440
(dp3441
g6
g792
sg8
g9
(g13
S'\x9a.\x90!hp2@'
p3442
tp3443
Rp3444
sg19
I0
sg20
g21
(S'\x07\xdd\t\x1d\x13\t\x10\x05ja'
p3445
tp3446
Rp3447
sg25
I0
sg26
g27
(g28
(I0
tp3448
g30
tp3449
Rp3450
(I1
(I2
tp3451
g36
I00
S'\xa4\x00\x00\x00X\x00\x00\x00'
p3452
tp3453
bsba(i__main__
FrameData
p3454
(dp3455
g6
S'i'
p3456
sg8
g9
(g13
S'\x96`G\xb3\x80b2@'
p3457
tp3458
Rp3459
sg19
I0
sg20
g21
(S'\x07\xdd\t\x1d\x13\t\x10\x05\xb1\x9c'
p3460
tp3461
Rp3462
sg25
I0
sg26
g27
(g28
(I0
tp3463
g30
tp3464
Rp3465
(I1
(I2
tp3466
g36
I00
S'\xa5\x00\x00\x00X\x00\x00\x00'
p3467
tp3468
bsba(i__main__
FrameData
p3469
(dp3470
g6
g3456
sg8
g9
(g13
S'9\xf2\xee\xcc\xd9\x1c/@'
p3471
tp3472
Rp3473
sg19
I0
sg20
g21
(S'\x07\xdd\t\x1d\x13\t\x10\x06+\x1b'
p3474
tp3475
Rp3476
sg25
I0
sg26
g27
(g28
(I0
tp3477
g30
tp3478
Rp3479
(I1
(I2
tp3480
g36
I00
S'\xa7\x00\x00\x00V\x00\x00\x00'
p3481
tp3482
bsba(i__main__
FrameData
p3483
(dp3484
g6
g3456
sg8
g9
(g13
S'/\xa4\xe3\\m\xbb-@'
p3485
tp3486
Rp3487
sg19
I0
sg20
g21
(S'\x07\xdd\t\x1d\x13\t\x10\x06r&'
p3488
tp3489
Rp3490
sg25
I0
sg26
g27
(g28
(I0
tp3491
g30
tp3492
Rp3493
(I1
(I2
tp3494
g36
I00
S'\xa8\x00\x00\x00V\x00\x00\x00'
p3495
tp3496
bsba(i__main__
FrameData
p3497
(dp3498
g6
g3456
sg8
g9
(g13
S'\xb4\xb8=iA\xe8*@'
p3499
tp3500
Rp3501
sg19
I0
sg20
g21
(S'\x07\xdd\t\x1d\x13\t\x10\x06\xb5\xda'
p3502
tp3503
Rp3504
sg25
I0
sg26
g27
(g28
(I0
tp3505
g30
tp3506
Rp3507
(I1
(I2
tp3508
g36
I00
S'\xa8\x00\x00\x00T\x00\x00\x00'
p3509
tp3510
bsba(i__main__
FrameData
p3511
(dp3512
g6
g3456
sg8
g9
(g13
S'F#O3\xb2t)@'
p3513
tp3514
Rp3515
sg19
I0
sg20
g21
(S'\x07\xdd\t\x1d\x13\t\x10\x06\xf4t'
p3516
tp3517
Rp3518
sg25
I0
sg26
g27
(g28
(I0
tp3519
g30
tp3520
Rp3521
(I1
(I2
tp3522
g36
I00
S'\xa9\x00\x00\x00T\x00\x00\x00'
p3523
tp3524
bsba(i__main__
FrameData
p3525
(dp3526
g6
g3456
sg8
g9
(g13
S'&5w\xe2K\x15(@'
p3527
tp3528
Rp3529
sg19
I0
sg20
g21
(S'\x07\xdd\t\x1d\x13\t\x10\x071\xd2'
p3530
tp3531
Rp3532
sg25
I0
sg26
g27
(g28
(I0
tp3533
g30
tp3534
Rp3535
(I1
(I2
tp3536
g36
I00
S'\xa9\x00\x00\x00S\x00\x00\x00'
p3537
tp3538
bsba(i__main__
FrameData
p3539
(dp3540
g6
g3456
sg8
g9
(g13
S'\xcd;\x7ff\x9e\xa0&@'
p3541
tp3542
Rp3543
sg19
I0
sg20
g21
(S'\x07\xdd\t\x1d\x13\t\x10\x07\xb5C'
p3544
tp3545
Rp3546
sg25
I0
sg26
g27
(g28
(I0
tp3547
g30
tp3548
Rp3549
(I1
(I2
tp3550
g36
I00
S'\xaa\x00\x00\x00S\x00\x00\x00'
p3551
tp3552
bsba(i__main__
FrameData
p3553
(dp3554
g6
g3456
sg8
g9
(g13
S'ST\xaf\x99\x8a\xcc#@'
p3555
tp3556
Rp3557
sg19
I0
sg20
g21
(S'\x07\xdd\t\x1d\x13\t\x10\x08:\x97'
p3558
tp3559
Rp3560
sg25
I0
sg26
g27
(g28
(I0
tp3561
g30
tp3562
Rp3563
(I1
(I2
tp3564
g36
I00
S'\xab\x00\x00\x00R\x00\x00\x00'
p3565
tp3566
bsba(i__main__
FrameData
p3567
(dp3568
g6
g3456
sg8
g9
(g13
S'N\x017\xfac4!@'
p3569
tp3570
Rp3571
sg19
I0
sg20
g21
(S'\x07\xdd\t\x1d\x13\t\x10\x08z\x88'
p3572
tp3573
Rp3574
sg25
I0
sg26
g27
(g28
(I0
tp3575
g30
tp3576
Rp3577
(I1
(I2
tp3578
g36
I00
S'\xab\x00\x00\x00P\x00\x00\x00'
p3579
tp3580
bsba(i__main__
FrameData
p3581
(dp3582
g6
g3456
sg8
g9
(g13
S'\xd0\xbaa?\xe0\x1f @'
p3583
tp3584
Rp3585
sg19
I0
sg20
g21
(S'\x07\xdd\t\x1d\x13\t\x10\x08\xf9*'
p3586
tp3587
Rp3588
sg25
I0
sg26
g27
(g28
(I0
tp3589
g30
tp3590
Rp3591
(I1
(I2
tp3592
g36
I00
S'\xab\x00\x00\x00O\x00\x00\x00'
p3593
tp3594
bsba(i__main__
FrameData
p3595
(dp3596
g6
g3456
sg8
g9
(g13
S'p\xc4\x9d9\x8dv\x1e@'
p3597
tp3598
Rp3599
sg19
I0
sg20
g21
(S'\x07\xdd\t\x1d\x13\t\x10\n@\xf8'
p3600
tp3601
Rp3602
sg25
I0
sg26
g27
(g28
(I0
tp3603
g30
tp3604
Rp3605
(I1
(I2
tp3606
g36
I00
S'\xab\x00\x00\x00N\x00\x00\x00'
p3607
tp3608
bsba(i__main__
FrameData
p3609
(dp3610
g6
g3456
sg8
g9
(g13
S'\xfc\xeeci3\xd5\x1a@'
p3611
tp3612
Rp3613
sg19
I0
sg20
g21
(S'\x07\xdd\t\x1d\x13\t\x10\rR\xb6'
p3614
tp3615
Rp3616
sg25
I0
sg26
g27
(g28
(I0
tp3617
g30
tp3618
Rp3619
(I1
(I2
tp3620
g36
I00
S'\xac\x00\x00\x00N\x00\x00\x00'
p3621
tp3622
bsba(i__main__
FrameData
p3623
(dp3624
g6
g3456
sg8
g9
(g13
S'\x00\xff\x9f\x99\xcc\x9c\x19@'
p3625
tp3626
Rp3627
sg19
I0
sg20
g21
(S'\x07\xdd\t\x1d\x13\t\x10\r\x8e\xd5'
p3628
tp3629
Rp3630
sg25
I0
sg26
g27
(g28
(I0
tp3631
g30
tp3632
Rp3633
(I1
(I2
tp3634
g36
I00
S'\xae\x00\x00\x00P\x00\x00\x00'
p3635
tp3636
bsba(i__main__
FrameData
p3637
(dp3638
g6
g3456
sg8
g9
(g13
S'\xa2\xa3\xb3\r\xe5R\x17@'
p3639
tp3640
Rp3641
sg19
I0
sg20
g21
(S'\x07\xdd\t\x1d\x13\t\x10\r\xd4\xc4'
p3642
tp3643
Rp3644
sg25
I0
sg26
g27
(g28
(I0
tp3645
g30
tp3646
Rp3647
(I1
(I2
tp3648
g36
I00
S'\xaf\x00\x00\x00P\x00\x00\x00'
p3649
tp3650
bsba(i__main__
FrameData
p3651
(dp3652
g6
g3456
sg8
g9
(g13
S'p\xc4\x9d9\x8dv\x1e@'
p3653
tp3654
Rp3655
sg19
I0
sg20
g21
(S'\x07\xdd\t\x1d\x13\t\x10\x0e\x12/'
p3656
tp3657
Rp3658
sg25
I0
sg26
g27
(g28
(I0
tp3659
g30
tp3660
Rp3661
(I1
(I2
tp3662
g36
I00
S'\xaf\x00\x00\x00R\x00\x00\x00'
p3663
tp3664
bsba(i__main__
FrameData
p3665
(dp3666
g6
g3456
sg8
g9
(g13
S'\xe9\xfbv \xd5\x1e\x1d@'
p3667
tp3668
Rp3669
sg19
I0
sg20
g21
(S'\x07\xdd\t\x1d\x13\t\x10\x0eS\xae'
p3670
tp3671
Rp3672
sg25
I0
sg26
g27
(g28
(I0
tp3673
g30
tp3674
Rp3675
(I1
(I2
tp3676
g36
I00
S'\xb0\x00\x00\x00R\x00\x00\x00'
p3677
tp3678
bsba(i__main__
FrameData
p3679
(dp3680
g6
g3456
sg8
g9
(g13
S'\xc0\n\x1f\x00\xc6H\x1c@'
p3681
tp3682
Rp3683
sg19
I0
sg20
g21
(S'\x07\xdd\t\x1d\x13\t\x10\x0e\xdc\xb8'
p3684
tp3685
Rp3686
sg25
I0
sg26
g27
(g28
(I0
tp3687
g30
tp3688
Rp3689
(I1
(I2
tp3690
g36
I00
S'\xb1\x00\x00\x00R\x00\x00\x00'
p3691
tp3692
bsba(i__main__
FrameData
p3693
(dp3694
g6
g3456
sg8
g9
(g13
S'\x00\x00\x00\x00\x00\x00\x1c@'
p3695
tp3696
Rp3697
sg19
I0
sg20
g21
(S'\x07\xdd\t\x1d\x13\t\x10\x0f\x17\x08'
p3698
tp3699
Rp3700
sg25
I0
sg26
g27
(g28
(I0
tp3701
g30
tp3702
Rp3703
(I1
(I2
tp3704
g36
I00
S'\xb2\x00\x00\x00R\x00\x00\x00'
p3705
tp3706
bsba(i__main__
FrameData
p3707
(dp3708
g6
g3456
sg8
g9
(g13
S'\xc0\n\x1f\x00\xc6H\x1c@'
p3709
tp3710
Rp3711
sg19
I0
sg20
g21
(S'\x07\xdd\t\x1d\x13\t\x11\x00\x1c\xa1'
p3712
tp3713
Rp3714
sg25
I0
sg26
g27
(g28
(I0
tp3715
g30
tp3716
Rp3717
(I1
(I2
tp3718
g36
I00
S'\xb3\x00\x00\x00R\x00\x00\x00'
p3719
tp3720
bsba(i__main__
FrameData
p3721
(dp3722
g6
g3456
sg8
g9
(g13
S'\xe9\xfbv \xd5\x1e\x1d@'
p3723
tp3724
Rp3725
sg19
I0
sg20
g21
(S'\x07\xdd\t\x1d\x13\t\x11\x00\x98w'
p3726
tp3727
Rp3728
sg25
I0
sg26
g27
(g28
(I0
tp3729
g30
tp3730
Rp3731
(I1
(I2
tp3732
g36
I00
S'\xb4\x00\x00\x00R\x00\x00\x00'
p3733
tp3734
bsba(i__main__
FrameData
p3735
(dp3736
g6
g3456
sg8
g9
(g13
S'p\xc4\x9d9\x8dv\x1e@'
p3737
tp3738
Rp3739
sg19
I0
sg20
g21
(S'\x07\xdd\t\x1d\x13\t\x11\x00\xdd\x8a'
p3740
tp3741
Rp3742
sg25
I0
sg26
g27
(g28
(I0
tp3743
g30
tp3744
Rp3745
(I1
(I2
tp3746
g36
I00
S'\xb5\x00\x00\x00R\x00\x00\x00'
p3747
tp3748
bsba(i__main__
FrameData
p3749
(dp3750
g6
g3456
sg8
g9
(g13
S'N\x017\xfac4!@'
p3751
tp3752
Rp3753
sg19
I0
sg20
g21
(S'\x07\xdd\t\x1d\x13\t\x11\x01`#'
p3754
tp3755
Rp3756
sg25
I0
sg26
g27
(g28
(I0
tp3757
g30
tp3758
Rp3759
(I1
(I2
tp3760
g36
I00
S'\xb7\x00\x00\x00R\x00\x00\x00'
p3761
tp3762
bsba(i__main__
FrameData
p3763
(dp3764
g6
g3456
sg8
g9
(g13
S'\x9a.\x90!hp"@'
p3765
tp3766
Rp3767
sg19
I0
sg20
g21
(S'\x07\xdd\t\x1d\x13\t\x11\x01\x9d\xe9'
p3768
tp3769
Rp3770
sg25
I0
sg26
g27
(g28
(I0
tp3771
g30
tp3772
Rp3773
(I1
(I2
tp3774
g36
I00
S'\xb8\x00\x00\x00R\x00\x00\x00'
p3775
tp3776
bsba(i__main__
FrameData
p3777
(dp3778
g6
g3456
sg8
g9
(g13
S'6\xd0\xd2x\xa2B%@'
p3779
tp3780
Rp3781
sg19
I0
sg20
g21
(S'\x07\xdd\t\x1d\x13\t\x11\x02!_'
p3782
tp3783
Rp3784
sg25
I0
sg26
g27
(g28
(I0
tp3785
g30
tp3786
Rp3787
(I1
(I2
tp3788
g36
I00
S'\xba\x00\x00\x00R\x00\x00\x00'
p3789
tp3790
bsba(i__main__
FrameData
p3791
(dp3792
g6
g3456
sg8
g9
(g13
S'\xeb\x12\xb2\xbb\xb2\xcd&@'
p3793
tp3794
Rp3795
sg19
I0
sg20
g21
(S'\x07\xdd\t\x1d\x13\t\x11\x02_\xa2'
p3796
tp3797
Rp3798
sg25
I0
sg26
g27
(g28
(I0
tp3799
g30
tp3800
Rp3801
(I1
(I2
tp3802
g36
I00
S'\xbb\x00\x00\x00R\x00\x00\x00'
p3803
tp3804
bsba(i__main__
FrameData
p3805
(dp3806
g6
g3456
sg8
g9
(g13
S'F\xc3\\\xa8\xc1i(@'
p3807
tp3808
Rp3809
sg19
I0
sg20
g21
(S'\x07\xdd\t\x1d\x13\t\x11\x02\xa5\x05'
p3810
tp3811
Rp3812
sg25
I0
sg26
g27
(g28
(I0
tp3813
g30
tp3814
Rp3815
(I1
(I2
tp3816
g36
I00
S'\xbc\x00\x00\x00R\x00\x00\x00'
p3817
tp3818
bsba(i__main__
FrameData
p3819
(dp3820
g6
g3456
sg8
g9
(g13
S'Qf\x99\xcb\xa9\x13*@'
p3821
tp3822
Rp3823
sg19
I0
sg20
g21
(S'\x07\xdd\t\x1d\x13\t\x11\x02\xe2\n'
p3824
tp3825
Rp3826
sg25
I0
sg26
g27
(g28
(I0
tp3827
g30
tp3828
Rp3829
(I1
(I2
tp3830
g36
I00
S'\xbd\x00\x00\x00R\x00\x00\x00'
p3831
tp3832
bsba(i__main__
FrameData
p3833
(dp3834
g6
g3456
sg8
g9
(g13
S'\xb9e(k\xee\xc8+@'
p3835
tp3836
Rp3837
sg19
I0
sg20
g21
(S'\x07\xdd\t\x1d\x13\t\x11\x03e\x86'
p3838
tp3839
Rp3840
sg25
I0
sg26
g27
(g28
(I0
tp3841
g30
tp3842
Rp3843
(I1
(I2
tp3844
g36
I00
S'\xbe\x00\x00\x00R\x00\x00\x00'
p3845
tp3846
bsba(i__main__
FrameData
p3847
(dp3848
g6
S'o'
p3849
sg8
g9
(g13
S'Qf\x99\xcb\xa9\x13*@'
p3850
tp3851
Rp3852
sg19
I0
sg20
g21
(S'\x07\xdd\t\x1d\x13\t\x11\x03\xa8\xb7'
p3853
tp3854
Rp3855
sg25
I0
sg26
g27
(g28
(I0
tp3856
g30
tp3857
Rp3858
(I1
(I2
tp3859
g36
I00
S'\xbf\x00\x00\x00R\x00\x00\x00'
p3860
tp3861
bsba(i__main__
FrameData
p3862
(dp3863
g6
g3849
sg8
g9
(g13
S'F\xc3\\\xa8\xc1i(@'
p3864
tp3865
Rp3866
sg19
I0
sg20
g21
(S'\x07\xdd\t\x1d\x13\t\x11\x03\xe8m'
p3867
tp3868
Rp3869
sg25
I0
sg26
g27
(g28
(I0
tp3870
g30
tp3871
Rp3872
(I1
(I2
tp3873
g36
I00
S'\xc0\x00\x00\x00R\x00\x00\x00'
p3874
tp3875
bsba(i__main__
FrameData
p3876
(dp3877
g6
g3849
sg8
g9
(g13
S'\xeb\x12\xb2\xbb\xb2\xcd&@'
p3878
tp3879
Rp3880
sg19
I0
sg20
g21
(S'\x07\xdd\t\x1d\x13\t\x11\x04/\xee'
p3881
tp3882
Rp3883
sg25
I0
sg26
g27
(g28
(I0
tp3884
g30
tp3885
Rp3886
(I1
(I2
tp3887
g36
I00
S'\xc1\x00\x00\x00R\x00\x00\x00'
p3888
tp3889
bsba(i__main__
FrameData
p3890
(dp3891
g6
g3849
sg8
g9
(g13
S'\x00\x00\x00\x00\x00\x00$@'
p3892
tp3893
Rp3894
sg19
I0
sg20
g21
(S'\x07\xdd\t\x1d\x13\t\x11\x04lw'
p3895
tp3896
Rp3897
sg25
I0
sg26
g27
(g28
(I0
tp3898
g30
tp3899
Rp3900
(I1
(I2
tp3901
g36
I00
S'\xc2\x00\x00\x00Q\x00\x00\x00'
p3902
tp3903
bsba(i__main__
FrameData
p3904
(dp3905
g6
g3849
sg8
g9
(g13
S'\x9a.\x90!hp"@'
p3906
tp3907
Rp3908
sg19
I0
sg20
g21
(S'\x07\xdd\t\x1d\x13\t\x11\x04\xb2J'
p3909
tp3910
Rp3911
sg25
I0
sg26
g27
(g28
(I0
tp3912
g30
tp3913
Rp3914
(I1
(I2
tp3915
g36
I00
S'\xc3\x00\x00\x00Q\x00\x00\x00'
p3916
tp3917
bsba(i__main__
FrameData
p3918
(dp3919
g6
g3849
sg8
g9
(g13
S'htN\x17\xb2=\x1f@'
p3920
tp3921
Rp3922
sg19
I0
sg20
g21
(S'\x07\xdd\t\x1d\x13\t\x11\x04\xeb\xe5'
p3923
tp3924
Rp3925
sg25
I0
sg26
g27
(g28
(I0
tp3926
g30
tp3927
Rp3928
(I1
(I2
tp3929
g36
I00
S'\xc4\x00\x00\x00P\x00\x00\x00'
p3930
tp3931
bsba(i__main__
FrameData
p3932
(dp3933
g6
g3849
sg8
g9
(g13
S'\x00\xff\x9f\x99\xcc\x9c\x19@'
p3934
tp3935
Rp3936
sg19
I0
sg20
g21
(S'\x07\xdd\t\x1d\x13\t\x11\x055\xb7'
p3937
tp3938
Rp3939
sg25
I0
sg26
g27
(g28
(I0
tp3940
g30
tp3941
Rp3942
(I1
(I2
tp3943
g36
I00
S'\xc5\x00\x00\x00O\x00\x00\x00'
p3944
tp3945
bsba(i__main__
FrameData
p3946
(dp3947
g6
g3849
sg8
g9
(g13
S'\xcd;\x7ff\x9e\xa0\x16@'
p3948
tp3949
Rp3950
sg19
I0
sg20
g21
(S"\x07\xdd\t\x1d\x13\t\x11\x05\xb0'"
p3951
tp3952
Rp3953
sg25
I0
sg26
g27
(g28
(I0
tp3954
g30
tp3955
Rp3956
(I1
(I2
tp3957
g36
I00
S'\xc6\x00\x00\x00O\x00\x00\x00'
p3958
tp3959
bsba(i__main__
FrameData
p3960
(dp3961
g6
g3849
sg8
g9
(g13
S'\x00\x00\x00\x00\x00\x00\x14@'
p3962
tp3963
Rp3964
sg19
I0
sg20
g21
(S'\x07\xdd\t\x1d\x13\t\x11\x05\xf1\xf4'
p3965
tp3966
Rp3967
sg25
I0
sg26
g27
(g28
(I0
tp3968
g30
tp3969
Rp3970
(I1
(I2
tp3971
g36
I00
S'\xc7\x00\x00\x00O\x00\x00\x00'
p3972
tp3973
bsba(i__main__
FrameData
p3974
(dp3975
g6
g3849
sg8
g9
(g13
S'\xf3YaD+\xd8\x0c@'
p3976
tp3977
Rp3978
sg19
I0
sg20
g21
(S'\x07\xdd\t\x1d\x13\t\x11\x06<L'
p3979
tp3980
Rp3981
sg25
I0
sg26
g27
(g28
(I0
tp3982
g30
tp3983
Rp3984
(I1
(I2
tp3985
g36
I00
S'\xc7\x00\x00\x00M\x00\x00\x00'
p3986
tp3987
bsba(i__main__
FrameData
p3988
(dp3989
g6
g3849
sg8
g9
(g13
S'\xcd;\x7ff\x9e\xa0\x06@'
p3990
tp3991
Rp3992
sg19
I0
sg20
g21
(S'\x07\xdd\t\x1d\x13\t\x11\x06\xb6\x99'
p3993
tp3994
Rp3995
sg25
I0
sg26
g27
(g28
(I0
tp3996
g30
tp3997
Rp3998
(I1
(I2
tp3999
g36
I00
S'\xc8\x00\x00\x00M\x00\x00\x00'
p4000
tp4001
bsba(i__main__
FrameData
p4002
(dp4003
g6
g3849
sg8
g9
(g13
S'\xa8\xf4\x97\x9bw\xe3\x01@'
p4004
tp4005
Rp4006
sg19
I0
sg20
g21
(S'\x07\xdd\t\x1d\x13\t\x11\x07:\x89'
p4007
tp4008
Rp4009
sg25
I0
sg26
g27
(g28
(I0
tp4010
g30
tp4011
Rp4012
(I1
(I2
tp4013
g36
I00
S'\xc9\x00\x00\x00M\x00\x00\x00'
p4014
tp4015
bsba(i__main__
FrameData
p4016
(dp4017
g6
g3849
sg8
g9
(g13
S'\x00\x00\x00\x00\x00\x00\xf0?'
p4018
tp4019
Rp4020
sg19
I0
sg20
g21
(S'\x07\xdd\t\x1d\x13\t\x11\x07\xbd\xbf'
p4021
tp4022
Rp4023
sg25
I0
sg26
g27
(g28
(I0
tp4024
g30
tp4025
Rp4026
(I1
(I2
tp4027
g36
I00
S'\xca\x00\x00\x00L\x00\x00\x00'
p4028
tp4029
bsba(i__main__
FrameData
p4030
(dp4031
g6
g3849
sg8
g9
(g13
S'\x00\x00\x00\x00\x00\x00\x00\x00'
p4032
tp4033
Rp4034
sg19
I0
sg20
g21
(S'\x07\xdd\t\x1d\x13\t\x11\x07\xfbG'
p4035
tp4036
Rp4037
sg25
I0
sg26
g27
(g28
(I0
tp4038
g30
tp4039
Rp4040
(I1
(I2
tp4041
g36
I00
S'\xca\x00\x00\x00K\x00\x00\x00'
p4042
tp4043
bsba(i__main__
FrameData
p4044
(dp4045
g6
g3849
sg8
g9
(g13
S'\x00\x00\x00\x00\x00\x00\xf0?'
p4046
tp4047
Rp4048
sg19
I0
sg20
g21
(S'\x07\xdd\t\x1d\x13\t\x11\x0c\x9ai'
p4049
tp4050
Rp4051
sg25
I0
sg26
g27
(g28
(I0
tp4052
g30
tp4053
Rp4054
(I1
(I2
tp4055
g36
I00
S'\xca\x00\x00\x00L\x00\x00\x00'
p4056
tp4057
bsba(i__main__
FrameData
p4058
(dp4059
g6
g3849
sg8
g9
(g13
S'\x00\x00\x00\x00\x00\x00\x00@'
p4060
tp4061
Rp4062
sg19
I0
sg20
g21
(S'\x07\xdd\t\x1d\x13\t\x11\r\x14\xf7'
p4063
tp4064
Rp4065
sg25
I0
sg26
g27
(g28
(I0
tp4066
g30
tp4067
Rp4068
(I1
(I2
tp4069
g36
I00
S'\xca\x00\x00\x00M\x00\x00\x00'
p4070
tp4071
bsba(i__main__
FrameData
p4072
(dp4073
g6
g3849
sg8
g9
(g13
S'\xa8\xf4\x97\x9bw\xe3\x01@'
p4074
tp4075
Rp4076
sg19
I0
sg20
g21
(S'\x07\xdd\t\x1d\x13\t\x11\r\x97A'
p4077
tp4078
Rp4079
sg25
I0
sg26
g27
(g28
(I0
tp4080
g30
tp4081
Rp4082
(I1
(I2
tp4083
g36
I00
S'\xc9\x00\x00\x00M\x00\x00\x00'
p4084
tp4085
bsba(i__main__
FrameData
p4086
(dp4087
g6
g3849
sg8
g9
(g13
S'\x07\xed\xaff\x0f~\x10@'
p4088
tp4089
Rp4090
sg19
I0
sg20
g21
(S'\x07\xdd\t\x1d\x13\t\x12\x00\x1d\x04'
p4091
tp4092
Rp4093
sg25
I0
sg26
g27
(g28
(I0
tp4094
g30
tp4095
Rp4096
(I1
(I2
tp4097
g36
I00
S'\xc9\x00\x00\x00O\x00\x00\x00'
p4098
tp4099
bsba(i__main__
FrameData
p4100
(dp4101
g6
g3849
sg8
g9
(g13
S'\x00\x00\x00\x00\x00\x00\x14@'
p4102
tp4103
Rp4104
sg19
I0
sg20
g21
(S'\x07\xdd\t\x1d\x13\t\x12\x00b\x89'
p4105
tp4106
Rp4107
sg25
I0
sg26
g27
(g28
(I0
tp4108
g30
tp4109
Rp4110
(I1
(I2
tp4111
g36
I00
S'\xc7\x00\x00\x00O\x00\x00\x00'
p4112
tp4113
bsba(i__main__
FrameData
p4114
(dp4115
g6
g3849
sg8
g9
(g13
S'\xa2\xa3\xb3\r\xe5R\x17@'
p4116
tp4117
Rp4118
sg19
I0
sg20
g21
(S'\x07\xdd\t\x1d\x13\t\x12\x00\x9f\xd4'
p4119
tp4120
Rp4121
sg25
I0
sg26
g27
(g28
(I0
tp4122
g30
tp4123
Rp4124
(I1
(I2
tp4125
g36
I00
S'\xc7\x00\x00\x00P\x00\x00\x00'
p4126
tp4127
bsba(i__main__
FrameData
p4128
(dp4129
g6
g3849
sg8
g9
(g13
S'\xc0\n\x1f\x00\xc6H\x1c@'
p4130
tp4131
Rp4132
sg19
I0
sg20
g21
(S'\x07\xdd\t\x1d\x13\t\x12\x00\xe5\xdb'
p4133
tp4134
Rp4135
sg25
I0
sg26
g27
(g28
(I0
tp4136
g30
tp4137
Rp4138
(I1
(I2
tp4139
g36
I00
S'\xc5\x00\x00\x00P\x00\x00\x00'
p4140
tp4141
bsba(i__main__
FrameData
p4142
(dp4143
g6
g3849
sg8
g9
(g13
S'\xd9l\xdf\xccv\xf8 @'
p4144
tp4145
Rp4146
sg19
I0
sg20
g21
(S'\x07\xdd\t\x1d\x13\t\x12\x01i;'
p4147
tp4148
Rp4149
sg25
I0
sg26
g27
(g28
(I0
tp4150
g30
tp4151
Rp4152
(I1
(I2
tp4153
g36
I00
S'\xc4\x00\x00\x00Q\x00\x00\x00'
p4154
tp4155
bsba(i__main__
FrameData
p4156
(dp4157
g6
g3849
sg8
g9
(g13
S'ST\xaf\x99\x8a\xcc#@'
p4158
tp4159
Rp4160
sg19
I0
sg20
g21
(S'\x07\xdd\t\x1d\x13\t\x12\x01\xa8\t'
p4161
tp4162
Rp4163
sg25
I0
sg26
g27
(g28
(I0
tp4164
g30
tp4165
Rp4166
(I1
(I2
tp4167
g36
I00
S'\xc3\x00\x00\x00R\x00\x00\x00'
p4168
tp4169
bsba(i__main__
FrameData
p4170
(dp4171
g6
g3849
sg8
g9
(g13
S'F#O3\xb2t)@'
p4172
tp4173
Rp4174
sg19
I0
sg20
g21
(S'\x07\xdd\t\x1d\x13\t\x12\x01\xe9Q'
p4175
tp4176
Rp4177
sg25
I0
sg26
g27
(g28
(I0
tp4178
g30
tp4179
Rp4180
(I1
(I2
tp4181
g36
I00
S'\xc1\x00\x00\x00T\x00\x00\x00'
p4182
tp4183
bsba(i__main__
FrameData
p4184
(dp4185
g6
g3849
sg8
g9
(g13
S'9\xf2\xee\xcc\xd9\x1c/@'
p4186
tp4187
Rp4188
sg19
I0
sg20
g21
(S'\x07\xdd\t\x1d\x13\t\x12\x02)\xf6'
p4189
tp4190
Rp4191
sg25
I0
sg26
g27
(g28
(I0
tp4192
g30
tp4193
Rp4194
(I1
(I2
tp4195
g36
I00
S'\xbf\x00\x00\x00V\x00\x00\x00'
p4196
tp4197
bsba(i__main__
FrameData
p4198
(dp4199
g6
g3456
sg8
g9
(g13
S'\xd5?\x80N\xf3\xcd1@'
p4200
tp4201
Rp4202
sg19
I0
sg20
g21
(S'\x07\xdd\t\x1d\x13\t\x12\x02g\xa6'
p4203
tp4204
Rp4205
sg25
I0
sg26
g27
(g28
(I0
tp4206
g30
tp4207
Rp4208
(I1
(I2
tp4209
g36
I00
S'\xbd\x00\x00\x00Y\x00\x00\x00'
p4210
tp4211
bsba(i__main__
FrameData
p4212
(dp4213
g6
g3456
sg8
g9
(g13
S'\xbf\x8f+\t\x89[2@'
p4214
tp4215
Rp4216
sg19
I0
sg20
g21
(S'\x07\xdd\t\x1d\x13\t\x12\x02\xadj'
p4217
tp4218
Rp4219
sg25
I0
sg26
g27
(g28
(I0
tp4220
g30
tp4221
Rp4222
(I1
(I2
tp4223
g36
I00
S'\xbb\x00\x00\x00[\x00\x00\x00'
p4224
tp4225
bsba(i__main__
FrameData
p4226
(dp4227
g6
S'k'
p4228
sg8
g9
(g13
S'W\xb2\xdb\x1a\x9a\xa53@'
p4229
tp4230
Rp4231
sg19
I0
sg20
g21
(S'\x07\xdd\t\x1d\x13\t\x12\x02\xea\xe0'
p4232
tp4233
Rp4234
sg25
I0
sg26
g27
(g28
(I0
tp4235
g30
tp4236
Rp4237
(I1
(I2
tp4238
g36
I00
S'\xb9\x00\x00\x00_\x00\x00\x00'
p4239
tp4240
bsba(i__main__
FrameData
p4241
(dp4242
g6
g4228
sg8
g9
(g13
S'\x00\x00\x00\x00\x00\x001@'
p4243
tp4244
Rp4245
sg19
I0
sg20
g21
(S'\x07\xdd\t\x1d\x13\t\x12\x031\x02'
p4246
tp4247
Rp4248
sg25
I0
sg26
g27
(g28
(I0
tp4249
g30
tp4250
Rp4251
(I1
(I2
tp4252
g36
I00
S'\xb6\x00\x00\x00c\x00\x00\x00'
p4253
tp4254
bsba(i__main__
FrameData
p4255
(dp4256
g6
g4228
sg8
g9
(g13
S'htN\x17\xb2=/@'
p4257
tp4258
Rp4259
sg19
I0
sg20
g21
(S'\x07\xdd\t\x1d\x13\t\x12\x03n\x17'
p4260
tp4261
Rp4262
sg25
I0
sg26
g27
(g28
(I0
tp4263
g30
tp4264
Rp4265
(I1
(I2
tp4266
g36
I00
S'\xb4\x00\x00\x00f\x00\x00\x00'
p4267
tp4268
bsba(i__main__
FrameData
p4269
(dp4270
g6
g4228
sg8
g9
(g13
S'/\xa4\xe3\\m\xbb-@'
p4271
tp4272
Rp4273
sg19
I0
sg20
g21
(S'\x07\xdd\t\x1d\x13\t\x12\x03\xb4\x05'
p4274
tp4275
Rp4276
sg25
I0
sg26
g27
(g28
(I0
tp4277
g30
tp4278
Rp4279
(I1
(I2
tp4280
g36
I00
S'\xb4\x00\x00\x00g\x00\x00\x00'
p4281
tp4282
bsba(i__main__
FrameData
p4283
(dp4284
g6
S'j'
p4285
sg8
g9
(g13
S'?*\x98"\xe3l,@'
p4286
tp4287
Rp4288
sg19
I0
sg20
g21
(S'\x07\xdd\t\x1d\x13\t\x12\x03\xf2\xb4'
p4289
tp4290
Rp4291
sg25
I0
sg26
g27
(g28
(I0
tp4292
g30
tp4293
Rp4294
(I1
(I2
tp4295
g36
I00
S'\xb2\x00\x00\x00i\x00\x00\x00'
p4296
tp4297
bsba(i__main__
FrameData
p4298
(dp4299
g6
g4285
sg8
g9
(g13
S'\xef\rI\xf1\xf33+@'
p4300
tp4301
Rp4302
sg19
I0
sg20
g21
(S'\x07\xdd\t\x1d\x13\t\x12\x040\xca'
p4303
tp4304
Rp4305
sg25
I0
sg26
g27
(g28
(I0
tp4306
g30
tp4307
Rp4308
(I1
(I2
tp4309
g36
I00
S'\xb2\x00\x00\x00j\x00\x00\x00'
p4310
tp4311
bsba(i__main__
FrameData
p4312
(dp4313
g6
g4285
sg8
g9
(g13
S'Qf\x99\xcb\xa9\x13*@'
p4314
tp4315
Rp4316
sg19
I0
sg20
g21
(S'\x07\xdd\t\x1d\x13\t\x12\x04\xb4\xf1'
p4317
tp4318
Rp4319
sg25
I0
sg26
g27
(g28
(I0
tp4320
g30
tp4321
Rp4322
(I1
(I2
tp4323
g36
I00
S'\xb2\x00\x00\x00k\x00\x00\x00'
p4324
tp4325
bsba(i__main__
FrameData
p4326
(dp4327
g6
g4285
sg8
g9
(g13
S'F\xc3\\\xa8\xc1i(@'
p4328
tp4329
Rp4330
sg19
I0
sg20
g21
(S'\x07\xdd\t\x1d\x13\t\x12\x05xN'
p4331
tp4332
Rp4333
sg25
I0
sg26
g27
(g28
(I0
tp4334
g30
tp4335
Rp4336
(I1
(I2
tp4337
g36
I00
S'\xb1\x00\x00\x00k\x00\x00\x00'
p4338
tp4339
bsba(i__main__
FrameData
p4340
(dp4341
g6
g4285
sg8
g9
(g13
S'\xd2\xf1}\x82U\\&@'
p4342
tp4343
Rp4344
sg19
I0
sg20
g21
(S'\x07\xdd\t\x1d\x13\t\x12\x05\xf9\xb8'
p4345
tp4346
Rp4347
sg25
I0
sg26
g27
(g28
(I0
tp4348
g30
tp4349
Rp4350
(I1
(I2
tp4351
g36
I00
S'\xb1\x00\x00\x00m\x00\x00\x00'
p4352
tp4353
bsba(i__main__
FrameData
p4354
(dp4355
g6
g4285
sg8
g9
(g13
S'bVc}\x9d\xb2#@'
p4356
tp4357
Rp4358
sg19
I0
sg20
g21
(S'\x07\xdd\t\x1d\x13\t\x12\x06<\xce'
p4359
tp4360
Rp4361
sg25
I0
sg26
g27
(g28
(I0
tp4362
g30
tp4363
Rp4364
(I1
(I2
tp4365
g36
I00
S'\xb0\x00\x00\x00n\x00\x00\x00'
p4366
tp4367
bsba(i__main__
FrameData
p4368
(dp4369
g6
g4285
sg8
g9
(g13
S'~\xc4#,B\xf9"@'
p4370
tp4371
Rp4372
sg19
I0
sg20
g21
(S'\x07\xdd\t\x1d\x13\t\x12\x06\x82\\'
p4373
tp4374
Rp4375
sg25
I0
sg26
g27
(g28
(I0
tp4376
g30
tp4377
Rp4378
(I1
(I2
tp4379
g36
I00
S'\xb0\x00\x00\x00o\x00\x00\x00'
p4380
tp4381
bsba(i__main__
FrameData
p4382
(dp4383
g6
g4285
sg8
g9
(g13
S'$\xf8\xd9p[\x1c"@'
p4384
tp4385
Rp4386
sg19
I0
sg20
g21
(S'\x07\xdd\t\x1d\x13\t\x12\x06\xc0\xc8'
p4387
tp4388
Rp4389
sg25
I0
sg26
g27
(g28
(I0
tp4390
g30
tp4391
Rp4392
(I1
(I2
tp4393
g36
I00
S'\xb0\x00\x00\x00q\x00\x00\x00'
p4394
tp4395
bsba(i__main__
FrameData
p4396
(dp4397
g6
g4285
sg8
g9
(g13
S'\xd0\xbaa?\xe0\x1f @'
p4398
tp4399
Rp4400
sg19
I0
sg20
g21
(S'\x07\xdd\t\x1d\x13\t\x12\x06\xfe\xd7'
p4401
tp4402
Rp4403
sg25
I0
sg26
g27
(g28
(I0
tp4404
g30
tp4405
Rp4406
(I1
(I2
tp4407
g36
I00
S'\xaf\x00\x00\x00s\x00\x00\x00'
p4408
tp4409
bsba(i__main__
FrameData
p4410
(dp4411
g6
g4285
sg8
g9
(g13
S'\x07\xed\xaff\x0f~ @'
p4412
tp4413
Rp4414
sg19
I0
sg20
g21
(S'\x07\xdd\t\x1d\x13\t\x12\x07C\x0e'
p4415
tp4416
Rp4417
sg25
I0
sg26
g27
(g28
(I0
tp4418
g30
tp4419
Rp4420
(I1
(I2
tp4421
g36
I00
S'\xaf\x00\x00\x00t\x00\x00\x00'
p4422
tp4423
bsba(i__main__
FrameData
p4424
(dp4425
g6
g4285
sg8
g9
(g13
S'p\xc4\x9d9\x8dv\x1e@'
p4426
tp4427
Rp4428
sg19
I0
sg20
g21
(S'\x07\xdd\t\x1d\x13\t\x12\x07\x80\xb1'
p4429
tp4430
Rp4431
sg25
I0
sg26
g27
(g28
(I0
tp4432
g30
tp4433
Rp4434
(I1
(I2
tp4435
g36
I00
S'\xae\x00\x00\x00u\x00\x00\x00'
p4436
tp4437
bsba(i__main__
FrameData
p4438
(dp4439
g6
g4285
sg8
g9
(g13
S'N\x017\xfac4!@'
p4440
tp4441
Rp4442
sg19
I0
sg20
g21
(S'\x07\xdd\t\x1d\x13\t\x12\x07\xc2W'
p4443
tp4444
Rp4445
sg25
I0
sg26
g27
(g28
(I0
tp4446
g30
tp4447
Rp4448
(I1
(I2
tp4449
g36
I00
S'\xae\x00\x00\x00w\x00\x00\x00'
p4450
tp4451
bsba(i__main__
FrameData
p4452
(dp4453
g6
g4285
sg8
g9
(g13
S'\x00\x00\x00\x00\x00\x00$@'
p4454
tp4455
Rp4456
sg19
I0
sg20
g21
(S'\x07\xdd\t\x1d\x13\t\x12\x08\x03\xc5'
p4457
tp4458
Rp4459
sg25
I0
sg26
g27
(g28
(I0
tp4460
g30
tp4461
Rp4462
(I1
(I2
tp4463
g36
I00
S'\xad\x00\x00\x00z\x00\x00\x00'
p4464
tp4465
bsba(i__main__
FrameData
p4466
(dp4467
g6
g4285
sg8
g9
(g13
S"\xa2\xa3\xb3\r\xe5R'@"
p4468
tp4469
Rp4470
sg19
I0
sg20
g21
(S'\x07\xdd\t\x1d\x13\t\x12\x08I\xeb'
p4471
tp4472
Rp4473
sg25
I0
sg26
g27
(g28
(I0
tp4474
g30
tp4475
Rp4476
(I1
(I2
tp4477
g36
I00
S'\xad\x00\x00\x00|\x00\x00\x00'
p4478
tp4479
bsba(i__main__
FrameData
p4480
(dp4481
g6
g4285
sg8
g9
(g13
S'\xe4\x10\xe4sW\x0f)@'
p4482
tp4483
Rp4484
sg19
I0
sg20
g21
(S'\x07\xdd\t\x1d\x13\t\x12\x08\x88\x06'
p4485
tp4486
Rp4487
sg25
I0
sg26
g27
(g28
(I0
tp4488
g30
tp4489
Rp4490
(I1
(I2
tp4491
g36
I00
S'\xad\x00\x00\x00}\x00\x00\x00'
p4492
tp4493
bsba(i__main__
FrameData
p4494
(dp4495
g6
g4285
sg8
g9
(g13
S"\xe0\x11<m\xceh'@"
p4496
tp4497
Rp4498
sg19
I0
sg20
g21
(S'\x07\xdd\t\x1d\x13\t\x12\x08\xcd\x10'
p4499
tp4500
Rp4501
sg25
I0
sg26
g27
(g28
(I0
tp4502
g30
tp4503
Rp4504
(I1
(I2
tp4505
g36
I00
S'\xab\x00\x00\x00}\x00\x00\x00'
p4506
tp4507
bsba(i__main__
FrameData
p4508
(dp4509
g6
g4285
sg8
g9
(g13
S'S[\xda:XL)@'
p4510
tp4511
Rp4512
sg19
I0
sg20
g21
(S'\x07\xdd\t\x1d\x13\t\x12\t\x0bu'
p4513
tp4514
Rp4515
sg25
I0
sg26
g27
(g28
(I0
tp4516
g30
tp4517
Rp4518
(I1
(I2
tp4519
g36
I00
S'\xab\x00\x00\x00~\x00\x00\x00'
p4520
tp4521
bsba(i__main__
FrameData
p4522
(dp4523
g6
g4285
sg8
g9
(g13
S'8H\x9b\x97\xee\xae*@'
p4524
tp4525
Rp4526
sg19
I0
sg20
g21
(S'\x07\xdd\t\x1d\x13\t\x12\tM\x00'
p4527
tp4528
Rp4529
sg25
I0
sg26
g27
(g28
(I0
tp4530
g30
tp4531
Rp4532
(I1
(I2
tp4533
g36
I00
S'\xaa\x00\x00\x00\x7f\x00\x00\x00'
p4534
tp4535
bsba(i__main__
FrameData
p4536
(dp4537
g6
g4285
sg8
g9
(g13
S'\xf7\x80Aq\xb9\xa2,@'
p4538
tp4539
Rp4540
sg19
I0
sg20
g21
(S'\x07\xdd\t\x1d\x13\t\x12\t\x8b\xcf'
p4541
tp4542
Rp4543
sg25
I0
sg26
g27
(g28
(I0
tp4544
g30
tp4545
Rp4546
(I1
(I2
tp4547
g36
I00
S'\xaa\x00\x00\x00\x80\x00\x00\x00'
p4548
tp4549
bsba(i__main__
FrameData
p4550
(dp4551
g6
g4285
sg8
g9
(g13
S'\xf2G\x9b\x0e\x18\x98.@'
p4552
tp4553
Rp4554
sg19
I0
sg20
g21
(S'\x07\xdd\t\x1d\x13\t\x12\t\xd3\xc5'
p4555
tp4556
Rp4557
sg25
I0
sg26
g27
(g28
(I0
tp4558
g30
tp4559
Rp4560
(I1
(I2
tp4561
g36
I00
S'\xaa\x00\x00\x00\x81\x00\x00\x00'
p4562
tp4563
bsba(i__main__
FrameData
p4564
(dp4565
g6
g4285
sg8
g9
(g13
S'\xd0\xbaa?\xe0\x1f0@'
p4566
tp4567
Rp4568
sg19
I0
sg20
g21
(S'\x07\xdd\t\x1d\x13\t\x12\n\x123'
p4569
tp4570
Rp4571
sg25
I0
sg26
g27
(g28
(I0
tp4572
g30
tp4573
Rp4574
(I1
(I2
tp4575
g36
I00
S'\xa9\x00\x00\x00\x82\x00\x00\x00'
p4576
tp4577
bsba(i__main__
FrameData
p4578
(dp4579
g6
g4285
sg8
g9
(g13
S'$\xf8\xd9p[\x1c2@'
p4580
tp4581
Rp4582
sg19
I0
sg20
g21
(S'\x07\xdd\t\x1d\x13\t\x12\nN]'
p4583
tp4584
Rp4585
sg25
I0
sg26
g27
(g28
(I0
tp4586
g30
tp4587
Rp4588
(I1
(I2
tp4589
g36
I00
S'\xa9\x00\x00\x00\x84\x00\x00\x00'
p4590
tp4591
bsba(i__main__
FrameData
p4592
(dp4593
g6
g4285
sg8
g9
(g13
S'^\x9e\x9f\x85\xdf\x1a3@'
p4594
tp4595
Rp4596
sg19
I0
sg20
g21
(S'\x07\xdd\t\x1d\x13\t\x12\n\x95\x8a'
p4597
tp4598
Rp4599
sg25
I0
sg26
g27
(g28
(I0
tp4600
g30
tp4601
Rp4602
(I1
(I2
tp4603
g36
I00
S'\xa9\x00\x00\x00\x85\x00\x00\x00'
p4604
tp4605
bsba(i__main__
FrameData
p4606
(dp4607
g6
g4285
sg8
g9
(g13
S'\xf0)#L\x89\x194@'
p4608
tp4609
Rp4610
sg19
I0
sg20
g21
(S'\x07\xdd\t\x1d\x13\t\x12\x0b\x17\xe3'
p4611
tp4612
Rp4613
sg25
I0
sg26
g27
(g28
(I0
tp4614
g30
tp4615
Rp4616
(I1
(I2
tp4617
g36
I00
S'\xa9\x00\x00\x00\x86\x00\x00\x00'
p4618
tp4619
bsba(i__main__
FrameData
p4620
(dp4621
g6
S'n'
p4622
sg8
g9
(g13
S'=\xf3\n\x8f\xe6\x1f4@'
p4623
tp4624
Rp4625
sg19
I0
sg20
g21
(S'\x07\xdd\t\x1d\x13\t\x12\x0bU\x19'
p4626
tp4627
Rp4628
sg25
I0
sg26
g27
(g28
(I0
tp4629
g30
tp4630
Rp4631
(I1
(I2
tp4632
g36
I00
S'\xa9\x00\x00\x00\x87\x00\x00\x00'
p4633
tp4634
bsba(i__main__
FrameData
p4635
(dp4636
g6
g4622
sg8
g9
(g13
S'\xc9\xe0>!B<3@'
p4637
tp4638
Rp4639
sg19
I0
sg20
g21
(S'\x07\xdd\t\x1d\x13\t\x12\x0b\x9b8'
p4640
tp4641
Rp4642
sg25
I0
sg26
g27
(g28
(I0
tp4643
g30
tp4644
Rp4645
(I1
(I2
tp4646
g36
I00
S'\xa9\x00\x00\x00\x88\x00\x00\x00'
p4647
tp4648
bsba(i__main__
FrameData
p4649
(dp4650
g6
g4622
sg8
g9
(g13
S'\x96`G\xb3\x80b2@'
p4651
tp4652
Rp4653
sg19
I0
sg20
g21
(S'\x07\xdd\t\x1d\x13\t\x12\x0b\xd8\x89'
p4654
tp4655
Rp4656
sg25
I0
sg26
g27
(g28
(I0
tp4657
g30
tp4658
Rp4659
(I1
(I2
tp4660
g36
I00
S'\xa7\x00\x00\x00\x88\x00\x00\x00'
p4661
tp4662
bsba(i__main__
FrameData
p4663
(dp4664
g6
g4622
sg8
g9
(g13
S'\xa8y\x0c\t\xd9v1@'
p4665
tp4666
Rp4667
sg19
I0
sg20
g21
(S'\x07\xdd\t\x1d\x13\t\x12\x0c\x1d\xe5'
p4668
tp4669
Rp4670
sg25
I0
sg26
g27
(g28
(I0
tp4671
g30
tp4672
Rp4673
(I1
(I2
tp4674
g36
I00
S'\xa7\x00\x00\x00\x89\x00\x00\x00'
p4675
tp4676
bsba(i__main__
FrameData
p4677
(dp4678
g6
g4622
sg8
g9
(g13
S'\xaa\xd9\xb1\xd3\x8d\x8d0@'
p4679
tp4680
Rp4681
sg19
I0
sg20
g21
(S'\x07\xdd\t\x1d\x13\t\x12\x0c[\xe7'
p4682
tp4683
Rp4684
sg25
I0
sg26
g27
(g28
(I0
tp4685
g30
tp4686
Rp4687
(I1
(I2
tp4688
g36
I00
S'\xa7\x00\x00\x00\x8a\x00\x00\x00'
p4689
tp4690
bsba(i__main__
FrameData
p4691
(dp4692
g6
g4622
sg8
g9
(g13
S'\xb2\xdb]\xe3\x96\x87-@'
p4693
tp4694
Rp4695
sg19
I0
sg20
g21
(S'\x07\xdd\t\x1d\x13\t\x12\x0c\xa1\xfc'
p4696
tp4697
Rp4698
sg25
I0
sg26
g27
(g28
(I0
tp4699
g30
tp4700
Rp4701
(I1
(I2
tp4702
g36
I00
S'\xa7\x00\x00\x00\x8c\x00\x00\x00'
p4703
tp4704
bsba(i__main__
FrameData
p4705
(dp4706
g6
g4622
sg8
g9
(g13
S'\xfc\xeeci3\xd5*@'
p4707
tp4708
Rp4709
sg19
I0
sg20
g21
(S'\x07\xdd\t\x1d\x13\t\x12\x0c\xe0\xc0'
p4710
tp4711
Rp4712
sg25
I0
sg26
g27
(g28
(I0
tp4713
g30
tp4714
Rp4715
(I1
(I2
tp4716
g36
I00
S'\xa6\x00\x00\x00\x8d\x00\x00\x00'
p4717
tp4718
bsba(i__main__
FrameData
p4719
(dp4720
g6
g4622
sg8
g9
(g13
S'lNy\x00\x85*(@'
p4721
tp4722
Rp4723
sg19
I0
sg20
g21
(S'\x07\xdd\t\x1d\x13\t\x12\r\x1c}'
p4724
tp4725
Rp4726
sg25
I0
sg26
g27
(g28
(I0
tp4727
g30
tp4728
Rp4729
(I1
(I2
tp4730
g36
I00
S'\xa5\x00\x00\x00\x8e\x00\x00\x00'
p4731
tp4732
bsba(i__main__
FrameData
p4733
(dp4734
g6
g4622
sg8
g9
(g13
S'\x88\x80v\xd5\\\x97$@'
p4735
tp4736
Rp4737
sg19
I0
sg20
g21
(S'\x07\xdd\t\x1d\x13\t\x12\rb\xb1'
p4738
tp4739
Rp4740
sg25
I0
sg26
g27
(g28
(I0
tp4741
g30
tp4742
Rp4743
(I1
(I2
tp4744
g36
I00
S'\xa5\x00\x00\x00\x90\x00\x00\x00'
p4745
tp4746
bsba(i__main__
FrameData
p4747
(dp4748
g6
g4622
sg8
g9
(g13
S'A\x87b\xc62\xde"@'
p4749
tp4750
Rp4751
sg19
I0
sg20
g21
(S'\x07\xdd\t\x1d\x13\t\x12\r\x9f\xf6'
p4752
tp4753
Rp4754
sg25
I0
sg26
g27
(g28
(I0
tp4755
g30
tp4756
Rp4757
(I1
(I2
tp4758
g36
I00
S'\xa5\x00\x00\x00\x91\x00\x00\x00'
p4759
tp4760
bsba(i__main__
FrameData
p4761
(dp4762
g6
g4622
sg8
g9
(g13
S'N\x017\xfac4!@'
p4763
tp4764
Rp4765
sg19
I0
sg20
g21
(S'\x07\xdd\t\x1d\x13\t\x12\r\xe5\xe7'
p4766
tp4767
Rp4768
sg25
I0
sg26
g27
(g28
(I0
tp4769
g30
tp4770
Rp4771
(I1
(I2
tp4772
g36
I00
S'\xa5\x00\x00\x00\x92\x00\x00\x00'
p4773
tp4774
bsba(i__main__
FrameData
p4775
(dp4776
g6
g4622
sg8
g9
(g13
S'htN\x17\xb2=\x1f@'
p4777
tp4778
Rp4779
sg19
I0
sg20
g21
(S'\x07\xdd\t\x1d\x13\t\x12\x0e#V'
p4780
tp4781
Rp4782
sg25
I0
sg26
g27
(g28
(I0
tp4783
g30
tp4784
Rp4785
(I1
(I2
tp4786
g36
I00
S'\xa5\x00\x00\x00\x93\x00\x00\x00'
p4787
tp4788
bsba(i__main__
FrameData
p4789
(dp4790
g6
g4622
sg8
g9
(g13
S'\x00\xff\x9f\x99\xcc\x9c\x19@'
p4791
tp4792
Rp4793
sg19
I0
sg20
g21
(S'\x07\xdd\t\x1d\x13\t\x12\x0eg\xc4'
p4794
tp4795
Rp4796
sg25
I0
sg26
g27
(g28
(I0
tp4797
g30
tp4798
Rp4799
(I1
(I2
tp4800
g36
I00
S'\xa4\x00\x00\x00\x94\x00\x00\x00'
p4801
tp4802
bsba(i__main__
FrameData
p4803
(dp4804
g6
g4622
sg8
g9
(g13
S'\xcd;\x7ff\x9e\xa0\x16@'
p4805
tp4806
Rp4807
sg19
I0
sg20
g21
(S'\x07\xdd\t\x1d\x13\t\x12\x0e\xa3\xa0'
p4808
tp4809
Rp4810
sg25
I0
sg26
g27
(g28
(I0
tp4811
g30
tp4812
Rp4813
(I1
(I2
tp4814
g36
I00
S'\xa4\x00\x00\x00\x95\x00\x00\x00'
p4815
tp4816
bsba(i__main__
FrameData
p4817
(dp4818
g6
g4622
sg8
g9
(g13
S'\x00\x00\x00\x00\x00\x00\x14@'
p4819
tp4820
Rp4821
sg19
I0
sg20
g21
(S'\x07\xdd\t\x1d\x13\t\x12\x0e\xea\x93'
p4822
tp4823
Rp4824
sg25
I0
sg26
g27
(g28
(I0
tp4825
g30
tp4826
Rp4827
(I1
(I2
tp4828
g36
I00
S'\xa4\x00\x00\x00\x96\x00\x00\x00'
p4829
tp4830
bsba(i__main__
FrameData
p4831
(dp4832
g6
g4622
sg8
g9
(g13
S'\x07\xed\xaff\x0f~\x10@'
p4833
tp4834
Rp4835
sg19
I0
sg20
g21
(S"\x07\xdd\t\x1d\x13\t\x12\x0f'K"
p4836
tp4837
Rp4838
sg25
I0
sg26
g27
(g28
(I0
tp4839
g30
tp4840
Rp4841
(I1
(I2
tp4842
g36
I00
S'\xa4\x00\x00\x00\x98\x00\x00\x00'
p4843
tp4844
bsba(i__main__
FrameData
p4845
(dp4846
g6
g4622
sg8
g9
(g13
S'\x00\x00\x00\x00\x00\x00\x08@'
p4847
tp4848
Rp4849
sg19
I0
sg20
g21
(S'\x07\xdd\t\x1d\x13\t\x13\x00%\xbf'
p4850
tp4851
Rp4852
sg25
I0
sg26
g27
(g28
(I0
tp4853
g30
tp4854
Rp4855
(I1
(I2
tp4856
g36
I00
S'\xa3\x00\x00\x00\x99\x00\x00\x00'
p4857
tp4858
bsba(i__main__
FrameData
p4859
(dp4860
g6
g4622
sg8
g9
(g13
S'S[\xda:XL\t@'
p4861
tp4862
Rp4863
sg19
I0
sg20
g21
(S'\x07\xdd\t\x1d\x13\t\x13\x00gX'
p4864
tp4865
Rp4866
sg25
I0
sg26
g27
(g28
(I0
tp4867
g30
tp4868
Rp4869
(I1
(I2
tp4870
g36
I00
S'\xa3\x00\x00\x00\x9a\x00\x00\x00'
p4871
tp4872
bsba(i__main__
FrameData
p4873
(dp4874
g6
g4622
sg8
g9
(g13
S'\xf3YaD+\xd8\x0c@'
p4875
tp4876
Rp4877
sg19
I0
sg20
g21
(S'\x07\xdd\t\x1d\x13\t\x13\x00\xa8\xad'
p4878
tp4879
Rp4880
sg25
I0
sg26
g27
(g28
(I0
tp4881
g30
tp4882
Rp4883
(I1
(I2
tp4884
g36
I00
S'\xa3\x00\x00\x00\x9b\x00\x00\x00'
p4885
tp4886
bsba(i__main__
FrameData
p4887
(dp4888
g6
g4622
sg8
g9
(g13
S'\xd9l\xdf\xccv\xf8\x10@'
p4889
tp4890
Rp4891
sg19
I0
sg20
g21
(S'\x07\xdd\t\x1d\x13\t\x13\x00\xe9\x16'
p4892
tp4893
Rp4894
sg25
I0
sg26
g27
(g28
(I0
tp4895
g30
tp4896
Rp4897
(I1
(I2
tp4898
g36
I00
S'\xa3\x00\x00\x00\x9c\x00\x00\x00'
p4899
tp4900
bsba(i__main__
FrameData
p4901
(dp4902
g6
g4622
sg8
g9
(g13
S'\xf3YaD+\xd8\x0c@'
p4903
tp4904
Rp4905
sg19
I0
sg20
g21
(S'\x07\xdd\t\x1d\x13\t\x13\x05>F'
p4906
tp4907
Rp4908
sg25
I0
sg26
g27
(g28
(I0
tp4909
g30
tp4910
Rp4911
(I1
(I2
tp4912
g36
I00
S'\xa2\x00\x00\x00\x9c\x00\x00\x00'
p4913
tp4914
bsbasS'_fileName'
p4915
S'training/trajectory2013-09-29_19:09:04.663604'
p4916
sS'word'
p4917
S'question'
p4918
sb.