(i__main__
SwypeTrajectory
p0
(dp1
S'_frameDataList'
p2
(lp3
(i__main__
FrameData
p4
(dp5
S'closestLetter'
p6
S'r'
p7
sS'letterDistance'
p8
cnumpy.core.multiarray
scalar
p9
(cnumpy
dtype
p10
(S'f8'
p11
I0
I1
tp12
Rp13
(I3
S'<'
p14
NNNI-1
I-1
I0
tp15
bS'\xf3YaD+\xd8\x0c@'
p16
tp17
Rp18
sS'accel'
p19
I0
sS'time'
p20
cdatetime
datetime
p21
(S'\x07\xdd\t\x1d\x13\r\x16\x04\xb6\xcf'
p22
tp23
Rp24
sS'velocity'
p25
I0
sS'position'
p26
cnumpy.core.multiarray
_reconstruct
p27
(cnumpy
ndarray
p28
(I0
tp29
S'b'
p30
tp31
Rp32
(I1
(I2
tp33
g10
(S'i4'
p34
I0
I1
tp35
Rp36
(I3
S'<'
p37
NNNI-1
I-1
I0
tp38
bI00
S'O\x00\x00\x00M\x00\x00\x00'
p39
tp40
bsba(i__main__
FrameData
p41
(dp42
g6
g7
sg8
g9
(g13
S'\xa8\xf4\x97\x9bw\xe3\x11@'
p43
tp44
Rp45
sg19
I0
sg20
g21
(S'\x07\xdd\t\x1d\x13\r\x16\x04\xf7\x8d'
p46
tp47
Rp48
sg25
I0
sg26
g27
(g28
(I0
tp49
g30
tp50
Rp51
(I1
(I2
tp52
g36
I00
S'N\x00\x00\x00M\x00\x00\x00'
p53
tp54
bsba(i__main__
FrameData
p55
(dp56
g6
g7
sg8
g9
(g13
S'\xf3\xd9\xa8\xa4h\x8a\x15@'
p57
tp58
Rp59
sg19
I0
sg20
g21
(S'\x07\xdd\t\x1d\x13\r\x16\x05;T'
p60
tp61
Rp62
sg25
I0
sg26
g27
(g28
(I0
tp63
g30
tp64
Rp65
(I1
(I2
tp66
g36
I00
S'M\x00\x00\x00M\x00\x00\x00'
p67
tp68
bsba(i__main__
FrameData
p69
(dp70
g6
g7
sg8
g9
(g13
S'\xe9\xfbv \xd5\x1e\x1d@'
p71
tp72
Rp73
sg19
I0
sg20
g21
(S'\x07\xdd\t\x1d\x13\r\x16\x05{\xa2'
p74
tp75
Rp76
sg25
I0
sg26
g27
(g28
(I0
tp77
g30
tp78
Rp79
(I1
(I2
tp80
g36
I00
S'K\x00\x00\x00M\x00\x00\x00'
p81
tp82
bsba(i__main__
FrameData
p83
(dp84
g6
g7
sg8
g9
(g13
S'\x07\xed\xaff\x0f~ @'
p85
tp86
Rp87
sg19
I0
sg20
g21
(S'\x07\xdd\t\x1d\x13\r\x16\x05\xbd\xae'
p88
tp89
Rp90
sg25
I0
sg26
g27
(g28
(I0
tp91
g30
tp92
Rp93
(I1
(I2
tp94
g36
I00
S'J\x00\x00\x00M\x00\x00\x00'
p95
tp96
bsba(i__main__
FrameData
p97
(dp98
g6
g7
sg8
g9
(g13
S'\x9a.\x90!hp"@'
p99
tp100
Rp101
sg19
I0
sg20
g21
(S'\x07\xdd\t\x1d\x13\r\x16\x05\xfc\x11'
p102
tp103
Rp104
sg25
I0
sg26
g27
(g28
(I0
tp105
g30
tp106
Rp107
(I1
(I2
tp108
g36
I00
S'I\x00\x00\x00M\x00\x00\x00'
p109
tp110
bsba(i__main__
FrameData
p111
(dp112
g6
g7
sg8
g9
(g13
S'\xd2\xf1}\x82U\\&@'
p113
tp114
Rp115
sg19
I0
sg20
g21
(S'\x07\xdd\t\x1d\x13\r\x16\x06A\xac'
p116
tp117
Rp118
sg25
I0
sg26
g27
(g28
(I0
tp119
g30
tp120
Rp121
(I1
(I2
tp122
g36
I00
S'G\x00\x00\x00M\x00\x00\x00'
p123
tp124
bsba(i__main__
FrameData
p125
(dp126
g6
S'e'
p127
sg8
g9
(g13
S'H\xaa*\x8f9\x17&@'
p128
tp129
Rp130
sg19
I0
sg20
g21
(S'\x07\xdd\t\x1d\x13\r\x16\x06\x83\xce'
p131
tp132
Rp133
sg25
I0
sg26
g27
(g28
(I0
tp134
g30
tp135
Rp136
(I1
(I2
tp137
g36
I00
S'F\x00\x00\x00M\x00\x00\x00'
p138
tp139
bsba(i__main__
FrameData
p140
(dp141
g6
g127
sg8
g9
(g13
S'\xf0)#L\x89\x19$@'
p142
tp143
Rp144
sg19
I0
sg20
g21
(S'\x07\xdd\t\x1d\x13\r\x16\x06\xc4M'
p145
tp146
Rp147
sg25
I0
sg26
g27
(g28
(I0
tp148
g30
tp149
Rp150
(I1
(I2
tp151
g36
I00
S'E\x00\x00\x00M\x00\x00\x00'
p152
tp153
bsba(i__main__
FrameData
p154
(dp155
g6
g127
sg8
g9
(g13
S'$\xf8\xd9p[\x1c"@'
p156
tp157
Rp158
sg19
I0
sg20
g21
(S'\x07\xdd\t\x1d\x13\r\x16\x07\x01*'
p159
tp160
Rp161
sg25
I0
sg26
g27
(g28
(I0
tp162
g30
tp163
Rp164
(I1
(I2
tp165
g36
I00
S'D\x00\x00\x00M\x00\x00\x00'
p166
tp167
bsba(i__main__
FrameData
p168
(dp169
g6
g127
sg8
g9
(g13
S'\xd0\xbaa?\xe0\x1f @'
p170
tp171
Rp172
sg19
I0
sg20
g21
(S'\x07\xdd\t\x1d\x13\r\x16\x07B\xa3'
p173
tp174
Rp175
sg25
I0
sg26
g27
(g28
(I0
tp176
g30
tp177
Rp178
(I1
(I2
tp179
g36
I00
S'C\x00\x00\x00M\x00\x00\x00'
p180
tp181
bsba(i__main__
FrameData
p182
(dp183
g6
g127
sg8
g9
(g13
S'\xc0\n\x1f\x00\xc6H\x1c@'
p184
tp185
Rp186
sg19
I0
sg20
g21
(S'\x07\xdd\t\x1d\x13\r\x16\x07\x84\x89'
p187
tp188
Rp189
sg25
I0
sg26
g27
(g28
(I0
tp190
g30
tp191
Rp192
(I1
(I2
tp193
g36
I00
S'B\x00\x00\x00M\x00\x00\x00'
p194
tp195
bsba(i__main__
FrameData
p196
(dp197
g6
g127
sg8
g9
(g13
S'\xc0\n\x1f\x00\xc6H\x1c@'
p198
tp199
Rp200
sg19
I0
sg20
g21
(S'\x07\xdd\t\x1d\x13\r\x16\x07\xc4\x8c'
p201
tp202
Rp203
sg25
I0
sg26
g27
(g28
(I0
tp204
g30
tp205
Rp206
(I1
(I2
tp207
g36
I00
S'B\x00\x00\x00K\x00\x00\x00'
p208
tp209
bsba(i__main__
FrameData
p210
(dp211
g6
g127
sg8
g9
(g13
S'9\xdcc\xb3\xbfT\x18@'
p212
tp213
Rp214
sg19
I0
sg20
g21
(S'\x07\xdd\t\x1d\x13\r\x16\x08\x05\xf8'
p215
tp216
Rp217
sg25
I0
sg26
g27
(g28
(I0
tp218
g30
tp219
Rp220
(I1
(I2
tp221
g36
I00
S'A\x00\x00\x00K\x00\x00\x00'
p222
tp223
bsba(i__main__
FrameData
p224
(dp225
g6
g127
sg8
g9
(g13
S'\xf6/\x12_ee\x14@'
p226
tp227
Rp228
sg19
I0
sg20
g21
(S'\x07\xdd\t\x1d\x13\r\x16\x08\x88\xd9'
p229
tp230
Rp231
sg25
I0
sg26
g27
(g28
(I0
tp232
g30
tp233
Rp234
(I1
(I2
tp235
g36
I00
S'@\x00\x00\x00K\x00\x00\x00'
p236
tp237
bsba(i__main__
FrameData
p238
(dp239
g6
g127
sg8
g9
(g13
S'\x07\xed\xaff\x0f~\x10@'
p240
tp241
Rp242
sg19
I0
sg20
g21
(S'\x07\xdd\t\x1d\x13\r\x16\x08\xc9F'
p243
tp244
Rp245
sg25
I0
sg26
g27
(g28
(I0
tp246
g30
tp247
Rp248
(I1
(I2
tp249
g36
I00
S'?\x00\x00\x00K\x00\x00\x00'
p250
tp251
bsba(i__main__
FrameData
p252
(dp253
g6
g127
sg8
g9
(g13
S'S[\xda:XL\t@'
p254
tp255
Rp256
sg19
I0
sg20
g21
(S'\x07\xdd\t\x1d\x13\r\x16\tL\xbe'
p257
tp258
Rp259
sg25
I0
sg26
g27
(g28
(I0
tp260
g30
tp261
Rp262
(I1
(I2
tp263
g36
I00
S'>\x00\x00\x00K\x00\x00\x00'
p264
tp265
bsba(i__main__
FrameData
p266
(dp267
g6
g127
sg8
g9
(g13
S'\xcd;\x7ff\x9e\xa0\x06@'
p268
tp269
Rp270
sg19
I0
sg20
g21
(S'\x07\xdd\t\x1d\x13\r\x16\t\x91\x05'
p271
tp272
Rp273
sg25
I0
sg26
g27
(g28
(I0
tp274
g30
tp275
Rp276
(I1
(I2
tp277
g36
I00
S'=\x00\x00\x00J\x00\x00\x00'
p278
tp279
bsba(i__main__
FrameData
p280
(dp281
g6
g127
sg8
g9
(g13
S'S[\xda:XL\t@'
p282
tp283
Rp284
sg19
I0
sg20
g21
(S'\x07\xdd\t\x1d\x13\r\x16\t\xcf['
p285
tp286
Rp287
sg25
I0
sg26
g27
(g28
(I0
tp288
g30
tp289
Rp290
(I1
(I2
tp291
g36
I00
S'<\x00\x00\x00I\x00\x00\x00'
p292
tp293
bsba(i__main__
FrameData
p294
(dp295
g6
g127
sg8
g9
(g13
S'\x00\x00\x00\x00\x00\x00\x08@'
p296
tp297
Rp298
sg19
I0
sg20
g21
(S'\x07\xdd\t\x1d\x13\r\x16\n\x91\xa3'
p299
tp300
Rp301
sg25
I0
sg26
g27
(g28
(I0
tp302
g30
tp303
Rp304
(I1
(I2
tp305
g36
I00
S';\x00\x00\x00I\x00\x00\x00'
p306
tp307
bsba(i__main__
FrameData
p308
(dp309
g6
g127
sg8
g9
(g13
S'\x00\x00\x00\x00\x00\x00\x00@'
p310
tp311
Rp312
sg19
I0
sg20
g21
(S'\x07\xdd\t\x1d\x13\r\x16\r`\xe9'
p313
tp314
Rp315
sg25
I0
sg26
g27
(g28
(I0
tp316
g30
tp317
Rp318
(I1
(I2
tp319
g36
I00
S';\x00\x00\x00J\x00\x00\x00'
p320
tp321
bsba(i__main__
FrameData
p322
(dp323
g6
g127
sg8
g9
(g13
S'\x00\x00\x00\x00\x00\x00\xf0?'
p324
tp325
Rp326
sg19
I0
sg20
g21
(S'\x07\xdd\t\x1d\x13\r\x16\r\xa2\x18'
p327
tp328
Rp329
sg25
I0
sg26
g27
(g28
(I0
tp330
g30
tp331
Rp332
(I1
(I2
tp333
g36
I00
S';\x00\x00\x00K\x00\x00\x00'
p334
tp335
bsba(i__main__
FrameData
p336
(dp337
g6
g127
sg8
g9
(g13
S'\xa8\xf4\x97\x9bw\xe3\x01@'
p338
tp339
Rp340
sg19
I0
sg20
g21
(S'\x07\xdd\t\x1d\x13\r\x16\r\xe2!'
p341
tp342
Rp343
sg25
I0
sg26
g27
(g28
(I0
tp344
g30
tp345
Rp346
(I1
(I2
tp347
g36
I00
S'=\x00\x00\x00K\x00\x00\x00'
p348
tp349
bsba(i__main__
FrameData
p350
(dp351
g6
g127
sg8
g9
(g13
S'\x00\x00\x00\x00\x00\x00\x08@'
p352
tp353
Rp354
sg19
I0
sg20
g21
(S'\x07\xdd\t\x1d\x13\r\x16\x0e%\t'
p355
tp356
Rp357
sg25
I0
sg26
g27
(g28
(I0
tp358
g30
tp359
Rp360
(I1
(I2
tp361
g36
I00
S'>\x00\x00\x00L\x00\x00\x00'
p362
tp363
bsba(i__main__
FrameData
p364
(dp365
g6
g127
sg8
g9
(g13
S'\x00\x00\x00\x00\x00\x00\x10@'
p366
tp367
Rp368
sg19
I0
sg20
g21
(S'\x07\xdd\t\x1d\x13\r\x16\x0eh\x8f'
p369
tp370
Rp371
sg25
I0
sg26
g27
(g28
(I0
tp372
g30
tp373
Rp374
(I1
(I2
tp375
g36
I00
S'?\x00\x00\x00L\x00\x00\x00'
p376
tp377
bsba(i__main__
FrameData
p378
(dp379
g6
g127
sg8
g9
(g13
S'\xa8\xf4\x97\x9bw\xe3\x11@'
p380
tp381
Rp382
sg19
I0
sg20
g21
(S"\x07\xdd\t\x1d\x13\r\x16\x0e\xa8'"
p383
tp384
Rp385
sg25
I0
sg26
g27
(g28
(I0
tp386
g30
tp387
Rp388
(I1
(I2
tp389
g36
I00
S'?\x00\x00\x00N\x00\x00\x00'
p390
tp391
bsba(i__main__
FrameData
p392
(dp393
g6
g127
sg8
g9
(g13
S'S[\xda:XL\x19@'
p394
tp395
Rp396
sg19
I0
sg20
g21
(S'\x07\xdd\t\x1d\x13\r\x16\x0f)I'
p397
tp398
Rp399
sg25
I0
sg26
g27
(g28
(I0
tp400
g30
tp401
Rp402
(I1
(I2
tp403
g36
I00
S'A\x00\x00\x00N\x00\x00\x00'
p404
tp405
bsba(i__main__
FrameData
p406
(dp407
g6
g127
sg8
g9
(g13
S'\xe9\xfbv \xd5\x1e\x1d@'
p408
tp409
Rp410
sg19
I0
sg20
g21
(S'\x07\xdd\t\x1d\x13\r\x17\x00*\xc0'
p411
tp412
Rp413
sg25
I0
sg26
g27
(g28
(I0
tp414
g30
tp415
Rp416
(I1
(I2
tp417
g36
I00
S'B\x00\x00\x00N\x00\x00\x00'
p418
tp419
bsba(i__main__
FrameData
p420
(dp421
g6
g127
sg8
g9
(g13
S'\x07\xed\xaff\x0f~ @'
p422
tp423
Rp424
sg19
I0
sg20
g21
(S'\x07\xdd\t\x1d\x13\r\x17\x00i+'
p425
tp426
Rp427
sg25
I0
sg26
g27
(g28
(I0
tp428
g30
tp429
Rp430
(I1
(I2
tp431
g36
I00
S'C\x00\x00\x00N\x00\x00\x00'
p432
tp433
bsba(i__main__
FrameData
p434
(dp435
g6
g7
sg8
g9
(g13
S'lNy\x00\x85*(@'
p436
tp437
Rp438
sg19
I0
sg20
g21
(S'\x07\xdd\t\x1d\x13\r\x17\x00\xaaS'
p439
tp440
Rp441
sg25
I0
sg26
g27
(g28
(I0
tp442
g30
tp443
Rp444
(I1
(I2
tp445
g36
I00
S'G\x00\x00\x00P\x00\x00\x00'
p446
tp447
bsba(i__main__
FrameData
p448
(dp449
g6
g7
sg8
g9
(g13
S'w\x03Is \xa2%@'
p450
tp451
Rp452
sg19
I0
sg20
g21
(S'\x07\xdd\t\x1d\x13\r\x17\x00\xed9'
p453
tp454
Rp455
sg25
I0
sg26
g27
(g28
(I0
tp456
g30
tp457
Rp458
(I1
(I2
tp459
g36
I00
S'I\x00\x00\x00Q\x00\x00\x00'
p460
tp461
bsba(i__main__
FrameData
p462
(dp463
g6
g7
sg8
g9
(g13
S'\x00\x00\x00\x00\x00\x00$@'
p464
tp465
Rp466
sg19
I0
sg20
g21
(S'\x07\xdd\t\x1d\x13\r\x17\x01,\xff'
p467
tp468
Rp469
sg25
I0
sg26
g27
(g28
(I0
tp470
g30
tp471
Rp472
(I1
(I2
tp473
g36
I00
S'L\x00\x00\x00S\x00\x00\x00'
p474
tp475
bsba(i__main__
FrameData
p476
(dp477
g6
g7
sg8
g9
(g13
S'~\xc4#,B\xf9"@'
p478
tp479
Rp480
sg19
I0
sg20
g21
(S'\x07\xdd\t\x1d\x13\r\x17\x01m\x92'
p481
tp482
Rp483
sg25
I0
sg26
g27
(g28
(I0
tp484
g30
tp485
Rp486
(I1
(I2
tp487
g36
I00
S'O\x00\x00\x00T\x00\x00\x00'
p488
tp489
bsba(i__main__
FrameData
p490
(dp491
g6
g7
sg8
g9
(g13
S'\xf6/\x12_ee$@'
p492
tp493
Rp494
sg19
I0
sg20
g21
(S'\x07\xdd\t\x1d\x13\r\x17\x01\xb3\x82'
p495
tp496
Rp497
sg25
I0
sg26
g27
(g28
(I0
tp498
g30
tp499
Rp500
(I1
(I2
tp501
g36
I00
S'P\x00\x00\x00U\x00\x00\x00'
p502
tp503
bsba(i__main__
FrameData
p504
(dp505
g6
g7
sg8
g9
(g13
S'\x00\x00\x00\x00\x00\x00$@'
p506
tp507
Rp508
sg19
I0
sg20
g21
(S'\x07\xdd\t\x1d\x13\r\x17\x01\xf5G'
p509
tp510
Rp511
sg25
I0
sg26
g27
(g28
(I0
tp512
g30
tp513
Rp514
(I1
(I2
tp515
g36
I00
S'R\x00\x00\x00U\x00\x00\x00'
p516
tp517
bsba(i__main__
FrameData
p518
(dp519
g6
g7
sg8
g9
(g13
S'S[\xda:XL)@'
p520
tp521
Rp522
sg19
I0
sg20
g21
(S'\x07\xdd\t\x1d\x13\r\x17\x021a'
p523
tp524
Rp525
sg25
I0
sg26
g27
(g28
(I0
tp526
g30
tp527
Rp528
(I1
(I2
tp529
g36
I00
S'V\x00\x00\x00W\x00\x00\x00'
p530
tp531
bsba(i__main__
FrameData
p532
(dp533
g6
g7
sg8
g9
(g13
S'\xbc\xfdP\xb5U\xdb+@'
p534
tp535
Rp536
sg19
I0
sg20
g21
(S'\x07\xdd\t\x1d\x13\r\x17\x02s\xca'
p537
tp538
Rp539
sg25
I0
sg26
g27
(g28
(I0
tp540
g30
tp541
Rp542
(I1
(I2
tp543
g36
I00
S'W\x00\x00\x00X\x00\x00\x00'
p544
tp545
bsba(i__main__
FrameData
p546
(dp547
g6
g7
sg8
g9
(g13
S'\xb2\xdb]\xe3\x96\x87-@'
p548
tp549
Rp550
sg19
I0
sg20
g21
(S'\x07\xdd\t\x1d\x13\r\x17\x02\xb4R'
p551
tp552
Rp553
sg25
I0
sg26
g27
(g28
(I0
tp554
g30
tp555
Rp556
(I1
(I2
tp557
g36
I00
S'Y\x00\x00\x00X\x00\x00\x00'
p558
tp559
bsba(i__main__
FrameData
p560
(dp561
g6
g7
sg8
g9
(g13
S'\xb9\x93\xe1k\xb0\xa40@'
p562
tp563
Rp564
sg19
I0
sg20
g21
(S'\x07\xdd\t\x1d\x13\r\x17\x02\xfa\xec'
p565
tp566
Rp567
sg25
I0
sg26
g27
(g28
(I0
tp568
g30
tp569
Rp570
(I1
(I2
tp571
g36
I00
S'[\x00\x00\x00Y\x00\x00\x00'
p572
tp573
bsba(i__main__
FrameData
p574
(dp575
g6
g7
sg8
g9
(g13
S'8\xd8\xbc\n\x1b\x072@'
p576
tp577
Rp578
sg19
I0
sg20
g21
(S'\x07\xdd\t\x1d\x13\r\x17\x038\x02'
p579
tp580
Rp581
sg25
I0
sg26
g27
(g28
(I0
tp582
g30
tp583
Rp584
(I1
(I2
tp585
g36
I00
S'\\\x00\x00\x00Z\x00\x00\x00'
p586
tp587
bsba(i__main__
FrameData
p588
(dp589
g6
g7
sg8
g9
(g13
S'@\xff7s\x9953@'
p590
tp591
Rp592
sg19
I0
sg20
g21
(S'\x07\xdd\t\x1d\x13\r\x17\x03x}'
p593
tp594
Rp595
sg25
I0
sg26
g27
(g28
(I0
tp596
g30
tp597
Rp598
(I1
(I2
tp599
g36
I00
S'^\x00\x00\x00Z\x00\x00\x00'
p600
tp601
bsba(i__main__
FrameData
p602
(dp603
g6
S't'
p604
sg8
g9
(g13
S'/vo\xf2\x9ej3@'
p605
tp606
Rp607
sg19
I0
sg20
g21
(S'\x07\xdd\t\x1d\x13\r\x17\x03\xb8\xc1'
p608
tp609
Rp610
sg25
I0
sg26
g27
(g28
(I0
tp611
g30
tp612
Rp613
(I1
(I2
tp614
g36
I00
S'_\x00\x00\x00[\x00\x00\x00'
p615
tp616
bsba(i__main__
FrameData
p617
(dp618
g6
g604
sg8
g9
(g13
S':\xf0c\xf6\x1b\xb93@'
p619
tp620
Rp621
sg19
I0
sg20
g21
(S'\x07\xdd\t\x1d\x13\r\x17\x03\xfb\x94'
p622
tp623
Rp624
sg25
I0
sg26
g27
(g28
(I0
tp625
g30
tp626
Rp627
(I1
(I2
tp628
g36
I00
S'`\x00\x00\x00\\\x00\x00\x00'
p629
tp630
bsba(i__main__
FrameData
p631
(dp632
g6
g604
sg8
g9
(g13
S'\xc9\xe0>!B<3@'
p633
tp634
Rp635
sg19
I0
sg20
g21
(S'\x07\xdd\t\x1d\x13\r\x17\x04;\xea'
p636
tp637
Rp638
sg25
I0
sg26
g27
(g28
(I0
tp639
g30
tp640
Rp641
(I1
(I2
tp642
g36
I00
S'a\x00\x00\x00\\\x00\x00\x00'
p643
tp644
bsba(i__main__
FrameData
p645
(dp646
g6
g604
sg8
g9
(g13
S'\x96`G\xb3\x80b2@'
p647
tp648
Rp649
sg19
I0
sg20
g21
(S'\x07\xdd\t\x1d\x13\r\x17\x04~N'
p650
tp651
Rp652
sg25
I0
sg26
g27
(g28
(I0
tp653
g30
tp654
Rp655
(I1
(I2
tp656
g36
I00
S'c\x00\x00\x00\\\x00\x00\x00'
p657
tp658
bsba(i__main__
FrameData
p659
(dp660
g6
g604
sg8
g9
(g13
S'8\xd8\xbc\n\x1b\x072@'
p661
tp662
Rp663
sg19
I0
sg20
g21
(S'\x07\xdd\t\x1d\x13\r\x17\x04\xc0\xaf'
p664
tp665
Rp666
sg25
I0
sg26
g27
(g28
(I0
tp667
g30
tp668
Rp669
(I1
(I2
tp670
g36
I00
S'd\x00\x00\x00\\\x00\x00\x00'
p671
tp672
bsba(i__main__
FrameData
p673
(dp674
g6
g604
sg8
g9
(g13
S'/vo\xf2\x9ej3@'
p675
tp676
Rp677
sg19
I0
sg20
g21
(S'\x07\xdd\t\x1d\x13\r\x17\x05\x007'
p678
tp679
Rp680
sg25
I0
sg26
g27
(g28
(I0
tp681
g30
tp682
Rp683
(I1
(I2
tp684
g36
I00
S'f\x00\x00\x00^\x00\x00\x00'
p685
tp686
bsba(i__main__
FrameData
p687
(dp688
g6
g604
sg8
g9
(g13
S'\xbd\xec\x81\x93G94@'
p689
tp690
Rp691
sg19
I0
sg20
g21
(S'\x07\xdd\t\x1d\x13\r\x17\x05@\xda'
p692
tp693
Rp694
sg25
I0
sg26
g27
(g28
(I0
tp695
g30
tp696
Rp697
(I1
(I2
tp698
g36
I00
S'g\x00\x00\x00_\x00\x00\x00'
p699
tp700
bsba(i__main__
FrameData
p701
(dp702
g6
S'f'
p703
sg8
g9
(g13
S'bVc}\x9d\xb23@'
p704
tp705
Rp706
sg19
I0
sg20
g21
(S'\x07\xdd\t\x1d\x13\r\x17\x05\x85\xf3'
p707
tp708
Rp709
sg25
I0
sg26
g27
(g28
(I0
tp710
g30
tp711
Rp712
(I1
(I2
tp713
g36
I00
S'h\x00\x00\x00`\x00\x00\x00'
p714
tp715
bsba(i__main__
FrameData
p716
(dp717
g6
g703
sg8
g9
(g13
S'\xc9\xe0>!B<3@'
p718
tp719
Rp720
sg19
I0
sg20
g21
(S'\x07\xdd\t\x1d\x13\r\x17\x05\xc2X'
p721
tp722
Rp723
sg25
I0
sg26
g27
(g28
(I0
tp724
g30
tp725
Rp726
(I1
(I2
tp727
g36
I00
S'i\x00\x00\x00a\x00\x00\x00'
p728
tp729
bsba(i__main__
FrameData
p730
(dp731
g6
g703
sg8
g9
(g13
S'\xcey?\xdc\x9a?4@'
p732
tp733
Rp734
sg19
I0
sg20
g21
(S'\x07\xdd\t\x1d\x13\r\x17\x06\n\xa2'
p735
tp736
Rp737
sg25
I0
sg26
g27
(g28
(I0
tp738
g30
tp739
Rp740
(I1
(I2
tp741
g36
I00
S'k\x00\x00\x00a\x00\x00\x00'
p742
tp743
bsba(i__main__
FrameData
p744
(dp745
g6
g703
sg8
g9
(g13
S'/vo\xf2\x9ej3@'
p746
tp747
Rp748
sg19
I0
sg20
g21
(S'\x07\xdd\t\x1d\x13\r\x17\x06G+'
p749
tp750
Rp751
sg25
I0
sg26
g27
(g28
(I0
tp752
g30
tp753
Rp754
(I1
(I2
tp755
g36
I00
S'k\x00\x00\x00b\x00\x00\x00'
p756
tp757
bsba(i__main__
FrameData
p758
(dp759
g6
g703
sg8
g9
(g13
S'@\xff7s\x9953@'
p760
tp761
Rp762
sg19
I0
sg20
g21
(S'\x07\xdd\t\x1d\x13\r\x17\x06\x862'
p763
tp764
Rp765
sg25
I0
sg26
g27
(g28
(I0
tp766
g30
tp767
Rp768
(I1
(I2
tp769
g36
I00
S'l\x00\x00\x00c\x00\x00\x00'
p770
tp771
bsba(i__main__
FrameData
p772
(dp773
g6
S'g'
p774
sg8
g9
(g13
S'8\xd8\xbc\n\x1b\x072@'
p775
tp776
Rp777
sg19
I0
sg20
g21
(S'\x07\xdd\t\x1d\x13\r\x17\x06\xc9Q'
p778
tp779
Rp780
sg25
I0
sg26
g27
(g28
(I0
tp781
g30
tp782
Rp783
(I1
(I2
tp784
g36
I00
S'n\x00\x00\x00c\x00\x00\x00'
p785
tp786
bsba(i__main__
FrameData
p787
(dp788
g6
g774
sg8
g9
(g13
S'\xb9\x93\xe1k\xb0\xa40@'
p789
tp790
Rp791
sg19
I0
sg20
g21
(S'\x07\xdd\t\x1d\x13\r\x17\x07\x0f\x02'
p792
tp793
Rp794
sg25
I0
sg26
g27
(g28
(I0
tp795
g30
tp796
Rp797
(I1
(I2
tp798
g36
I00
S'o\x00\x00\x00d\x00\x00\x00'
p799
tp800
bsba(i__main__
FrameData
p801
(dp802
g6
g774
sg8
g9
(g13
S'\x00\x00\x00\x00\x00\x00.@'
p803
tp804
Rp805
sg19
I0
sg20
g21
(S'\x07\xdd\t\x1d\x13\r\x17\x07MF'
p806
tp807
Rp808
sg25
I0
sg26
g27
(g28
(I0
tp809
g30
tp810
Rp811
(I1
(I2
tp812
g36
I00
S'o\x00\x00\x00f\x00\x00\x00'
p813
tp814
bsba(i__main__
FrameData
p815
(dp816
g6
g774
sg8
g9
(g13
S'\xef\rI\xf1\xf33+@'
p817
tp818
Rp819
sg19
I0
sg20
g21
(S'\x07\xdd\t\x1d\x13\r\x17\x07\x8b\xa8'
p820
tp821
Rp822
sg25
I0
sg26
g27
(g28
(I0
tp823
g30
tp824
Rp825
(I1
(I2
tp826
g36
I00
S'p\x00\x00\x00g\x00\x00\x00'
p827
tp828
bsba(i__main__
FrameData
p829
(dp830
g6
g774
sg8
g9
(g13
S'F\xc3\\\xa8\xc1i(@'
p831
tp832
Rp833
sg19
I0
sg20
g21
(S'\x07\xdd\t\x1d\x13\r\x17\x07\xd1d'
p834
tp835
Rp836
sg25
I0
sg26
g27
(g28
(I0
tp837
g30
tp838
Rp839
(I1
(I2
tp840
g36
I00
S'q\x00\x00\x00h\x00\x00\x00'
p841
tp842
bsba(i__main__
FrameData
p843
(dp844
g6
g774
sg8
g9
(g13
S'\xeb\x12\xb2\xbb\xb2\xcd&@'
p845
tp846
Rp847
sg19
I0
sg20
g21
(S'\x07\xdd\t\x1d\x13\r\x17\x08\x0et'
p848
tp849
Rp850
sg25
I0
sg26
g27
(g28
(I0
tp851
g30
tp852
Rp853
(I1
(I2
tp854
g36
I00
S'q\x00\x00\x00i\x00\x00\x00'
p855
tp856
bsba(i__main__
FrameData
p857
(dp858
g6
g774
sg8
g9
(g13
S'w\x03Is \xa2%@'
p859
tp860
Rp861
sg19
I0
sg20
g21
(S'\x07\xdd\t\x1d\x13\r\x17\x08V\xbb'
p862
tp863
Rp864
sg25
I0
sg26
g27
(g28
(I0
tp865
g30
tp866
Rp867
(I1
(I2
tp868
g36
I00
S'r\x00\x00\x00i\x00\x00\x00'
p869
tp870
bsba(i__main__
FrameData
p871
(dp872
g6
g774
sg8
g9
(g13
S'\x9a.\x90!hp"@'
p873
tp874
Rp875
sg19
I0
sg20
g21
(S'\x07\xdd\t\x1d\x13\r\x17\x08\x93\xc3'
p876
tp877
Rp878
sg25
I0
sg26
g27
(g28
(I0
tp879
g30
tp880
Rp881
(I1
(I2
tp882
g36
I00
S'r\x00\x00\x00k\x00\x00\x00'
p883
tp884
bsba(i__main__
FrameData
p885
(dp886
g6
g774
sg8
g9
(g13
S'htN\x17\xb2=\x1f@'
p887
tp888
Rp889
sg19
I0
sg20
g21
(S'\x07\xdd\t\x1d\x13\r\x17\x08\xd5\x98'
p890
tp891
Rp892
sg25
I0
sg26
g27
(g28
(I0
tp893
g30
tp894
Rp895
(I1
(I2
tp896
g36
I00
S's\x00\x00\x00l\x00\x00\x00'
p897
tp898
bsba(i__main__
FrameData
p899
(dp900
g6
g774
sg8
g9
(g13
S'\xc0\n\x1f\x00\xc6H\x1c@'
p901
tp902
Rp903
sg19
I0
sg20
g21
(S'\x07\xdd\t\x1d\x13\r\x17\t\x14\x1e'
p904
tp905
Rp906
sg25
I0
sg26
g27
(g28
(I0
tp907
g30
tp908
Rp909
(I1
(I2
tp910
g36
I00
S's\x00\x00\x00m\x00\x00\x00'
p911
tp912
bsba(i__main__
FrameData
p913
(dp914
g6
g774
sg8
g9
(g13
S'\x00\xff\x9f\x99\xcc\x9c\x19@'
p915
tp916
Rp917
sg19
I0
sg20
g21
(S'\x07\xdd\t\x1d\x13\r\x17\tY\xd2'
p918
tp919
Rp920
sg25
I0
sg26
g27
(g28
(I0
tp921
g30
tp922
Rp923
(I1
(I2
tp924
g36
I00
S's\x00\x00\x00n\x00\x00\x00'
p925
tp926
bsba(i__main__
FrameData
p927
(dp928
g6
g774
sg8
g9
(g13
S'\x00\x00\x00\x00\x00\x00\x14@'
p929
tp930
Rp931
sg19
I0
sg20
g21
(S'\x07\xdd\t\x1d\x13\r\x17\t\x95\xf8'
p932
tp933
Rp934
sg25
I0
sg26
g27
(g28
(I0
tp935
g30
tp936
Rp937
(I1
(I2
tp938
g36
I00
S't\x00\x00\x00o\x00\x00\x00'
p939
tp940
bsba(i__main__
FrameData
p941
(dp942
g6
g774
sg8
g9
(g13
S'\x07\xed\xaff\x0f~\x10@'
p943
tp944
Rp945
sg19
I0
sg20
g21
(S'\x07\xdd\t\x1d\x13\r\x17\n\x18\x81'
p946
tp947
Rp948
sg25
I0
sg26
g27
(g28
(I0
tp949
g30
tp950
Rp951
(I1
(I2
tp952
g36
I00
S't\x00\x00\x00q\x00\x00\x00'
p953
tp954
bsba(i__main__
FrameData
p955
(dp956
g6
g774
sg8
g9
(g13
S'S[\xda:XL\t@'
p957
tp958
Rp959
sg19
I0
sg20
g21
(S'\x07\xdd\t\x1d\x13\r\x17\nX\xce'
p960
tp961
Rp962
sg25
I0
sg26
g27
(g28
(I0
tp963
g30
tp964
Rp965
(I1
(I2
tp966
g36
I00
S'u\x00\x00\x00q\x00\x00\x00'
p967
tp968
bsba(i__main__
FrameData
p969
(dp970
g6
g774
sg8
g9
(g13
S'S[\xda:XL\t@'
p971
tp972
Rp973
sg19
I0
sg20
g21
(S'\x07\xdd\t\x1d\x13\r\x17\n\xde\xc3'
p974
tp975
Rp976
sg25
I0
sg26
g27
(g28
(I0
tp977
g30
tp978
Rp979
(I1
(I2
tp980
g36
I00
S'u\x00\x00\x00s\x00\x00\x00'
p981
tp982
bsba(i__main__
FrameData
p983
(dp984
g6
g774
sg8
g9
(g13
S'\xf3YaD+\xd8\x0c@'
p985
tp986
Rp987
sg19
I0
sg20
g21
(S'\x07\xdd\t\x1d\x13\r\x17\x0b\x1c\xd9'
p988
tp989
Rp990
sg25
I0
sg26
g27
(g28
(I0
tp991
g30
tp992
Rp993
(I1
(I2
tp994
g36
I00
S'u\x00\x00\x00t\x00\x00\x00'
p995
tp996
bsba(i__main__
FrameData
p997
(dp998
g6
g774
sg8
g9
(g13
S'\xcd;\x7ff\x9e\xa0\x06@'
p999
tp1000
Rp1001
sg19
I0
sg20
g21
(S'\x07\xdd\t\x1d\x13\r\x17\x0bb\xa4'
p1002
tp1003
Rp1004
sg25
I0
sg26
g27
(g28
(I0
tp1005
g30
tp1006
Rp1007
(I1
(I2
tp1008
g36
I00
S'v\x00\x00\x00t\x00\x00\x00'
p1009
tp1010
bsba(i__main__
FrameData
p1011
(dp1012
g6
g774
sg8
g9
(g13
S'\xa8\xf4\x97\x9bw\xe3\x01@'
p1013
tp1014
Rp1015
sg19
I0
sg20
g21
(S'\x07\xdd\t\x1d\x13\r\x17\x0e-\xe6'
p1016
tp1017
Rp1018
sg25
I0
sg26
g27
(g28
(I0
tp1019
g30
tp1020
Rp1021
(I1
(I2
tp1022
g36
I00
S'v\x00\x00\x00s\x00\x00\x00'
p1023
tp1024
bsba(i__main__
FrameData
p1025
(dp1026
g6
g774
sg8
g9
(g13
S'\x00\x00\x00\x00\x00\x00\x00@'
p1027
tp1028
Rp1029
sg19
I0
sg20
g21
(S'\x07\xdd\t\x1d\x13\r\x17\x0eo\xfc'
p1030
tp1031
Rp1032
sg25
I0
sg26
g27
(g28
(I0
tp1033
g30
tp1034
Rp1035
(I1
(I2
tp1036
g36
I00
S'v\x00\x00\x00r\x00\x00\x00'
p1037
tp1038
bsba(i__main__
FrameData
p1039
(dp1040
g6
g774
sg8
g9
(g13
S'\xcd;\x7ff\x9e\xa0\xf6?'
p1041
tp1042
Rp1043
sg19
I0
sg20
g21
(S'\x07\xdd\t\x1d\x13\r\x17\x0e\xb1\xd4'
p1044
tp1045
Rp1046
sg25
I0
sg26
g27
(g28
(I0
tp1047
g30
tp1048
Rp1049
(I1
(I2
tp1050
g36
I00
S'w\x00\x00\x00q\x00\x00\x00'
p1051
tp1052
bsba(i__main__
FrameData
p1053
(dp1054
g6
g774
sg8
g9
(g13
S'\xa8\xf4\x97\x9bw\xe3\x01@'
p1055
tp1056
Rp1057
sg19
I0
sg20
g21
(S'\x07\xdd\t\x1d\x13\r\x17\x0f2L'
p1058
tp1059
Rp1060
sg25
I0
sg26
g27
(g28
(I0
tp1061
g30
tp1062
Rp1063
(I1
(I2
tp1064
g36
I00
S'w\x00\x00\x00p\x00\x00\x00'
p1065
tp1066
bsba(i__main__
FrameData
p1067
(dp1068
g6
g774
sg8
g9
(g13
S'S[\xda:XL\t@'
p1069
tp1070
Rp1071
sg19
I0
sg20
g21
(S'\x07\xdd\t\x1d\x13\r\x18\x002\x15'
p1072
tp1073
Rp1074
sg25
I0
sg26
g27
(g28
(I0
tp1075
g30
tp1076
Rp1077
(I1
(I2
tp1078
g36
I00
S'w\x00\x00\x00o\x00\x00\x00'
p1079
tp1080
bsba(i__main__
FrameData
p1081
(dp1082
g6
g774
sg8
g9
(g13
S'\x00\x00\x00\x00\x00\x00\x10@'
p1083
tp1084
Rp1085
sg19
I0
sg20
g21
(S'\x07\xdd\t\x1d\x13\r\x18\x00qf'
p1086
tp1087
Rp1088
sg25
I0
sg26
g27
(g28
(I0
tp1089
g30
tp1090
Rp1091
(I1
(I2
tp1092
g36
I00
S'x\x00\x00\x00n\x00\x00\x00'
p1093
tp1094
bsba(i__main__
FrameData
p1095
(dp1096
g6
g774
sg8
g9
(g13
S'\xf6/\x12_ee\x14@'
p1097
tp1098
Rp1099
sg19
I0
sg20
g21
(S'\x07\xdd\t\x1d\x13\r\x18\x00\xb2c'
p1100
tp1101
Rp1102
sg25
I0
sg26
g27
(g28
(I0
tp1103
g30
tp1104
Rp1105
(I1
(I2
tp1106
g36
I00
S'y\x00\x00\x00m\x00\x00\x00'
p1107
tp1108
bsba(i__main__
FrameData
p1109
(dp1110
g6
g774
sg8
g9
(g13
S'p\xc4\x9d9\x8dv\x1e@'
p1111
tp1112
Rp1113
sg19
I0
sg20
g21
(S'\x07\xdd\t\x1d\x13\r\x18\x00\xf5\x8f'
p1114
tp1115
Rp1116
sg25
I0
sg26
g27
(g28
(I0
tp1117
g30
tp1118
Rp1119
(I1
(I2
tp1120
g36
I00
S'{\x00\x00\x00k\x00\x00\x00'
p1121
tp1122
bsba(i__main__
FrameData
p1123
(dp1124
g6
g774
sg8
g9
(g13
S'\xa8\xf4\x97\x9bw\xe3!@'
p1125
tp1126
Rp1127
sg19
I0
sg20
g21
(S'\x07\xdd\t\x1d\x13\r\x18\x015<'
p1128
tp1129
Rp1130
sg25
I0
sg26
g27
(g28
(I0
tp1131
g30
tp1132
Rp1133
(I1
(I2
tp1134
g36
I00
S'|\x00\x00\x00j\x00\x00\x00'
p1135
tp1136
bsba(i__main__
FrameData
p1137
(dp1138
g6
g774
sg8
g9
(g13
S'\xf3\xd9\xa8\xa4h\x8a%@'
p1139
tp1140
Rp1141
sg19
I0
sg20
g21
(S'\x07\xdd\t\x1d\x13\r\x18\x01xo'
p1142
tp1143
Rp1144
sg25
I0
sg26
g27
(g28
(I0
tp1145
g30
tp1146
Rp1147
(I1
(I2
tp1148
g36
I00
S'|\x00\x00\x00h\x00\x00\x00'
p1149
tp1150
bsba(i__main__
FrameData
p1151
(dp1152
g6
g774
sg8
g9
(g13
S'\xe4\x10\xe4sW\x0f)@'
p1153
tp1154
Rp1155
sg19
I0
sg20
g21
(S'\x07\xdd\t\x1d\x13\r\x18\x01\xb8\x03'
p1156
tp1157
Rp1158
sg25
I0
sg26
g27
(g28
(I0
tp1159
g30
tp1160
Rp1161
(I1
(I2
tp1162
g36
I00
S'~\x00\x00\x00g\x00\x00\x00'
p1163
tp1164
bsba(i__main__
FrameData
p1165
(dp1166
g6
g774
sg8
g9
(g13
S'\xd0\xbaa?\xe0\x1f0@'
p1167
tp1168
Rp1169
sg19
I0
sg20
g21
(S'\x07\xdd\t\x1d\x13\r\x18\x01\xf8q'
p1170
tp1171
Rp1172
sg25
I0
sg26
g27
(g28
(I0
tp1173
g30
tp1174
Rp1175
(I1
(I2
tp1176
g36
I00
S'\x80\x00\x00\x00d\x00\x00\x00'
p1177
tp1178
bsba(i__main__
FrameData
p1179
(dp1180
g6
g774
sg8
g9
(g13
S'\xb9\xbaF\xca+~1@'
p1181
tp1182
Rp1183
sg19
I0
sg20
g21
(S'\x07\xdd\t\x1d\x13\r\x18\x02:\xdf'
p1184
tp1185
Rp1186
sg25
I0
sg26
g27
(g28
(I0
tp1187
g30
tp1188
Rp1189
(I1
(I2
tp1190
g36
I00
S'\x81\x00\x00\x00c\x00\x00\x00'
p1191
tp1192
bsba(i__main__
FrameData
p1193
(dp1194
g6
S'y'
p1195
sg8
g9
(g13
S'\x8fJ\x95`e\x064@'
p1196
tp1197
Rp1198
sg19
I0
sg20
g21
(S'\x07\xdd\t\x1d\x13\r\x18\x02|\xe3'
p1199
tp1200
Rp1201
sg25
I0
sg26
g27
(g28
(I0
tp1202
g30
tp1203
Rp1204
(I1
(I2
tp1205
g36
I00
S'\x83\x00\x00\x00a\x00\x00\x00'
p1206
tp1207
bsba(i__main__
FrameData
p1208
(dp1209
g6
g1195
sg8
g9
(g13
S'^\x9e\x9f\x85\xdf\x1a3@'
p1210
tp1211
Rp1212
sg19
I0
sg20
g21
(S'\x07\xdd\t\x1d\x13\r\x18\x02\xbb\xc6'
p1213
tp1214
Rp1215
sg25
I0
sg26
g27
(g28
(I0
tp1216
g30
tp1217
Rp1218
(I1
(I2
tp1219
g36
I00
S'\x84\x00\x00\x00`\x00\x00\x00'
p1220
tp1221
bsba(i__main__
FrameData
p1222
(dp1223
g6
g1195
sg8
g9
(g13
S'+\xe5\x8a\xc6\x8f?2@'
p1224
tp1225
Rp1226
sg19
I0
sg20
g21
(S'\x07\xdd\t\x1d\x13\r\x18\x02\xfdE'
p1227
tp1228
Rp1229
sg25
I0
sg26
g27
(g28
(I0
tp1230
g30
tp1231
Rp1232
(I1
(I2
tp1233
g36
I00
S'\x85\x00\x00\x00_\x00\x00\x00'
p1234
tp1235
bsba(i__main__
FrameData
p1236
(dp1237
g6
g1195
sg8
g9
(g13
S'\xa0\x96\xf4\xe0T\xb81@'
p1238
tp1239
Rp1240
sg19
I0
sg20
g21
(S'\x07\xdd\t\x1d\x13\r\x18\x03@v'
p1241
tp1242
Rp1243
sg25
I0
sg26
g27
(g28
(I0
tp1244
g30
tp1245
Rp1246
(I1
(I2
tp1247
g36
I00
S'\x87\x00\x00\x00^\x00\x00\x00'
p1248
tp1249
bsba(i__main__
FrameData
p1250
(dp1251
g6
g1195
sg8
g9
(g13
S'\xa3\x14\xae\xa8\x87\x161@'
p1252
tp1253
Rp1254
sg19
I0
sg20
g21
(S'\x07\xdd\t\x1d\x13\r\x18\x03\x84\xcc'
p1255
tp1256
Rp1257
sg25
I0
sg26
g27
(g28
(I0
tp1258
g30
tp1259
Rp1260
(I1
(I2
tp1261
g36
I00
S'\x88\x00\x00\x00]\x00\x00\x00'
p1262
tp1263
bsba(i__main__
FrameData
p1264
(dp1265
g6
g1195
sg8
g9
(g13
S'\xaa\xd9\xb1\xd3\x8d\x8d0@'
p1266
tp1267
Rp1268
sg19
I0
sg20
g21
(S'\x07\xdd\t\x1d\x13\r\x18\x03\xc7\x14'
p1269
tp1270
Rp1271
sg25
I0
sg26
g27
(g28
(I0
tp1272
g30
tp1273
Rp1274
(I1
(I2
tp1275
g36
I00
S'\x89\x00\x00\x00\\\x00\x00\x00'
p1276
tp1277
bsba(i__main__
FrameData
p1278
(dp1279
g6
g1195
sg8
g9
(g13
S'\xb9\x93\xe1k\xb0\xa40@'
p1280
tp1281
Rp1282
sg19
I0
sg20
g21
(S'\x07\xdd\t\x1d\x13\r\x18\x04\n\x12'
p1283
tp1284
Rp1285
sg25
I0
sg26
g27
(g28
(I0
tp1286
g30
tp1287
Rp1288
(I1
(I2
tp1289
g36
I00
S'\x8b\x00\x00\x00[\x00\x00\x00'
p1290
tp1291
bsba(i__main__
FrameData
p1292
(dp1293
g6
g1195
sg8
g9
(g13
S'\x0f\xab\xa8Q\xb6f0@'
p1294
tp1295
Rp1296
sg19
I0
sg20
g21
(S'\x07\xdd\t\x1d\x13\r\x18\x04GL'
p1297
tp1298
Rp1299
sg25
I0
sg26
g27
(g28
(I0
tp1300
g30
tp1301
Rp1302
(I1
(I2
tp1303
g36
I00
S'\x8c\x00\x00\x00Z\x00\x00\x00'
p1304
tp1305
bsba(i__main__
FrameData
p1306
(dp1307
g6
g1195
sg8
g9
(g13
S'\xd9l\xdf\xccv\xf80@'
p1308
tp1309
Rp1310
sg19
I0
sg20
g21
(S'\x07\xdd\t\x1d\x13\r\x18\x04\x85\xa3'
p1311
tp1312
Rp1313
sg25
I0
sg26
g27
(g28
(I0
tp1314
g30
tp1315
Rp1316
(I1
(I2
tp1317
g36
I00
S'\x8e\x00\x00\x00Y\x00\x00\x00'
p1318
tp1319
bsba(i__main__
FrameData
p1320
(dp1321
g6
S'u'
p1322
sg8
g9
(g13
S'\xb9\xbaF\xca+~1@'
p1323
tp1324
Rp1325
sg19
I0
sg20
g21
(S'\x07\xdd\t\x1d\x13\r\x18\x04\xcbY'
p1326
tp1327
Rp1328
sg25
I0
sg26
g27
(g28
(I0
tp1329
g30
tp1330
Rp1331
(I1
(I2
tp1332
g36
I00
S'\x8f\x00\x00\x00Y\x00\x00\x00'
p1333
tp1334
bsba(i__main__
FrameData
p1335
(dp1336
g6
g1322
sg8
g9
(g13
S'\xd0\xbaa?\xe0\x1f0@'
p1337
tp1338
Rp1339
sg19
I0
sg20
g21
(S'\x07\xdd\t\x1d\x13\r\x18\x05\x07E'
p1340
tp1341
Rp1342
sg25
I0
sg26
g27
(g28
(I0
tp1343
g30
tp1344
Rp1345
(I1
(I2
tp1346
g36
I00
S'\x90\x00\x00\x00X\x00\x00\x00'
p1347
tp1348
bsba(i__main__
FrameData
p1349
(dp1350
g6
g1322
sg8
g9
(g13
S'p\xc4\x9d9\x8dv.@'
p1351
tp1352
Rp1353
sg19
I0
sg20
g21
(S'\x07\xdd\t\x1d\x13\r\x18\x05H!'
p1354
tp1355
Rp1356
sg25
I0
sg26
g27
(g28
(I0
tp1357
g30
tp1358
Rp1359
(I1
(I2
tp1360
g36
I00
S'\x92\x00\x00\x00X\x00\x00\x00'
p1361
tp1362
bsba(i__main__
FrameData
p1363
(dp1364
g6
g1322
sg8
g9
(g13
S'S[\xda:XL)@'
p1365
tp1366
Rp1367
sg19
I0
sg20
g21
(S'\x07\xdd\t\x1d\x13\r\x18\x05\x89\xe1'
p1368
tp1369
Rp1370
sg25
I0
sg26
g27
(g28
(I0
tp1371
g30
tp1372
Rp1373
(I1
(I2
tp1374
g36
I00
S'\x94\x00\x00\x00V\x00\x00\x00'
p1375
tp1376
bsba(i__main__
FrameData
p1377
(dp1378
g6
g1322
sg8
g9
(g13
S'9\xdcc\xb3\xbfT(@'
p1379
tp1380
Rp1381
sg19
I0
sg20
g21
(S'\x07\xdd\t\x1d\x13\r\x18\x05\xccT'
p1382
tp1383
Rp1384
sg25
I0
sg26
g27
(g28
(I0
tp1385
g30
tp1386
Rp1387
(I1
(I2
tp1388
g36
I00
S'\x96\x00\x00\x00V\x00\x00\x00'
p1389
tp1390
bsba(i__main__
FrameData
p1391
(dp1392
g6
g1322
sg8
g9
(g13
S'\xf0)#L\x89\x19$@'
p1393
tp1394
Rp1395
sg19
I0
sg20
g21
(S'\x07\xdd\t\x1d\x13\r\x18\x06\x0b\x9f'
p1396
tp1397
Rp1398
sg25
I0
sg26
g27
(g28
(I0
tp1399
g30
tp1400
Rp1401
(I1
(I2
tp1402
g36
I00
S'\x97\x00\x00\x00T\x00\x00\x00'
p1403
tp1404
bsba(i__main__
FrameData
p1405
(dp1406
g6
g1322
sg8
g9
(g13
S'\x00\x00\x00\x00\x00\x00$@'
p1407
tp1408
Rp1409
sg19
I0
sg20
g21
(S"\x07\xdd\t\x1d\x13\r\x18\x06U'"
p1410
tp1411
Rp1412
sg25
I0
sg26
g27
(g28
(I0
tp1413
g30
tp1414
Rp1415
(I1
(I2
tp1416
g36
I00
S'\x98\x00\x00\x00T\x00\x00\x00'
p1417
tp1418
bsba(i__main__
FrameData
p1419
(dp1420
g6
g1322
sg8
g9
(g13
S'$\xf8\xd9p[\x1c"@'
p1421
tp1422
Rp1423
sg19
I0
sg20
g21
(S'\x07\xdd\t\x1d\x13\r\x18\x06\x8ew'
p1424
tp1425
Rp1426
sg25
I0
sg26
g27
(g28
(I0
tp1427
g30
tp1428
Rp1429
(I1
(I2
tp1430
g36
I00
S'\x99\x00\x00\x00S\x00\x00\x00'
p1431
tp1432
bsba(i__main__
FrameData
p1433
(dp1434
g6
g1322
sg8
g9
(g13
S'\x9a.\x90!hp"@'
p1435
tp1436
Rp1437
sg19
I0
sg20
g21
(S'\x07\xdd\t\x1d\x13\r\x18\x06\xd4\x10'
p1438
tp1439
Rp1440
sg25
I0
sg26
g27
(g28
(I0
tp1441
g30
tp1442
Rp1443
(I1
(I2
tp1444
g36
I00
S'\x9a\x00\x00\x00S\x00\x00\x00'
p1445
tp1446
bsba(i__main__
FrameData
p1447
(dp1448
g6
g1322
sg8
g9
(g13
S'bVc}\x9d\xb2#@'
p1449
tp1450
Rp1451
sg19
I0
sg20
g21
(S'\x07\xdd\t\x1d\x13\r\x18\x07\x13\xc9'
p1452
tp1453
Rp1454
sg25
I0
sg26
g27
(g28
(I0
tp1455
g30
tp1456
Rp1457
(I1
(I2
tp1458
g36
I00
S'\x9c\x00\x00\x00S\x00\x00\x00'
p1459
tp1460
bsba(i__main__
FrameData
p1461
(dp1462
g6
g1322
sg8
g9
(g13
S'\x88\x80v\xd5\\\x97$@'
p1463
tp1464
Rp1465
sg19
I0
sg20
g21
(S'\x07\xdd\t\x1d\x13\r\x18\x07T\x8a'
p1466
tp1467
Rp1468
sg25
I0
sg26
g27
(g28
(I0
tp1469
g30
tp1470
Rp1471
(I1
(I2
tp1472
g36
I00
S'\x9d\x00\x00\x00S\x00\x00\x00'
p1473
tp1474
bsba(i__main__
FrameData
p1475
(dp1476
g6
g1322
sg8
g9
(g13
S'\x00\x00\x00\x00\x00\x00$@'
p1477
tp1478
Rp1479
sg19
I0
sg20
g21
(S'\x07\xdd\t\x1d\x13\r\x18\x07\x96\xbe'
p1480
tp1481
Rp1482
sg25
I0
sg26
g27
(g28
(I0
tp1483
g30
tp1484
Rp1485
(I1
(I2
tp1486
g36
I00
S'\x9e\x00\x00\x00R\x00\x00\x00'
p1487
tp1488
bsba(i__main__
FrameData
p1489
(dp1490
g6
g1322
sg8
g9
(g13
S'ST\xaf\x99\x8a\xcc#@'
p1491
tp1492
Rp1493
sg19
I0
sg20
g21
(S'\x07\xdd\t\x1d\x13\r\x18\x07\xd54'
p1494
tp1495
Rp1496
sg25
I0
sg26
g27
(g28
(I0
tp1497
g30
tp1498
Rp1499
(I1
(I2
tp1500
g36
I00
S'\x9f\x00\x00\x00Q\x00\x00\x00'
p1501
tp1502
bsba(i__main__
FrameData
p1503
(dp1504
g6
g1322
sg8
g9
(g13
S'6\xd0\xd2x\xa2B%@'
p1505
tp1506
Rp1507
sg19
I0
sg20
g21
(S'\x07\xdd\t\x1d\x13\r\x18\x08\x1a\x86'
p1508
tp1509
Rp1510
sg25
I0
sg26
g27
(g28
(I0
tp1511
g30
tp1512
Rp1513
(I1
(I2
tp1514
g36
I00
S'\xa0\x00\x00\x00Q\x00\x00\x00'
p1515
tp1516
bsba(i__main__
FrameData
p1517
(dp1518
g6
g1322
sg8
g9
(g13
S'\xd2\xf1}\x82U\\&@'
p1519
tp1520
Rp1521
sg19
I0
sg20
g21
(S'\x07\xdd\t\x1d\x13\r\x18\x08X\xf5'
p1522
tp1523
Rp1524
sg25
I0
sg26
g27
(g28
(I0
tp1525
g30
tp1526
Rp1527
(I1
(I2
tp1528
g36
I00
S'\xa2\x00\x00\x00O\x00\x00\x00'
p1529
tp1530
bsba(i__main__
FrameData
p1531
(dp1532
g6
g1322
sg8
g9
(g13
S'lNy\x00\x85*(@'
p1533
tp1534
Rp1535
sg19
I0
sg20
g21
(S'\x07\xdd\t\x1d\x13\r\x18\x08\x9c*'
p1536
tp1537
Rp1538
sg25
I0
sg26
g27
(g28
(I0
tp1539
g30
tp1540
Rp1541
(I1
(I2
tp1542
g36
I00
S'\xa3\x00\x00\x00O\x00\x00\x00'
p1543
tp1544
bsba(i__main__
FrameData
p1545
(dp1546
g6
S'i'
p1547
sg8
g9
(g13
S'\xde4\xda\xfeNN*@'
p1548
tp1549
Rp1550
sg19
I0
sg20
g21
(S'\x07\xdd\t\x1d\x13\r\x18\x08\xdc\xf7'
p1551
tp1552
Rp1553
sg25
I0
sg26
g27
(g28
(I0
tp1554
g30
tp1555
Rp1556
(I1
(I2
tp1557
g36
I00
S'\xa5\x00\x00\x00M\x00\x00\x00'
p1558
tp1559
bsba(i__main__
FrameData
p1560
(dp1561
g6
g1547
sg8
g9
(g13
S'9\xdcc\xb3\xbfT(@'
p1562
tp1563
Rp1564
sg19
I0
sg20
g21
(S'\x07\xdd\t\x1d\x13\r\x18\t\x1bC'
p1565
tp1566
Rp1567
sg25
I0
sg26
g27
(g28
(I0
tp1568
g30
tp1569
Rp1570
(I1
(I2
tp1571
g36
I00
S'\xa6\x00\x00\x00M\x00\x00\x00'
p1572
tp1573
bsba(i__main__
FrameData
p1574
(dp1575
g6
g1547
sg8
g9
(g13
S'H\xaa*\x8f9\x17&@'
p1576
tp1577
Rp1578
sg19
I0
sg20
g21
(S'\x07\xdd\t\x1d\x13\r\x18\t_e'
p1579
tp1580
Rp1581
sg25
I0
sg26
g27
(g28
(I0
tp1582
g30
tp1583
Rp1584
(I1
(I2
tp1585
g36
I00
S'\xa7\x00\x00\x00L\x00\x00\x00'
p1586
tp1587
bsba(i__main__
FrameData
p1588
(dp1589
g6
g1547
sg8
g9
(g13
S'\x00\x00\x00\x00\x00\x00$@'
p1590
tp1591
Rp1592
sg19
I0
sg20
g21
(S'\x07\xdd\t\x1d\x13\r\x18\t\x9e\x1a'
p1593
tp1594
Rp1595
sg25
I0
sg26
g27
(g28
(I0
tp1596
g30
tp1597
Rp1598
(I1
(I2
tp1599
g36
I00
S'\xa8\x00\x00\x00K\x00\x00\x00'
p1600
tp1601
bsba(i__main__
FrameData
p1602
(dp1603
g6
g1547
sg8
g9
(g13
S'\xd0\xbaa?\xe0\x1f @'
p1604
tp1605
Rp1606
sg19
I0
sg20
g21
(S'\x07\xdd\t\x1d\x13\r\x18\t\xe1^'
p1607
tp1608
Rp1609
sg25
I0
sg26
g27
(g28
(I0
tp1610
g30
tp1611
Rp1612
(I1
(I2
tp1613
g36
I00
S'\xaa\x00\x00\x00J\x00\x00\x00'
p1614
tp1615
bsba(i__main__
FrameData
p1616
(dp1617
g6
g1547
sg8
g9
(g13
S'\xc0\n\x1f\x00\xc6H\x1c@'
p1618
tp1619
Rp1620
sg19
I0
sg20
g21
(S'\x07\xdd\t\x1d\x13\r\x18\n\x1f\xc6'
p1621
tp1622
Rp1623
sg25
I0
sg26
g27
(g28
(I0
tp1624
g30
tp1625
Rp1626
(I1
(I2
tp1627
g36
I00
S'\xab\x00\x00\x00J\x00\x00\x00'
p1628
tp1629
bsba(i__main__
FrameData
p1630
(dp1631
g6
g1547
sg8
g9
(g13
S'\xa2\xa3\xb3\r\xe5R\x17@'
p1632
tp1633
Rp1634
sg19
I0
sg20
g21
(S'\x07\xdd\t\x1d\x13\r\x18\na\xb6'
p1635
tp1636
Rp1637
sg25
I0
sg26
g27
(g28
(I0
tp1638
g30
tp1639
Rp1640
(I1
(I2
tp1641
g36
I00
S'\xad\x00\x00\x00H\x00\x00\x00'
p1642
tp1643
bsba(i__main__
FrameData
p1644
(dp1645
g6
g1547
sg8
g9
(g13
S'\x00\x00\x00\x00\x00\x00\x14@'
p1646
tp1647
Rp1648
sg19
I0
sg20
g21
(S'\x07\xdd\t\x1d\x13\r\x18\n\xa3\xd3'
p1649
tp1650
Rp1651
sg25
I0
sg26
g27
(g28
(I0
tp1652
g30
tp1653
Rp1654
(I1
(I2
tp1655
g36
I00
S'\xae\x00\x00\x00H\x00\x00\x00'
p1656
tp1657
bsba(i__main__
FrameData
p1658
(dp1659
g6
g1547
sg8
g9
(g13
S'\xd9l\xdf\xccv\xf8\x10@'
p1660
tp1661
Rp1662
sg19
I0
sg20
g21
(S'\x07\xdd\t\x1d\x13\r\x18\n\xe6\xf1'
p1663
tp1664
Rp1665
sg25
I0
sg26
g27
(g28
(I0
tp1666
g30
tp1667
Rp1668
(I1
(I2
tp1669
g36
I00
S'\xaf\x00\x00\x00H\x00\x00\x00'
p1670
tp1671
bsba(i__main__
FrameData
p1672
(dp1673
g6
g1547
sg8
g9
(g13
S'\xf3YaD+\xd8\x0c@'
p1674
tp1675
Rp1676
sg19
I0
sg20
g21
(S'\x07\xdd\t\x1d\x13\r\x18\x0bff'
p1677
tp1678
Rp1679
sg25
I0
sg26
g27
(g28
(I0
tp1680
g30
tp1681
Rp1682
(I1
(I2
tp1683
g36
I00
S'\xb0\x00\x00\x00H\x00\x00\x00'
p1684
tp1685
bsba(i__main__
FrameData
p1686
(dp1687
g6
g1547
sg8
g9
(g13
S'S[\xda:XL\t@'
p1688
tp1689
Rp1690
sg19
I0
sg20
g21
(S'\x07\xdd\t\x1d\x13\r\x18\x0c/\xc6'
p1691
tp1692
Rp1693
sg25
I0
sg26
g27
(g28
(I0
tp1694
g30
tp1695
Rp1696
(I1
(I2
tp1697
g36
I00
S'\xb1\x00\x00\x00H\x00\x00\x00'
p1698
tp1699
bsba(i__main__
FrameData
p1700
(dp1701
g6
g1547
sg8
g9
(g13
S'\xf3YaD+\xd8\x0c@'
p1702
tp1703
Rp1704
sg19
I0
sg20
g21
(S'\x07\xdd\t\x1d\x13\r\x19\x00\x7f\x02'
p1705
tp1706
Rp1707
sg25
I0
sg26
g27
(g28
(I0
tp1708
g30
tp1709
Rp1710
(I1
(I2
tp1711
g36
I00
S'\xb0\x00\x00\x00H\x00\x00\x00'
p1712
tp1713
bsba(i__main__
FrameData
p1714
(dp1715
g6
g1547
sg8
g9
(g13
S'\xcd;\x7ff\x9e\xa0\x06@'
p1716
tp1717
Rp1718
sg19
I0
sg20
g21
(S'\x07\xdd\t\x1d\x13\r\x19\x00\xba}'
p1719
tp1720
Rp1721
sg25
I0
sg26
g27
(g28
(I0
tp1722
g30
tp1723
Rp1724
(I1
(I2
tp1725
g36
I00
S'\xb0\x00\x00\x00I\x00\x00\x00'
p1726
tp1727
bsba(i__main__
FrameData
p1728
(dp1729
g6
g1547
sg8
g9
(g13
S'S[\xda:XL\t@'
p1730
tp1731
Rp1732
sg19
I0
sg20
g21
(S'\x07\xdd\t\x1d\x13\r\x19\x00\xfb\x93'
p1733
tp1734
Rp1735
sg25
I0
sg26
g27
(g28
(I0
tp1736
g30
tp1737
Rp1738
(I1
(I2
tp1739
g36
I00
S'\xaf\x00\x00\x00J\x00\x00\x00'
p1740
tp1741
bsba(i__main__
FrameData
p1742
(dp1743
g6
g1547
sg8
g9
(g13
S'\x00\x00\x00\x00\x00\x00\x10@'
p1744
tp1745
Rp1746
sg19
I0
sg20
g21
(S'\x07\xdd\t\x1d\x13\r\x19\x01AR'
p1747
tp1748
Rp1749
sg25
I0
sg26
g27
(g28
(I0
tp1750
g30
tp1751
Rp1752
(I1
(I2
tp1753
g36
I00
S'\xae\x00\x00\x00K\x00\x00\x00'
p1754
tp1755
bsba(i__main__
FrameData
p1756
(dp1757
g6
g1547
sg8
g9
(g13
S'\x00\x00\x00\x00\x00\x00\x18@'
p1758
tp1759
Rp1760
sg19
I0
sg20
g21
(S'\x07\xdd\t\x1d\x13\r\x19\x01\x83^'
p1761
tp1762
Rp1763
sg25
I0
sg26
g27
(g28
(I0
tp1764
g30
tp1765
Rp1766
(I1
(I2
tp1767
g36
I00
S'\xac\x00\x00\x00K\x00\x00\x00'
p1768
tp1769
bsba(i__main__
FrameData
p1770
(dp1771
g6
g1547
sg8
g9
(g13
S'\xc0\n\x1f\x00\xc6H\x1c@'
p1772
tp1773
Rp1774
sg19
I0
sg20
g21
(S'\x07\xdd\t\x1d\x13\r\x19\x01\xc5g'
p1775
tp1776
Rp1777
sg25
I0
sg26
g27
(g28
(I0
tp1778
g30
tp1779
Rp1780
(I1
(I2
tp1781
g36
I00
S'\xab\x00\x00\x00L\x00\x00\x00'
p1782
tp1783
bsba(i__main__
FrameData
p1784
(dp1785
g6
g1547
sg8
g9
(g13
S'\x9a.\x90!hp"@'
p1786
tp1787
Rp1788
sg19
I0
sg20
g21
(S'\x07\xdd\t\x1d\x13\r\x19\x02\x012'
p1789
tp1790
Rp1791
sg25
I0
sg26
g27
(g28
(I0
tp1792
g30
tp1793
Rp1794
(I1
(I2
tp1795
g36
I00
S'\xa9\x00\x00\x00M\x00\x00\x00'
p1796
tp1797
bsba(i__main__
FrameData
p1798
(dp1799
g6
g1547
sg8
g9
(g13
S'7\xf9\xcf\xdao\xe1$@'
p1800
tp1801
Rp1802
sg19
I0
sg20
g21
(S'\x07\xdd\t\x1d\x13\r\x19\x02B\x08'
p1803
tp1804
Rp1805
sg25
I0
sg26
g27
(g28
(I0
tp1806
g30
tp1807
Rp1808
(I1
(I2
tp1809
g36
I00
S'\xa8\x00\x00\x00N\x00\x00\x00'
p1810
tp1811
bsba(i__main__
FrameData
p1812
(dp1813
g6
g1547
sg8
g9
(g13
S'\x8a\xe3\x07\x1a\x17\xbd(@'
p1814
tp1815
Rp1816
sg19
I0
sg20
g21
(S'\x07\xdd\t\x1d\x13\r\x19\x02\x87\x9f'
p1817
tp1818
Rp1819
sg25
I0
sg26
g27
(g28
(I0
tp1820
g30
tp1821
Rp1822
(I1
(I2
tp1823
g36
I00
S'\xa6\x00\x00\x00N\x00\x00\x00'
p1824
tp1825
bsba(i__main__
FrameData
p1826
(dp1827
g6
g1322
sg8
g9
(g13
S'\x00\x00\x00\x00\x00\x00$@'
p1828
tp1829
Rp1830
sg19
I0
sg20
g21
(S'\x07\xdd\t\x1d\x13\r\x19\x02\xc3\xc7'
p1831
tp1832
Rp1833
sg25
I0
sg26
g27
(g28
(I0
tp1834
g30
tp1835
Rp1836
(I1
(I2
tp1837
g36
I00
S'\xa0\x00\x00\x00P\x00\x00\x00'
p1838
tp1839
bsba(i__main__
FrameData
p1840
(dp1841
g6
g1322
sg8
g9
(g13
S'\x07\xed\xaff\x0f~ @'
p1842
tp1843
Rp1844
sg19
I0
sg20
g21
(S'\x07\xdd\t\x1d\x13\r\x19\x03\x0b\xc2'
p1845
tp1846
Rp1847
sg25
I0
sg26
g27
(g28
(I0
tp1848
g30
tp1849
Rp1850
(I1
(I2
tp1851
g36
I00
S'\x9a\x00\x00\x00R\x00\x00\x00'
p1852
tp1853
bsba(i__main__
FrameData
p1854
(dp1855
g6
g1322
sg8
g9
(g13
S'\xf3\xd9\xa8\xa4h\x8a%@'
p1856
tp1857
Rp1858
sg19
I0
sg20
g21
(S'\x07\xdd\t\x1d\x13\r\x19\x03Fx'
p1859
tp1860
Rp1861
sg25
I0
sg26
g27
(g28
(I0
tp1862
g30
tp1863
Rp1864
(I1
(I2
tp1865
g36
I00
S'\x94\x00\x00\x00T\x00\x00\x00'
p1866
tp1867
bsba(i__main__
FrameData
p1868
(dp1869
g6
g1195
sg8
g9
(g13
S'/\xa4\xe3\\m\xbb-@'
p1870
tp1871
Rp1872
sg19
I0
sg20
g21
(S'\x07\xdd\t\x1d\x13\r\x19\x03\x8c\x19'
p1873
tp1874
Rp1875
sg25
I0
sg26
g27
(g28
(I0
tp1876
g30
tp1877
Rp1878
(I1
(I2
tp1879
g36
I00
S'\x8d\x00\x00\x00W\x00\x00\x00'
p1880
tp1881
bsba(i__main__
FrameData
p1882
(dp1883
g6
g1195
sg8
g9
(g13
S'\x00\x00\x00\x00\x00\x00*@'
p1884
tp1885
Rp1886
sg19
I0
sg20
g21
(S'\x07\xdd\t\x1d\x13\r\x19\x03\xcao'
p1887
tp1888
Rp1889
sg25
I0
sg26
g27
(g28
(I0
tp1890
g30
tp1891
Rp1892
(I1
(I2
tp1893
g36
I00
S'\x87\x00\x00\x00Y\x00\x00\x00'
p1894
tp1895
bsba(i__main__
FrameData
p1896
(dp1897
g6
g1195
sg8
g9
(g13
S'\x00\x00\x00\x00\x00\x00*@'
p1898
tp1899
Rp1900
sg19
I0
sg20
g21
(S'\x07\xdd\t\x1d\x13\r\x19\x04\x10\x1d'
p1901
tp1902
Rp1903
sg25
I0
sg26
g27
(g28
(I0
tp1904
g30
tp1905
Rp1906
(I1
(I2
tp1907
g36
I00
S'\x82\x00\x00\x00Z\x00\x00\x00'
p1908
tp1909
bsba(i__main__
FrameData
p1910
(dp1911
g6
g1195
sg8
g9
(g13
S'\xb3\xa73\xa0`\x0c/@'
p1912
tp1913
Rp1914
sg19
I0
sg20
g21
(S'\x07\xdd\t\x1d\x13\r\x19\x04N|'
p1915
tp1916
Rp1917
sg25
I0
sg26
g27
(g28
(I0
tp1918
g30
tp1919
Rp1920
(I1
(I2
tp1921
g36
I00
S'~\x00\x00\x00\\\x00\x00\x00'
p1922
tp1923
bsba(i__main__
FrameData
p1924
(dp1925
g6
g1195
sg8
g9
(g13
S'\xa8\xf4\x97\x9bw\xe31@'
p1926
tp1927
Rp1928
sg19
I0
sg20
g21
(S'\x07\xdd\t\x1d\x13\r\x19\x04\x8c\xd3'
p1929
tp1930
Rp1931
sg25
I0
sg26
g27
(g28
(I0
tp1932
g30
tp1933
Rp1934
(I1
(I2
tp1935
g36
I00
S'z\x00\x00\x00]\x00\x00\x00'
p1936
tp1937
bsba(i__main__
FrameData
p1938
(dp1939
g6
g774
sg8
g9
(g13
S'\xbd\xec\x81\x93G94@'
p1940
tp1941
Rp1942
sg19
I0
sg20
g21
(S'\x07\xdd\t\x1d\x13\r\x19\x04\xce1'
p1943
tp1944
Rp1945
sg25
I0
sg26
g27
(g28
(I0
tp1946
g30
tp1947
Rp1948
(I1
(I2
tp1949
g36
I00
S'u\x00\x00\x00^\x00\x00\x00'
p1950
tp1951
bsba(i__main__
FrameData
p1952
(dp1953
g6
g604
sg8
g9
(g13
S'I\xe8[@\x93\x9d4@'
p1954
tp1955
Rp1956
sg19
I0
sg20
g21
(S'\x07\xdd\t\x1d\x13\r\x19\x05\x10\xed'
p1957
tp1958
Rp1959
sg25
I0
sg26
g27
(g28
(I0
tp1960
g30
tp1961
Rp1962
(I1
(I2
tp1963
g36
I00
S'o\x00\x00\x00_\x00\x00\x00'
p1964
tp1965
bsba(i__main__
FrameData
p1966
(dp1967
g6
g604
sg8
g9
(g13
S'\xf0)#L\x89\x194@'
p1968
tp1969
Rp1970
sg19
I0
sg20
g21
(S'\x07\xdd\t\x1d\x13\r\x19\x05V\x97'
p1971
tp1972
Rp1973
sg25
I0
sg26
g27
(g28
(I0
tp1974
g30
tp1975
Rp1976
(I1
(I2
tp1977
g36
I00
S'l\x00\x00\x00_\x00\x00\x00'
p1978
tp1979
bsba(i__main__
FrameData
p1980
(dp1981
g6
g703
sg8
g9
(g13
S'=\xf3\n\x8f\xe6\x1f4@'
p1982
tp1983
Rp1984
sg19
I0
sg20
g21
(S'\x07\xdd\t\x1d\x13\r\x19\x05\x96#'
p1985
tp1986
Rp1987
sg25
I0
sg26
g27
(g28
(I0
tp1988
g30
tp1989
Rp1990
(I1
(I2
tp1991
g36
I00
S'i\x00\x00\x00`\x00\x00\x00'
p1992
tp1993
bsba(i__main__
FrameData
p1994
(dp1995
g6
g703
sg8
g9
(g13
S'\xfb\xefg\xc4>C1@'
p1996
tp1997
Rp1998
sg19
I0
sg20
g21
(S'\x07\xdd\t\x1d\x13\r\x19\x05\xd3K'
p1999
tp2000
Rp2001
sg25
I0
sg26
g27
(g28
(I0
tp2002
g30
tp2003
Rp2004
(I1
(I2
tp2005
g36
I00
S'c\x00\x00\x00a\x00\x00\x00'
p2006
tp2007
bsba(i__main__
FrameData
p2008
(dp2009
g6
g703
sg8
g9
(g13
S'p`\xff\x00\xfe\x070@'
p2010
tp2011
Rp2012
sg19
I0
sg20
g21
(S'\x07\xdd\t\x1d\x13\r\x19\x06\x15V'
p2013
tp2014
Rp2015
sg25
I0
sg26
g27
(g28
(I0
tp2016
g30
tp2017
Rp2018
(I1
(I2
tp2019
g36
I00
S'_\x00\x00\x00b\x00\x00\x00'
p2020
tp2021
bsba(i__main__
FrameData
p2022
(dp2023
g6
g703
sg8
g9
(g13
S"v\xa3~{\xce'0@"
p2024
tp2025
Rp2026
sg19
I0
sg20
g21
(S'\x07\xdd\t\x1d\x13\r\x19\x06Wg'
p2027
tp2028
Rp2029
sg25
I0
sg26
g27
(g28
(I0
tp2030
g30
tp2031
Rp2032
(I1
(I2
tp2033
g36
I00
S'Z\x00\x00\x00c\x00\x00\x00'
p2034
tp2035
bsba(i__main__
FrameData
p2036
(dp2037
g6
S'd'
p2038
sg8
g9
(g13
S'l\xd0\xe82\x1a\xb11@'
p2039
tp2040
Rp2041
sg19
I0
sg20
g21
(S'\x07\xdd\t\x1d\x13\r\x19\x06\x9a\x8d'
p2042
tp2043
Rp2044
sg25
I0
sg26
g27
(g28
(I0
tp2045
g30
tp2046
Rp2047
(I1
(I2
tp2048
g36
I00
S'U\x00\x00\x00d\x00\x00\x00'
p2049
tp2050
bsba(i__main__
FrameData
p2051
(dp2052
g6
g2038
sg8
g9
(g13
S'\xb9e(k\xee\xc8+@'
p2053
tp2054
Rp2055
sg19
I0
sg20
g21
(S'\x07\xdd\t\x1d\x13\r\x19\x06\xdb='
p2056
tp2057
Rp2058
sg25
I0
sg26
g27
(g28
(I0
tp2059
g30
tp2060
Rp2061
(I1
(I2
tp2062
g36
I00
S'P\x00\x00\x00e\x00\x00\x00'
p2063
tp2064
bsba(i__main__
FrameData
p2065
(dp2066
g6
g2038
sg8
g9
(g13
S'S[\xda:XL)@'
p2067
tp2068
Rp2069
sg19
I0
sg20
g21
(S'\x07\xdd\t\x1d\x13\r\x19\x07\x1e{'
p2070
tp2071
Rp2072
sg25
I0
sg26
g27
(g28
(I0
tp2073
g30
tp2074
Rp2075
(I1
(I2
tp2076
g36
I00
S'M\x00\x00\x00e\x00\x00\x00'
p2077
tp2078
bsba(i__main__
FrameData
p2079
(dp2080
g6
g2038
sg8
g9
(g13
S'\x00\x00\x00\x00\x00\x00(@'
p2081
tp2082
Rp2083
sg19
I0
sg20
g21
(S'\x07\xdd\t\x1d\x13\r\x19\x07[\xb2'
p2084
tp2085
Rp2086
sg25
I0
sg26
g27
(g28
(I0
tp2087
g30
tp2088
Rp2089
(I1
(I2
tp2090
g36
I00
S'I\x00\x00\x00e\x00\x00\x00'
p2091
tp2092
bsba(i__main__
FrameData
p2093
(dp2094
g6
g2038
sg8
g9
(g13
S'\x8a\xe3\x07\x1a\x17\xbd(@'
p2095
tp2096
Rp2097
sg19
I0
sg20
g21
(S'\x07\xdd\t\x1d\x13\r\x19\x07\x9d\xb2'
p2098
tp2099
Rp2100
sg25
I0
sg26
g27
(g28
(I0
tp2101
g30
tp2102
Rp2103
(I1
(I2
tp2104
g36
I00
S'F\x00\x00\x00e\x00\x00\x00'
p2105
tp2106
bsba(i__main__
FrameData
p2107
(dp2108
g6
g2038
sg8
g9
(g13
S'\xfc\xeeci3\xd5*@'
p2109
tp2110
Rp2111
sg19
I0
sg20
g21
(S'\x07\xdd\t\x1d\x13\r\x19\x07\xe0\xfe'
p2112
tp2113
Rp2114
sg25
I0
sg26
g27
(g28
(I0
tp2115
g30
tp2116
Rp2117
(I1
(I2
tp2118
g36
I00
S'C\x00\x00\x00e\x00\x00\x00'
p2119
tp2120
bsba(i__main__
FrameData
p2121
(dp2122
g6
g2038
sg8
g9
(g13
S'\xef\rI\xf1\xf33+@'
p2123
tp2124
Rp2125
sg19
I0
sg20
g21
(S'\x07\xdd\t\x1d\x13\r\x19\x08\x1e\x80'
p2126
tp2127
Rp2128
sg25
I0
sg26
g27
(g28
(I0
tp2129
g30
tp2130
Rp2131
(I1
(I2
tp2132
g36
I00
S'A\x00\x00\x00f\x00\x00\x00'
p2133
tp2134
bsba(i__main__
FrameData
p2135
(dp2136
g6
g2038
sg8
g9
(g13
S'9\xf2\xee\xcc\xd9\x1c/@'
p2137
tp2138
Rp2139
sg19
I0
sg20
g21
(S'\x07\xdd\t\x1d\x13\r\x19\x08c\xdd'
p2140
tp2141
Rp2142
sg25
I0
sg26
g27
(g28
(I0
tp2143
g30
tp2144
Rp2145
(I1
(I2
tp2146
g36
I00
S'>\x00\x00\x00f\x00\x00\x00'
p2147
tp2148
bsba(i__main__
FrameData
p2149
(dp2150
g6
S's'
p2151
sg8
g9
(g13
S'\x10\xb3]\xc9`G0@'
p2152
tp2153
Rp2154
sg19
I0
sg20
g21
(S'\x07\xdd\t\x1d\x13\r\x19\x08\xa0\xa6'
p2155
tp2156
Rp2157
sg25
I0
sg26
g27
(g28
(I0
tp2158
g30
tp2159
Rp2160
(I1
(I2
tp2161
g36
I00
S'=\x00\x00\x00f\x00\x00\x00'
p2162
tp2163
bsba(i__main__
FrameData
p2164
(dp2165
g6
g2151
sg8
g9
(g13
S'\xb4\xb8=iA\xe8*@'
p2166
tp2167
Rp2168
sg19
I0
sg20
g21
(S'\x07\xdd\t\x1d\x13\r\x19\x08\xe7\xef'
p2169
tp2170
Rp2171
sg25
I0
sg26
g27
(g28
(I0
tp2172
g30
tp2173
Rp2174
(I1
(I2
tp2175
g36
I00
S';\x00\x00\x00h\x00\x00\x00'
p2176
tp2177
bsba(i__main__
FrameData
p2178
(dp2179
g6
g2151
sg8
g9
(g13
S'F#O3\xb2t)@'
p2180
tp2181
Rp2182
sg19
I0
sg20
g21
(S'\x07\xdd\t\x1d\x13\r\x19\t)\xd1'
p2183
tp2184
Rp2185
sg25
I0
sg26
g27
(g28
(I0
tp2186
g30
tp2187
Rp2188
(I1
(I2
tp2189
g36
I00
S':\x00\x00\x00h\x00\x00\x00'
p2190
tp2191
bsba(i__main__
FrameData
p2192
(dp2193
g6
g2151
sg8
g9
(g13
S'\xeb\x12\xb2\xbb\xb2\xcd&@'
p2194
tp2195
Rp2196
sg19
I0
sg20
g21
(S'\x07\xdd\t\x1d\x13\r\x19\td\xa3'
p2197
tp2198
Rp2199
sg25
I0
sg26
g27
(g28
(I0
tp2200
g30
tp2201
Rp2202
(I1
(I2
tp2203
g36
I00
S'8\x00\x00\x00h\x00\x00\x00'
p2204
tp2205
bsba(i__main__
FrameData
p2206
(dp2207
g6
g2151
sg8
g9
(g13
S'\x00\x00\x00\x00\x00\x00$@'
p2208
tp2209
Rp2210
sg19
I0
sg20
g21
(S'\x07\xdd\t\x1d\x13\r\x19\t\xa6\x8f'
p2211
tp2212
Rp2213
sg25
I0
sg26
g27
(g28
(I0
tp2214
g30
tp2215
Rp2216
(I1
(I2
tp2217
g36
I00
S'7\x00\x00\x00i\x00\x00\x00'
p2218
tp2219
bsba(i__main__
FrameData
p2220
(dp2221
g6
g2151
sg8
g9
(g13
S'A\x87b\xc62\xde"@'
p2222
tp2223
Rp2224
sg19
I0
sg20
g21
(S'\x07\xdd\t\x1d\x13\r\x19\t\xe7\x8d'
p2225
tp2226
Rp2227
sg25
I0
sg26
g27
(g28
(I0
tp2228
g30
tp2229
Rp2230
(I1
(I2
tp2231
g36
I00
S'6\x00\x00\x00i\x00\x00\x00'
p2232
tp2233
bsba(i__main__
FrameData
p2234
(dp2235
g6
g2151
sg8
g9
(g13
S'\xfc\xeeci3\xd5\x1a@'
p2236
tp2237
Rp2238
sg19
I0
sg20
g21
(S'\x07\xdd\t\x1d\x13\r\x19\n*\xa2'
p2239
tp2240
Rp2241
sg25
I0
sg26
g27
(g28
(I0
tp2242
g30
tp2243
Rp2244
(I1
(I2
tp2245
g36
I00
S'4\x00\x00\x00k\x00\x00\x00'
p2246
tp2247
bsba(i__main__
FrameData
p2248
(dp2249
g6
g2151
sg8
g9
(g13
S'S[\xda:XL\x19@'
p2250
tp2251
Rp2252
sg19
I0
sg20
g21
(S'\x07\xdd\t\x1d\x13\r\x19\np?'
p2253
tp2254
Rp2255
sg25
I0
sg26
g27
(g28
(I0
tp2256
g30
tp2257
Rp2258
(I1
(I2
tp2259
g36
I00
S'3\x00\x00\x00k\x00\x00\x00'
p2260
tp2261
bsba(i__main__
FrameData
p2262
(dp2263
g6
g2151
sg8
g9
(g13
S'9\xdcc\xb3\xbfT\x18@'
p2264
tp2265
Rp2266
sg19
I0
sg20
g21
(S'\x07\xdd\t\x1d\x13\r\x19\n\xaa\xe8'
p2267
tp2268
Rp2269
sg25
I0
sg26
g27
(g28
(I0
tp2270
g30
tp2271
Rp2272
(I1
(I2
tp2273
g36
I00
S'2\x00\x00\x00k\x00\x00\x00'
p2274
tp2275
bsba(i__main__
FrameData
p2276
(dp2277
g6
g2151
sg8
g9
(g13
S'\x07\xed\xaff\x0f~\x10@'
p2278
tp2279
Rp2280
sg19
I0
sg20
g21
(S'\x07\xdd\t\x1d\x13\r\x19\n\xec\xfe'
p2281
tp2282
Rp2283
sg25
I0
sg26
g27
(g28
(I0
tp2284
g30
tp2285
Rp2286
(I1
(I2
tp2287
g36
I00
S'2\x00\x00\x00m\x00\x00\x00'
p2288
tp2289
bsba(i__main__
FrameData
p2290
(dp2291
g6
g2151
sg8
g9
(g13
S'\x00\x00\x00\x00\x00\x00\x10@'
p2292
tp2293
Rp2294
sg19
I0
sg20
g21
(S'\x07\xdd\t\x1d\x13\r\x19\x0b2\xbd'
p2295
tp2296
Rp2297
sg25
I0
sg26
g27
(g28
(I0
tp2298
g30
tp2299
Rp2300
(I1
(I2
tp2301
g36
I00
S'1\x00\x00\x00m\x00\x00\x00'
p2302
tp2303
bsba(i__main__
FrameData
p2304
(dp2305
g6
g2151
sg8
g9
(g13
S'S[\xda:XL\t@'
p2306
tp2307
Rp2308
sg19
I0
sg20
g21
(S'\x07\xdd\t\x1d\x13\r\x19\x0bo8'
p2309
tp2310
Rp2311
sg25
I0
sg26
g27
(g28
(I0
tp2312
g30
tp2313
Rp2314
(I1
(I2
tp2315
g36
I00
S'0\x00\x00\x00n\x00\x00\x00'
p2316
tp2317
bsba(i__main__
FrameData
p2318
(dp2319
g6
g2151
sg8
g9
(g13
S'\xf3YaD+\xd8\x0c@'
p2320
tp2321
Rp2322
sg19
I0
sg20
g21
(S'\x07\xdd\t\x1d\x13\r\x19\x0b\xafy'
p2323
tp2324
Rp2325
sg25
I0
sg26
g27
(g28
(I0
tp2326
g30
tp2327
Rp2328
(I1
(I2
tp2329
g36
I00
S'/\x00\x00\x00n\x00\x00\x00'
p2330
tp2331
bsba(i__main__
FrameData
p2332
(dp2333
g6
g2151
sg8
g9
(g13
S'\xa8\xf4\x97\x9bw\xe3\x01@'
p2334
tp2335
Rp2336
sg19
I0
sg20
g21
(S'\x07\xdd\t\x1d\x13\r\x19\x0b\xf5&'
p2337
tp2338
Rp2339
sg25
I0
sg26
g27
(g28
(I0
tp2340
g30
tp2341
Rp2342
(I1
(I2
tp2343
g36
I00
S'/\x00\x00\x00p\x00\x00\x00'
p2344
tp2345
bsba(i__main__
FrameData
p2346
(dp2347
g6
g2151
sg8
g9
(g13
S'S[\xda:XL\t@'
p2348
tp2349
Rp2350
sg19
I0
sg20
g21
(S'\x07\xdd\t\x1d\x13\r\x19\x0c3n'
p2351
tp2352
Rp2353
sg25
I0
sg26
g27
(g28
(I0
tp2354
g30
tp2355
Rp2356
(I1
(I2
tp2357
g36
I00
S'.\x00\x00\x00p\x00\x00\x00'
p2358
tp2359
bsba(i__main__
FrameData
p2360
(dp2361
g6
g2151
sg8
g9
(g13
S'\x00\x00\x00\x00\x00\x00\x08@'
p2362
tp2363
Rp2364
sg19
I0
sg20
g21
(S'\x07\xdd\t\x1d\x13\r\x19\x0cu\x88'
p2365
tp2366
Rp2367
sg25
I0
sg26
g27
(g28
(I0
tp2368
g30
tp2369
Rp2370
(I1
(I2
tp2371
g36
I00
S'.\x00\x00\x00q\x00\x00\x00'
p2372
tp2373
bsba(i__main__
FrameData
p2374
(dp2375
g6
g2151
sg8
g9
(g13
S'\x00\x00\x00\x00\x00\x00\x00@'
p2376
tp2377
Rp2378
sg19
I0
sg20
g21
(S'\x07\xdd\t\x1d\x13\r\x1a\x01\nD'
p2379
tp2380
Rp2381
sg25
I0
sg26
g27
(g28
(I0
tp2382
g30
tp2383
Rp2384
(I1
(I2
tp2385
g36
I00
S'/\x00\x00\x00q\x00\x00\x00'
p2386
tp2387
bsba(i__main__
FrameData
p2388
(dp2389
g6
g2151
sg8
g9
(g13
S'\x00\x00\x00\x00\x00\x00\xf0?'
p2390
tp2391
Rp2392
sg19
I0
sg20
g21
(S'\x07\xdd\t\x1d\x13\r\x1a\x01J\x17'
p2393
tp2394
Rp2395
sg25
I0
sg26
g27
(g28
(I0
tp2396
g30
tp2397
Rp2398
(I1
(I2
tp2399
g36
I00
S'0\x00\x00\x00q\x00\x00\x00'
p2400
tp2401
bsba(i__main__
FrameData
p2402
(dp2403
g6
g2151
sg8
g9
(g13
S'\x00\x00\x00\x00\x00\x00\x00\x00'
p2404
tp2405
Rp2406
sg19
I0
sg20
g21
(S'\x07\xdd\t\x1d\x13\r\x1a\x01\x86\xff'
p2407
tp2408
Rp2409
sg25
I0
sg26
g27
(g28
(I0
tp2410
g30
tp2411
Rp2412
(I1
(I2
tp2413
g36
I00
S'1\x00\x00\x00q\x00\x00\x00'
p2414
tp2415
bsba(i__main__
FrameData
p2416
(dp2417
g6
g2151
sg8
g9
(g13
S'\x00\x00\x00\x00\x00\x00\xf0?'
p2418
tp2419
Rp2420
sg19
I0
sg20
g21
(S'\x07\xdd\t\x1d\x13\r\x1a\x01\xcc\x9f'
p2421
tp2422
Rp2423
sg25
I0
sg26
g27
(g28
(I0
tp2424
g30
tp2425
Rp2426
(I1
(I2
tp2427
g36
I00
S'2\x00\x00\x00q\x00\x00\x00'
p2428
tp2429
bsba(i__main__
FrameData
p2430
(dp2431
g6
g2151
sg8
g9
(g13
S'\x00\x00\x00\x00\x00\x00\x00@'
p2432
tp2433
Rp2434
sg19
I0
sg20
g21
(S'\x07\xdd\t\x1d\x13\r\x1a\x02\nl'
p2435
tp2436
Rp2437
sg25
I0
sg26
g27
(g28
(I0
tp2438
g30
tp2439
Rp2440
(I1
(I2
tp2441
g36
I00
S'3\x00\x00\x00q\x00\x00\x00'
p2442
tp2443
bsba(i__main__
FrameData
p2444
(dp2445
g6
g2151
sg8
g9
(g13
S'\x00\x00\x00\x00\x00\x00\x10@'
p2446
tp2447
Rp2448
sg19
I0
sg20
g21
(S'\x07\xdd\t\x1d\x13\r\x1a\x02K\xcf'
p2449
tp2450
Rp2451
sg25
I0
sg26
g27
(g28
(I0
tp2452
g30
tp2453
Rp2454
(I1
(I2
tp2455
g36
I00
S'5\x00\x00\x00q\x00\x00\x00'
p2456
tp2457
bsba(i__main__
FrameData
p2458
(dp2459
g6
g2151
sg8
g9
(g13
S'\x00\x00\x00\x00\x00\x00\x14@'
p2460
tp2461
Rp2462
sg19
I0
sg20
g21
(S'\x07\xdd\t\x1d\x13\r\x1a\x02\x8b\\'
p2463
tp2464
Rp2465
sg25
I0
sg26
g27
(g28
(I0
tp2466
g30
tp2467
Rp2468
(I1
(I2
tp2469
g36
I00
S'6\x00\x00\x00q\x00\x00\x00'
p2470
tp2471
bsba(i__main__
FrameData
p2472
(dp2473
g6
g2151
sg8
g9
(g13
S'\x00\x00\x00\x00\x00\x00 @'
p2474
tp2475
Rp2476
sg19
I0
sg20
g21
(S'\x07\xdd\t\x1d\x13\r\x1a\x02\xcd-'
p2477
tp2478
Rp2479
sg25
I0
sg26
g27
(g28
(I0
tp2480
g30
tp2481
Rp2482
(I1
(I2
tp2483
g36
I00
S'9\x00\x00\x00q\x00\x00\x00'
p2484
tp2485
bsba(i__main__
FrameData
p2486
(dp2487
g6
g2151
sg8
g9
(g13
S'9\xdcc\xb3\xbfT(@'
p2488
tp2489
Rp2490
sg19
I0
sg20
g21
(S'\x07\xdd\t\x1d\x13\r\x1a\x03\x0f\x0c'
p2491
tp2492
Rp2493
sg25
I0
sg26
g27
(g28
(I0
tp2494
g30
tp2495
Rp2496
(I1
(I2
tp2497
g36
I00
S'=\x00\x00\x00o\x00\x00\x00'
p2498
tp2499
bsba(i__main__
FrameData
p2500
(dp2501
g6
g2038
sg8
g9
(g13
S'7\xf9\xcf\xdao\xe1$@'
p2502
tp2503
Rp2504
sg19
I0
sg20
g21
(S'\x07\xdd\t\x1d\x13\r\x1a\x03T\xf1'
p2505
tp2506
Rp2507
sg25
I0
sg26
g27
(g28
(I0
tp2508
g30
tp2509
Rp2510
(I1
(I2
tp2511
g36
I00
S'?\x00\x00\x00n\x00\x00\x00'
p2512
tp2513
bsba(i__main__
FrameData
p2514
(dp2515
g6
g2038
sg8
g9
(g13
S'A\x87b\xc62\xde"@'
p2516
tp2517
Rp2518
sg19
I0
sg20
g21
(S'\x07\xdd\t\x1d\x13\r\x1a\x03\x91\x13'
p2519
tp2520
Rp2521
sg25
I0
sg26
g27
(g28
(I0
tp2522
g30
tp2523
Rp2524
(I1
(I2
tp2525
g36
I00
S'A\x00\x00\x00l\x00\x00\x00'
p2526
tp2527
bsba(i__main__
FrameData
p2528
(dp2529
g6
g2038
sg8
g9
(g13
S'htN\x17\xb2=\x1f@'
p2530
tp2531
Rp2532
sg19
I0
sg20
g21
(S'\x07\xdd\t\x1d\x13\r\x1a\x03\xd1\x82'
p2533
tp2534
Rp2535
sg25
I0
sg26
g27
(g28
(I0
tp2536
g30
tp2537
Rp2538
(I1
(I2
tp2539
g36
I00
S'C\x00\x00\x00l\x00\x00\x00'
p2540
tp2541
bsba(i__main__
FrameData
p2542
(dp2543
g6
g2038
sg8
g9
(g13
S'\xe9\xfbv \xd5\x1e\x1d@'
p2544
tp2545
Rp2546
sg19
I0
sg20
g21
(S'\x07\xdd\t\x1d\x13\r\x1a\x04\x19\x15'
p2547
tp2548
Rp2549
sg25
I0
sg26
g27
(g28
(I0
tp2550
g30
tp2551
Rp2552
(I1
(I2
tp2553
g36
I00
S'G\x00\x00\x00j\x00\x00\x00'
p2554
tp2555
bsba(i__main__
FrameData
p2556
(dp2557
g6
g2038
sg8
g9
(g13
S'\x00\x00\x00\x00\x00\x00 @'
p2558
tp2559
Rp2560
sg19
I0
sg20
g21
(S'\x07\xdd\t\x1d\x13\r\x1a\x04W\x9f'
p2561
tp2562
Rp2563
sg25
I0
sg26
g27
(g28
(I0
tp2564
g30
tp2565
Rp2566
(I1
(I2
tp2567
g36
I00
S'I\x00\x00\x00i\x00\x00\x00'
p2568
tp2569
bsba(i__main__
FrameData
p2570
(dp2571
g6
g2038
sg8
g9
(g13
S'\xf6/\x12_ee$@'
p2572
tp2573
Rp2574
sg19
I0
sg20
g21
(S'\x07\xdd\t\x1d\x13\r\x1a\x04\x98\x13'
p2575
tp2576
Rp2577
sg25
I0
sg26
g27
(g28
(I0
tp2578
g30
tp2579
Rp2580
(I1
(I2
tp2581
g36
I00
S'K\x00\x00\x00g\x00\x00\x00'
p2582
tp2583
bsba(i__main__
FrameData
p2584
(dp2585
g6
g2038
sg8
g9
(g13
S'\xf3\xd9\xa8\xa4h\x8a%@'
p2586
tp2587
Rp2588
sg19
I0
sg20
g21
(S'\x07\xdd\t\x1d\x13\r\x1a\x04\xd7\x87'
p2589
tp2590
Rp2591
sg25
I0
sg26
g27
(g28
(I0
tp2592
g30
tp2593
Rp2594
(I1
(I2
tp2595
g36
I00
S'M\x00\x00\x00g\x00\x00\x00'
p2596
tp2597
bsba(i__main__
FrameData
p2598
(dp2599
g6
g2038
sg8
g9
(g13
S'\xe4\x10\xe4sW\x0f)@'
p2600
tp2601
Rp2602
sg19
I0
sg20
g21
(S'\x07\xdd\t\x1d\x13\r\x1a\x05\x17f'
p2603
tp2604
Rp2605
sg25
I0
sg26
g27
(g28
(I0
tp2606
g30
tp2607
Rp2608
(I1
(I2
tp2609
g36
I00
S'O\x00\x00\x00f\x00\x00\x00'
p2610
tp2611
bsba(i__main__
FrameData
p2612
(dp2613
g6
g2038
sg8
g9
(g13
S'\xf3YaD+\xd8,@'
p2614
tp2615
Rp2616
sg19
I0
sg20
g21
(S'\x07\xdd\t\x1d\x13\r\x1a\x05Z\x0b'
p2617
tp2618
Rp2619
sg25
I0
sg26
g27
(g28
(I0
tp2620
g30
tp2621
Rp2622
(I1
(I2
tp2623
g36
I00
S'Q\x00\x00\x00e\x00\x00\x00'
p2624
tp2625
bsba(i__main__
FrameData
p2626
(dp2627
g6
g2038
sg8
g9
(g13
S"'\xf2\x90In\x9f/@"
p2628
tp2629
Rp2630
sg19
I0
sg20
g21
(S'\x07\xdd\t\x1d\x13\r\x1a\x05\xa10'
p2631
tp2632
Rp2633
sg25
I0
sg26
g27
(g28
(I0
tp2634
g30
tp2635
Rp2636
(I1
(I2
tp2637
g36
I00
S'R\x00\x00\x00d\x00\x00\x00'
p2638
tp2639
bsba(i__main__
FrameData
p2640
(dp2641
g6
g2038
sg8
g9
(g13
S')\x9ah\xdd\x85\x071@'
p2642
tp2643
Rp2644
sg19
I0
sg20
g21
(S'\x07\xdd\t\x1d\x13\r\x1a\x05\xdeh'
p2645
tp2646
Rp2647
sg25
I0
sg26
g27
(g28
(I0
tp2648
g30
tp2649
Rp2650
(I1
(I2
tp2651
g36
I00
S'T\x00\x00\x00d\x00\x00\x00'
p2652
tp2653
bsba(i__main__
FrameData
p2654
(dp2655
g6
g2038
sg8
g9
(g13
S'l\xd0\xe82\x1a\xb11@'
p2656
tp2657
Rp2658
sg19
I0
sg20
g21
(S'\x07\xdd\t\x1d\x13\r\x1a\x06\x1d\xf5'
p2659
tp2660
Rp2661
sg25
I0
sg26
g27
(g28
(I0
tp2662
g30
tp2663
Rp2664
(I1
(I2
tp2665
g36
I00
S'U\x00\x00\x00d\x00\x00\x00'
p2666
tp2667
bsba(i__main__
FrameData
p2668
(dp2669
g6
g703
sg8
g9
(g13
S'8\xd8\xbc\n\x1b\x072@'
p2670
tp2671
Rp2672
sg19
I0
sg20
g21
(S'\x07\xdd\t\x1d\x13\r\x1a\x06^\x90'
p2673
tp2674
Rp2675
sg25
I0
sg26
g27
(g28
(I0
tp2676
g30
tp2677
Rp2678
(I1
(I2
tp2679
g36
I00
S'V\x00\x00\x00c\x00\x00\x00'
p2680
tp2681
bsba(i__main__
FrameData
p2682
(dp2683
g6
g703
sg8
g9
(g13
S'\xb9\xbaF\xca+~1@'
p2684
tp2685
Rp2686
sg19
I0
sg20
g21
(S'\x07\xdd\t\x1d\x13\r\x1a\x06\xa5\\'
p2687
tp2688
Rp2689
sg25
I0
sg26
g27
(g28
(I0
tp2690
g30
tp2691
Rp2692
(I1
(I2
tp2693
g36
I00
S'W\x00\x00\x00c\x00\x00\x00'
p2694
tp2695
bsba(i__main__
FrameData
p2696
(dp2697
g6
g703
sg8
g9
(g13
S'\xa8\xf4\x97\x9bw\xe31@'
p2698
tp2699
Rp2700
sg19
I0
sg20
g21
(S'\x07\xdd\t\x1d\x13\r\x1a\x06\xe6<'
p2701
tp2702
Rp2703
sg25
I0
sg26
g27
(g28
(I0
tp2704
g30
tp2705
Rp2706
(I1
(I2
tp2707
g36
I00
S'X\x00\x00\x00b\x00\x00\x00'
p2708
tp2709
bsba(i__main__
FrameData
p2710
(dp2711
g6
g703
sg8
g9
(g13
S'8\xd8\xbc\n\x1b\x072@'
p2712
tp2713
Rp2714
sg19
I0
sg20
g21
(S'\x07\xdd\t\x1d\x13\r\x1a\x07$\xa6'
p2715
tp2716
Rp2717
sg25
I0
sg26
g27
(g28
(I0
tp2718
g30
tp2719
Rp2720
(I1
(I2
tp2721
g36
I00
S'Z\x00\x00\x00a\x00\x00\x00'
p2722
tp2723
bsba(i__main__
FrameData
p2724
(dp2725
g6
g703
sg8
g9
(g13
S'\xa0\x96\xf4\xe0T\xb81@'
p2726
tp2727
Rp2728
sg19
I0
sg20
g21
(S'\x07\xdd\t\x1d\x13\r\x1a\x07b\xec'
p2729
tp2730
Rp2731
sg25
I0
sg26
g27
(g28
(I0
tp2732
g30
tp2733
Rp2734
(I1
(I2
tp2735
g36
I00
S'[\x00\x00\x00a\x00\x00\x00'
p2736
tp2737
bsba(i__main__
FrameData
p2738
(dp2739
g6
g703
sg8
g9
(g13
S'/vo\xf2\x9ej3@'
p2740
tp2741
Rp2742
sg19
I0
sg20
g21
(S'\x07\xdd\t\x1d\x13\r\x1a\x07\xa57'
p2743
tp2744
Rp2745
sg25
I0
sg26
g27
(g28
(I0
tp2746
g30
tp2747
Rp2748
(I1
(I2
tp2749
g36
I00
S'\\\x00\x00\x00_\x00\x00\x00'
p2750
tp2751
bsba(i__main__
FrameData
p2752
(dp2753
g6
g703
sg8
g9
(g13
S'^\x9e\x9f\x85\xdf\x1a3@'
p2754
tp2755
Rp2756
sg19
I0
sg20
g21
(S'\x07\xdd\t\x1d\x13\r\x1a\x07\xeb\xc2'
p2757
tp2758
Rp2759
sg25
I0
sg26
g27
(g28
(I0
tp2760
g30
tp2761
Rp2762
(I1
(I2
tp2763
g36
I00
S'^\x00\x00\x00_\x00\x00\x00'
p2764
tp2765
bsba(i__main__
FrameData
p2766
(dp2767
g6
g703
sg8
g9
(g13
S'\x8fJ\x95`e\x064@'
p2768
tp2769
Rp2770
sg19
I0
sg20
g21
(S'\x07\xdd\t\x1d\x13\r\x1a\x08(\xef'
p2771
tp2772
Rp2773
sg25
I0
sg26
g27
(g28
(I0
tp2774
g30
tp2775
Rp2776
(I1
(I2
tp2777
g36
I00
S'_\x00\x00\x00^\x00\x00\x00'
p2778
tp2779
bsba(i__main__
FrameData
p2780
(dp2781
g6
g703
sg8
g9
(g13
S'\x00\x00\x00\x00\x00\x004@'
p2782
tp2783
Rp2784
sg19
I0
sg20
g21
(S'\x07\xdd\t\x1d\x13\r\x1a\x08h\xe2'
p2785
tp2786
Rp2787
sg25
I0
sg26
g27
(g28
(I0
tp2788
g30
tp2789
Rp2790
(I1
(I2
tp2791
g36
I00
S'`\x00\x00\x00^\x00\x00\x00'
p2792
tp2793
bsba(i__main__
FrameData
p2794
(dp2795
g6
g604
sg8
g9
(g13
S'5 \x89\xa6\xcd\xc92@'
p2796
tp2797
Rp2798
sg19
I0
sg20
g21
(S'\x07\xdd\t\x1d\x13\r\x1a\x08\xac\xa6'
p2799
tp2800
Rp2801
sg25
I0
sg26
g27
(g28
(I0
tp2802
g30
tp2803
Rp2804
(I1
(I2
tp2805
g36
I00
S'b\x00\x00\x00\\\x00\x00\x00'
p2806
tp2807
bsba(i__main__
FrameData
p2808
(dp2809
g6
g604
sg8
g9
(g13
S'\x96`G\xb3\x80b2@'
p2810
tp2811
Rp2812
sg19
I0
sg20
g21
(S'\x07\xdd\t\x1d\x13\r\x1a\x08\xec\x8e'
p2813
tp2814
Rp2815
sg25
I0
sg26
g27
(g28
(I0
tp2816
g30
tp2817
Rp2818
(I1
(I2
tp2819
g36
I00
S'c\x00\x00\x00\\\x00\x00\x00'
p2820
tp2821
bsba(i__main__
FrameData
p2822
(dp2823
g6
g604
sg8
g9
(g13
S'\xa3\x14\xae\xa8\x87\x161@'
p2824
tp2825
Rp2826
sg19
I0
sg20
g21
(S'\x07\xdd\t\x1d\x13\r\x1a\t-h'
p2827
tp2828
Rp2829
sg25
I0
sg26
g27
(g28
(I0
tp2830
g30
tp2831
Rp2832
(I1
(I2
tp2833
g36
I00
S'd\x00\x00\x00[\x00\x00\x00'
p2834
tp2835
bsba(i__main__
FrameData
p2836
(dp2837
g6
g604
sg8
g9
(g13
S"'\xf2\x90In\x9f/@"
p2838
tp2839
Rp2840
sg19
I0
sg20
g21
(S'\x07\xdd\t\x1d\x13\r\x1a\toS'
p2841
tp2842
Rp2843
sg25
I0
sg26
g27
(g28
(I0
tp2844
g30
tp2845
Rp2846
(I1
(I2
tp2847
g36
I00
S'e\x00\x00\x00Z\x00\x00\x00'
p2848
tp2849
bsba(i__main__
FrameData
p2850
(dp2851
g6
g604
sg8
g9
(g13
S'\xe9\xfbv \xd5\x1e-@'
p2852
tp2853
Rp2854
sg19
I0
sg20
g21
(S'\x07\xdd\t\x1d\x13\r\x1a\t\xae\xd3'
p2855
tp2856
Rp2857
sg25
I0
sg26
g27
(g28
(I0
tp2858
g30
tp2859
Rp2860
(I1
(I2
tp2861
g36
I00
S'f\x00\x00\x00Y\x00\x00\x00'
p2862
tp2863
bsba(i__main__
FrameData
p2864
(dp2865
g6
g604
sg8
g9
(g13
S'\xf7\x80Aq\xb9\xa2,@'
p2866
tp2867
Rp2868
sg19
I0
sg20
g21
(S'\x07\xdd\t\x1d\x13\r\x1a\t\xf3R'
p2869
tp2870
Rp2871
sg25
I0
sg26
g27
(g28
(I0
tp2872
g30
tp2873
Rp2874
(I1
(I2
tp2875
g36
I00
S'g\x00\x00\x00Y\x00\x00\x00'
p2876
tp2877
bsba(i__main__
FrameData
p2878
(dp2879
g6
g604
sg8
g9
(g13
S'9\xdcc\xb3\xbfT(@'
p2880
tp2881
Rp2882
sg19
I0
sg20
g21
(S'\x07\xdd\t\x1d\x13\r\x1a\n1\xe0'
p2883
tp2884
Rp2885
sg25
I0
sg26
g27
(g28
(I0
tp2886
g30
tp2887
Rp2888
(I1
(I2
tp2889
g36
I00
S'h\x00\x00\x00W\x00\x00\x00'
p2890
tp2891
bsba(i__main__
FrameData
p2892
(dp2893
g6
g604
sg8
g9
(g13
S'H\xaa*\x8f9\x17&@'
p2894
tp2895
Rp2896
sg19
I0
sg20
g21
(S'\x07\xdd\t\x1d\x13\r\x1a\nrN'
p2897
tp2898
Rp2899
sg25
I0
sg26
g27
(g28
(I0
tp2900
g30
tp2901
Rp2902
(I1
(I2
tp2903
g36
I00
S'i\x00\x00\x00V\x00\x00\x00'
p2904
tp2905
bsba(i__main__
FrameData
p2906
(dp2907
g6
g604
sg8
g9
(g13
S'\x00\x00\x00\x00\x00\x00"@'
p2908
tp2909
Rp2910
sg19
I0
sg20
g21
(S'\x07\xdd\t\x1d\x13\r\x1a\n\xb5\xf8'
p2911
tp2912
Rp2913
sg25
I0
sg26
g27
(g28
(I0
tp2914
g30
tp2915
Rp2916
(I1
(I2
tp2917
g36
I00
S'j\x00\x00\x00T\x00\x00\x00'
p2918
tp2919
bsba(i__main__
FrameData
p2920
(dp2921
g6
g604
sg8
g9
(g13
S'\xc0\n\x1f\x00\xc6H\x1c@'
p2922
tp2923
Rp2924
sg19
I0
sg20
g21
(S'\x07\xdd\t\x1d\x13\r\x1a\n\xf4\x00'
p2925
tp2926
Rp2927
sg25
I0
sg26
g27
(g28
(I0
tp2928
g30
tp2929
Rp2930
(I1
(I2
tp2931
g36
I00
S'k\x00\x00\x00R\x00\x00\x00'
p2932
tp2933
bsba(i__main__
FrameData
p2934
(dp2935
g6
g604
sg8
g9
(g13
S'S[\xda:XL\x19@'
p2936
tp2937
Rp2938
sg19
I0
sg20
g21
(S'\x07\xdd\t\x1d\x13\r\x1a\x0b7\xae'
p2939
tp2940
Rp2941
sg25
I0
sg26
g27
(g28
(I0
tp2942
g30
tp2943
Rp2944
(I1
(I2
tp2945
g36
I00
S'l\x00\x00\x00Q\x00\x00\x00'
p2946
tp2947
bsba(i__main__
FrameData
p2948
(dp2949
g6
g604
sg8
g9
(g13
S'\x00\x00\x00\x00\x00\x00\x14@'
p2950
tp2951
Rp2952
sg19
I0
sg20
g21
(S'\x07\xdd\t\x1d\x13\r\x1a\x0bv\xc2'
p2953
tp2954
Rp2955
sg25
I0
sg26
g27
(g28
(I0
tp2956
g30
tp2957
Rp2958
(I1
(I2
tp2959
g36
I00
S'm\x00\x00\x00O\x00\x00\x00'
p2960
tp2961
bsba(i__main__
FrameData
p2962
(dp2963
g6
g604
sg8
g9
(g13
S'\x00\x00\x00\x00\x00\x00\x14@'
p2964
tp2965
Rp2966
sg19
I0
sg20
g21
(S'\x07\xdd\t\x1d\x13\r\x1a\x0b\xba+'
p2967
tp2968
Rp2969
sg25
I0
sg26
g27
(g28
(I0
tp2970
g30
tp2971
Rp2972
(I1
(I2
tp2973
g36
I00
S'n\x00\x00\x00N\x00\x00\x00'
p2974
tp2975
bsba(i__main__
FrameData
p2976
(dp2977
g6
g604
sg8
g9
(g13
S'\xf6/\x12_ee\x14@'
p2978
tp2979
Rp2980
sg19
I0
sg20
g21
(S'\x07\xdd\t\x1d\x13\r\x1a\x0c\x00\xce'
p2981
tp2982
Rp2983
sg25
I0
sg26
g27
(g28
(I0
tp2984
g30
tp2985
Rp2986
(I1
(I2
tp2987
g36
I00
S'o\x00\x00\x00L\x00\x00\x00'
p2988
tp2989
bsba(i__main__
FrameData
p2990
(dp2991
g6
g604
sg8
g9
(g13
S'\x00\x00\x00\x00\x00\x00\x14@'
p2992
tp2993
Rp2994
sg19
I0
sg20
g21
(S'\x07\xdd\t\x1d\x13\r\x1a\x0c>W'
p2995
tp2996
Rp2997
sg25
I0
sg26
g27
(g28
(I0
tp2998
g30
tp2999
Rp3000
(I1
(I2
tp3001
g36
I00
S'o\x00\x00\x00K\x00\x00\x00'
p3002
tp3003
bsba(i__main__
FrameData
p3004
(dp3005
g6
g604
sg8
g9
(g13
S'\xf6/\x12_ee\x14@'
p3006
tp3007
Rp3008
sg19
I0
sg20
g21
(S'\x07\xdd\t\x1d\x13\r\x1a\x0c|\x89'
p3009
tp3010
Rp3011
sg25
I0
sg26
g27
(g28
(I0
tp3012
g30
tp3013
Rp3014
(I1
(I2
tp3015
g36
I00
S'o\x00\x00\x00J\x00\x00\x00'
p3016
tp3017
bsba(i__main__
FrameData
p3018
(dp3019
g6
g604
sg8
g9
(g13
S'\xf3\xd9\xa8\xa4h\x8a\x15@'
p3020
tp3021
Rp3022
sg19
I0
sg20
g21
(S'\x07\xdd\t\x1d\x13\r\x1a\r\x00\x8e'
p3023
tp3024
Rp3025
sg25
I0
sg26
g27
(g28
(I0
tp3026
g30
tp3027
Rp3028
(I1
(I2
tp3029
g36
I00
S'o\x00\x00\x00I\x00\x00\x00'
p3030
tp3031
bsba(i__main__
FrameData
p3032
(dp3033
g6
g604
sg8
g9
(g13
S'\xfc\xeeci3\xd5\x1a@'
p3034
tp3035
Rp3036
sg19
I0
sg20
g21
(S'\x07\xdd\t\x1d\x13\r\x1a\rG['
p3037
tp3038
Rp3039
sg25
I0
sg26
g27
(g28
(I0
tp3040
g30
tp3041
Rp3042
(I1
(I2
tp3043
g36
I00
S'p\x00\x00\x00H\x00\x00\x00'
p3044
tp3045
bsba(i__main__
FrameData
p3046
(dp3047
g6
g604
sg8
g9
(g13
S'\xf3YaD+\xd8\x1c@'
p3048
tp3049
Rp3050
sg19
I0
sg20
g21
(S'\x07\xdd\t\x1d\x13\r\x1a\r\xc4!'
p3051
tp3052
Rp3053
sg25
I0
sg26
g27
(g28
(I0
tp3054
g30
tp3055
Rp3056
(I1
(I2
tp3057
g36
I00
S'p\x00\x00\x00G\x00\x00\x00'
p3058
tp3059
bsba(i__main__
FrameData
p3060
(dp3061
g6
g604
sg8
g9
(g13
S'N\x017\xfac4!@'
p3062
tp3063
Rp3064
sg19
I0
sg20
g21
(S'\x07\xdd\t\x1d\x13\r\x1a\x0eG!'
p3065
tp3066
Rp3067
sg25
I0
sg26
g27
(g28
(I0
tp3068
g30
tp3069
Rp3070
(I1
(I2
tp3071
g36
I00
S'q\x00\x00\x00F\x00\x00\x00'
p3072
tp3073
bsba(i__main__
FrameData
p3074
(dp3075
g6
g604
sg8
g9
(g13
S'\xd0\xbaa?\xe0\x1f @'
p3076
tp3077
Rp3078
sg19
I0
sg20
g21
(S'\x07\xdd\t\x1d\x13\r\x1b\x00\xcb\x8a'
p3079
tp3080
Rp3081
sg25
I0
sg26
g27
(g28
(I0
tp3082
g30
tp3083
Rp3084
(I1
(I2
tp3085
g36
I00
S'q\x00\x00\x00G\x00\x00\x00'
p3086
tp3087
bsba(i__main__
FrameData
p3088
(dp3089
g6
g604
sg8
g9
(g13
S'p\xc4\x9d9\x8dv\x1e@'
p3090
tp3091
Rp3092
sg19
I0
sg20
g21
(S'\x07\xdd\t\x1d\x13\r\x1b\x01\x0c\x8d'
p3093
tp3094
Rp3095
sg25
I0
sg26
g27
(g28
(I0
tp3096
g30
tp3097
Rp3098
(I1
(I2
tp3099
g36
I00
S'q\x00\x00\x00H\x00\x00\x00'
p3100
tp3101
bsba(i__main__
FrameData
p3102
(dp3103
g6
g604
sg8
g9
(g13
S'\xe9\xfbv \xd5\x1e\x1d@'
p3104
tp3105
Rp3106
sg19
I0
sg20
g21
(S'\x07\xdd\t\x1d\x13\r\x1b\x01O6'
p3107
tp3108
Rp3109
sg25
I0
sg26
g27
(g28
(I0
tp3110
g30
tp3111
Rp3112
(I1
(I2
tp3113
g36
I00
S'q\x00\x00\x00I\x00\x00\x00'
p3114
tp3115
bsba(i__main__
FrameData
p3116
(dp3117
g6
g604
sg8
g9
(g13
S'\x00\x00\x00\x00\x00\x00\x14@'
p3118
tp3119
Rp3120
sg19
I0
sg20
g21
(S'\x07\xdd\t\x1d\x13\r\x1b\x01\x91\xbf'
p3121
tp3122
Rp3123
sg25
I0
sg26
g27
(g28
(I0
tp3124
g30
tp3125
Rp3126
(I1
(I2
tp3127
g36
I00
S'o\x00\x00\x00K\x00\x00\x00'
p3128
tp3129
bsba(i__main__
FrameData
p3130
(dp3131
g6
g604
sg8
g9
(g13
S'\xf6/\x12_ee\x14@'
p3132
tp3133
Rp3134
sg19
I0
sg20
g21
(S'\x07\xdd\t\x1d\x13\r\x1b\x01\xd1\xe4'
p3135
tp3136
Rp3137
sg25
I0
sg26
g27
(g28
(I0
tp3138
g30
tp3139
Rp3140
(I1
(I2
tp3141
g36
I00
S'o\x00\x00\x00L\x00\x00\x00'
p3142
tp3143
bsba(i__main__
FrameData
p3144
(dp3145
g6
g604
sg8
g9
(g13
S'\xa8\xf4\x97\x9bw\xe3\x11@'
p3146
tp3147
Rp3148
sg19
I0
sg20
g21
(S'\x07\xdd\t\x1d\x13\r\x1b\x02\x16\xa8'
p3149
tp3150
Rp3151
sg25
I0
sg26
g27
(g28
(I0
tp3152
g30
tp3153
Rp3154
(I1
(I2
tp3155
g36
I00
S'n\x00\x00\x00M\x00\x00\x00'
p3156
tp3157
bsba(i__main__
FrameData
p3158
(dp3159
g6
g604
sg8
g9
(g13
S'\xf3YaD+\xd8\x0c@'
p3160
tp3161
Rp3162
sg19
I0
sg20
g21
(S'\x07\xdd\t\x1d\x13\r\x1b\x02T\n'
p3163
tp3164
Rp3165
sg25
I0
sg26
g27
(g28
(I0
tp3166
g30
tp3167
Rp3168
(I1
(I2
tp3169
g36
I00
S'm\x00\x00\x00M\x00\x00\x00'
p3170
tp3171
bsba(i__main__
FrameData
p3172
(dp3173
g6
g604
sg8
g9
(g13
S'\xa8\xf4\x97\x9bw\xe3\x01@'
p3174
tp3175
Rp3176
sg19
I0
sg20
g21
(S'\x07\xdd\t\x1d\x13\r\x1b\x02\x984'
p3177
tp3178
Rp3179
sg25
I0
sg26
g27
(g28
(I0
tp3180
g30
tp3181
Rp3182
(I1
(I2
tp3183
g36
I00
S'k\x00\x00\x00M\x00\x00\x00'
p3184
tp3185
bsba(i__main__
FrameData
p3186
(dp3187
g6
g604
sg8
g9
(g13
S'\x00\x00\x00\x00\x00\x00\x08@'
p3188
tp3189
Rp3190
sg19
I0
sg20
g21
(S'\x07\xdd\t\x1d\x13\r\x1b\x02\xd9\x03'
p3191
tp3192
Rp3193
sg25
I0
sg26
g27
(g28
(I0
tp3194
g30
tp3195
Rp3196
(I1
(I2
tp3197
g36
I00
S'j\x00\x00\x00N\x00\x00\x00'
p3198
tp3199
bsba(i__main__
FrameData
p3200
(dp3201
g6
g604
sg8
g9
(g13
S'S[\xda:XL\t@'
p3202
tp3203
Rp3204
sg19
I0
sg20
g21
(S'\x07\xdd\t\x1d\x13\r\x1b\x03\x1a\x04'
p3205
tp3206
Rp3207
sg25
I0
sg26
g27
(g28
(I0
tp3208
g30
tp3209
Rp3210
(I1
(I2
tp3211
g36
I00
S'i\x00\x00\x00N\x00\x00\x00'
p3212
tp3213
bsba(i__main__
FrameData
p3214
(dp3215
g6
g604
sg8
g9
(g13
S'\xf3YaD+\xd8\x0c@'
p3216
tp3217
Rp3218
sg19
I0
sg20
g21
(S'\x07\xdd\t\x1d\x13\r\x1b\x03[\x86'
p3219
tp3220
Rp3221
sg25
I0
sg26
g27
(g28
(I0
tp3222
g30
tp3223
Rp3224
(I1
(I2
tp3225
g36
I00
S'h\x00\x00\x00N\x00\x00\x00'
p3226
tp3227
bsba(i__main__
FrameData
p3228
(dp3229
g6
g604
sg8
g9
(g13
S'\xd9l\xdf\xccv\xf8\x10@'
p3230
tp3231
Rp3232
sg19
I0
sg20
g21
(S'\x07\xdd\t\x1d\x13\r\x1b\x03\x9b['
p3233
tp3234
Rp3235
sg25
I0
sg26
g27
(g28
(I0
tp3236
g30
tp3237
Rp3238
(I1
(I2
tp3239
g36
I00
S'g\x00\x00\x00N\x00\x00\x00'
p3240
tp3241
bsba(i__main__
FrameData
p3242
(dp3243
g6
g604
sg8
g9
(g13
S'\x00\x00\x00\x00\x00\x00\x14@'
p3244
tp3245
Rp3246
sg19
I0
sg20
g21
(S'\x07\xdd\t\x1d\x13\r\x1b\x03\xdc\x7f'
p3247
tp3248
Rp3249
sg25
I0
sg26
g27
(g28
(I0
tp3250
g30
tp3251
Rp3252
(I1
(I2
tp3253
g36
I00
S'f\x00\x00\x00N\x00\x00\x00'
p3254
tp3255
bsba(i__main__
FrameData
p3256
(dp3257
g6
g604
sg8
g9
(g13
S'\xfc\xeeci3\xd5\x1a@'
p3258
tp3259
Rp3260
sg19
I0
sg20
g21
(S'\x07\xdd\t\x1d\x13\r\x1b\x04\x1b\x10'
p3261
tp3262
Rp3263
sg25
I0
sg26
g27
(g28
(I0
tp3264
g30
tp3265
Rp3266
(I1
(I2
tp3267
g36
I00
S'd\x00\x00\x00N\x00\x00\x00'
p3268
tp3269
bsba(i__main__
FrameData
p3270
(dp3271
g6
g604
sg8
g9
(g13
S'\xa3\x14\xae\xa8\x87\x16!@'
p3272
tp3273
Rp3274
sg19
I0
sg20
g21
(S'\x07\xdd\t\x1d\x13\r\x1b\x04\\\xd0'
p3275
tp3276
Rp3277
sg25
I0
sg26
g27
(g28
(I0
tp3278
g30
tp3279
Rp3280
(I1
(I2
tp3281
g36
I00
S'b\x00\x00\x00N\x00\x00\x00'
p3282
tp3283
bsba(i__main__
FrameData
p3284
(dp3285
g6
g604
sg8
g9
(g13
S'7\xf9\xcf\xdao\xe1$@'
p3286
tp3287
Rp3288
sg19
I0
sg20
g21
(S'\x07\xdd\t\x1d\x13\r\x1b\x04\x9f\xfd'
p3289
tp3290
Rp3291
sg25
I0
sg26
g27
(g28
(I0
tp3292
g30
tp3293
Rp3294
(I1
(I2
tp3295
g36
I00
S'`\x00\x00\x00N\x00\x00\x00'
p3296
tp3297
bsba(i__main__
FrameData
p3298
(dp3299
g6
g7
sg8
g9
(g13
S'\x8a\xe3\x07\x1a\x17\xbd(@'
p3300
tp3301
Rp3302
sg19
I0
sg20
g21
(S'\x07\xdd\t\x1d\x13\r\x1b\x04\xe1\x01'
p3303
tp3304
Rp3305
sg25
I0
sg26
g27
(g28
(I0
tp3306
g30
tp3307
Rp3308
(I1
(I2
tp3309
g36
I00
S'^\x00\x00\x00N\x00\x00\x00'
p3310
tp3311
bsba(i__main__
FrameData
p3312
(dp3313
g6
g7
sg8
g9
(g13
S'7\xf9\xcf\xdao\xe1$@'
p3314
tp3315
Rp3316
sg19
I0
sg20
g21
(S'\x07\xdd\t\x1d\x13\r\x1b\x05\x1f\xf2'
p3317
tp3318
Rp3319
sg25
I0
sg26
g27
(g28
(I0
tp3320
g30
tp3321
Rp3322
(I1
(I2
tp3323
g36
I00
S'\\\x00\x00\x00N\x00\x00\x00'
p3324
tp3325
bsba(i__main__
FrameData
p3326
(dp3327
g6
g7
sg8
g9
(g13
S'~\xc4#,B\xf9"@'
p3328
tp3329
Rp3330
sg19
I0
sg20
g21
(S'\x07\xdd\t\x1d\x13\r\x1b\x05a\xe5'
p3331
tp3332
Rp3333
sg25
I0
sg26
g27
(g28
(I0
tp3334
g30
tp3335
Rp3336
(I1
(I2
tp3337
g36
I00
S'[\x00\x00\x00N\x00\x00\x00'
p3338
tp3339
bsba(i__main__
FrameData
p3340
(dp3341
g6
g7
sg8
g9
(g13
S'\xa2\xa3\xb3\r\xe5R\x17@'
p3342
tp3343
Rp3344
sg19
I0
sg20
g21
(S'\x07\xdd\t\x1d\x13\r\x1b\x05\xa7!'
p3345
tp3346
Rp3347
sg25
I0
sg26
g27
(g28
(I0
tp3348
g30
tp3349
Rp3350
(I1
(I2
tp3351
g36
I00
S'W\x00\x00\x00N\x00\x00\x00'
p3352
tp3353
bsba(i__main__
FrameData
p3354
(dp3355
g6
g7
sg8
g9
(g13
S'\x00\x00\x00\x00\x00\x00\x14@'
p3356
tp3357
Rp3358
sg19
I0
sg20
g21
(S'\x07\xdd\t\x1d\x13\r\x1b\x05\xe6\xec'
p3359
tp3360
Rp3361
sg25
I0
sg26
g27
(g28
(I0
tp3362
g30
tp3363
Rp3364
(I1
(I2
tp3365
g36
I00
S'V\x00\x00\x00N\x00\x00\x00'
p3366
tp3367
bsba(i__main__
FrameData
p3368
(dp3369
g6
g7
sg8
g9
(g13
S'\xf3YaD+\xd8\x0c@'
p3370
tp3371
Rp3372
sg19
I0
sg20
g21
(S'\x07\xdd\t\x1d\x13\r\x1b\x06+/'
p3373
tp3374
Rp3375
sg25
I0
sg26
g27
(g28
(I0
tp3376
g30
tp3377
Rp3378
(I1
(I2
tp3379
g36
I00
S'T\x00\x00\x00N\x00\x00\x00'
p3380
tp3381
bsba(i__main__
FrameData
p3382
(dp3383
g6
g7
sg8
g9
(g13
S'\x00\x00\x00\x00\x00\x00\x08@'
p3384
tp3385
Rp3386
sg19
I0
sg20
g21
(S'\x07\xdd\t\x1d\x13\r\x1b\x06if'
p3387
tp3388
Rp3389
sg25
I0
sg26
g27
(g28
(I0
tp3390
g30
tp3391
Rp3392
(I1
(I2
tp3393
g36
I00
S'R\x00\x00\x00N\x00\x00\x00'
p3394
tp3395
bsba(i__main__
FrameData
p3396
(dp3397
g6
g7
sg8
g9
(g13
S'S[\xda:XL\t@'
p3398
tp3399
Rp3400
sg19
I0
sg20
g21
(S'\x07\xdd\t\x1d\x13\r\x1b\x06\xa7\xfb'
p3401
tp3402
Rp3403
sg25
I0
sg26
g27
(g28
(I0
tp3404
g30
tp3405
Rp3406
(I1
(I2
tp3407
g36
I00
S'Q\x00\x00\x00N\x00\x00\x00'
p3408
tp3409
bsba(i__main__
FrameData
p3410
(dp3411
g6
g7
sg8
g9
(g13
S'\xf3YaD+\xd8\x0c@'
p3412
tp3413
Rp3414
sg19
I0
sg20
g21
(S'\x07\xdd\t\x1d\x13\r\x1b\x06\xe9\xb3'
p3415
tp3416
Rp3417
sg25
I0
sg26
g27
(g28
(I0
tp3418
g30
tp3419
Rp3420
(I1
(I2
tp3421
g36
I00
S'P\x00\x00\x00N\x00\x00\x00'
p3422
tp3423
bsba(i__main__
FrameData
p3424
(dp3425
g6
g7
sg8
g9
(g13
S'\x00\x00\x00\x00\x00\x00\x14@'
p3426
tp3427
Rp3428
sg19
I0
sg20
g21
(S'\x07\xdd\t\x1d\x13\r\x1b\x07+\xc3'
p3429
tp3430
Rp3431
sg25
I0
sg26
g27
(g28
(I0
tp3432
g30
tp3433
Rp3434
(I1
(I2
tp3435
g36
I00
S'N\x00\x00\x00N\x00\x00\x00'
p3436
tp3437
bsba(i__main__
FrameData
p3438
(dp3439
g6
g7
sg8
g9
(g13
S'\xa2\xa3\xb3\r\xe5R\x17@'
p3440
tp3441
Rp3442
sg19
I0
sg20
g21
(S'\x07\xdd\t\x1d\x13\r\x1b\x07q|'
p3443
tp3444
Rp3445
sg25
I0
sg26
g27
(g28
(I0
tp3446
g30
tp3447
Rp3448
(I1
(I2
tp3449
g36
I00
S'M\x00\x00\x00N\x00\x00\x00'
p3450
tp3451
bsba(i__main__
FrameData
p3452
(dp3453
g6
g7
sg8
g9
(g13
S'\xfc\xeeci3\xd5\x1a@'
p3454
tp3455
Rp3456
sg19
I0
sg20
g21
(S'\x07\xdd\t\x1d\x13\r\x1b\x07\xad\xe5'
p3457
tp3458
Rp3459
sg25
I0
sg26
g27
(g28
(I0
tp3460
g30
tp3461
Rp3462
(I1
(I2
tp3463
g36
I00
S'L\x00\x00\x00N\x00\x00\x00'
p3464
tp3465
bsba(i__main__
FrameData
p3466
(dp3467
g6
g7
sg8
g9
(g13
S'\xe9\xfbv \xd5\x1e\x1d@'
p3468
tp3469
Rp3470
sg19
I0
sg20
g21
(S'\x07\xdd\t\x1d\x13\r\x1b\x07\xee&'
p3471
tp3472
Rp3473
sg25
I0
sg26
g27
(g28
(I0
tp3474
g30
tp3475
Rp3476
(I1
(I2
tp3477
g36
I00
S'K\x00\x00\x00M\x00\x00\x00'
p3478
tp3479
bsba(i__main__
FrameData
p3480
(dp3481
g6
g7
sg8
g9
(g13
S'\x07\xed\xaff\x0f~ @'
p3482
tp3483
Rp3484
sg19
I0
sg20
g21
(S'\x07\xdd\t\x1d\x13\r\x1b\x081p'
p3485
tp3486
Rp3487
sg25
I0
sg26
g27
(g28
(I0
tp3488
g30
tp3489
Rp3490
(I1
(I2
tp3491
g36
I00
S'J\x00\x00\x00M\x00\x00\x00'
p3492
tp3493
bsba(i__main__
FrameData
p3494
(dp3495
g6
g7
sg8
g9
(g13
S'\x9a.\x90!hp"@'
p3496
tp3497
Rp3498
sg19
I0
sg20
g21
(S'\x07\xdd\t\x1d\x13\r\x1b\x08r0'
p3499
tp3500
Rp3501
sg25
I0
sg26
g27
(g28
(I0
tp3502
g30
tp3503
Rp3504
(I1
(I2
tp3505
g36
I00
S'I\x00\x00\x00M\x00\x00\x00'
p3506
tp3507
bsba(i__main__
FrameData
p3508
(dp3509
g6
g7
sg8
g9
(g13
S'\xf6/\x12_ee$@'
p3510
tp3511
Rp3512
sg19
I0
sg20
g21
(S'\x07\xdd\t\x1d\x13\r\x1b\x08\xb7\xce'
p3513
tp3514
Rp3515
sg25
I0
sg26
g27
(g28
(I0
tp3516
g30
tp3517
Rp3518
(I1
(I2
tp3519
g36
I00
S'H\x00\x00\x00M\x00\x00\x00'
p3520
tp3521
bsba(i__main__
FrameData
p3522
(dp3523
g6
g7
sg8
g9
(g13
S'\xd2\xf1}\x82U\\&@'
p3524
tp3525
Rp3526
sg19
I0
sg20
g21
(S'\x07\xdd\t\x1d\x13\r\x1b\x08\xf2\xcb'
p3527
tp3528
Rp3529
sg25
I0
sg26
g27
(g28
(I0
tp3530
g30
tp3531
Rp3532
(I1
(I2
tp3533
g36
I00
S'G\x00\x00\x00M\x00\x00\x00'
p3534
tp3535
bsba(i__main__
FrameData
p3536
(dp3537
g6
g7
sg8
g9
(g13
S'H\xaa*\x8f9\x17&@'
p3538
tp3539
Rp3540
sg19
I0
sg20
g21
(S'\x07\xdd\t\x1d\x13\r\x1b\t4\x90'
p3541
tp3542
Rp3543
sg25
I0
sg26
g27
(g28
(I0
tp3544
g30
tp3545
Rp3546
(I1
(I2
tp3547
g36
I00
S'G\x00\x00\x00L\x00\x00\x00'
p3548
tp3549
bsba(i__main__
FrameData
p3550
(dp3551
g6
g127
sg8
g9
(g13
S'\x00\x00\x00\x00\x00\x00&@'
p3552
tp3553
Rp3554
sg19
I0
sg20
g21
(S'\x07\xdd\t\x1d\x13\r\x1b\tv\xa0'
p3555
tp3556
Rp3557
sg25
I0
sg26
g27
(g28
(I0
tp3558
g30
tp3559
Rp3560
(I1
(I2
tp3561
g36
I00
S'F\x00\x00\x00L\x00\x00\x00'
p3562
tp3563
bsba(i__main__
FrameData
p3564
(dp3565
g6
g127
sg8
g9
(g13
S'$\xf8\xd9p[\x1c"@'
p3566
tp3567
Rp3568
sg19
I0
sg20
g21
(S'\x07\xdd\t\x1d\x13\r\x1b\t\xb6j'
p3569
tp3570
Rp3571
sg25
I0
sg26
g27
(g28
(I0
tp3572
g30
tp3573
Rp3574
(I1
(I2
tp3575
g36
I00
S'D\x00\x00\x00K\x00\x00\x00'
p3576
tp3577
bsba(i__main__
FrameData
p3578
(dp3579
g6
g127
sg8
g9
(g13
S'\xd0\xbaa?\xe0\x1f @'
p3580
tp3581
Rp3582
sg19
I0
sg20
g21
(S'\x07\xdd\t\x1d\x13\r\x1b\t\xfeS'
p3583
tp3584
Rp3585
sg25
I0
sg26
g27
(g28
(I0
tp3586
g30
tp3587
Rp3588
(I1
(I2
tp3589
g36
I00
S'C\x00\x00\x00K\x00\x00\x00'
p3590
tp3591
bsba(i__main__
FrameData
p3592
(dp3593
g6
g127
sg8
g9
(g13
S'9\xdcc\xb3\xbfT\x18@'
p3594
tp3595
Rp3596
sg19
I0
sg20
g21
(S'\x07\xdd\t\x1d\x13\r\x1b\n9\x08'
p3597
tp3598
Rp3599
sg25
I0
sg26
g27
(g28
(I0
tp3600
g30
tp3601
Rp3602
(I1
(I2
tp3603
g36
I00
S'A\x00\x00\x00K\x00\x00\x00'
p3604
tp3605
bsba(i__main__
FrameData
p3606
(dp3607
g6
g127
sg8
g9
(g13
S'\x00\x00\x00\x00\x00\x00\x14@'
p3608
tp3609
Rp3610
sg19
I0
sg20
g21
(S'\x07\xdd\t\x1d\x13\r\x1b\n{\x0c'
p3611
tp3612
Rp3613
sg25
I0
sg26
g27
(g28
(I0
tp3614
g30
tp3615
Rp3616
(I1
(I2
tp3617
g36
I00
S'?\x00\x00\x00I\x00\x00\x00'
p3618
tp3619
bsba(i__main__
FrameData
p3620
(dp3621
g6
g127
sg8
g9
(g13
S'\xd9l\xdf\xccv\xf8\x10@'
p3622
tp3623
Rp3624
sg19
I0
sg20
g21
(S'\x07\xdd\t\x1d\x13\r\x1b\n\xbd\x12'
p3625
tp3626
Rp3627
sg25
I0
sg26
g27
(g28
(I0
tp3628
g30
tp3629
Rp3630
(I1
(I2
tp3631
g36
I00
S'>\x00\x00\x00I\x00\x00\x00'
p3632
tp3633
bsba(i__main__
FrameData
p3634
(dp3635
g6
g127
sg8
g9
(g13
S'\x00\x00\x00\x00\x00\x00\x14@'
p3636
tp3637
Rp3638
sg19
I0
sg20
g21
(S'\x07\xdd\t\x1d\x13\r\x1b\n\xff\x1b'
p3639
tp3640
Rp3641
sg25
I0
sg26
g27
(g28
(I0
tp3642
g30
tp3643
Rp3644
(I1
(I2
tp3645
g36
I00
S'>\x00\x00\x00H\x00\x00\x00'
p3646
tp3647
bsba(i__main__
FrameData
p3648
(dp3649
g6
g127
sg8
g9
(g13
S'\xa8\xf4\x97\x9bw\xe3\x11@'
p3650
tp3651
Rp3652
sg19
I0
sg20
g21
(S'\x07\xdd\t\x1d\x13\r\x1b\x0bA;'
p3653
tp3654
Rp3655
sg25
I0
sg26
g27
(g28
(I0
tp3656
g30
tp3657
Rp3658
(I1
(I2
tp3659
g36
I00
S'=\x00\x00\x00H\x00\x00\x00'
p3660
tp3661
bsba(i__main__
FrameData
p3662
(dp3663
g6
g127
sg8
g9
(g13
S'\x00\x00\x00\x00\x00\x00\x10@'
p3664
tp3665
Rp3666
sg19
I0
sg20
g21
(S'\x07\xdd\t\x1d\x13\r\x1b\x0b\x83\x08'
p3667
tp3668
Rp3669
sg25
I0
sg26
g27
(g28
(I0
tp3670
g30
tp3671
Rp3672
(I1
(I2
tp3673
g36
I00
S';\x00\x00\x00H\x00\x00\x00'
p3674
tp3675
bsba(i__main__
FrameData
p3676
(dp3677
g6
g127
sg8
g9
(g13
S'\xf6/\x12_ee\x14@'
p3678
tp3679
Rp3680
sg19
I0
sg20
g21
(S'\x07\xdd\t\x1d\x13\r\x1b\x0e\x0c_'
p3681
tp3682
Rp3683
sg25
I0
sg26
g27
(g28
(I0
tp3684
g30
tp3685
Rp3686
(I1
(I2
tp3687
g36
I00
S'<\x00\x00\x00G\x00\x00\x00'
p3688
tp3689
bsba(i__main__
FrameData
p3690
(dp3691
g6
g127
sg8
g9
(g13
S'\xf3\xd9\xa8\xa4h\x8a\x15@'
p3692
tp3693
Rp3694
sg19
I0
sg20
g21
(S'\x07\xdd\t\x1d\x13\r\x1b\x0eM\x88'
p3695
tp3696
Rp3697
sg25
I0
sg26
g27
(g28
(I0
tp3698
g30
tp3699
Rp3700
(I1
(I2
tp3701
g36
I00
S'=\x00\x00\x00G\x00\x00\x00'
p3702
tp3703
bsba(i__main__
FrameData
p3704
(dp3705
g6
g127
sg8
g9
(g13
S'\xa2\xa3\xb3\r\xe5R\x17@'
p3706
tp3707
Rp3708
sg19
I0
sg20
g21
(S'\x07\xdd\t\x1d\x13\r\x1b\x0e\xce\xac'
p3709
tp3710
Rp3711
sg25
I0
sg26
g27
(g28
(I0
tp3712
g30
tp3713
Rp3714
(I1
(I2
tp3715
g36
I00
S'>\x00\x00\x00G\x00\x00\x00'
p3716
tp3717
bsba(i__main__
FrameData
p3718
(dp3719
g6
g127
sg8
g9
(g13
S'\xcd;\x7ff\x9e\xa0\x16@'
p3720
tp3721
Rp3722
sg19
I0
sg20
g21
(S'\x07\xdd\t\x1d\x13\r\x1b\x0f\x10\xa2'
p3723
tp3724
Rp3725
sg25
I0
sg26
g27
(g28
(I0
tp3726
g30
tp3727
Rp3728
(I1
(I2
tp3729
g36
I00
S'?\x00\x00\x00H\x00\x00\x00'
p3730
tp3731
bsba(i__main__
FrameData
p3732
(dp3733
g6
g127
sg8
g9
(g13
S'\x00\xff\x9f\x99\xcc\x9c\x19@'
p3734
tp3735
Rp3736
sg19
I0
sg20
g21
(S'\x07\xdd\t\x1d\x13\r\x1c\x00\x10Z'
p3737
tp3738
Rp3739
sg25
I0
sg26
g27
(g28
(I0
tp3740
g30
tp3741
Rp3742
(I1
(I2
tp3743
g36
I00
S'@\x00\x00\x00H\x00\x00\x00'
p3744
tp3745
bsba(i__main__
FrameData
p3746
(dp3747
g6
g127
sg8
g9
(g13
S'\xfc\xeeci3\xd5\x1a@'
p3748
tp3749
Rp3750
sg19
I0
sg20
g21
(S'\x07\xdd\t\x1d\x13\r\x1c\x00\x94f'
p3751
tp3752
Rp3753
sg25
I0
sg26
g27
(g28
(I0
tp3754
g30
tp3755
Rp3756
(I1
(I2
tp3757
g36
I00
S'A\x00\x00\x00I\x00\x00\x00'
p3758
tp3759
bsba(i__main__
FrameData
p3760
(dp3761
g6
g127
sg8
g9
(g13
S'\xa3\x14\xae\xa8\x87\x16!@'
p3762
tp3763
Rp3764
sg19
I0
sg20
g21
(S'\x07\xdd\t\x1d\x13\r\x1c\x00\xd4N'
p3765
tp3766
Rp3767
sg25
I0
sg26
g27
(g28
(I0
tp3768
g30
tp3769
Rp3770
(I1
(I2
tp3771
g36
I00
S'C\x00\x00\x00I\x00\x00\x00'
p3772
tp3773
bsba(i__main__
FrameData
p3774
(dp3775
g6
g127
sg8
g9
(g13
S'~\xc4#,B\xf9"@'
p3776
tp3777
Rp3778
sg19
I0
sg20
g21
(S'\x07\xdd\t\x1d\x13\r\x1c\x01\x14\xe7'
p3779
tp3780
Rp3781
sg25
I0
sg26
g27
(g28
(I0
tp3782
g30
tp3783
Rp3784
(I1
(I2
tp3785
g36
I00
S'D\x00\x00\x00I\x00\x00\x00'
p3786
tp3787
bsba(i__main__
FrameData
p3788
(dp3789
g6
g127
sg8
g9
(g13
S'$\xf8\xd9p[\x1c"@'
p3790
tp3791
Rp3792
sg19
I0
sg20
g21
(S'\x07\xdd\t\x1d\x13\r\x1c\x01V\xf6'
p3793
tp3794
Rp3795
sg25
I0
sg26
g27
(g28
(I0
tp3796
g30
tp3797
Rp3798
(I1
(I2
tp3799
g36
I00
S'D\x00\x00\x00K\x00\x00\x00'
p3800
tp3801
bsba(i__main__
FrameData
p3802
(dp3803
g6
g127
sg8
g9
(g13
S'H\xaa*\x8f9\x17&@'
p3804
tp3805
Rp3806
sg19
I0
sg20
g21
(S'\x07\xdd\t\x1d\x13\r\x1c\x01\x9be'
p3807
tp3808
Rp3809
sg25
I0
sg26
g27
(g28
(I0
tp3810
g30
tp3811
Rp3812
(I1
(I2
tp3813
g36
I00
S'F\x00\x00\x00K\x00\x00\x00'
p3814
tp3815
bsba(i__main__
FrameData
p3816
(dp3817
g6
g7
sg8
g9
(g13
S'\x00\x00\x00\x00\x00\x00&@'
p3818
tp3819
Rp3820
sg19
I0
sg20
g21
(S'\x07\xdd\t\x1d\x13\r\x1c\x01\xd9\xa5'
p3821
tp3822
Rp3823
sg25
I0
sg26
g27
(g28
(I0
tp3824
g30
tp3825
Rp3826
(I1
(I2
tp3827
g36
I00
S'G\x00\x00\x00K\x00\x00\x00'
p3828
tp3829
bsba(i__main__
FrameData
p3830
(dp3831
g6
g7
sg8
g9
(g13
S'\x00\x00\x00\x00\x00\x00"@'
p3832
tp3833
Rp3834
sg19
I0
sg20
g21
(S'\x07\xdd\t\x1d\x13\r\x1c\x02\x1e\xed'
p3835
tp3836
Rp3837
sg25
I0
sg26
g27
(g28
(I0
tp3838
g30
tp3839
Rp3840
(I1
(I2
tp3841
g36
I00
S'I\x00\x00\x00K\x00\x00\x00'
p3842
tp3843
bsba(i__main__
FrameData
p3844
(dp3845
g6
g7
sg8
g9
(g13
S'\xd0\xbaa?\xe0\x1f @'
p3846
tp3847
Rp3848
sg19
I0
sg20
g21
(S'\x07\xdd\t\x1d\x13\r\x1c\x02Z\xd7'
p3849
tp3850
Rp3851
sg25
I0
sg26
g27
(g28
(I0
tp3852
g30
tp3853
Rp3854
(I1
(I2
tp3855
g36
I00
S'J\x00\x00\x00L\x00\x00\x00'
p3856
tp3857
bsba(i__main__
FrameData
p3858
(dp3859
g6
g7
sg8
g9
(g13
S'\xc0\n\x1f\x00\xc6H\x1c@'
p3860
tp3861
Rp3862
sg19
I0
sg20
g21
(S'\x07\xdd\t\x1d\x13\r\x1c\x02\x9b\xe9'
p3863
tp3864
Rp3865
sg25
I0
sg26
g27
(g28
(I0
tp3866
g30
tp3867
Rp3868
(I1
(I2
tp3869
g36
I00
S'K\x00\x00\x00L\x00\x00\x00'
p3870
tp3871
bsba(i__main__
FrameData
p3872
(dp3873
g6
g7
sg8
g9
(g13
S'\xf6/\x12_ee\x14@'
p3874
tp3875
Rp3876
sg19
I0
sg20
g21
(S'\x07\xdd\t\x1d\x13\r\x1c\x02\xdf_'
p3877
tp3878
Rp3879
sg25
I0
sg26
g27
(g28
(I0
tp3880
g30
tp3881
Rp3882
(I1
(I2
tp3883
g36
I00
S'M\x00\x00\x00L\x00\x00\x00'
p3884
tp3885
bsba(i__main__
FrameData
p3886
(dp3887
g6
g7
sg8
g9
(g13
S'\x07\xed\xaff\x0f~\x10@'
p3888
tp3889
Rp3890
sg19
I0
sg20
g21
(S'\x07\xdd\t\x1d\x13\r\x1c\x03!b'
p3891
tp3892
Rp3893
sg25
I0
sg26
g27
(g28
(I0
tp3894
g30
tp3895
Rp3896
(I1
(I2
tp3897
g36
I00
S'N\x00\x00\x00L\x00\x00\x00'
p3898
tp3899
bsba(i__main__
FrameData
p3900
(dp3901
g6
g7
sg8
g9
(g13
S'S[\xda:XL\t@'
p3902
tp3903
Rp3904
sg19
I0
sg20
g21
(S'\x07\xdd\t\x1d\x13\r\x1c\x03_\xa6'
p3905
tp3906
Rp3907
sg25
I0
sg26
g27
(g28
(I0
tp3908
g30
tp3909
Rp3910
(I1
(I2
tp3911
g36
I00
S'O\x00\x00\x00L\x00\x00\x00'
p3912
tp3913
bsba(i__main__
FrameData
p3914
(dp3915
g6
g7
sg8
g9
(g13
S'\xa8\xf4\x97\x9bw\xe3\x01@'
p3916
tp3917
Rp3918
sg19
I0
sg20
g21
(S'\x07\xdd\t\x1d\x13\r\x1c\x03\xa1\xb2'
p3919
tp3920
Rp3921
sg25
I0
sg26
g27
(g28
(I0
tp3922
g30
tp3923
Rp3924
(I1
(I2
tp3925
g36
I00
S'P\x00\x00\x00L\x00\x00\x00'
p3926
tp3927
bsba(i__main__
FrameData
p3928
(dp3929
g6
g7
sg8
g9
(g13
S'\x00\x00\x00\x00\x00\x00\xf0?'
p3930
tp3931
Rp3932
sg19
I0
sg20
g21
(S'\x07\xdd\t\x1d\x13\r\x1c\x03\xe3\xbe'
p3933
tp3934
Rp3935
sg25
I0
sg26
g27
(g28
(I0
tp3936
g30
tp3937
Rp3938
(I1
(I2
tp3939
g36
I00
S'R\x00\x00\x00L\x00\x00\x00'
p3940
tp3941
bsba(i__main__
FrameData
p3942
(dp3943
g6
g7
sg8
g9
(g13
S'\xcd;\x7ff\x9e\xa0\xf6?'
p3944
tp3945
Rp3946
sg19
I0
sg20
g21
(S'\x07\xdd\t\x1d\x13\r\x1c\x04)\x8a'
p3947
tp3948
Rp3949
sg25
I0
sg26
g27
(g28
(I0
tp3950
g30
tp3951
Rp3952
(I1
(I2
tp3953
g36
I00
S'S\x00\x00\x00L\x00\x00\x00'
p3954
tp3955
bsba(i__main__
FrameData
p3956
(dp3957
g6
g7
sg8
g9
(g13
S'\x00\x00\x00\x00\x00\x00\xf0?'
p3958
tp3959
Rp3960
sg19
I0
sg20
g21
(S'\x07\xdd\t\x1d\x13\r\x1c\x04d$'
p3961
tp3962
Rp3963
sg25
I0
sg26
g27
(g28
(I0
tp3964
g30
tp3965
Rp3966
(I1
(I2
tp3967
g36
I00
S'S\x00\x00\x00K\x00\x00\x00'
p3968
tp3969
bsba(i__main__
FrameData
p3970
(dp3971
g6
g7
sg8
g9
(g13
S'\x00\x00\x00\x00\x00\x00\x08@'
p3972
tp3973
Rp3974
sg19
I0
sg20
g21
(S'\x07\xdd\t\x1d\x13\r\x1c\x04\xa8l'
p3975
tp3976
Rp3977
sg25
I0
sg26
g27
(g28
(I0
tp3978
g30
tp3979
Rp3980
(I1
(I2
tp3981
g36
I00
S'U\x00\x00\x00K\x00\x00\x00'
p3982
tp3983
bsba(i__main__
FrameData
p3984
(dp3985
g6
g7
sg8
g9
(g13
S'\x00\x00\x00\x00\x00\x00\x10@'
p3986
tp3987
Rp3988
sg19
I0
sg20
g21
(S'\x07\xdd\t\x1d\x13\r\x1c\x04\xe70'
p3989
tp3990
Rp3991
sg25
I0
sg26
g27
(g28
(I0
tp3992
g30
tp3993
Rp3994
(I1
(I2
tp3995
g36
I00
S'V\x00\x00\x00K\x00\x00\x00'
p3996
tp3997
bsba(i__main__
FrameData
p3998
(dp3999
g6
g7
sg8
g9
(g13
S'\x07\xed\xaff\x0f~\x10@'
p4000
tp4001
Rp4002
sg19
I0
sg20
g21
(S'\x07\xdd\t\x1d\x13\r\x1c\x05*!'
p4003
tp4004
Rp4005
sg25
I0
sg26
g27
(g28
(I0
tp4006
g30
tp4007
Rp4008
(I1
(I2
tp4009
g36
I00
S'V\x00\x00\x00J\x00\x00\x00'
p4010
tp4011
bsba(i__main__
FrameData
p4012
(dp4013
g6
g7
sg8
g9
(g13
S'\xf6/\x12_ee\x14@'
p4014
tp4015
Rp4016
sg19
I0
sg20
g21
(S'\x07\xdd\t\x1d\x13\r\x1c\x05l+'
p4017
tp4018
Rp4019
sg25
I0
sg26
g27
(g28
(I0
tp4020
g30
tp4021
Rp4022
(I1
(I2
tp4023
g36
I00
S'W\x00\x00\x00J\x00\x00\x00'
p4024
tp4025
bsba(i__main__
FrameData
p4026
(dp4027
g6
g7
sg8
g9
(g13
S'\xa2\xa3\xb3\r\xe5R\x17@'
p4028
tp4029
Rp4030
sg19
I0
sg20
g21
(S'\x07\xdd\t\x1d\x13\r\x1c\x05\xae,'
p4031
tp4032
Rp4033
sg25
I0
sg26
g27
(g28
(I0
tp4034
g30
tp4035
Rp4036
(I1
(I2
tp4037
g36
I00
S'W\x00\x00\x00H\x00\x00\x00'
p4038
tp4039
bsba(i__main__
FrameData
p4040
(dp4041
g6
g7
sg8
g9
(g13
S'\x00\x00\x00\x00\x00\x00\x14@'
p4042
tp4043
Rp4044
sg19
I0
sg20
g21
(S'\x07\xdd\t\x1d\x13\r\x1c\t\xbf\xed'
p4045
tp4046
Rp4047
sg25
I0
sg26
g27
(g28
(I0
tp4048
g30
tp4049
Rp4050
(I1
(I2
tp4051
g36
I00
S'V\x00\x00\x00H\x00\x00\x00'
p4052
tp4053
bsba(i__main__
FrameData
p4054
(dp4055
g6
g7
sg8
g9
(g13
S'\xd9l\xdf\xccv\xf8\x10@'
p4056
tp4057
Rp4058
sg19
I0
sg20
g21
(S'\x07\xdd\t\x1d\x13\r\x1c\x0b\xc8\xf3'
p4059
tp4060
Rp4061
sg25
I0
sg26
g27
(g28
(I0
tp4062
g30
tp4063
Rp4064
(I1
(I2
tp4065
g36
I00
S'U\x00\x00\x00H\x00\x00\x00'
p4066
tp4067
bsbasS'_fileName'
p4068
S'training/trajectory2013-09-29_19:13:20.103614'
p4069
sS'word'
p4070
S'register'
p4071
sb.