(i__main__
SwypeTrajectory
p0
(dp1
S'_frameDataList'
p2
(lp3
(i__main__
FrameData
p4
(dp5
S'closestLetter'
p6
S'l'
p7
sS'letterDistance'
p8
cnumpy.core.multiarray
scalar
p9
(cnumpy
dtype
p10
(S'f8'
p11
I0
I1
tp12
Rp13
(I3
S'<'
p14
NNNI-1
I-1
I0
tp15
bS'\xa8\xf4\x97\x9bw\xe3\x01@'
p16
tp17
Rp18
sS'accel'
p19
I0
sS'time'
p20
cdatetime
datetime
p21
(S'\x07\xdd\t\x1d\x13\x0c\x11\x05\xacg'
p22
tp23
Rp24
sS'velocity'
p25
I0
sS'position'
p26
cnumpy.core.multiarray
_reconstruct
p27
(cnumpy
ndarray
p28
(I0
tp29
S'b'
p30
tp31
Rp32
(I1
(I2
tp33
g10
(S'i4'
p34
I0
I1
tp35
Rp36
(I3
S'<'
p37
NNNI-1
I-1
I0
tp38
bI00
S'\xd7\x00\x00\x00p\x00\x00\x00'
p39
tp40
bsba(i__main__
FrameData
p41
(dp42
g6
g7
sg8
g9
(g13
S'\xa8\xf4\x97\x9bw\xe3\x01@'
p43
tp44
Rp45
sg19
I0
sg20
g21
(S'\x07\xdd\t\x1d\x13\x0c\x11\x05\xea)'
p46
tp47
Rp48
sg25
I0
sg26
g27
(g28
(I0
tp49
g30
tp50
Rp51
(I1
(I2
tp52
g36
I00
S'\xd5\x00\x00\x00p\x00\x00\x00'
p53
tp54
bsba(i__main__
FrameData
p55
(dp56
g6
g7
sg8
g9
(g13
S'\x00\x00\x00\x00\x00\x00\x14@'
p57
tp58
Rp59
sg19
I0
sg20
g21
(S'\x07\xdd\t\x1d\x13\x0c\x11\x06-\xb0'
p60
tp61
Rp62
sg25
I0
sg26
g27
(g28
(I0
tp63
g30
tp64
Rp65
(I1
(I2
tp66
g36
I00
S'\xd3\x00\x00\x00n\x00\x00\x00'
p67
tp68
bsba(i__main__
FrameData
p69
(dp70
g6
g7
sg8
g9
(g13
S'\x00\x00\x00\x00\x00\x00$@'
p71
tp72
Rp73
sg19
I0
sg20
g21
(S'\x07\xdd\t\x1d\x13\x0c\x11\x06lI'
p74
tp75
Rp76
sg25
I0
sg26
g27
(g28
(I0
tp77
g30
tp78
Rp79
(I1
(I2
tp80
g36
I00
S'\xce\x00\x00\x00l\x00\x00\x00'
p81
tp82
bsba(i__main__
FrameData
p83
(dp84
g6
S'k'
p85
sg8
g9
(g13
S'F\xc3\\\xa8\xc1i(@'
p86
tp87
Rp88
sg19
I0
sg20
g21
(S'\x07\xdd\t\x1d\x13\x0c\x11\x06\xb1#'
p89
tp90
Rp91
sg25
I0
sg26
g27
(g28
(I0
tp92
g30
tp93
Rp94
(I1
(I2
tp95
g36
I00
S'\xc5\x00\x00\x00h\x00\x00\x00'
p96
tp97
bsba(i__main__
FrameData
p98
(dp99
g6
g85
sg8
g9
(g13
S'\xde4\xda\xfeNN*@'
p100
tp101
Rp102
sg19
I0
sg20
g21
(S'\x07\xdd\t\x1d\x13\x0c\x11\x06\xef\xd0'
p103
tp104
Rp105
sg25
I0
sg26
g27
(g28
(I0
tp106
g30
tp107
Rp108
(I1
(I2
tp109
g36
I00
S'\xc0\x00\x00\x00e\x00\x00\x00'
p110
tp111
bsba(i__main__
FrameData
p112
(dp113
g6
g85
sg8
g9
(g13
S'\xb3\xa73\xa0`\x0c/@'
p114
tp115
Rp116
sg19
I0
sg20
g21
(S'\x07\xdd\t\x1d\x13\x0c\x11\x071\x9e'
p117
tp118
Rp119
sg25
I0
sg26
g27
(g28
(I0
tp120
g30
tp121
Rp122
(I1
(I2
tp123
g36
I00
S'\xba\x00\x00\x00c\x00\x00\x00'
p124
tp125
bsba(i__main__
FrameData
p126
(dp127
g6
g85
sg8
g9
(g13
S'\x88\x80v\xd5\\\x974@'
p128
tp129
Rp130
sg19
I0
sg20
g21
(S'\x07\xdd\t\x1d\x13\x0c\x11\x07q\x86'
p131
tp132
Rp133
sg25
I0
sg26
g27
(g28
(I0
tp134
g30
tp135
Rp136
(I1
(I2
tp137
g36
I00
S'\xb4\x00\x00\x00`\x00\x00\x00'
p138
tp139
bsba(i__main__
FrameData
p140
(dp141
g6
S'i'
p142
sg8
g9
(g13
S'\xc9\xe0>!B<3@'
p143
tp144
Rp145
sg19
I0
sg20
g21
(S'\x07\xdd\t\x1d\x13\x0c\x11\x07\xb8\x1d'
p146
tp147
Rp148
sg25
I0
sg26
g27
(g28
(I0
tp149
g30
tp150
Rp151
(I1
(I2
tp152
g36
I00
S'\xaf\x00\x00\x00^\x00\x00\x00'
p153
tp154
bsba(i__main__
FrameData
p155
(dp156
g6
g142
sg8
g9
(g13
S'5 \x89\xa6\xcd\xc92@'
p157
tp158
Rp159
sg19
I0
sg20
g21
(S'\x07\xdd\t\x1d\x13\x0c\x11\x07\xf3\x89'
p160
tp161
Rp162
sg25
I0
sg26
g27
(g28
(I0
tp163
g30
tp164
Rp165
(I1
(I2
tp166
g36
I00
S'\xaa\x00\x00\x00\\\x00\x00\x00'
p167
tp168
bsba(i__main__
FrameData
p169
(dp170
g6
g142
sg8
g9
(g13
S'/vo\xf2\x9ej3@'
p171
tp172
Rp173
sg19
I0
sg20
g21
(S'\x07\xdd\t\x1d\x13\x0c\x11\x086~'
p174
tp175
Rp176
sg25
I0
sg26
g27
(g28
(I0
tp177
g30
tp178
Rp179
(I1
(I2
tp180
g36
I00
S'\xa7\x00\x00\x00[\x00\x00\x00'
p181
tp182
bsba(i__main__
FrameData
p183
(dp184
g6
S'u'
p185
sg8
g9
(g13
S'/vo\xf2\x9ej3@'
p186
tp187
Rp188
sg19
I0
sg20
g21
(S'\x07\xdd\t\x1d\x13\x0c\x11\x08z\xba'
p189
tp190
Rp191
sg25
I0
sg26
g27
(g28
(I0
tp192
g30
tp193
Rp194
(I1
(I2
tp195
g36
I00
S'\xa3\x00\x00\x00Z\x00\x00\x00'
p196
tp197
bsba(i__main__
FrameData
p198
(dp199
g6
g185
sg8
g9
(g13
S'\xaa\xd9\xb1\xd3\x8d\x8d0@'
p200
tp201
Rp202
sg19
I0
sg20
g21
(S'\x07\xdd\t\x1d\x13\x0c\x11\x08\xba\x02'
p203
tp204
Rp205
sg25
I0
sg26
g27
(g28
(I0
tp206
g30
tp207
Rp208
(I1
(I2
tp209
g36
I00
S'\x9f\x00\x00\x00Y\x00\x00\x00'
p210
tp211
bsba(i__main__
FrameData
p212
(dp213
g6
g185
sg8
g9
(g13
S'\xc0\n\x1f\x00\xc6H,@'
p214
tp215
Rp216
sg19
I0
sg20
g21
(S'\x07\xdd\t\x1d\x13\x0c\x11\x08\xfa\x8a'
p217
tp218
Rp219
sg25
I0
sg26
g27
(g28
(I0
tp220
g30
tp221
Rp222
(I1
(I2
tp223
g36
I00
S'\x9a\x00\x00\x00X\x00\x00\x00'
p224
tp225
bsba(i__main__
FrameData
p226
(dp227
g6
g185
sg8
g9
(g13
S'\xef\rI\xf1\xf33+@'
p228
tp229
Rp230
sg19
I0
sg20
g21
(S'\x07\xdd\t\x1d\x13\x0c\x11\t?G'
p231
tp232
Rp233
sg25
I0
sg26
g27
(g28
(I0
tp234
g30
tp235
Rp236
(I1
(I2
tp237
g36
I00
S'\x94\x00\x00\x00W\x00\x00\x00'
p238
tp239
bsba(i__main__
FrameData
p240
(dp241
g6
g185
sg8
g9
(g13
S'\xb2\xdb]\xe3\x96\x87-@'
p242
tp243
Rp244
sg19
I0
sg20
g21
(S'\x07\xdd\t\x1d\x13\x0c\x11\t{('
p245
tp246
Rp247
sg25
I0
sg26
g27
(g28
(I0
tp248
g30
tp249
Rp250
(I1
(I2
tp251
g36
I00
S'\x91\x00\x00\x00W\x00\x00\x00'
p252
tp253
bsba(i__main__
FrameData
p254
(dp255
g6
S'y'
p256
sg8
g9
(g13
S'F#O3\xb2t)@'
p257
tp258
Rp259
sg19
I0
sg20
g21
(S'\x07\xdd\t\x1d\x13\x0c\x11\t\xbd\x88'
p260
tp261
Rp262
sg25
I0
sg26
g27
(g28
(I0
tp263
g30
tp264
Rp265
(I1
(I2
tp266
g36
I00
S'\x8b\x00\x00\x00V\x00\x00\x00'
p267
tp268
bsba(i__main__
FrameData
p269
(dp270
g6
g256
sg8
g9
(g13
S'bVc}\x9d\xb2#@'
p271
tp272
Rp273
sg19
I0
sg20
g21
(S'\x07\xdd\t\x1d\x13\x0c\x11\t\xfem'
p274
tp275
Rp276
sg25
I0
sg26
g27
(g28
(I0
tp277
g30
tp278
Rp279
(I1
(I2
tp280
g36
I00
S'\x86\x00\x00\x00V\x00\x00\x00'
p281
tp282
bsba(i__main__
FrameData
p283
(dp284
g6
g256
sg8
g9
(g13
S'$\xf8\xd9p[\x1c"@'
p285
tp286
Rp287
sg19
I0
sg20
g21
(S'\x07\xdd\t\x1d\x13\x0c\x11\nCF'
p288
tp289
Rp290
sg25
I0
sg26
g27
(g28
(I0
tp291
g30
tp292
Rp293
(I1
(I2
tp294
g36
I00
S'\x81\x00\x00\x00V\x00\x00\x00'
p295
tp296
bsba(i__main__
FrameData
p297
(dp298
g6
g256
sg8
g9
(g13
S'\xeb\x12\xb2\xbb\xb2\xcd&@'
p299
tp300
Rp301
sg19
I0
sg20
g21
(S'\x07\xdd\t\x1d\x13\x0c\x11\n\x83>'
p302
tp303
Rp304
sg25
I0
sg26
g27
(g28
(I0
tp305
g30
tp306
Rp307
(I1
(I2
tp308
g36
I00
S'{\x00\x00\x00V\x00\x00\x00'
p309
tp310
bsba(i__main__
FrameData
p311
(dp312
g6
S't'
p313
sg8
g9
(g13
S'/\xa4\xe3\\m\xbb-@'
p314
tp315
Rp316
sg19
I0
sg20
g21
(S'\x07\xdd\t\x1d\x13\x0c\x11\n\xc3\x9f'
p317
tp318
Rp319
sg25
I0
sg26
g27
(g28
(I0
tp320
g30
tp321
Rp322
(I1
(I2
tp323
g36
I00
S't\x00\x00\x00V\x00\x00\x00'
p324
tp325
bsba(i__main__
FrameData
p326
(dp327
g6
g313
sg8
g9
(g13
S'H\xaa*\x8f9\x17&@'
p328
tp329
Rp330
sg19
I0
sg20
g21
(S'\x07\xdd\t\x1d\x13\x0c\x11\x0b\x05I'
p331
tp332
Rp333
sg25
I0
sg26
g27
(g28
(I0
tp334
g30
tp335
Rp336
(I1
(I2
tp337
g36
I00
S'k\x00\x00\x00V\x00\x00\x00'
p338
tp339
bsba(i__main__
FrameData
p340
(dp341
g6
g313
sg8
g9
(g13
S'\xe4\x10\xe4sW\x0f)@'
p342
tp343
Rp344
sg19
I0
sg20
g21
(S'\x07\xdd\t\x1d\x13\x0c\x11\x0bF\xfa'
p345
tp346
Rp347
sg25
I0
sg26
g27
(g28
(I0
tp348
g30
tp349
Rp350
(I1
(I2
tp351
g36
I00
S'd\x00\x00\x00V\x00\x00\x00'
p352
tp353
bsba(i__main__
FrameData
p354
(dp355
g6
S'r'
p356
sg8
g9
(g13
S'\xc5Bl?W\x87.@'
p357
tp358
Rp359
sg19
I0
sg20
g21
(S'\x07\xdd\t\x1d\x13\x0c\x11\x0b\x88\xcc'
p360
tp361
Rp362
sg25
I0
sg26
g27
(g28
(I0
tp363
g30
tp364
Rp365
(I1
(I2
tp366
g36
I00
S'Z\x00\x00\x00X\x00\x00\x00'
p367
tp368
bsba(i__main__
FrameData
p369
(dp370
g6
g356
sg8
g9
(g13
S')\x03\xec/C\x12,@'
p371
tp372
Rp373
sg19
I0
sg20
g21
(S'\x07\xdd\t\x1d\x13\x0c\x11\x0b\xc7i'
p374
tp375
Rp376
sg25
I0
sg26
g27
(g28
(I0
tp377
g30
tp378
Rp379
(I1
(I2
tp380
g36
I00
S'S\x00\x00\x00Y\x00\x00\x00'
p381
tp382
bsba(i__main__
FrameData
p383
(dp384
g6
g356
sg8
g9
(g13
S"v\xa3~{\xce'0@"
p385
tp386
Rp387
sg19
I0
sg20
g21
(S'\x07\xdd\t\x1d\x13\x0c\x11\x0c\x07S'
p388
tp389
Rp390
sg25
I0
sg26
g27
(g28
(I0
tp391
g30
tp392
Rp393
(I1
(I2
tp394
g36
I00
S'L\x00\x00\x00Z\x00\x00\x00'
p395
tp396
bsba(i__main__
FrameData
p397
(dp398
g6
S'e'
p399
sg8
g9
(g13
S'@\xff7s\x9953@'
p400
tp401
Rp402
sg19
I0
sg20
g21
(S'\x07\xdd\t\x1d\x13\x0c\x11\x0cI/'
p403
tp404
Rp405
sg25
I0
sg26
g27
(g28
(I0
tp406
g30
tp407
Rp408
(I1
(I2
tp409
g36
I00
S'G\x00\x00\x00[\x00\x00\x00'
p410
tp411
bsba(i__main__
FrameData
p412
(dp413
g6
g399
sg8
g9
(g13
S"v\xa3~{\xce'0@"
p414
tp415
Rp416
sg19
I0
sg20
g21
(S'\x07\xdd\t\x1d\x13\x0c\x11\x0c\x8c\x88'
p417
tp418
Rp419
sg25
I0
sg26
g27
(g28
(I0
tp420
g30
tp421
Rp422
(I1
(I2
tp423
g36
I00
S'A\x00\x00\x00[\x00\x00\x00'
p424
tp425
bsba(i__main__
FrameData
p426
(dp427
g6
g399
sg8
g9
(g13
S'\x10\xb3]\xc9`G0@'
p428
tp429
Rp430
sg19
I0
sg20
g21
(S'\x07\xdd\t\x1d\x13\x0c\x11\x0c\xd1s'
p431
tp432
Rp433
sg25
I0
sg26
g27
(g28
(I0
tp434
g30
tp435
Rp436
(I1
(I2
tp437
g36
I00
S'>\x00\x00\x00\\\x00\x00\x00'
p438
tp439
bsba(i__main__
FrameData
p440
(dp441
g6
g399
sg8
g9
(g13
S'p`\xff\x00\xfe\x070@'
p442
tp443
Rp444
sg19
I0
sg20
g21
(S'\x07\xdd\t\x1d\x13\x0c\x11\r\x0f\xf8'
p445
tp446
Rp447
sg25
I0
sg26
g27
(g28
(I0
tp448
g30
tp449
Rp450
(I1
(I2
tp451
g36
I00
S'<\x00\x00\x00\\\x00\x00\x00'
p452
tp453
bsba(i__main__
FrameData
p454
(dp455
g6
g399
sg8
g9
(g13
S')\x9ah\xdd\x85\x071@'
p456
tp457
Rp458
sg19
I0
sg20
g21
(S'\x07\xdd\t\x1d\x13\x0c\x11\rN\x9d'
p459
tp460
Rp461
sg25
I0
sg26
g27
(g28
(I0
tp462
g30
tp463
Rp464
(I1
(I2
tp465
g36
I00
S':\x00\x00\x00]\x00\x00\x00'
p466
tp467
bsba(i__main__
FrameData
p468
(dp469
g6
g399
sg8
g9
(g13
S'\xfb\xefg\xc4>C1@'
p470
tp471
Rp472
sg19
I0
sg20
g21
(S'\x07\xdd\t\x1d\x13\x0c\x11\r\x93a'
p473
tp474
Rp475
sg25
I0
sg26
g27
(g28
(I0
tp476
g30
tp477
Rp478
(I1
(I2
tp479
g36
I00
S'8\x00\x00\x00]\x00\x00\x00'
p480
tp481
bsba(i__main__
FrameData
p482
(dp483
g6
g399
sg8
g9
(g13
S'\x9a.\x90!hp2@'
p484
tp485
Rp486
sg19
I0
sg20
g21
(S'\x07\xdd\t\x1d\x13\x0c\x11\r\xd2\n'
p487
tp488
Rp489
sg25
I0
sg26
g27
(g28
(I0
tp490
g30
tp491
Rp492
(I1
(I2
tp493
g36
I00
S'7\x00\x00\x00^\x00\x00\x00'
p494
tp495
bsba(i__main__
FrameData
p496
(dp497
g6
g399
sg8
g9
(g13
S'~\xc4#,B\xf92@'
p498
tp499
Rp500
sg19
I0
sg20
g21
(S'\x07\xdd\t\x1d\x13\x0c\x11\x0e\x17\x11'
p501
tp502
Rp503
sg25
I0
sg26
g27
(g28
(I0
tp504
g30
tp505
Rp506
(I1
(I2
tp507
g36
I00
S'5\x00\x00\x00^\x00\x00\x00'
p508
tp509
bsba(i__main__
FrameData
p510
(dp511
g6
S's'
p512
sg8
g9
(g13
S'^\x9e\x9f\x85\xdf\x1a3@'
p513
tp514
Rp515
sg19
I0
sg20
g21
(S'\x07\xdd\t\x1d\x13\x0c\x11\x0eV\xb6'
p516
tp517
Rp518
sg25
I0
sg26
g27
(g28
(I0
tp519
g30
tp520
Rp521
(I1
(I2
tp522
g36
I00
S'3\x00\x00\x00^\x00\x00\x00'
p523
tp524
bsba(i__main__
FrameData
p525
(dp526
g6
g512
sg8
g9
(g13
S'\x00\x00\x00\x00\x00\x003@'
p527
tp528
Rp529
sg19
I0
sg20
g21
(S'\x07\xdd\t\x1d\x13\x0c\x11\x0e\x97Y'
p530
tp531
Rp532
sg25
I0
sg26
g27
(g28
(I0
tp533
g30
tp534
Rp535
(I1
(I2
tp536
g36
I00
S'1\x00\x00\x00^\x00\x00\x00'
p537
tp538
bsba(i__main__
FrameData
p539
(dp540
g6
g512
sg8
g9
(g13
S'^\x9e\x9f\x85\xdf\x1a3@'
p541
tp542
Rp543
sg19
I0
sg20
g21
(S'\x07\xdd\t\x1d\x13\x0c\x11\x0e\xd5\xee'
p544
tp545
Rp546
sg25
I0
sg26
g27
(g28
(I0
tp547
g30
tp548
Rp549
(I1
(I2
tp550
g36
I00
S'/\x00\x00\x00^\x00\x00\x00'
p551
tp552
bsba(i__main__
FrameData
p553
(dp554
g6
g512
sg8
g9
(g13
S'+\xe5\x8a\xc6\x8f?2@'
p555
tp556
Rp557
sg19
I0
sg20
g21
(S'\x07\xdd\t\x1d\x13\x0c\x11\x0f\x1a\xb6'
p558
tp559
Rp560
sg25
I0
sg26
g27
(g28
(I0
tp561
g30
tp562
Rp563
(I1
(I2
tp564
g36
I00
S'.\x00\x00\x00_\x00\x00\x00'
p565
tp566
bsba(i__main__
FrameData
p567
(dp568
g6
g512
sg8
g9
(g13
S'\xa8y\x0c\t\xd9v1@'
p569
tp570
Rp571
sg19
I0
sg20
g21
(S'\x07\xdd\t\x1d\x13\x0c\x12\x00X\xbe'
p572
tp573
Rp574
sg25
I0
sg26
g27
(g28
(I0
tp575
g30
tp576
Rp577
(I1
(I2
tp578
g36
I00
S'-\x00\x00\x00`\x00\x00\x00'
p579
tp580
bsba(i__main__
FrameData
p581
(dp582
g6
g512
sg8
g9
(g13
S'>9\x15\x8cW\xc30@'
p583
tp584
Rp585
sg19
I0
sg20
g21
(S'\x07\xdd\t\x1d\x13\x0c\x12\x00\x9b\xa2'
p586
tp587
Rp588
sg25
I0
sg26
g27
(g28
(I0
tp589
g30
tp590
Rp591
(I1
(I2
tp592
g36
I00
S',\x00\x00\x00a\x00\x00\x00'
p593
tp594
bsba(i__main__
FrameData
p595
(dp596
g6
g512
sg8
g9
(g13
S"v\xa3~{\xce'0@"
p597
tp598
Rp599
sg19
I0
sg20
g21
(S'\x07\xdd\t\x1d\x13\x0c\x12\x00\xdc^'
p600
tp601
Rp602
sg25
I0
sg26
g27
(g28
(I0
tp603
g30
tp604
Rp605
(I1
(I2
tp606
g36
I00
S'+\x00\x00\x00b\x00\x00\x00'
p607
tp608
bsba(i__main__
FrameData
p609
(dp610
g6
g512
sg8
g9
(g13
S'\xf7\x80Aq\xb9\xa2,@'
p611
tp612
Rp613
sg19
I0
sg20
g21
(S'\x07\xdd\t\x1d\x13\x0c\x12\x01\x1fC'
p614
tp615
Rp616
sg25
I0
sg26
g27
(g28
(I0
tp617
g30
tp618
Rp619
(I1
(I2
tp620
g36
I00
S'+\x00\x00\x00d\x00\x00\x00'
p621
tp622
bsba(i__main__
FrameData
p623
(dp624
g6
g512
sg8
g9
(g13
S'\xef\rI\xf1\xf33+@'
p625
tp626
Rp627
sg19
I0
sg20
g21
(S'\x07\xdd\t\x1d\x13\x0c\x12\x01_\xa3'
p628
tp629
Rp630
sg25
I0
sg26
g27
(g28
(I0
tp631
g30
tp632
Rp633
(I1
(I2
tp634
g36
I00
S')\x00\x00\x00f\x00\x00\x00'
p635
tp636
bsba(i__main__
FrameData
p637
(dp638
g6
g512
sg8
g9
(g13
S'\xc0\n\x1f\x00\xc6H,@'
p639
tp640
Rp641
sg19
I0
sg20
g21
(S'\x07\xdd\t\x1d\x13\x0c\x12\x01\x9eK'
p642
tp643
Rp644
sg25
I0
sg26
g27
(g28
(I0
tp645
g30
tp646
Rp647
(I1
(I2
tp648
g36
I00
S"'\x00\x00\x00g\x00\x00\x00"
p649
tp650
bsba(i__main__
FrameData
p651
(dp652
g6
g512
sg8
g9
(g13
S'\xf3YaD+\xd8,@'
p653
tp654
Rp655
sg19
I0
sg20
g21
(S'\x07\xdd\t\x1d\x13\x0c\x12\x01\xdf\xfe'
p656
tp657
Rp658
sg25
I0
sg26
g27
(g28
(I0
tp659
g30
tp660
Rp661
(I1
(I2
tp662
g36
I00
S'%\x00\x00\x00i\x00\x00\x00'
p663
tp664
bsba(i__main__
FrameData
p665
(dp666
g6
S'a'
p667
sg8
g9
(g13
S'\xc5Bl?W\x87.@'
p668
tp669
Rp670
sg19
I0
sg20
g21
(S'\x07\xdd\t\x1d\x13\x0c\x12\x02!\xbe'
p671
tp672
Rp673
sg25
I0
sg26
g27
(g28
(I0
tp674
g30
tp675
Rp676
(I1
(I2
tp677
g36
I00
S'$\x00\x00\x00i\x00\x00\x00'
p678
tp679
bsba(i__main__
FrameData
p680
(dp681
g6
g667
sg8
g9
(g13
S'\xb9e(k\xee\xc8+@'
p682
tp683
Rp684
sg19
I0
sg20
g21
(S'\x07\xdd\t\x1d\x13\x0c\x12\x02c\x89'
p685
tp686
Rp687
sg25
I0
sg26
g27
(g28
(I0
tp688
g30
tp689
Rp690
(I1
(I2
tp691
g36
I00
S'#\x00\x00\x00j\x00\x00\x00'
p692
tp693
bsba(i__main__
FrameData
p694
(dp695
g6
g667
sg8
g9
(g13
S'F\xc3\\\xa8\xc1i(@'
p696
tp697
Rp698
sg19
I0
sg20
g21
(S'\x07\xdd\t\x1d\x13\x0c\x12\x02\xe5@'
p699
tp700
Rp701
sg25
I0
sg26
g27
(g28
(I0
tp702
g30
tp703
Rp704
(I1
(I2
tp705
g36
I00
S'!\x00\x00\x00j\x00\x00\x00'
p706
tp707
bsba(i__main__
FrameData
p708
(dp709
g6
g667
sg8
g9
(g13
S'\xeb\x12\xb2\xbb\xb2\xcd&@'
p710
tp711
Rp712
sg19
I0
sg20
g21
(S'\x07\xdd\t\x1d\x13\x0c\x12\x03%\x89'
p713
tp714
Rp715
sg25
I0
sg26
g27
(g28
(I0
tp716
g30
tp717
Rp718
(I1
(I2
tp719
g36
I00
S' \x00\x00\x00j\x00\x00\x00'
p720
tp721
bsba(i__main__
FrameData
p722
(dp723
g6
g667
sg8
g9
(g13
S'\x00\x00\x00\x00\x00\x00$@'
p724
tp725
Rp726
sg19
I0
sg20
g21
(S'\x07\xdd\t\x1d\x13\x0c\x12\x03\xa7\n'
p727
tp728
Rp729
sg25
I0
sg26
g27
(g28
(I0
tp730
g30
tp731
Rp732
(I1
(I2
tp733
g36
I00
S'\x1f\x00\x00\x00k\x00\x00\x00'
p734
tp735
bsba(i__main__
FrameData
p736
(dp737
g6
g667
sg8
g9
(g13
S'N\x017\xfac4!@'
p738
tp739
Rp740
sg19
I0
sg20
g21
(S'\x07\xdd\t\x1d\x13\x0c\x12\x03\xea\xcd'
p741
tp742
Rp743
sg25
I0
sg26
g27
(g28
(I0
tp744
g30
tp745
Rp746
(I1
(I2
tp747
g36
I00
S'\x1e\x00\x00\x00l\x00\x00\x00'
p748
tp749
bsba(i__main__
FrameData
p750
(dp751
g6
g667
sg8
g9
(g13
S'\xf3YaD+\xd8\x1c@'
p752
tp753
Rp754
sg19
I0
sg20
g21
(S'\x07\xdd\t\x1d\x13\x0c\x12\x04l\x1a'
p755
tp756
Rp757
sg25
I0
sg26
g27
(g28
(I0
tp758
g30
tp759
Rp760
(I1
(I2
tp761
g36
I00
S'\x1d\x00\x00\x00m\x00\x00\x00'
p762
tp763
bsba(i__main__
FrameData
p764
(dp765
g6
g667
sg8
g9
(g13
S'\xa2\xa3\xb3\r\xe5R\x17@'
p766
tp767
Rp768
sg19
I0
sg20
g21
(S'\x07\xdd\t\x1d\x13\x0c\x12\x04\xac\xcf'
p769
tp770
Rp771
sg25
I0
sg26
g27
(g28
(I0
tp772
g30
tp773
Rp774
(I1
(I2
tp775
g36
I00
S'\x1c\x00\x00\x00n\x00\x00\x00'
p776
tp777
bsba(i__main__
FrameData
p778
(dp779
g6
g667
sg8
g9
(g13
S'\xd9l\xdf\xccv\xf8\x10@'
p780
tp781
Rp782
sg19
I0
sg20
g21
(S'\x07\xdd\t\x1d\x13\x0c\x12\x04\xf1\xab'
p783
tp784
Rp785
sg25
I0
sg26
g27
(g28
(I0
tp786
g30
tp787
Rp788
(I1
(I2
tp789
g36
I00
S'\x1a\x00\x00\x00n\x00\x00\x00'
p790
tp791
bsba(i__main__
FrameData
p792
(dp793
g6
g667
sg8
g9
(g13
S'\xf3YaD+\xd8\x0c@'
p794
tp795
Rp796
sg19
I0
sg20
g21
(S'\x07\xdd\t\x1d\x13\x0c\x12\x050.'
p797
tp798
Rp799
sg25
I0
sg26
g27
(g28
(I0
tp800
g30
tp801
Rp802
(I1
(I2
tp803
g36
I00
S'\x1a\x00\x00\x00o\x00\x00\x00'
p804
tp805
bsba(i__main__
FrameData
p806
(dp807
g6
g667
sg8
g9
(g13
S'\x00\x00\x00\x00\x00\x00\x00@'
p808
tp809
Rp810
sg19
I0
sg20
g21
(S'\x07\xdd\t\x1d\x13\x0c\x12\x05\xb3\\'
p811
tp812
Rp813
sg25
I0
sg26
g27
(g28
(I0
tp814
g30
tp815
Rp816
(I1
(I2
tp817
g36
I00
S'\x19\x00\x00\x00q\x00\x00\x00'
p818
tp819
bsba(i__main__
FrameData
p820
(dp821
g6
g667
sg8
g9
(g13
S'\x00\x00\x00\x00\x00\x00\xf0?'
p822
tp823
Rp824
sg19
I0
sg20
g21
(S'\x07\xdd\t\x1d\x13\x0c\x12\x05\xf4j'
p825
tp826
Rp827
sg25
I0
sg26
g27
(g28
(I0
tp828
g30
tp829
Rp830
(I1
(I2
tp831
g36
I00
S'\x18\x00\x00\x00q\x00\x00\x00'
p832
tp833
bsba(i__main__
FrameData
p834
(dp835
g6
g667
sg8
g9
(g13
S'\x00\x00\x00\x00\x00\x00\x00@'
p836
tp837
Rp838
sg19
I0
sg20
g21
(S'\x07\xdd\t\x1d\x13\x0c\x12\n\x89\\'
p839
tp840
Rp841
sg25
I0
sg26
g27
(g28
(I0
tp842
g30
tp843
Rp844
(I1
(I2
tp845
g36
I00
S'\x19\x00\x00\x00q\x00\x00\x00'
p846
tp847
bsba(i__main__
FrameData
p848
(dp849
g6
g667
sg8
g9
(g13
S'\x00\x00\x00\x00\x00\x00\x08@'
p850
tp851
Rp852
sg19
I0
sg20
g21
(S'\x07\xdd\t\x1d\x13\x0c\x12\n\xcc\xe0'
p853
tp854
Rp855
sg25
I0
sg26
g27
(g28
(I0
tp856
g30
tp857
Rp858
(I1
(I2
tp859
g36
I00
S'\x1a\x00\x00\x00q\x00\x00\x00'
p860
tp861
bsba(i__main__
FrameData
p862
(dp863
g6
g667
sg8
g9
(g13
S'\x07\xed\xaff\x0f~\x10@'
p864
tp865
Rp866
sg19
I0
sg20
g21
(S'\x07\xdd\t\x1d\x13\x0c\x12\x0b\x0b\x85'
p867
tp868
Rp869
sg25
I0
sg26
g27
(g28
(I0
tp870
g30
tp871
Rp872
(I1
(I2
tp873
g36
I00
S'\x1b\x00\x00\x00p\x00\x00\x00'
p874
tp875
bsba(i__main__
FrameData
p876
(dp877
g6
g667
sg8
g9
(g13
S'\xf6/\x12_ee\x14@'
p878
tp879
Rp880
sg19
I0
sg20
g21
(S'\x07\xdd\t\x1d\x13\x0c\x12\x0bNb'
p881
tp882
Rp883
sg25
I0
sg26
g27
(g28
(I0
tp884
g30
tp885
Rp886
(I1
(I2
tp887
g36
I00
S'\x1c\x00\x00\x00p\x00\x00\x00'
p888
tp889
bsba(i__main__
FrameData
p890
(dp891
g6
g667
sg8
g9
(g13
S'S[\xda:XL\x19@'
p892
tp893
Rp894
sg19
I0
sg20
g21
(S'\x07\xdd\t\x1d\x13\x0c\x12\x0b\x92\x1c'
p895
tp896
Rp897
sg25
I0
sg26
g27
(g28
(I0
tp898
g30
tp899
Rp900
(I1
(I2
tp901
g36
I00
S'\x1d\x00\x00\x00o\x00\x00\x00'
p902
tp903
bsba(i__main__
FrameData
p904
(dp905
g6
g667
sg8
g9
(g13
S'\xa3\x14\xae\xa8\x87\x16!@'
p906
tp907
Rp908
sg19
I0
sg20
g21
(S'\x07\xdd\t\x1d\x13\x0c\x12\x0b\xd3\xb5'
p909
tp910
Rp911
sg25
I0
sg26
g27
(g28
(I0
tp912
g30
tp913
Rp914
(I1
(I2
tp915
g36
I00
S'\x1f\x00\x00\x00n\x00\x00\x00'
p916
tp917
bsba(i__main__
FrameData
p918
(dp919
g6
g667
sg8
g9
(g13
S'bVc}\x9d\xb2#@'
p920
tp921
Rp922
sg19
I0
sg20
g21
(S'\x07\xdd\t\x1d\x13\x0c\x12\x0c\x10\xdb'
p923
tp924
Rp925
sg25
I0
sg26
g27
(g28
(I0
tp926
g30
tp927
Rp928
(I1
(I2
tp929
g36
I00
S' \x00\x00\x00m\x00\x00\x00'
p930
tp931
bsba(i__main__
FrameData
p932
(dp933
g6
g667
sg8
g9
(g13
S'\xf3\xd9\xa8\xa4h\x8a%@'
p934
tp935
Rp936
sg19
I0
sg20
g21
(S'\x07\xdd\t\x1d\x13\x0c\x12\x0cR\x82'
p937
tp938
Rp939
sg25
I0
sg26
g27
(g28
(I0
tp940
g30
tp941
Rp942
(I1
(I2
tp943
g36
I00
S'!\x00\x00\x00m\x00\x00\x00'
p944
tp945
bsba(i__main__
FrameData
p946
(dp947
g6
g667
sg8
g9
(g13
S'\x00\x00\x00\x00\x00\x00*@'
p948
tp949
Rp950
sg19
I0
sg20
g21
(S'\x07\xdd\t\x1d\x13\x0c\x12\x0c\x92\xd3'
p951
tp952
Rp953
sg25
I0
sg26
g27
(g28
(I0
tp954
g30
tp955
Rp956
(I1
(I2
tp957
g36
I00
S'#\x00\x00\x00l\x00\x00\x00'
p958
tp959
bsba(i__main__
FrameData
p960
(dp961
g6
g512
sg8
g9
(g13
S'\x00\x00\x00\x00\x00\x00*@'
p962
tp963
Rp964
sg19
I0
sg20
g21
(S'\x07\xdd\t\x1d\x13\x0c\x12\x0c\xd7\x86'
p965
tp966
Rp967
sg25
I0
sg26
g27
(g28
(I0
tp968
g30
tp969
Rp970
(I1
(I2
tp971
g36
I00
S'%\x00\x00\x00l\x00\x00\x00'
p972
tp973
bsba(i__main__
FrameData
p974
(dp975
g6
g512
sg8
g9
(g13
S'F\xc3\\\xa8\xc1i(@'
p976
tp977
Rp978
sg19
I0
sg20
g21
(S'\x07\xdd\t\x1d\x13\x0c\x12\r\x16$'
p979
tp980
Rp981
sg25
I0
sg26
g27
(g28
(I0
tp982
g30
tp983
Rp984
(I1
(I2
tp985
g36
I00
S"'\x00\x00\x00j\x00\x00\x00"
p986
tp987
bsba(i__main__
FrameData
p988
(dp989
g6
g512
sg8
g9
(g13
S'&5w\xe2K\x15(@'
p990
tp991
Rp992
sg19
I0
sg20
g21
(S'\x07\xdd\t\x1d\x13\x0c\x12\r[\x01'
p993
tp994
Rp995
sg25
I0
sg26
g27
(g28
(I0
tp996
g30
tp997
Rp998
(I1
(I2
tp999
g36
I00
S'(\x00\x00\x00i\x00\x00\x00'
p1000
tp1001
bsba(i__main__
FrameData
p1002
(dp1003
g6
g512
sg8
g9
(g13
S'6\xd0\xd2x\xa2B%@'
p1004
tp1005
Rp1006
sg19
I0
sg20
g21
(S'\x07\xdd\t\x1d\x13\x0c\x12\r\x9d\xf0'
p1007
tp1008
Rp1009
sg25
I0
sg26
g27
(g28
(I0
tp1010
g30
tp1011
Rp1012
(I1
(I2
tp1013
g36
I00
S'*\x00\x00\x00i\x00\x00\x00'
p1014
tp1015
bsba(i__main__
FrameData
p1016
(dp1017
g6
g512
sg8
g9
(g13
S'\xd2\xf1}\x82U\\&@'
p1018
tp1019
Rp1020
sg19
I0
sg20
g21
(S'\x07\xdd\t\x1d\x13\x0c\x12\r\xdbc'
p1021
tp1022
Rp1023
sg25
I0
sg26
g27
(g28
(I0
tp1024
g30
tp1025
Rp1026
(I1
(I2
tp1027
g36
I00
S',\x00\x00\x00g\x00\x00\x00'
p1028
tp1029
bsba(i__main__
FrameData
p1030
(dp1031
g6
g512
sg8
g9
(g13
S'9\xdcc\xb3\xbfT(@'
p1032
tp1033
Rp1034
sg19
I0
sg20
g21
(S'\x07\xdd\t\x1d\x13\x0c\x12\x0e\x1aN'
p1035
tp1036
Rp1037
sg25
I0
sg26
g27
(g28
(I0
tp1038
g30
tp1039
Rp1040
(I1
(I2
tp1041
g36
I00
S'/\x00\x00\x00e\x00\x00\x00'
p1042
tp1043
bsba(i__main__
FrameData
p1044
(dp1045
g6
g512
sg8
g9
(g13
S'Qf\x99\xcb\xa9\x13*@'
p1046
tp1047
Rp1048
sg19
I0
sg20
g21
(S'\x07\xdd\t\x1d\x13\x0c\x12\x0e^\xca'
p1049
tp1050
Rp1051
sg25
I0
sg26
g27
(g28
(I0
tp1052
g30
tp1053
Rp1054
(I1
(I2
tp1055
g36
I00
S'0\x00\x00\x00d\x00\x00\x00'
p1056
tp1057
bsba(i__main__
FrameData
p1058
(dp1059
g6
g512
sg8
g9
(g13
S')\x03\xec/C\x12,@'
p1060
tp1061
Rp1062
sg19
I0
sg20
g21
(S'\x07\xdd\t\x1d\x13\x0c\x12\x0e\x9dR'
p1063
tp1064
Rp1065
sg25
I0
sg26
g27
(g28
(I0
tp1066
g30
tp1067
Rp1068
(I1
(I2
tp1069
g36
I00
S'2\x00\x00\x00c\x00\x00\x00'
p1070
tp1071
bsba(i__main__
FrameData
p1072
(dp1073
g6
g512
sg8
g9
(g13
S'[y\xf7F\xf7C.@'
p1074
tp1075
Rp1076
sg19
I0
sg20
g21
(S'\x07\xdd\t\x1d\x13\x0c\x12\x0e\xdf\x12'
p1077
tp1078
Rp1079
sg25
I0
sg26
g27
(g28
(I0
tp1080
g30
tp1081
Rp1082
(I1
(I2
tp1083
g36
I00
S'3\x00\x00\x00b\x00\x00\x00'
p1084
tp1085
bsba(i__main__
FrameData
p1086
(dp1087
g6
g512
sg8
g9
(g13
S'\xb3\xa73\xa0`\x0c/@'
p1088
tp1089
Rp1090
sg19
I0
sg20
g21
(S'\x07\xdd\t\x1d\x13\x0c\x13\x00 J'
p1091
tp1092
Rp1093
sg25
I0
sg26
g27
(g28
(I0
tp1094
g30
tp1095
Rp1096
(I1
(I2
tp1097
g36
I00
S'5\x00\x00\x00b\x00\x00\x00'
p1098
tp1099
bsba(i__main__
FrameData
p1100
(dp1101
g6
g512
sg8
g9
(g13
S'\xa0\x96\xf4\xe0T\xb81@'
p1102
tp1103
Rp1104
sg19
I0
sg20
g21
(S'\x07\xdd\t\x1d\x13\x0c\x13\x00eK'
p1105
tp1106
Rp1107
sg25
I0
sg26
g27
(g28
(I0
tp1108
g30
tp1109
Rp1110
(I1
(I2
tp1111
g36
I00
S'6\x00\x00\x00`\x00\x00\x00'
p1112
tp1113
bsba(i__main__
FrameData
p1114
(dp1115
g6
g512
sg8
g9
(g13
S'8\xd8\xbc\n\x1b\x072@'
p1116
tp1117
Rp1118
sg19
I0
sg20
g21
(S'\x07\xdd\t\x1d\x13\x0c\x13\x00\xa0\xb9'
p1119
tp1120
Rp1121
sg25
I0
sg26
g27
(g28
(I0
tp1122
g30
tp1123
Rp1124
(I1
(I2
tp1125
g36
I00
S'7\x00\x00\x00`\x00\x00\x00'
p1126
tp1127
bsba(i__main__
FrameData
p1128
(dp1129
g6
g399
sg8
g9
(g13
S'+\xe5\x8a\xc6\x8f?2@'
p1130
tp1131
Rp1132
sg19
I0
sg20
g21
(S'\x07\xdd\t\x1d\x13\x0c\x13\x00\xe4\xeb'
p1133
tp1134
Rp1135
sg25
I0
sg26
g27
(g28
(I0
tp1136
g30
tp1137
Rp1138
(I1
(I2
tp1139
g36
I00
S'8\x00\x00\x00^\x00\x00\x00'
p1140
tp1141
bsba(i__main__
FrameData
p1142
(dp1143
g6
g399
sg8
g9
(g13
S'$\xf8\xd9p[\x1c2@'
p1144
tp1145
Rp1146
sg19
I0
sg20
g21
(S'\x07\xdd\t\x1d\x13\x0c\x13\x01$\x1b'
p1147
tp1148
Rp1149
sg25
I0
sg26
g27
(g28
(I0
tp1150
g30
tp1151
Rp1152
(I1
(I2
tp1153
g36
I00
S'9\x00\x00\x00^\x00\x00\x00'
p1154
tp1155
bsba(i__main__
FrameData
p1156
(dp1157
g6
g399
sg8
g9
(g13
S'\xd0\xbaa?\xe0\x1f0@'
p1158
tp1159
Rp1160
sg19
I0
sg20
g21
(S'\x07\xdd\t\x1d\x13\x0c\x13\x01f\xfe'
p1161
tp1162
Rp1163
sg25
I0
sg26
g27
(g28
(I0
tp1164
g30
tp1165
Rp1166
(I1
(I2
tp1167
g36
I00
S'9\x00\x00\x00\\\x00\x00\x00'
p1168
tp1169
bsba(i__main__
FrameData
p1170
(dp1171
g6
g399
sg8
g9
(g13
S'\x00\x00\x00\x00\x00\x000@'
p1172
tp1173
Rp1174
sg19
I0
sg20
g21
(S'\x07\xdd\t\x1d\x13\x0c\x13\x01\xa7\x86'
p1175
tp1176
Rp1177
sg25
I0
sg26
g27
(g28
(I0
tp1178
g30
tp1179
Rp1180
(I1
(I2
tp1181
g36
I00
S';\x00\x00\x00\\\x00\x00\x00'
p1182
tp1183
bsba(i__main__
FrameData
p1184
(dp1185
g6
g399
sg8
g9
(g13
S'\xaf_\x109\x0c\x11.@'
p1186
tp1187
Rp1188
sg19
I0
sg20
g21
(S'\x07\xdd\t\x1d\x13\x0c\x13\x01\xecM'
p1189
tp1190
Rp1191
sg25
I0
sg26
g27
(g28
(I0
tp1192
g30
tp1193
Rp1194
(I1
(I2
tp1195
g36
I00
S'<\x00\x00\x00[\x00\x00\x00'
p1196
tp1197
bsba(i__main__
FrameData
p1198
(dp1199
g6
g399
sg8
g9
(g13
S'\xc0\n\x1f\x00\xc6H,@'
p1200
tp1201
Rp1202
sg19
I0
sg20
g21
(S'\x07\xdd\t\x1d\x13\x0c\x13\x02,J'
p1203
tp1204
Rp1205
sg25
I0
sg26
g27
(g28
(I0
tp1206
g30
tp1207
Rp1208
(I1
(I2
tp1209
g36
I00
S'=\x00\x00\x00Z\x00\x00\x00'
p1210
tp1211
bsba(i__main__
FrameData
p1212
(dp1213
g6
g399
sg8
g9
(g13
S'8H\x9b\x97\xee\xae*@'
p1214
tp1215
Rp1216
sg19
I0
sg20
g21
(S'\x07\xdd\t\x1d\x13\x0c\x13\x02i{'
p1217
tp1218
Rp1219
sg25
I0
sg26
g27
(g28
(I0
tp1220
g30
tp1221
Rp1222
(I1
(I2
tp1223
g36
I00
S'>\x00\x00\x00Y\x00\x00\x00'
p1224
tp1225
bsba(i__main__
FrameData
p1226
(dp1227
g6
g399
sg8
g9
(g13
S'S[\xda:XL)@'
p1228
tp1229
Rp1230
sg19
I0
sg20
g21
(S"\x07\xdd\t\x1d\x13\x0c\x13\x02\xab'"
p1231
tp1232
Rp1233
sg25
I0
sg26
g27
(g28
(I0
tp1234
g30
tp1235
Rp1236
(I1
(I2
tp1237
g36
I00
S'?\x00\x00\x00X\x00\x00\x00'
p1238
tp1239
bsba(i__main__
FrameData
p1240
(dp1241
g6
g399
sg8
g9
(g13
S'\xfc\xeeci3\xd5*@'
p1242
tp1243
Rp1244
sg19
I0
sg20
g21
(S'\x07\xdd\t\x1d\x13\x0c\x13\x03.\xa3'
p1245
tp1246
Rp1247
sg25
I0
sg26
g27
(g28
(I0
tp1248
g30
tp1249
Rp1250
(I1
(I2
tp1251
g36
I00
S'A\x00\x00\x00X\x00\x00\x00'
p1252
tp1253
bsba(i__main__
FrameData
p1254
(dp1255
g6
g399
sg8
g9
(g13
S'\xb9e(k\xee\xc8+@'
p1256
tp1257
Rp1258
sg19
I0
sg20
g21
(S'\x07\xdd\t\x1d\x13\x0c\x13\x03p\x8a'
p1259
tp1260
Rp1261
sg25
I0
sg26
g27
(g28
(I0
tp1262
g30
tp1263
Rp1264
(I1
(I2
tp1265
g36
I00
S'B\x00\x00\x00X\x00\x00\x00'
p1266
tp1267
bsba(i__main__
FrameData
p1268
(dp1269
g6
g399
sg8
g9
(g13
S'\xef\rI\xf1\xf33+@'
p1270
tp1271
Rp1272
sg19
I0
sg20
g21
(S'\x07\xdd\t\x1d\x13\x0c\x13\x03\xaf\x97'
p1273
tp1274
Rp1275
sg25
I0
sg26
g27
(g28
(I0
tp1276
g30
tp1277
Rp1278
(I1
(I2
tp1279
g36
I00
S'C\x00\x00\x00W\x00\x00\x00'
p1280
tp1281
bsba(i__main__
FrameData
p1282
(dp1283
g6
g399
sg8
g9
(g13
S'\xb4\xb8=iA\xe8*@'
p1284
tp1285
Rp1286
sg19
I0
sg20
g21
(S'\x07\xdd\t\x1d\x13\x0c\x13\x03\xf0\xed'
p1287
tp1288
Rp1289
sg25
I0
sg26
g27
(g28
(I0
tp1290
g30
tp1291
Rp1292
(I1
(I2
tp1293
g36
I00
S'D\x00\x00\x00V\x00\x00\x00'
p1294
tp1295
bsba(i__main__
FrameData
p1296
(dp1297
g6
g399
sg8
g9
(g13
S'\xc0\n\x1f\x00\xc6H,@'
p1298
tp1299
Rp1300
sg19
I0
sg20
g21
(S'\x07\xdd\t\x1d\x13\x0c\x13\x045\xa6'
p1301
tp1302
Rp1303
sg25
I0
sg26
g27
(g28
(I0
tp1304
g30
tp1305
Rp1306
(I1
(I2
tp1307
g36
I00
S'E\x00\x00\x00V\x00\x00\x00'
p1308
tp1309
bsba(i__main__
FrameData
p1310
(dp1311
g6
g356
sg8
g9
(g13
S'?*\x98"\xe3l,@'
p1312
tp1313
Rp1314
sg19
I0
sg20
g21
(S'\x07\xdd\t\x1d\x13\x0c\x13\x04tM'
p1315
tp1316
Rp1317
sg25
I0
sg26
g27
(g28
(I0
tp1318
g30
tp1319
Rp1320
(I1
(I2
tp1321
g36
I00
S'G\x00\x00\x00T\x00\x00\x00'
p1322
tp1323
bsba(i__main__
FrameData
p1324
(dp1325
g6
g356
sg8
g9
(g13
S'\xb4\xb8=iA\xe8*@'
p1326
tp1327
Rp1328
sg19
I0
sg20
g21
(S'\x07\xdd\t\x1d\x13\x0c\x13\x04\xb9*'
p1329
tp1330
Rp1331
sg25
I0
sg26
g27
(g28
(I0
tp1332
g30
tp1333
Rp1334
(I1
(I2
tp1335
g36
I00
S'H\x00\x00\x00T\x00\x00\x00'
p1336
tp1337
bsba(i__main__
FrameData
p1338
(dp1339
g6
g356
sg8
g9
(g13
S'&5w\xe2K\x15(@'
p1340
tp1341
Rp1342
sg19
I0
sg20
g21
(S'\x07\xdd\t\x1d\x13\x0c\x13\x04\xfa\xd3'
p1343
tp1344
Rp1345
sg25
I0
sg26
g27
(g28
(I0
tp1346
g30
tp1347
Rp1348
(I1
(I2
tp1349
g36
I00
S'I\x00\x00\x00S\x00\x00\x00'
p1350
tp1351
bsba(i__main__
FrameData
p1352
(dp1353
g6
g356
sg8
g9
(g13
S'\x00\x00\x00\x00\x00\x00$@'
p1354
tp1355
Rp1356
sg19
I0
sg20
g21
(S'\x07\xdd\t\x1d\x13\x0c\x13\x05;y'
p1357
tp1358
Rp1359
sg25
I0
sg26
g27
(g28
(I0
tp1360
g30
tp1361
Rp1362
(I1
(I2
tp1363
g36
I00
S'J\x00\x00\x00Q\x00\x00\x00'
p1364
tp1365
bsba(i__main__
FrameData
p1366
(dp1367
g6
g356
sg8
g9
(g13
S'N\x017\xfac4!@'
p1368
tp1369
Rp1370
sg19
I0
sg20
g21
(S'\x07\xdd\t\x1d\x13\x0c\x13\x05x\x13'
p1371
tp1372
Rp1373
sg25
I0
sg26
g27
(g28
(I0
tp1374
g30
tp1375
Rp1376
(I1
(I2
tp1377
g36
I00
S'K\x00\x00\x00P\x00\x00\x00'
p1378
tp1379
bsba(i__main__
FrameData
p1380
(dp1381
g6
g356
sg8
g9
(g13
S'\xf3YaD+\xd8\x1c@'
p1382
tp1383
Rp1384
sg19
I0
sg20
g21
(S'\x07\xdd\t\x1d\x13\x0c\x13\x05\xb9\xd8'
p1385
tp1386
Rp1387
sg25
I0
sg26
g27
(g28
(I0
tp1388
g30
tp1389
Rp1390
(I1
(I2
tp1391
g36
I00
S'L\x00\x00\x00O\x00\x00\x00'
p1392
tp1393
bsba(i__main__
FrameData
p1394
(dp1395
g6
g356
sg8
g9
(g13
S'\xa2\xa3\xb3\r\xe5R\x17@'
p1396
tp1397
Rp1398
sg19
I0
sg20
g21
(S'\x07\xdd\t\x1d\x13\x0c\x13\x05\xfb\xad'
p1399
tp1400
Rp1401
sg25
I0
sg26
g27
(g28
(I0
tp1402
g30
tp1403
Rp1404
(I1
(I2
tp1405
g36
I00
S'M\x00\x00\x00N\x00\x00\x00'
p1406
tp1407
bsba(i__main__
FrameData
p1408
(dp1409
g6
g356
sg8
g9
(g13
S'\xa8\xf4\x97\x9bw\xe3\x11@'
p1410
tp1411
Rp1412
sg19
I0
sg20
g21
(S'\x07\xdd\t\x1d\x13\x0c\x13\x06=8'
p1413
tp1414
Rp1415
sg25
I0
sg26
g27
(g28
(I0
tp1416
g30
tp1417
Rp1418
(I1
(I2
tp1419
g36
I00
S'N\x00\x00\x00M\x00\x00\x00'
p1420
tp1421
bsba(i__main__
FrameData
p1422
(dp1423
g6
g356
sg8
g9
(g13
S'\xf3YaD+\xd8\x0c@'
p1424
tp1425
Rp1426
sg19
I0
sg20
g21
(S'\x07\xdd\t\x1d\x13\x0c\x13\x06~B'
p1427
tp1428
Rp1429
sg25
I0
sg26
g27
(g28
(I0
tp1430
g30
tp1431
Rp1432
(I1
(I2
tp1433
g36
I00
S'O\x00\x00\x00M\x00\x00\x00'
p1434
tp1435
bsba(i__main__
FrameData
p1436
(dp1437
g6
g356
sg8
g9
(g13
S'\xa8\xf4\x97\x9bw\xe3\x01@'
p1438
tp1439
Rp1440
sg19
I0
sg20
g21
(S'\x07\xdd\t\x1d\x13\x0c\x13\x06\xc2 '
p1441
tp1442
Rp1443
sg25
I0
sg26
g27
(g28
(I0
tp1444
g30
tp1445
Rp1446
(I1
(I2
tp1447
g36
I00
S'P\x00\x00\x00L\x00\x00\x00'
p1448
tp1449
bsba(i__main__
FrameData
p1450
(dp1451
g6
g356
sg8
g9
(g13
S'\x00\x00\x00\x00\x00\x00\x00@'
p1452
tp1453
Rp1454
sg19
I0
sg20
g21
(S'\x07\xdd\t\x1d\x13\x0c\x13\x06\xffO'
p1455
tp1456
Rp1457
sg25
I0
sg26
g27
(g28
(I0
tp1458
g30
tp1459
Rp1460
(I1
(I2
tp1461
g36
I00
S'P\x00\x00\x00K\x00\x00\x00'
p1462
tp1463
bsba(i__main__
FrameData
p1464
(dp1465
g6
g356
sg8
g9
(g13
S'\xcd;\x7ff\x9e\xa0\xf6?'
p1466
tp1467
Rp1468
sg19
I0
sg20
g21
(S'\x07\xdd\t\x1d\x13\x0c\x13\x07DI'
p1469
tp1470
Rp1471
sg25
I0
sg26
g27
(g28
(I0
tp1472
g30
tp1473
Rp1474
(I1
(I2
tp1475
g36
I00
S'Q\x00\x00\x00J\x00\x00\x00'
p1476
tp1477
bsba(i__main__
FrameData
p1478
(dp1479
g6
g356
sg8
g9
(g13
S'\xcd;\x7ff\x9e\xa0\xf6?'
p1480
tp1481
Rp1482
sg19
I0
sg20
g21
(S'\x07\xdd\t\x1d\x13\x0c\x13\x07\x82\xcf'
p1483
tp1484
Rp1485
sg25
I0
sg26
g27
(g28
(I0
tp1486
g30
tp1487
Rp1488
(I1
(I2
tp1489
g36
I00
S'S\x00\x00\x00J\x00\x00\x00'
p1490
tp1491
bsba(i__main__
FrameData
p1492
(dp1493
g6
g356
sg8
g9
(g13
S'\xa8\xf4\x97\x9bw\xe3\x01@'
p1494
tp1495
Rp1496
sg19
I0
sg20
g21
(S'\x07\xdd\t\x1d\x13\x0c\x13\x08\x06Y'
p1497
tp1498
Rp1499
sg25
I0
sg26
g27
(g28
(I0
tp1500
g30
tp1501
Rp1502
(I1
(I2
tp1503
g36
I00
S'T\x00\x00\x00J\x00\x00\x00'
p1504
tp1505
bsba(i__main__
FrameData
p1506
(dp1507
g6
g356
sg8
g9
(g13
S'\xd9l\xdf\xccv\xf8\x10@'
p1508
tp1509
Rp1510
sg19
I0
sg20
g21
(S'\x07\xdd\t\x1d\x13\x0c\x13\x08\x89\xa2'
p1511
tp1512
Rp1513
sg25
I0
sg26
g27
(g28
(I0
tp1514
g30
tp1515
Rp1516
(I1
(I2
tp1517
g36
I00
S'U\x00\x00\x00H\x00\x00\x00'
p1518
tp1519
bsba(i__main__
FrameData
p1520
(dp1521
g6
g356
sg8
g9
(g13
S'\xf3YaD+\xd8\x0c@'
p1522
tp1523
Rp1524
sg19
I0
sg20
g21
(S'\x07\xdd\t\x1d\x13\x0c\x13\x0c\xe0\xed'
p1525
tp1526
Rp1527
sg25
I0
sg26
g27
(g28
(I0
tp1528
g30
tp1529
Rp1530
(I1
(I2
tp1531
g36
I00
S'U\x00\x00\x00I\x00\x00\x00'
p1532
tp1533
bsba(i__main__
FrameData
p1534
(dp1535
g6
g356
sg8
g9
(g13
S'S[\xda:XL\t@'
p1536
tp1537
Rp1538
sg19
I0
sg20
g21
(S'\x07\xdd\t\x1d\x13\x0c\x13\r\x9f\xe9'
p1539
tp1540
Rp1541
sg25
I0
sg26
g27
(g28
(I0
tp1542
g30
tp1543
Rp1544
(I1
(I2
tp1545
g36
I00
S'U\x00\x00\x00J\x00\x00\x00'
p1546
tp1547
bsba(i__main__
FrameData
p1548
(dp1549
g6
g356
sg8
g9
(g13
S'\x00\x00\x00\x00\x00\x00\x08@'
p1550
tp1551
Rp1552
sg19
I0
sg20
g21
(S'\x07\xdd\t\x1d\x13\x0c\x13\x0e&:'
p1553
tp1554
Rp1555
sg25
I0
sg26
g27
(g28
(I0
tp1556
g30
tp1557
Rp1558
(I1
(I2
tp1559
g36
I00
S'U\x00\x00\x00K\x00\x00\x00'
p1560
tp1561
bsba(i__main__
FrameData
p1562
(dp1563
g6
g356
sg8
g9
(g13
S'S[\xda:XL\t@'
p1564
tp1565
Rp1566
sg19
I0
sg20
g21
(S'\x07\xdd\t\x1d\x13\x0c\x13\x0ed\xdf'
p1567
tp1568
Rp1569
sg25
I0
sg26
g27
(g28
(I0
tp1570
g30
tp1571
Rp1572
(I1
(I2
tp1573
g36
I00
S'U\x00\x00\x00L\x00\x00\x00'
p1574
tp1575
bsba(i__main__
FrameData
p1576
(dp1577
g6
g356
sg8
g9
(g13
S'\xf3YaD+\xd8\x0c@'
p1578
tp1579
Rp1580
sg19
I0
sg20
g21
(S'\x07\xdd\t\x1d\x13\x0c\x13\x0e\xec\x9e'
p1581
tp1582
Rp1583
sg25
I0
sg26
g27
(g28
(I0
tp1584
g30
tp1585
Rp1586
(I1
(I2
tp1587
g36
I00
S'U\x00\x00\x00M\x00\x00\x00'
p1588
tp1589
bsba(i__main__
FrameData
p1590
(dp1591
g6
g356
sg8
g9
(g13
S'\x00\x00\x00\x00\x00\x00\x14@'
p1592
tp1593
Rp1594
sg19
I0
sg20
g21
(S'\x07\xdd\t\x1d\x13\x0c\x14\x00h\x12'
p1595
tp1596
Rp1597
sg25
I0
sg26
g27
(g28
(I0
tp1598
g30
tp1599
Rp1600
(I1
(I2
tp1601
g36
I00
S'U\x00\x00\x00O\x00\x00\x00'
p1602
tp1603
bsba(i__main__
FrameData
p1604
(dp1605
g6
g356
sg8
g9
(g13
S'\xf3\xd9\xa8\xa4h\x8a\x15@'
p1606
tp1607
Rp1608
sg19
I0
sg20
g21
(S'\x07\xdd\t\x1d\x13\x0c\x14\x00\xea\xc4'
p1609
tp1610
Rp1611
sg25
I0
sg26
g27
(g28
(I0
tp1612
g30
tp1613
Rp1614
(I1
(I2
tp1615
g36
I00
S'T\x00\x00\x00P\x00\x00\x00'
p1616
tp1617
bsba(i__main__
FrameData
p1618
(dp1619
g6
g356
sg8
g9
(g13
S'S[\xda:XL\x19@'
p1620
tp1621
Rp1622
sg19
I0
sg20
g21
(S'\x07\xdd\t\x1d\x13\x0c\x14\x010u'
p1623
tp1624
Rp1625
sg25
I0
sg26
g27
(g28
(I0
tp1626
g30
tp1627
Rp1628
(I1
(I2
tp1629
g36
I00
S'T\x00\x00\x00Q\x00\x00\x00'
p1630
tp1631
bsba(i__main__
FrameData
p1632
(dp1633
g6
g356
sg8
g9
(g13
S'\xe9\xfbv \xd5\x1e\x1d@'
p1634
tp1635
Rp1636
sg19
I0
sg20
g21
(S'\x07\xdd\t\x1d\x13\x0c\x14\x01n\x8e'
p1637
tp1638
Rp1639
sg25
I0
sg26
g27
(g28
(I0
tp1640
g30
tp1641
Rp1642
(I1
(I2
tp1643
g36
I00
S'T\x00\x00\x00R\x00\x00\x00'
p1644
tp1645
bsba(i__main__
FrameData
p1646
(dp1647
g6
g356
sg8
g9
(g13
S'\x00\x00\x00\x00\x00\x00\x1c@'
p1648
tp1649
Rp1650
sg19
I0
sg20
g21
(S'\x07\xdd\t\x1d\x13\x0c\x14\x01\xb0\xc4'
p1651
tp1652
Rp1653
sg25
I0
sg26
g27
(g28
(I0
tp1654
g30
tp1655
Rp1656
(I1
(I2
tp1657
g36
I00
S'R\x00\x00\x00R\x00\x00\x00'
p1658
tp1659
bsba(i__main__
FrameData
p1660
(dp1661
g6
g356
sg8
g9
(g13
S'\x00\x00\x00\x00\x00\x00 @'
p1662
tp1663
Rp1664
sg19
I0
sg20
g21
(S'\x07\xdd\t\x1d\x13\x0c\x14\x01\xf2\xab'
p1665
tp1666
Rp1667
sg25
I0
sg26
g27
(g28
(I0
tp1668
g30
tp1669
Rp1670
(I1
(I2
tp1671
g36
I00
S'R\x00\x00\x00S\x00\x00\x00'
p1672
tp1673
bsba(i__main__
FrameData
p1674
(dp1675
g6
g356
sg8
g9
(g13
S'$\xf8\xd9p[\x1c"@'
p1676
tp1677
Rp1678
sg19
I0
sg20
g21
(S'\x07\xdd\t\x1d\x13\x0c\x14\x024N'
p1679
tp1680
Rp1681
sg25
I0
sg26
g27
(g28
(I0
tp1682
g30
tp1683
Rp1684
(I1
(I2
tp1685
g36
I00
S'Q\x00\x00\x00T\x00\x00\x00'
p1686
tp1687
bsba(i__main__
FrameData
p1688
(dp1689
g6
g356
sg8
g9
(g13
S'\xf0)#L\x89\x19$@'
p1690
tp1691
Rp1692
sg19
I0
sg20
g21
(S'\x07\xdd\t\x1d\x13\x0c\x14\x02r\xe4'
p1693
tp1694
Rp1695
sg25
I0
sg26
g27
(g28
(I0
tp1696
g30
tp1697
Rp1698
(I1
(I2
tp1699
g36
I00
S'Q\x00\x00\x00U\x00\x00\x00'
p1700
tp1701
bsba(i__main__
FrameData
p1702
(dp1703
g6
g356
sg8
g9
(g13
S'\xd2\xf1}\x82U\\&@'
p1704
tp1705
Rp1706
sg19
I0
sg20
g21
(S'\x07\xdd\t\x1d\x13\x0c\x14\x02\xb4\x84'
p1707
tp1708
Rp1709
sg25
I0
sg26
g27
(g28
(I0
tp1710
g30
tp1711
Rp1712
(I1
(I2
tp1713
g36
I00
S'P\x00\x00\x00V\x00\x00\x00'
p1714
tp1715
bsba(i__main__
FrameData
p1716
(dp1717
g6
g356
sg8
g9
(g13
S'\xde4\xda\xfeNN*@'
p1718
tp1719
Rp1720
sg19
I0
sg20
g21
(S'\x07\xdd\t\x1d\x13\x0c\x14\x02\xf9e'
p1721
tp1722
Rp1723
sg25
I0
sg26
g27
(g28
(I0
tp1724
g30
tp1725
Rp1726
(I1
(I2
tp1727
g36
I00
S'P\x00\x00\x00X\x00\x00\x00'
p1728
tp1729
bsba(i__main__
FrameData
p1730
(dp1731
g6
g356
sg8
g9
(g13
S'\xf7\x80Aq\xb9\xa2,@'
p1732
tp1733
Rp1734
sg19
I0
sg20
g21
(S'\x07\xdd\t\x1d\x13\x0c\x14\x037\xf8'
p1735
tp1736
Rp1737
sg25
I0
sg26
g27
(g28
(I0
tp1738
g30
tp1739
Rp1740
(I1
(I2
tp1741
g36
I00
S'O\x00\x00\x00Y\x00\x00\x00'
p1742
tp1743
bsba(i__main__
FrameData
p1744
(dp1745
g6
g356
sg8
g9
(g13
S'\xb3\xa73\xa0`\x0c/@'
p1746
tp1747
Rp1748
sg19
I0
sg20
g21
(S'\x07\xdd\t\x1d\x13\x0c\x14\x03v\xb1'
p1749
tp1750
Rp1751
sg25
I0
sg26
g27
(g28
(I0
tp1752
g30
tp1753
Rp1754
(I1
(I2
tp1755
g36
I00
S'N\x00\x00\x00Z\x00\x00\x00'
p1756
tp1757
bsba(i__main__
FrameData
p1758
(dp1759
g6
g356
sg8
g9
(g13
S'\x07\xed\xaff\x0f~0@'
p1760
tp1761
Rp1762
sg19
I0
sg20
g21
(S'\x07\xdd\t\x1d\x13\x0c\x14\x03\xb9\xe6'
p1763
tp1764
Rp1765
sg25
I0
sg26
g27
(g28
(I0
tp1766
g30
tp1767
Rp1768
(I1
(I2
tp1769
g36
I00
S'N\x00\x00\x00[\x00\x00\x00'
p1770
tp1771
bsba(i__main__
FrameData
p1772
(dp1773
g6
g356
sg8
g9
(g13
S'\xa0\x96\xf4\xe0T\xb81@'
p1774
tp1775
Rp1776
sg19
I0
sg20
g21
(S'\x07\xdd\t\x1d\x13\x0c\x14\x03\xfd3'
p1777
tp1778
Rp1779
sg25
I0
sg26
g27
(g28
(I0
tp1780
g30
tp1781
Rp1782
(I1
(I2
tp1783
g36
I00
S'M\x00\x00\x00\\\x00\x00\x00'
p1784
tp1785
bsba(i__main__
FrameData
p1786
(dp1787
g6
g356
sg8
g9
(g13
S'X(/\x84y\xae2@'
p1788
tp1789
Rp1790
sg19
I0
sg20
g21
(S'\x07\xdd\t\x1d\x13\x0c\x14\x04}\x89'
p1791
tp1792
Rp1793
sg25
I0
sg26
g27
(g28
(I0
tp1794
g30
tp1795
Rp1796
(I1
(I2
tp1797
g36
I00
S'M\x00\x00\x00]\x00\x00\x00'
p1798
tp1799
bsba(i__main__
FrameData
p1800
(dp1801
g6
S'd'
p1802
sg8
g9
(g13
S'\xc9\xe0>!B<3@'
p1803
tp1804
Rp1805
sg19
I0
sg20
g21
(S'\x07\xdd\t\x1d\x13\x0c\x14\x04\xbf)'
p1806
tp1807
Rp1808
sg25
I0
sg26
g27
(g28
(I0
tp1809
g30
tp1810
Rp1811
(I1
(I2
tp1812
g36
I00
S'L\x00\x00\x00^\x00\x00\x00'
p1813
tp1814
bsba(i__main__
FrameData
p1815
(dp1816
g6
g1802
sg8
g9
(g13
S'\xfb\xefg\xc4>C1@'
p1817
tp1818
Rp1819
sg19
I0
sg20
g21
(S'\x07\xdd\t\x1d\x13\x0c\x14\x05\x01\t'
p1820
tp1821
Rp1822
sg25
I0
sg26
g27
(g28
(I0
tp1823
g30
tp1824
Rp1825
(I1
(I2
tp1826
g36
I00
S'L\x00\x00\x00`\x00\x00\x00'
p1827
tp1828
bsba(i__main__
FrameData
p1829
(dp1830
g6
g1802
sg8
g9
(g13
S'\x10\xb3]\xc9`G0@'
p1831
tp1832
Rp1833
sg19
I0
sg20
g21
(S'\x07\xdd\t\x1d\x13\x0c\x14\x05?\x9f'
p1834
tp1835
Rp1836
sg25
I0
sg26
g27
(g28
(I0
tp1837
g30
tp1838
Rp1839
(I1
(I2
tp1840
g36
I00
S'L\x00\x00\x00a\x00\x00\x00'
p1841
tp1842
bsba(i__main__
FrameData
p1843
(dp1844
g6
g1802
sg8
g9
(g13
S'\xf2G\x9b\x0e\x18\x98.@'
p1845
tp1846
Rp1847
sg19
I0
sg20
g21
(S'\x07\xdd\t\x1d\x13\x0c\x14\x05\x81C'
p1848
tp1849
Rp1850
sg25
I0
sg26
g27
(g28
(I0
tp1851
g30
tp1852
Rp1853
(I1
(I2
tp1854
g36
I00
S'L\x00\x00\x00b\x00\x00\x00'
p1855
tp1856
bsba(i__main__
FrameData
p1857
(dp1858
g6
g1802
sg8
g9
(g13
S'\xf7\x80Aq\xb9\xa2,@'
p1859
tp1860
Rp1861
sg19
I0
sg20
g21
(S'\x07\xdd\t\x1d\x13\x0c\x14\x05\xc3\x16'
p1862
tp1863
Rp1864
sg25
I0
sg26
g27
(g28
(I0
tp1865
g30
tp1866
Rp1867
(I1
(I2
tp1868
g36
I00
S'L\x00\x00\x00c\x00\x00\x00'
p1869
tp1870
bsba(i__main__
FrameData
p1871
(dp1872
g6
g1802
sg8
g9
(g13
S'8H\x9b\x97\xee\xae*@'
p1873
tp1874
Rp1875
sg19
I0
sg20
g21
(S'\x07\xdd\t\x1d\x13\x0c\x14\x06\x04j'
p1876
tp1877
Rp1878
sg25
I0
sg26
g27
(g28
(I0
tp1879
g30
tp1880
Rp1881
(I1
(I2
tp1882
g36
I00
S'L\x00\x00\x00d\x00\x00\x00'
p1883
tp1884
bsba(i__main__
FrameData
p1885
(dp1886
g6
g1802
sg8
g9
(g13
S'9\xdcc\xb3\xbfT(@'
p1887
tp1888
Rp1889
sg19
I0
sg20
g21
(S'\x07\xdd\t\x1d\x13\x0c\x14\x06I\xa8'
p1890
tp1891
Rp1892
sg25
I0
sg26
g27
(g28
(I0
tp1893
g30
tp1894
Rp1895
(I1
(I2
tp1896
g36
I00
S'K\x00\x00\x00e\x00\x00\x00'
p1897
tp1898
bsba(i__main__
FrameData
p1899
(dp1900
g6
g1802
sg8
g9
(g13
S'\xd2\xf1}\x82U\\&@'
p1901
tp1902
Rp1903
sg19
I0
sg20
g21
(S'\x07\xdd\t\x1d\x13\x0c\x14\x06\x88N'
p1904
tp1905
Rp1906
sg25
I0
sg26
g27
(g28
(I0
tp1907
g30
tp1908
Rp1909
(I1
(I2
tp1910
g36
I00
S'K\x00\x00\x00f\x00\x00\x00'
p1911
tp1912
bsba(i__main__
FrameData
p1913
(dp1914
g6
g1802
sg8
g9
(g13
S'\xf6/\x12_ee$@'
p1915
tp1916
Rp1917
sg19
I0
sg20
g21
(S'\x07\xdd\t\x1d\x13\x0c\x14\x06\xc6\xee'
p1918
tp1919
Rp1920
sg25
I0
sg26
g27
(g28
(I0
tp1921
g30
tp1922
Rp1923
(I1
(I2
tp1924
g36
I00
S'K\x00\x00\x00g\x00\x00\x00'
p1925
tp1926
bsba(i__main__
FrameData
p1927
(dp1928
g6
g1802
sg8
g9
(g13
S'\x9a.\x90!hp"@'
p1929
tp1930
Rp1931
sg19
I0
sg20
g21
(S'\x07\xdd\t\x1d\x13\x0c\x14\x07\x08\x8e'
p1932
tp1933
Rp1934
sg25
I0
sg26
g27
(g28
(I0
tp1935
g30
tp1936
Rp1937
(I1
(I2
tp1938
g36
I00
S'K\x00\x00\x00h\x00\x00\x00'
p1939
tp1940
bsba(i__main__
FrameData
p1941
(dp1942
g6
g1802
sg8
g9
(g13
S'\x07\xed\xaff\x0f~ @'
p1943
tp1944
Rp1945
sg19
I0
sg20
g21
(S'\x07\xdd\t\x1d\x13\x0c\x14\x07\x8c$'
p1946
tp1947
Rp1948
sg25
I0
sg26
g27
(g28
(I0
tp1949
g30
tp1950
Rp1951
(I1
(I2
tp1952
g36
I00
S'K\x00\x00\x00i\x00\x00\x00'
p1953
tp1954
bsba(i__main__
FrameData
p1955
(dp1956
g6
g1802
sg8
g9
(g13
S'\xe9\xfbv \xd5\x1e\x1d@'
p1957
tp1958
Rp1959
sg19
I0
sg20
g21
(S'\x07\xdd\t\x1d\x13\x0c\x14\x07\xcf%'
p1960
tp1961
Rp1962
sg25
I0
sg26
g27
(g28
(I0
tp1963
g30
tp1964
Rp1965
(I1
(I2
tp1966
g36
I00
S'K\x00\x00\x00j\x00\x00\x00'
p1967
tp1968
bsba(i__main__
FrameData
p1969
(dp1970
g6
g1802
sg8
g9
(g13
S'S[\xda:XL\x19@'
p1971
tp1972
Rp1973
sg19
I0
sg20
g21
(S'\x07\xdd\t\x1d\x13\x0c\x14\x08\x0fz'
p1974
tp1975
Rp1976
sg25
I0
sg26
g27
(g28
(I0
tp1977
g30
tp1978
Rp1979
(I1
(I2
tp1980
g36
I00
S'K\x00\x00\x00k\x00\x00\x00'
p1981
tp1982
bsba(i__main__
FrameData
p1983
(dp1984
g6
g1802
sg8
g9
(g13
S'\xf3\xd9\xa8\xa4h\x8a\x15@'
p1985
tp1986
Rp1987
sg19
I0
sg20
g21
(S'\x07\xdd\t\x1d\x13\x0c\x14\x08N\x11'
p1988
tp1989
Rp1990
sg25
I0
sg26
g27
(g28
(I0
tp1991
g30
tp1992
Rp1993
(I1
(I2
tp1994
g36
I00
S'K\x00\x00\x00l\x00\x00\x00'
p1995
tp1996
bsba(i__main__
FrameData
p1997
(dp1998
g6
g1802
sg8
g9
(g13
S'\xa8\xf4\x97\x9bw\xe3\x11@'
p1999
tp2000
Rp2001
sg19
I0
sg20
g21
(S'\x07\xdd\t\x1d\x13\x0c\x14\x08\x92\xe8'
p2002
tp2003
Rp2004
sg25
I0
sg26
g27
(g28
(I0
tp2005
g30
tp2006
Rp2007
(I1
(I2
tp2008
g36
I00
S'K\x00\x00\x00m\x00\x00\x00'
p2009
tp2010
bsba(i__main__
FrameData
p2011
(dp2012
g6
g1802
sg8
g9
(g13
S'\xf3YaD+\xd8\x0c@'
p2013
tp2014
Rp2015
sg19
I0
sg20
g21
(S'\x07\xdd\t\x1d\x13\x0c\x14\x08\xd4\x93'
p2016
tp2017
Rp2018
sg25
I0
sg26
g27
(g28
(I0
tp2019
g30
tp2020
Rp2021
(I1
(I2
tp2022
g36
I00
S'K\x00\x00\x00n\x00\x00\x00'
p2023
tp2024
bsba(i__main__
FrameData
p2025
(dp2026
g6
g1802
sg8
g9
(g13
S'\xcd;\x7ff\x9e\xa0\x06@'
p2027
tp2028
Rp2029
sg19
I0
sg20
g21
(S'\x07\xdd\t\x1d\x13\x0c\x14\t\x17\xba'
p2030
tp2031
Rp2032
sg25
I0
sg26
g27
(g28
(I0
tp2033
g30
tp2034
Rp2035
(I1
(I2
tp2036
g36
I00
S'K\x00\x00\x00o\x00\x00\x00'
p2037
tp2038
bsba(i__main__
FrameData
p2039
(dp2040
g6
g1802
sg8
g9
(g13
S'\x00\x00\x00\x00\x00\x00\x00@'
p2041
tp2042
Rp2043
sg19
I0
sg20
g21
(S'\x07\xdd\t\x1d\x13\x0c\x14\t\x96\xb4'
p2044
tp2045
Rp2046
sg25
I0
sg26
g27
(g28
(I0
tp2047
g30
tp2048
Rp2049
(I1
(I2
tp2050
g36
I00
S'K\x00\x00\x00q\x00\x00\x00'
p2051
tp2052
bsba(i__main__
FrameData
p2053
(dp2054
g6
g1802
sg8
g9
(g13
S'\xa8\xf4\x97\x9bw\xe3\x01@'
p2055
tp2056
Rp2057
sg19
I0
sg20
g21
(S'\x07\xdd\t\x1d\x13\x0c\x14\t\xd5c'
p2058
tp2059
Rp2060
sg25
I0
sg26
g27
(g28
(I0
tp2061
g30
tp2062
Rp2063
(I1
(I2
tp2064
g36
I00
S'K\x00\x00\x00r\x00\x00\x00'
p2065
tp2066
bsbasS'_fileName'
p2067
S'training/trajectory2013-09-29_19:12:11.304793'
p2068
sS'word'
p2069
S'lard'
p2070
sb.