(i__main__
SwypeTrajectory
p0
(dp1
S'_frameDataList'
p2
(lp3
(i__main__
FrameData
p4
(dp5
S'closestLetter'
p6
S'a'
p7
sS'letterDistance'
p8
cnumpy.core.multiarray
scalar
p9
(cnumpy
dtype
p10
(S'f8'
p11
I0
I1
tp12
Rp13
(I3
S'<'
p14
NNNI-1
I-1
I0
tp15
bS'\xf3YaD+\xd8\x0c@'
p16
tp17
Rp18
sS'accel'
p19
I0
sS'time'
p20
cdatetime
datetime
p21
(S'\x07\xdd\t\x1d\x13\n\x03\x0c\x8d\xbd'
p22
tp23
Rp24
sS'velocity'
p25
I0
sS'position'
p26
cnumpy.core.multiarray
_reconstruct
p27
(cnumpy
ndarray
p28
(I0
tp29
S'b'
p30
tp31
Rp32
(I1
(I2
tp33
g10
(S'i4'
p34
I0
I1
tp35
Rp36
(I3
S'<'
p37
NNNI-1
I-1
I0
tp38
bI00
S'\x1a\x00\x00\x00s\x00\x00\x00'
p39
tp40
bsba(i__main__
FrameData
p41
(dp42
g6
g7
sg8
g9
(g13
S'\x00\x00\x00\x00\x00\x00\x1c@'
p43
tp44
Rp45
sg19
I0
sg20
g21
(S'\x07\xdd\t\x1d\x13\n\x03\x0c\xc9\xa8'
p46
tp47
Rp48
sg25
I0
sg26
g27
(g28
(I0
tp49
g30
tp50
Rp51
(I1
(I2
tp52
g36
I00
S'\x1e\x00\x00\x00q\x00\x00\x00'
p53
tp54
bsba(i__main__
FrameData
p55
(dp56
g6
g7
sg8
g9
(g13
S'\x8a\xe3\x07\x1a\x17\xbd(@'
p57
tp58
Rp59
sg19
I0
sg20
g21
(S'\x07\xdd\t\x1d\x13\n\x03\r\n\x08'
p60
tp61
Rp62
sg25
I0
sg26
g27
(g28
(I0
tp63
g30
tp64
Rp65
(I1
(I2
tp66
g36
I00
S'#\x00\x00\x00n\x00\x00\x00'
p67
tp68
bsba(i__main__
FrameData
p69
(dp70
g6
S's'
p71
sg8
g9
(g13
S"\xe0\x11<m\xceh'@"
p72
tp73
Rp74
sg19
I0
sg20
g21
(S'\x07\xdd\t\x1d\x13\n\x03\rM\x00'
p75
tp76
Rp77
sg25
I0
sg26
g27
(g28
(I0
tp78
g30
tp79
Rp80
(I1
(I2
tp81
g36
I00
S'&\x00\x00\x00m\x00\x00\x00'
p82
tp83
bsba(i__main__
FrameData
p84
(dp85
g6
g71
sg8
g9
(g13
S'\x00\x00\x00\x00\x00\x00$@'
p86
tp87
Rp88
sg19
I0
sg20
g21
(S'\x07\xdd\t\x1d\x13\n\x03\r\x8dO'
p89
tp90
Rp91
sg25
I0
sg26
g27
(g28
(I0
tp92
g30
tp93
Rp94
(I1
(I2
tp95
g36
I00
S')\x00\x00\x00k\x00\x00\x00'
p96
tp97
bsba(i__main__
FrameData
p98
(dp99
g6
g71
sg8
g9
(g13
S'N\x017\xfac4!@'
p100
tp101
Rp102
sg19
I0
sg20
g21
(S'\x07\xdd\t\x1d\x13\n\x03\r\xcf\x88'
p103
tp104
Rp105
sg25
I0
sg26
g27
(g28
(I0
tp106
g30
tp107
Rp108
(I1
(I2
tp109
g36
I00
S',\x00\x00\x00j\x00\x00\x00'
p110
tp111
bsba(i__main__
FrameData
p112
(dp113
g6
g71
sg8
g9
(g13
S'\xc0\n\x1f\x00\xc6H\x1c@'
p114
tp115
Rp116
sg19
I0
sg20
g21
(S'\x07\xdd\t\x1d\x13\n\x03\x0e\x11k'
p117
tp118
Rp119
sg25
I0
sg26
g27
(g28
(I0
tp120
g30
tp121
Rp122
(I1
(I2
tp123
g36
I00
S'0\x00\x00\x00j\x00\x00\x00'
p124
tp125
bsba(i__main__
FrameData
p126
(dp127
g6
g71
sg8
g9
(g13
S'\x00\x00\x00\x00\x00\x00 @'
p128
tp129
Rp130
sg19
I0
sg20
g21
(S"\x07\xdd\t\x1d\x13\n\x03\x0eS'"
p131
tp132
Rp133
sg25
I0
sg26
g27
(g28
(I0
tp134
g30
tp135
Rp136
(I1
(I2
tp137
g36
I00
S'1\x00\x00\x00i\x00\x00\x00'
p138
tp139
bsba(i__main__
FrameData
p140
(dp141
g6
g71
sg8
g9
(g13
S'~\xc4#,B\xf9"@'
p142
tp143
Rp144
sg19
I0
sg20
g21
(S'\x07\xdd\t\x1d\x13\n\x03\x0e\x96:'
p145
tp146
Rp147
sg25
I0
sg26
g27
(g28
(I0
tp148
g30
tp149
Rp150
(I1
(I2
tp151
g36
I00
S'4\x00\x00\x00h\x00\x00\x00'
p152
tp153
bsba(i__main__
FrameData
p154
(dp155
g6
g71
sg8
g9
(g13
S'\xf3\xd9\xa8\xa4h\x8a%@'
p156
tp157
Rp158
sg19
I0
sg20
g21
(S'\x07\xdd\t\x1d\x13\n\x03\x0e\xd6\xe0'
p159
tp160
Rp161
sg25
I0
sg26
g27
(g28
(I0
tp162
g30
tp163
Rp164
(I1
(I2
tp165
g36
I00
S'5\x00\x00\x00g\x00\x00\x00'
p166
tp167
bsba(i__main__
FrameData
p168
(dp169
g6
g71
sg8
g9
(g13
S'\xfc\xeeci3\xd5*@'
p170
tp171
Rp172
sg19
I0
sg20
g21
(S'\x07\xdd\t\x1d\x13\n\x03\x0f\x18\x9c'
p173
tp174
Rp175
sg25
I0
sg26
g27
(g28
(I0
tp176
g30
tp177
Rp178
(I1
(I2
tp179
g36
I00
S'7\x00\x00\x00e\x00\x00\x00'
p180
tp181
bsba(i__main__
FrameData
p182
(dp183
g6
g71
sg8
g9
(g13
S'\xf3YaD+\xd8,@'
p184
tp185
Rp186
sg19
I0
sg20
g21
(S'\x07\xdd\t\x1d\x13\n\x04\x00\x12\xe8'
p187
tp188
Rp189
sg25
I0
sg26
g27
(g28
(I0
tp190
g30
tp191
Rp192
(I1
(I2
tp193
g36
I00
S'9\x00\x00\x00e\x00\x00\x00'
p194
tp195
bsba(i__main__
FrameData
p196
(dp197
g6
g71
sg8
g9
(g13
S'\xd5?\x80N\xf3\xcd1@'
p198
tp199
Rp200
sg19
I0
sg20
g21
(S'\x07\xdd\t\x1d\x13\n\x04\x00T6'
p201
tp202
Rp203
sg25
I0
sg26
g27
(g28
(I0
tp204
g30
tp205
Rp206
(I1
(I2
tp207
g36
I00
S'<\x00\x00\x00c\x00\x00\x00'
p208
tp209
bsba(i__main__
FrameData
p210
(dp211
g6
S'd'
p212
sg8
g9
(g13
S'u\x85\x18\x11\xe0\x992@'
p213
tp214
Rp215
sg19
I0
sg20
g21
(S'\x07\xdd\t\x1d\x13\n\x04\x00\x9c\x1f'
p216
tp217
Rp218
sg25
I0
sg26
g27
(g28
(I0
tp219
g30
tp220
Rp221
(I1
(I2
tp222
g36
I00
S'>\x00\x00\x00b\x00\x00\x00'
p223
tp224
bsba(i__main__
FrameData
p225
(dp226
g6
S'e'
p227
sg8
g9
(g13
S'bVc}\x9d\xb23@'
p228
tp229
Rp230
sg19
I0
sg20
g21
(S'\x07\xdd\t\x1d\x13\n\x04\x00\xdd\xbb'
p231
tp232
Rp233
sg25
I0
sg26
g27
(g28
(I0
tp234
g30
tp235
Rp236
(I1
(I2
tp237
g36
I00
S'C\x00\x00\x00^\x00\x00\x00'
p238
tp239
bsba(i__main__
FrameData
p240
(dp241
g6
g227
sg8
g9
(g13
S'u\x85\x18\x11\xe0\x992@'
p242
tp243
Rp244
sg19
I0
sg20
g21
(S'\x07\xdd\t\x1d\x13\n\x04\x01\x18e'
p245
tp246
Rp247
sg25
I0
sg26
g27
(g28
(I0
tp248
g30
tp249
Rp250
(I1
(I2
tp251
g36
I00
S'F\x00\x00\x00[\x00\x00\x00'
p252
tp253
bsba(i__main__
FrameData
p254
(dp255
g6
S'r'
p256
sg8
g9
(g13
S'N\x017\xfac41@'
p257
tp258
Rp259
sg19
I0
sg20
g21
(S'\x07\xdd\t\x1d\x13\n\x04\x01ZN'
p260
tp261
Rp262
sg25
I0
sg26
g27
(g28
(I0
tp263
g30
tp264
Rp265
(I1
(I2
tp266
g36
I00
S'H\x00\x00\x00Y\x00\x00\x00'
p267
tp268
bsba(i__main__
FrameData
p269
(dp270
g6
g256
sg8
g9
(g13
S'\xb9e(k\xee\xc8+@'
p271
tp272
Rp273
sg19
I0
sg20
g21
(S'\x07\xdd\t\x1d\x13\n\x04\x01\x9b\xfa'
p274
tp275
Rp276
sg25
I0
sg26
g27
(g28
(I0
tp277
g30
tp278
Rp279
(I1
(I2
tp280
g36
I00
S'K\x00\x00\x00W\x00\x00\x00'
p281
tp282
bsba(i__main__
FrameData
p283
(dp284
g6
g256
sg8
g9
(g13
S'\xe4\x10\xe4sW\x0f)@'
p285
tp286
Rp287
sg19
I0
sg20
g21
(S'\x07\xdd\t\x1d\x13\n\x04\x01\xdd\xc9'
p288
tp289
Rp290
sg25
I0
sg26
g27
(g28
(I0
tp291
g30
tp292
Rp293
(I1
(I2
tp294
g36
I00
S'L\x00\x00\x00V\x00\x00\x00'
p295
tp296
bsba(i__main__
FrameData
p297
(dp298
g6
g256
sg8
g9
(g13
S'\xd2\xf1}\x82U\\&@'
p299
tp300
Rp301
sg19
I0
sg20
g21
(S'\x07\xdd\t\x1d\x13\n\x04\x02\x1f\x8b'
p302
tp303
Rp304
sg25
I0
sg26
g27
(g28
(I0
tp305
g30
tp306
Rp307
(I1
(I2
tp308
g36
I00
S'M\x00\x00\x00U\x00\x00\x00'
p309
tp310
bsba(i__main__
FrameData
p311
(dp312
g6
g256
sg8
g9
(g13
S'bVc}\x9d\xb2#@'
p313
tp314
Rp315
sg19
I0
sg20
g21
(S'\x07\xdd\t\x1d\x13\n\x04\x02b\x84'
p316
tp317
Rp318
sg25
I0
sg26
g27
(g28
(I0
tp319
g30
tp320
Rp321
(I1
(I2
tp322
g36
I00
S'N\x00\x00\x00T\x00\x00\x00'
p323
tp324
bsba(i__main__
FrameData
p325
(dp326
g6
g256
sg8
g9
(g13
S'\xa8\xf4\x97\x9bw\xe3!@'
p327
tp328
Rp329
sg19
I0
sg20
g21
(S'\x07\xdd\t\x1d\x13\n\x04\x02\xa0\x9a'
p330
tp331
Rp332
sg25
I0
sg26
g27
(g28
(I0
tp333
g30
tp334
Rp335
(I1
(I2
tp336
g36
I00
S'N\x00\x00\x00S\x00\x00\x00'
p337
tp338
bsba(i__main__
FrameData
p339
(dp340
g6
g256
sg8
g9
(g13
S'p\xc4\x9d9\x8dv\x1e@'
p341
tp342
Rp343
sg19
I0
sg20
g21
(S'\x07\xdd\t\x1d\x13\n\x04\x02\xe4\xfa'
p344
tp345
Rp346
sg25
I0
sg26
g27
(g28
(I0
tp347
g30
tp348
Rp349
(I1
(I2
tp350
g36
I00
S'O\x00\x00\x00R\x00\x00\x00'
p351
tp352
bsba(i__main__
FrameData
p353
(dp354
g6
g256
sg8
g9
(g13
S'\xfc\xeeci3\xd5\x1a@'
p355
tp356
Rp357
sg19
I0
sg20
g21
(S'\x07\xdd\t\x1d\x13\n\x04\x03$\xe1'
p358
tp359
Rp360
sg25
I0
sg26
g27
(g28
(I0
tp361
g30
tp362
Rp363
(I1
(I2
tp364
g36
I00
S'O\x00\x00\x00Q\x00\x00\x00'
p365
tp366
bsba(i__main__
FrameData
p367
(dp368
g6
g256
sg8
g9
(g13
S'9\xdcc\xb3\xbfT\x18@'
p369
tp370
Rp371
sg19
I0
sg20
g21
(S'\x07\xdd\t\x1d\x13\n\x04\x03\xaab'
p372
tp373
Rp374
sg25
I0
sg26
g27
(g28
(I0
tp375
g30
tp376
Rp377
(I1
(I2
tp378
g36
I00
S'Q\x00\x00\x00Q\x00\x00\x00'
p379
tp380
bsba(i__main__
FrameData
p381
(dp382
g6
g256
sg8
g9
(g13
S'\xf6/\x12_ee\x14@'
p383
tp384
Rp385
sg19
I0
sg20
g21
(S'\x07\xdd\t\x1d\x13\n\x04\x03\xe8('
p386
tp387
Rp388
sg25
I0
sg26
g27
(g28
(I0
tp389
g30
tp390
Rp391
(I1
(I2
tp392
g36
I00
S'Q\x00\x00\x00P\x00\x00\x00'
p393
tp394
bsba(i__main__
FrameData
p395
(dp396
g6
g256
sg8
g9
(g13
S'\x07\xed\xaff\x0f~\x10@'
p397
tp398
Rp399
sg19
I0
sg20
g21
(S'\x07\xdd\t\x1d\x13\n\x04\x04(\xfb'
p400
tp401
Rp402
sg25
I0
sg26
g27
(g28
(I0
tp403
g30
tp404
Rp405
(I1
(I2
tp406
g36
I00
S'Q\x00\x00\x00O\x00\x00\x00'
p407
tp408
bsba(i__main__
FrameData
p409
(dp410
g6
g256
sg8
g9
(g13
S'\x00\x00\x00\x00\x00\x00\x10@'
p411
tp412
Rp413
sg19
I0
sg20
g21
(S'\x07\xdd\t\x1d\x13\n\x04\x04\xeb`'
p414
tp415
Rp416
sg25
I0
sg26
g27
(g28
(I0
tp417
g30
tp418
Rp419
(I1
(I2
tp420
g36
I00
S'R\x00\x00\x00O\x00\x00\x00'
p421
tp422
bsba(i__main__
FrameData
p423
(dp424
g6
g256
sg8
g9
(g13
S'\x00\x00\x00\x00\x00\x00\x00@'
p425
tp426
Rp427
sg19
I0
sg20
g21
(S'\x07\xdd\t\x1d\x13\n\x04\x07w\xa6'
p428
tp429
Rp430
sg25
I0
sg26
g27
(g28
(I0
tp431
g30
tp432
Rp433
(I1
(I2
tp434
g36
I00
S'R\x00\x00\x00M\x00\x00\x00'
p435
tp436
bsba(i__main__
FrameData
p437
(dp438
g6
g256
sg8
g9
(g13
S'\x00\x00\x00\x00\x00\x00\x08@'
p439
tp440
Rp441
sg19
I0
sg20
g21
(S'\x07\xdd\t\x1d\x13\n\x04\t\x877'
p442
tp443
Rp444
sg25
I0
sg26
g27
(g28
(I0
tp445
g30
tp446
Rp447
(I1
(I2
tp448
g36
I00
S'R\x00\x00\x00N\x00\x00\x00'
p449
tp450
bsba(i__main__
FrameData
p451
(dp452
g6
g256
sg8
g9
(g13
S'\x00\x00\x00\x00\x00\x00\x10@'
p453
tp454
Rp455
sg19
I0
sg20
g21
(S'\x07\xdd\t\x1d\x13\n\x04\n\t\xb8'
p456
tp457
Rp458
sg25
I0
sg26
g27
(g28
(I0
tp459
g30
tp460
Rp461
(I1
(I2
tp462
g36
I00
S'R\x00\x00\x00O\x00\x00\x00'
p463
tp464
bsba(i__main__
FrameData
p465
(dp466
g6
g256
sg8
g9
(g13
S'\x00\x00\x00\x00\x00\x00\x14@'
p467
tp468
Rp469
sg19
I0
sg20
g21
(S'\x07\xdd\t\x1d\x13\n\x04\nEe'
p470
tp471
Rp472
sg25
I0
sg26
g27
(g28
(I0
tp473
g30
tp474
Rp475
(I1
(I2
tp476
g36
I00
S'R\x00\x00\x00P\x00\x00\x00'
p477
tp478
bsba(i__main__
FrameData
p479
(dp480
g6
g256
sg8
g9
(g13
S'\x00\x00\x00\x00\x00\x00\x18@'
p481
tp482
Rp483
sg19
I0
sg20
g21
(S'\x07\xdd\t\x1d\x13\n\x04\n\x89`'
p484
tp485
Rp486
sg25
I0
sg26
g27
(g28
(I0
tp487
g30
tp488
Rp489
(I1
(I2
tp490
g36
I00
S'R\x00\x00\x00Q\x00\x00\x00'
p491
tp492
bsba(i__main__
FrameData
p493
(dp494
g6
g256
sg8
g9
(g13
S'\x00\x00\x00\x00\x00\x00\x1c@'
p495
tp496
Rp497
sg19
I0
sg20
g21
(S'\x07\xdd\t\x1d\x13\n\x04\n\xc7\xeb'
p498
tp499
Rp500
sg25
I0
sg26
g27
(g28
(I0
tp501
g30
tp502
Rp503
(I1
(I2
tp504
g36
I00
S'R\x00\x00\x00R\x00\x00\x00'
p505
tp506
bsba(i__main__
FrameData
p507
(dp508
g6
g256
sg8
g9
(g13
S'\x00\x00\x00\x00\x00\x00 @'
p509
tp510
Rp511
sg19
I0
sg20
g21
(S'\x07\xdd\t\x1d\x13\n\x04\x0b\x0bZ'
p512
tp513
Rp514
sg25
I0
sg26
g27
(g28
(I0
tp515
g30
tp516
Rp517
(I1
(I2
tp518
g36
I00
S'R\x00\x00\x00S\x00\x00\x00'
p519
tp520
bsba(i__main__
FrameData
p521
(dp522
g6
g256
sg8
g9
(g13
S'\x00\x00\x00\x00\x00\x00"@'
p523
tp524
Rp525
sg19
I0
sg20
g21
(S'\x07\xdd\t\x1d\x13\n\x04\x0bK\xb1'
p526
tp527
Rp528
sg25
I0
sg26
g27
(g28
(I0
tp529
g30
tp530
Rp531
(I1
(I2
tp532
g36
I00
S'R\x00\x00\x00T\x00\x00\x00'
p533
tp534
bsba(i__main__
FrameData
p535
(dp536
g6
g256
sg8
g9
(g13
S'\x00\x00\x00\x00\x00\x00$@'
p537
tp538
Rp539
sg19
I0
sg20
g21
(S'\x07\xdd\t\x1d\x13\n\x04\x0b\xd0}'
p540
tp541
Rp542
sg25
I0
sg26
g27
(g28
(I0
tp543
g30
tp544
Rp545
(I1
(I2
tp546
g36
I00
S'R\x00\x00\x00U\x00\x00\x00'
p547
tp548
bsba(i__main__
FrameData
p549
(dp550
g6
g256
sg8
g9
(g13
S'\x00\x00\x00\x00\x00\x00&@'
p551
tp552
Rp553
sg19
I0
sg20
g21
(S'\x07\xdd\t\x1d\x13\n\x04\x0c\x10\xe8'
p554
tp555
Rp556
sg25
I0
sg26
g27
(g28
(I0
tp557
g30
tp558
Rp559
(I1
(I2
tp560
g36
I00
S'R\x00\x00\x00V\x00\x00\x00'
p561
tp562
bsba(i__main__
FrameData
p563
(dp564
g6
g256
sg8
g9
(g13
S'\x00\x00\x00\x00\x00\x00(@'
p565
tp566
Rp567
sg19
I0
sg20
g21
(S'\x07\xdd\t\x1d\x13\n\x04\x0cS\xcf'
p568
tp569
Rp570
sg25
I0
sg26
g27
(g28
(I0
tp571
g30
tp572
Rp573
(I1
(I2
tp574
g36
I00
S'R\x00\x00\x00W\x00\x00\x00'
p575
tp576
bsba(i__main__
FrameData
p577
(dp578
g6
g256
sg8
g9
(g13
S'\x00\x00\x00\x00\x00\x00*@'
p579
tp580
Rp581
sg19
I0
sg20
g21
(S'\x07\xdd\t\x1d\x13\n\x04\x0c\x91\xb2'
p582
tp583
Rp584
sg25
I0
sg26
g27
(g28
(I0
tp585
g30
tp586
Rp587
(I1
(I2
tp588
g36
I00
S'R\x00\x00\x00X\x00\x00\x00'
p589
tp590
bsba(i__main__
FrameData
p591
(dp592
g6
g256
sg8
g9
(g13
S'\x00\x00\x00\x00\x00\x00,@'
p593
tp594
Rp595
sg19
I0
sg20
g21
(S'\x07\xdd\t\x1d\x13\n\x04\x0c\xd1\x99'
p596
tp597
Rp598
sg25
I0
sg26
g27
(g28
(I0
tp599
g30
tp600
Rp601
(I1
(I2
tp602
g36
I00
S'R\x00\x00\x00Y\x00\x00\x00'
p603
tp604
bsba(i__main__
FrameData
p605
(dp606
g6
g256
sg8
g9
(g13
S'\xaf_\x109\x0c\x11.@'
p607
tp608
Rp609
sg19
I0
sg20
g21
(S'\x07\xdd\t\x1d\x13\n\x04\r\x18\xed'
p610
tp611
Rp612
sg25
I0
sg26
g27
(g28
(I0
tp613
g30
tp614
Rp615
(I1
(I2
tp616
g36
I00
S'Q\x00\x00\x00Z\x00\x00\x00'
p617
tp618
bsba(i__main__
FrameData
p619
(dp620
g6
g256
sg8
g9
(g13
S')\x9ah\xdd\x85\x071@'
p621
tp622
Rp623
sg19
I0
sg20
g21
(S'\x07\xdd\t\x1d\x13\n\x04\r\\\xb3'
p624
tp625
Rp626
sg25
I0
sg26
g27
(g28
(I0
tp627
g30
tp628
Rp629
(I1
(I2
tp630
g36
I00
S'Q\x00\x00\x00\\\x00\x00\x00'
p631
tp632
bsba(i__main__
FrameData
p633
(dp634
g6
g256
sg8
g9
(g13
S'8\xd8\xbc\n\x1b\x072@'
p635
tp636
Rp637
sg19
I0
sg20
g21
(S'\x07\xdd\t\x1d\x13\n\x04\r\x95j'
p638
tp639
Rp640
sg25
I0
sg26
g27
(g28
(I0
tp641
g30
tp642
Rp643
(I1
(I2
tp644
g36
I00
S'Q\x00\x00\x00]\x00\x00\x00'
p645
tp646
bsba(i__main__
FrameData
p647
(dp648
g6
g256
sg8
g9
(g13
S'\xc3\xe7Zp\xbb\x063@'
p649
tp650
Rp651
sg19
I0
sg20
g21
(S'\x07\xdd\t\x1d\x13\n\x04\r\xd7\x06'
p652
tp653
Rp654
sg25
I0
sg26
g27
(g28
(I0
tp655
g30
tp656
Rp657
(I1
(I2
tp658
g36
I00
S'Q\x00\x00\x00^\x00\x00\x00'
p659
tp660
bsba(i__main__
FrameData
p661
(dp662
g6
g212
sg8
g9
(g13
S'8\xd8\xbc\n\x1b\x072@'
p663
tp664
Rp665
sg19
I0
sg20
g21
(S'\x07\xdd\t\x1d\x13\n\x04\x0e\x1b\x81'
p666
tp667
Rp668
sg25
I0
sg26
g27
(g28
(I0
tp669
g30
tp670
Rp671
(I1
(I2
tp672
g36
I00
S'O\x00\x00\x00`\x00\x00\x00'
p673
tp674
bsba(i__main__
FrameData
p675
(dp676
g6
g212
sg8
g9
(g13
S'\xa3\x14\xae\xa8\x87\x161@'
p677
tp678
Rp679
sg19
I0
sg20
g21
(S'\x07\xdd\t\x1d\x13\n\x04\x0eZ\x82'
p680
tp681
Rp682
sg25
I0
sg26
g27
(g28
(I0
tp683
g30
tp684
Rp685
(I1
(I2
tp686
g36
I00
S'O\x00\x00\x00a\x00\x00\x00'
p687
tp688
bsba(i__main__
FrameData
p689
(dp690
g6
g212
sg8
g9
(g13
S'p\xc4\x9d9\x8dv.@'
p691
tp692
Rp693
sg19
I0
sg20
g21
(S'\x07\xdd\t\x1d\x13\n\x04\x0e\x9e\x0c'
p694
tp695
Rp696
sg25
I0
sg26
g27
(g28
(I0
tp697
g30
tp698
Rp699
(I1
(I2
tp700
g36
I00
S'O\x00\x00\x00c\x00\x00\x00'
p701
tp702
bsba(i__main__
FrameData
p703
(dp704
g6
g212
sg8
g9
(g13
S'\xf7\x80Aq\xb9\xa2,@'
p705
tp706
Rp707
sg19
I0
sg20
g21
(S'\x07\xdd\t\x1d\x13\n\x04\x0e\xdd\x8b'
p708
tp709
Rp710
sg25
I0
sg26
g27
(g28
(I0
tp711
g30
tp712
Rp713
(I1
(I2
tp714
g36
I00
S'O\x00\x00\x00d\x00\x00\x00'
p715
tp716
bsba(i__main__
FrameData
p717
(dp718
g6
g212
sg8
g9
(g13
S'\xe4\x10\xe4sW\x0f)@'
p719
tp720
Rp721
sg19
I0
sg20
g21
(S'\x07\xdd\t\x1d\x13\n\x04\x0f\x1f3'
p722
tp723
Rp724
sg25
I0
sg26
g27
(g28
(I0
tp725
g30
tp726
Rp727
(I1
(I2
tp728
g36
I00
S'O\x00\x00\x00f\x00\x00\x00'
p729
tp730
bsba(i__main__
FrameData
p731
(dp732
g6
g212
sg8
g9
(g13
S'\xd2\xf1}\x82U\\&@'
p733
tp734
Rp735
sg19
I0
sg20
g21
(S'\x07\xdd\t\x1d\x13\n\x05\x00\x1f\x8f'
p736
tp737
Rp738
sg25
I0
sg26
g27
(g28
(I0
tp739
g30
tp740
Rp741
(I1
(I2
tp742
g36
I00
S'N\x00\x00\x00g\x00\x00\x00'
p743
tp744
bsba(i__main__
FrameData
p745
(dp746
g6
g212
sg8
g9
(g13
S'A\x87b\xc62\xde"@'
p747
tp748
Rp749
sg19
I0
sg20
g21
(S'\x07\xdd\t\x1d\x13\n\x05\x00a#'
p750
tp751
Rp752
sg25
I0
sg26
g27
(g28
(I0
tp753
g30
tp754
Rp755
(I1
(I2
tp756
g36
I00
S'N\x00\x00\x00i\x00\x00\x00'
p757
tp758
bsba(i__main__
FrameData
p759
(dp760
g6
g212
sg8
g9
(g13
S'\xd0\xbaa?\xe0\x1f @'
p761
tp762
Rp763
sg19
I0
sg20
g21
(S'\x07\xdd\t\x1d\x13\n\x05\x00\xa3*'
p764
tp765
Rp766
sg25
I0
sg26
g27
(g28
(I0
tp767
g30
tp768
Rp769
(I1
(I2
tp770
g36
I00
S'M\x00\x00\x00j\x00\x00\x00'
p771
tp772
bsba(i__main__
FrameData
p773
(dp774
g6
g212
sg8
g9
(g13
S'\x00\xff\x9f\x99\xcc\x9c\x19@'
p775
tp776
Rp777
sg19
I0
sg20
g21
(S"\x07\xdd\t\x1d\x13\n\x05\x01'\x9a"
p778
tp779
Rp780
sg25
I0
sg26
g27
(g28
(I0
tp781
g30
tp782
Rp783
(I1
(I2
tp784
g36
I00
S'M\x00\x00\x00l\x00\x00\x00'
p785
tp786
bsba(i__main__
FrameData
p787
(dp788
g6
g212
sg8
g9
(g13
S'\x00\x00\x00\x00\x00\x00\x14@'
p789
tp790
Rp791
sg19
I0
sg20
g21
(S'\x07\xdd\t\x1d\x13\n\x05\x01bf'
p792
tp793
Rp794
sg25
I0
sg26
g27
(g28
(I0
tp795
g30
tp796
Rp797
(I1
(I2
tp798
g36
I00
S'L\x00\x00\x00m\x00\x00\x00'
p799
tp800
bsba(i__main__
FrameData
p801
(dp802
g6
g212
sg8
g9
(g13
S'\xd9l\xdf\xccv\xf8\x10@'
p803
tp804
Rp805
sg19
I0
sg20
g21
(S'\x07\xdd\t\x1d\x13\n\x05\x01\xe4\xc7'
p806
tp807
Rp808
sg25
I0
sg26
g27
(g28
(I0
tp809
g30
tp810
Rp811
(I1
(I2
tp812
g36
I00
S'L\x00\x00\x00n\x00\x00\x00'
p813
tp814
bsba(i__main__
FrameData
p815
(dp816
g6
g212
sg8
g9
(g13
S'\xf3YaD+\xd8\x0c@'
p817
tp818
Rp819
sg19
I0
sg20
g21
(S'\x07\xdd\t\x1d\x13\n\x05\x02h\x99'
p820
tp821
Rp822
sg25
I0
sg26
g27
(g28
(I0
tp823
g30
tp824
Rp825
(I1
(I2
tp826
g36
I00
S'L\x00\x00\x00o\x00\x00\x00'
p827
tp828
bsba(i__main__
FrameData
p829
(dp830
g6
g212
sg8
g9
(g13
S'S[\xda:XL\t@'
p831
tp832
Rp833
sg19
I0
sg20
g21
(S'\x07\xdd\t\x1d\x13\n\x05\x03.\x17'
p834
tp835
Rp836
sg25
I0
sg26
g27
(g28
(I0
tp837
g30
tp838
Rp839
(I1
(I2
tp840
g36
I00
S'L\x00\x00\x00p\x00\x00\x00'
p841
tp842
bsba(i__main__
FrameData
p843
(dp844
g6
g212
sg8
g9
(g13
S'\x00\x00\x00\x00\x00\x00\x00@'
p845
tp846
Rp847
sg19
I0
sg20
g21
(S'\x07\xdd\t\x1d\x13\n\x05\x03q\x1e'
p848
tp849
Rp850
sg25
I0
sg26
g27
(g28
(I0
tp851
g30
tp852
Rp853
(I1
(I2
tp854
g36
I00
S'K\x00\x00\x00q\x00\x00\x00'
p855
tp856
bsba(i__main__
FrameData
p857
(dp858
g6
g212
sg8
g9
(g13
S'\xa8\xf4\x97\x9bw\xe3\x01@'
p859
tp860
Rp861
sg19
I0
sg20
g21
(S'\x07\xdd\t\x1d\x13\n\x05\x03\xf3\xdc'
p862
tp863
Rp864
sg25
I0
sg26
g27
(g28
(I0
tp865
g30
tp866
Rp867
(I1
(I2
tp868
g36
I00
S'K\x00\x00\x00r\x00\x00\x00'
p869
tp870
bsba(i__main__
FrameData
p871
(dp872
g6
g212
sg8
g9
(g13
S'\xcd;\x7ff\x9e\xa0\xf6?'
p873
tp874
Rp875
sg19
I0
sg20
g21
(S'\x07\xdd\t\x1d\x13\n\x05\x04\xbaa'
p876
tp877
Rp878
sg25
I0
sg26
g27
(g28
(I0
tp879
g30
tp880
Rp881
(I1
(I2
tp882
g36
I00
S'J\x00\x00\x00r\x00\x00\x00'
p883
tp884
bsba(i__main__
FrameData
p885
(dp886
g6
g212
sg8
g9
(g13
S'\x00\x00\x00\x00\x00\x00\xf0?'
p887
tp888
Rp889
sg19
I0
sg20
g21
(S'\x07\xdd\t\x1d\x13\n\x05\x07\xc0\xe5'
p890
tp891
Rp892
sg25
I0
sg26
g27
(g28
(I0
tp893
g30
tp894
Rp895
(I1
(I2
tp896
g36
I00
S'J\x00\x00\x00q\x00\x00\x00'
p897
tp898
bsba(i__main__
FrameData
p899
(dp900
g6
g212
sg8
g9
(g13
S'\x00\x00\x00\x00\x00\x00\x08@'
p901
tp902
Rp903
sg19
I0
sg20
g21
(S'\x07\xdd\t\x1d\x13\n\x05\x08\x03\x8c'
p904
tp905
Rp906
sg25
I0
sg26
g27
(g28
(I0
tp907
g30
tp908
Rp909
(I1
(I2
tp910
g36
I00
S'L\x00\x00\x00q\x00\x00\x00'
p911
tp912
bsba(i__main__
FrameData
p913
(dp914
g6
g212
sg8
g9
(g13
S'S[\xda:XL\t@'
p915
tp916
Rp917
sg19
I0
sg20
g21
(S'\x07\xdd\t\x1d\x13\n\x05\x08EL'
p918
tp919
Rp920
sg25
I0
sg26
g27
(g28
(I0
tp921
g30
tp922
Rp923
(I1
(I2
tp924
g36
I00
S'L\x00\x00\x00p\x00\x00\x00'
p925
tp926
bsba(i__main__
FrameData
p927
(dp928
g6
g212
sg8
g9
(g13
S'\xf6/\x12_ee\x14@'
p929
tp930
Rp931
sg19
I0
sg20
g21
(S'\x07\xdd\t\x1d\x13\n\x05\x08\x85\xf3'
p932
tp933
Rp934
sg25
I0
sg26
g27
(g28
(I0
tp935
g30
tp936
Rp937
(I1
(I2
tp938
g36
I00
S'N\x00\x00\x00p\x00\x00\x00'
p939
tp940
bsba(i__main__
FrameData
p941
(dp942
g6
g212
sg8
g9
(g13
S'S[\xda:XL\x19@'
p943
tp944
Rp945
sg19
I0
sg20
g21
(S'\x07\xdd\t\x1d\x13\n\x05\x08\xc7\xf8'
p946
tp947
Rp948
sg25
I0
sg26
g27
(g28
(I0
tp949
g30
tp950
Rp951
(I1
(I2
tp952
g36
I00
S'O\x00\x00\x00o\x00\x00\x00'
p953
tp954
bsba(i__main__
FrameData
p955
(dp956
g6
g212
sg8
g9
(g13
S'p\xc4\x9d9\x8dv\x1e@'
p957
tp958
Rp959
sg19
I0
sg20
g21
(S'\x07\xdd\t\x1d\x13\n\x05\t\t\xa6'
p960
tp961
Rp962
sg25
I0
sg26
g27
(g28
(I0
tp963
g30
tp964
Rp965
(I1
(I2
tp966
g36
I00
S'P\x00\x00\x00n\x00\x00\x00'
p967
tp968
bsba(i__main__
FrameData
p969
(dp970
g6
g212
sg8
g9
(g13
S'\xa3\x14\xae\xa8\x87\x16!@'
p971
tp972
Rp973
sg19
I0
sg20
g21
(S'\x07\xdd\t\x1d\x13\n\x05\tK\x82'
p974
tp975
Rp976
sg25
I0
sg26
g27
(g28
(I0
tp977
g30
tp978
Rp979
(I1
(I2
tp980
g36
I00
S'Q\x00\x00\x00n\x00\x00\x00'
p981
tp982
bsba(i__main__
FrameData
p983
(dp984
g6
g212
sg8
g9
(g13
S'7\xf9\xcf\xdao\xe1$@'
p985
tp986
Rp987
sg19
I0
sg20
g21
(S'\x07\xdd\t\x1d\x13\n\x05\t\x8ev'
p988
tp989
Rp990
sg25
I0
sg26
g27
(g28
(I0
tp991
g30
tp992
Rp993
(I1
(I2
tp994
g36
I00
S'S\x00\x00\x00n\x00\x00\x00'
p995
tp996
bsba(i__main__
FrameData
p997
(dp998
g6
g212
sg8
g9
(g13
S"\xe0\x11<m\xceh'@"
p999
tp1000
Rp1001
sg19
I0
sg20
g21
(S'\x07\xdd\t\x1d\x13\n\x05\t\xca\x83'
p1002
tp1003
Rp1004
sg25
I0
sg26
g27
(g28
(I0
tp1005
g30
tp1006
Rp1007
(I1
(I2
tp1008
g36
I00
S'T\x00\x00\x00m\x00\x00\x00'
p1009
tp1010
bsba(i__main__
FrameData
p1011
(dp1012
g6
S'f'
p1013
sg8
g9
(g13
S"\xa2\xa3\xb3\r\xe5R'@"
p1014
tp1015
Rp1016
sg19
I0
sg20
g21
(S'\x07\xdd\t\x1d\x13\n\x05\n\x10\xf7'
p1017
tp1018
Rp1019
sg25
I0
sg26
g27
(g28
(I0
tp1020
g30
tp1021
Rp1022
(I1
(I2
tp1023
g36
I00
S'V\x00\x00\x00l\x00\x00\x00'
p1024
tp1025
bsba(i__main__
FrameData
p1026
(dp1027
g6
g1013
sg8
g9
(g13
S'w\x03Is \xa2%@'
p1028
tp1029
Rp1030
sg19
I0
sg20
g21
(S'\x07\xdd\t\x1d\x13\n\x05\nR\xcd'
p1031
tp1032
Rp1033
sg25
I0
sg26
g27
(g28
(I0
tp1034
g30
tp1035
Rp1036
(I1
(I2
tp1037
g36
I00
S'W\x00\x00\x00l\x00\x00\x00'
p1038
tp1039
bsba(i__main__
FrameData
p1040
(dp1041
g6
g1013
sg8
g9
(g13
S'\x9a.\x90!hp"@'
p1042
tp1043
Rp1044
sg19
I0
sg20
g21
(S'\x07\xdd\t\x1d\x13\n\x05\n\x8e\xb7'
p1045
tp1046
Rp1047
sg25
I0
sg26
g27
(g28
(I0
tp1048
g30
tp1049
Rp1050
(I1
(I2
tp1051
g36
I00
S'Y\x00\x00\x00l\x00\x00\x00'
p1052
tp1053
bsba(i__main__
FrameData
p1054
(dp1055
g6
g1013
sg8
g9
(g13
S'N\x017\xfac4!@'
p1056
tp1057
Rp1058
sg19
I0
sg20
g21
(S'\x07\xdd\t\x1d\x13\n\x05\n\xd7\xab'
p1059
tp1060
Rp1061
sg25
I0
sg26
g27
(g28
(I0
tp1062
g30
tp1063
Rp1064
(I1
(I2
tp1065
g36
I00
S'[\x00\x00\x00k\x00\x00\x00'
p1066
tp1067
bsba(i__main__
FrameData
p1068
(dp1069
g6
g1013
sg8
g9
(g13
S'\x07\xed\xaff\x0f~ @'
p1070
tp1071
Rp1072
sg19
I0
sg20
g21
(S'\x07\xdd\t\x1d\x13\n\x05\x0b\x11\x16'
p1073
tp1074
Rp1075
sg25
I0
sg26
g27
(g28
(I0
tp1076
g30
tp1077
Rp1078
(I1
(I2
tp1079
g36
I00
S'^\x00\x00\x00j\x00\x00\x00'
p1080
tp1081
bsba(i__main__
FrameData
p1082
(dp1083
g6
g1013
sg8
g9
(g13
S'$\xf8\xd9p[\x1c"@'
p1084
tp1085
Rp1086
sg19
I0
sg20
g21
(S'\x07\xdd\t\x1d\x13\n\x05\x0bS\xf1'
p1087
tp1088
Rp1089
sg25
I0
sg26
g27
(g28
(I0
tp1090
g30
tp1091
Rp1092
(I1
(I2
tp1093
g36
I00
S'a\x00\x00\x00i\x00\x00\x00'
p1094
tp1095
bsba(i__main__
FrameData
p1096
(dp1097
g6
g1013
sg8
g9
(g13
S'\xd2\xf1}\x82U\\&@'
p1098
tp1099
Rp1100
sg19
I0
sg20
g21
(S'\x07\xdd\t\x1d\x13\n\x05\x0b\x94\xac'
p1101
tp1102
Rp1103
sg25
I0
sg26
g27
(g28
(I0
tp1104
g30
tp1105
Rp1106
(I1
(I2
tp1107
g36
I00
S'e\x00\x00\x00h\x00\x00\x00'
p1108
tp1109
bsba(i__main__
FrameData
p1110
(dp1111
g6
g1013
sg8
g9
(g13
S'\x00\xff\x9f\x99\xcc\x9c)@'
p1112
tp1113
Rp1114
sg19
I0
sg20
g21
(S'\x07\xdd\t\x1d\x13\n\x05\x0b\xd6\xbc'
p1115
tp1116
Rp1117
sg25
I0
sg26
g27
(g28
(I0
tp1118
g30
tp1119
Rp1120
(I1
(I2
tp1121
g36
I00
S'h\x00\x00\x00h\x00\x00\x00'
p1122
tp1123
bsba(i__main__
FrameData
p1124
(dp1125
g6
g1013
sg8
g9
(g13
S'\xb4\xb8=iA\xe8*@'
p1126
tp1127
Rp1128
sg19
I0
sg20
g21
(S"\x07\xdd\t\x1d\x13\n\x05\x0c\x17'"
p1129
tp1130
Rp1131
sg25
I0
sg26
g27
(g28
(I0
tp1132
g30
tp1133
Rp1134
(I1
(I2
tp1135
g36
I00
S'i\x00\x00\x00h\x00\x00\x00'
p1136
tp1137
bsba(i__main__
FrameData
p1138
(dp1139
g6
g1013
sg8
g9
(g13
S'/\xa4\xe3\\m\xbb-@'
p1140
tp1141
Rp1142
sg19
I0
sg20
g21
(S'\x07\xdd\t\x1d\x13\n\x05\x0cZ/'
p1143
tp1144
Rp1145
sg25
I0
sg26
g27
(g28
(I0
tp1146
g30
tp1147
Rp1148
(I1
(I2
tp1149
g36
I00
S'k\x00\x00\x00h\x00\x00\x00'
p1150
tp1151
bsba(i__main__
FrameData
p1152
(dp1153
g6
S'g'
p1154
sg8
g9
(g13
S'9\xf2\xee\xcc\xd9\x1c/@'
p1155
tp1156
Rp1157
sg19
I0
sg20
g21
(S'\x07\xdd\t\x1d\x13\n\x05\x0c\x9d*'
p1158
tp1159
Rp1160
sg25
I0
sg26
g27
(g28
(I0
tp1161
g30
tp1162
Rp1163
(I1
(I2
tp1164
g36
I00
S'm\x00\x00\x00g\x00\x00\x00'
p1165
tp1166
bsba(i__main__
FrameData
p1167
(dp1168
g6
g1154
sg8
g9
(g13
S'?*\x98"\xe3l,@'
p1169
tp1170
Rp1171
sg19
I0
sg20
g21
(S'\x07\xdd\t\x1d\x13\n\x05\x0c\xdd\xd2'
p1172
tp1173
Rp1174
sg25
I0
sg26
g27
(g28
(I0
tp1175
g30
tp1176
Rp1177
(I1
(I2
tp1178
g36
I00
S'o\x00\x00\x00g\x00\x00\x00'
p1179
tp1180
bsba(i__main__
FrameData
p1181
(dp1182
g6
g1154
sg8
g9
(g13
S'\xb9e(k\xee\xc8+@'
p1183
tp1184
Rp1185
sg19
I0
sg20
g21
(S'\x07\xdd\t\x1d\x13\n\x05\r\x1f\xb2'
p1186
tp1187
Rp1188
sg25
I0
sg26
g27
(g28
(I0
tp1189
g30
tp1190
Rp1191
(I1
(I2
tp1192
g36
I00
S'q\x00\x00\x00f\x00\x00\x00'
p1193
tp1194
bsba(i__main__
FrameData
p1195
(dp1196
g6
g1154
sg8
g9
(g13
S'\x00\x00\x00\x00\x00\x00*@'
p1197
tp1198
Rp1199
sg19
I0
sg20
g21
(S'\x07\xdd\t\x1d\x13\n\x05\r[\xff'
p1200
tp1201
Rp1202
sg25
I0
sg26
g27
(g28
(I0
tp1203
g30
tp1204
Rp1205
(I1
(I2
tp1206
g36
I00
S's\x00\x00\x00f\x00\x00\x00'
p1207
tp1208
bsba(i__main__
FrameData
p1209
(dp1210
g6
g1154
sg8
g9
(g13
S'8H\x9b\x97\xee\xae*@'
p1211
tp1212
Rp1213
sg19
I0
sg20
g21
(S'\x07\xdd\t\x1d\x13\n\x05\r\x9d\x19'
p1214
tp1215
Rp1216
sg25
I0
sg26
g27
(g28
(I0
tp1217
g30
tp1218
Rp1219
(I1
(I2
tp1220
g36
I00
S'u\x00\x00\x00e\x00\x00\x00'
p1221
tp1222
bsba(i__main__
FrameData
p1223
(dp1224
g6
g1154
sg8
g9
(g13
S'Qf\x99\xcb\xa9\x13*@'
p1225
tp1226
Rp1227
sg19
I0
sg20
g21
(S'\x07\xdd\t\x1d\x13\n\x05\r\xe3e'
p1228
tp1229
Rp1230
sg25
I0
sg26
g27
(g28
(I0
tp1231
g30
tp1232
Rp1233
(I1
(I2
tp1234
g36
I00
S'w\x00\x00\x00e\x00\x00\x00'
p1235
tp1236
bsba(i__main__
FrameData
p1237
(dp1238
g6
g1154
sg8
g9
(g13
S'Qf\x99\xcb\xa9\x13*@'
p1239
tp1240
Rp1241
sg19
I0
sg20
g21
(S'\x07\xdd\t\x1d\x13\n\x05\x0e\x1f\xbd'
p1242
tp1243
Rp1244
sg25
I0
sg26
g27
(g28
(I0
tp1245
g30
tp1246
Rp1247
(I1
(I2
tp1248
g36
I00
S'y\x00\x00\x00e\x00\x00\x00'
p1249
tp1250
bsba(i__main__
FrameData
p1251
(dp1252
g6
g1154
sg8
g9
(g13
S'8H\x9b\x97\xee\xae*@'
p1253
tp1254
Rp1255
sg19
I0
sg20
g21
(S'\x07\xdd\t\x1d\x13\n\x05\x0ea\x83'
p1256
tp1257
Rp1258
sg25
I0
sg26
g27
(g28
(I0
tp1259
g30
tp1260
Rp1261
(I1
(I2
tp1262
g36
I00
S'{\x00\x00\x00e\x00\x00\x00'
p1263
tp1264
bsba(i__main__
FrameData
p1265
(dp1266
g6
g1154
sg8
g9
(g13
S'p\xc4\x9d9\x8dv.@'
p1267
tp1268
Rp1269
sg19
I0
sg20
g21
(S'\x07\xdd\t\x1d\x13\n\x05\x0e\xa3h'
p1270
tp1271
Rp1272
sg25
I0
sg26
g27
(g28
(I0
tp1273
g30
tp1274
Rp1275
(I1
(I2
tp1276
g36
I00
S'~\x00\x00\x00d\x00\x00\x00'
p1277
tp1278
bsba(i__main__
FrameData
p1279
(dp1280
g6
g1154
sg8
g9
(g13
S'A\x87b\xc62\xde2@'
p1281
tp1282
Rp1283
sg19
I0
sg20
g21
(S'\x07\xdd\t\x1d\x13\n\x05\x0e\xe57'
p1284
tp1285
Rp1286
sg25
I0
sg26
g27
(g28
(I0
tp1287
g30
tp1288
Rp1289
(I1
(I2
tp1290
g36
I00
S'\x82\x00\x00\x00b\x00\x00\x00'
p1291
tp1292
bsba(i__main__
FrameData
p1293
(dp1294
g6
S'y'
p1295
sg8
g9
(g13
S'\xc9\xe0>!B<3@'
p1296
tp1297
Rp1298
sg19
I0
sg20
g21
(S'\x07\xdd\t\x1d\x13\n\x05\x0f(6'
p1299
tp1300
Rp1301
sg25
I0
sg26
g27
(g28
(I0
tp1302
g30
tp1303
Rp1304
(I1
(I2
tp1305
g36
I00
S'\x85\x00\x00\x00`\x00\x00\x00'
p1306
tp1307
bsba(i__main__
FrameData
p1308
(dp1309
g6
g1295
sg8
g9
(g13
S'\x96`G\xb3\x80b2@'
p1310
tp1311
Rp1312
sg19
I0
sg20
g21
(S'\x07\xdd\t\x1d\x13\n\x06\x00&\xba'
p1313
tp1314
Rp1315
sg25
I0
sg26
g27
(g28
(I0
tp1316
g30
tp1317
Rp1318
(I1
(I2
tp1319
g36
I00
S'\x89\x00\x00\x00^\x00\x00\x00'
p1320
tp1321
bsba(i__main__
FrameData
p1322
(dp1323
g6
g1295
sg8
g9
(g13
S'A\x87b\xc62\xde2@'
p1324
tp1325
Rp1326
sg19
I0
sg20
g21
(S'\x07\xdd\t\x1d\x13\n\x06\x00e\xa7'
p1327
tp1328
Rp1329
sg25
I0
sg26
g27
(g28
(I0
tp1330
g30
tp1331
Rp1332
(I1
(I2
tp1333
g36
I00
S'\x8c\x00\x00\x00]\x00\x00\x00'
p1334
tp1335
bsba(i__main__
FrameData
p1336
(dp1337
g6
S'u'
p1338
sg8
g9
(g13
S'\x96`G\xb3\x80b2@'
p1339
tp1340
Rp1341
sg19
I0
sg20
g21
(S'\x07\xdd\t\x1d\x13\n\x06\x00\xaaA'
p1342
tp1343
Rp1344
sg25
I0
sg26
g27
(g28
(I0
tp1345
g30
tp1346
Rp1347
(I1
(I2
tp1348
g36
I00
S'\x91\x00\x00\x00[\x00\x00\x00'
p1349
tp1350
bsba(i__main__
FrameData
p1351
(dp1352
g6
g1338
sg8
g9
(g13
S"'\xf2\x90In\x9f/@"
p1353
tp1354
Rp1355
sg19
I0
sg20
g21
(S'\x07\xdd\t\x1d\x13\n\x06\x00\xeb%'
p1356
tp1357
Rp1358
sg25
I0
sg26
g27
(g28
(I0
tp1359
g30
tp1360
Rp1361
(I1
(I2
tp1362
g36
I00
S'\x93\x00\x00\x00Y\x00\x00\x00'
p1363
tp1364
bsba(i__main__
FrameData
p1365
(dp1366
g6
g1338
sg8
g9
(g13
S'\xf2G\x9b\x0e\x18\x98.@'
p1367
tp1368
Rp1369
sg19
I0
sg20
g21
(S'\x07\xdd\t\x1d\x13\n\x06\x01.\n'
p1370
tp1371
Rp1372
sg25
I0
sg26
g27
(g28
(I0
tp1373
g30
tp1374
Rp1375
(I1
(I2
tp1376
g36
I00
S'\x95\x00\x00\x00Y\x00\x00\x00'
p1377
tp1378
bsba(i__main__
FrameData
p1379
(dp1380
g6
g1338
sg8
g9
(g13
S'Qf\x99\xcb\xa9\x13*@'
p1381
tp1382
Rp1383
sg19
I0
sg20
g21
(S'\x07\xdd\t\x1d\x13\n\x06\x01o\xc4'
p1384
tp1385
Rp1386
sg25
I0
sg26
g27
(g28
(I0
tp1387
g30
tp1388
Rp1389
(I1
(I2
tp1390
g36
I00
S'\x97\x00\x00\x00W\x00\x00\x00'
p1391
tp1392
bsba(i__main__
FrameData
p1393
(dp1394
g6
g1338
sg8
g9
(g13
S'\x00\x00\x00\x00\x00\x00(@'
p1395
tp1396
Rp1397
sg19
I0
sg20
g21
(S'\x07\xdd\t\x1d\x13\n\x06\x01\xec\x15'
p1398
tp1399
Rp1400
sg25
I0
sg26
g27
(g28
(I0
tp1401
g30
tp1402
Rp1403
(I1
(I2
tp1404
g36
I00
S'\x98\x00\x00\x00V\x00\x00\x00'
p1405
tp1406
bsba(i__main__
FrameData
p1407
(dp1408
g6
g1338
sg8
g9
(g13
S'H\xaa*\x8f9\x17&@'
p1409
tp1410
Rp1411
sg19
I0
sg20
g21
(S'\x07\xdd\t\x1d\x13\n\x06\x02/\x0b'
p1412
tp1413
Rp1414
sg25
I0
sg26
g27
(g28
(I0
tp1415
g30
tp1416
Rp1417
(I1
(I2
tp1418
g36
I00
S'\x99\x00\x00\x00U\x00\x00\x00'
p1419
tp1420
bsba(i__main__
FrameData
p1421
(dp1422
g6
g1338
sg8
g9
(g13
S'\xf0)#L\x89\x19$@'
p1423
tp1424
Rp1425
sg19
I0
sg20
g21
(S'\x07\xdd\t\x1d\x13\n\x06\x02q\xb2'
p1426
tp1427
Rp1428
sg25
I0
sg26
g27
(g28
(I0
tp1429
g30
tp1430
Rp1431
(I1
(I2
tp1432
g36
I00
S'\x99\x00\x00\x00T\x00\x00\x00'
p1433
tp1434
bsba(i__main__
FrameData
p1435
(dp1436
g6
g1338
sg8
g9
(g13
S'7\xf9\xcf\xdao\xe1$@'
p1437
tp1438
Rp1439
sg19
I0
sg20
g21
(S'\x07\xdd\t\x1d\x13\n\x06\x02\xc1&'
p1440
tp1441
Rp1442
sg25
I0
sg26
g27
(g28
(I0
tp1443
g30
tp1444
Rp1445
(I1
(I2
tp1446
g36
I00
S'\x9b\x00\x00\x00T\x00\x00\x00'
p1447
tp1448
bsba(i__main__
FrameData
p1449
(dp1450
g6
g1338
sg8
g9
(g13
S'~\xc4#,B\xf9"@'
p1451
tp1452
Rp1453
sg19
I0
sg20
g21
(S'\x07\xdd\t\x1d\x13\n\x06\x02\xf8\xe9'
p1454
tp1455
Rp1456
sg25
I0
sg26
g27
(g28
(I0
tp1457
g30
tp1458
Rp1459
(I1
(I2
tp1460
g36
I00
S'\x9b\x00\x00\x00S\x00\x00\x00'
p1461
tp1462
bsba(i__main__
FrameData
p1463
(dp1464
g6
g1338
sg8
g9
(g13
S'\xa3\x14\xae\xa8\x87\x16!@'
p1465
tp1466
Rp1467
sg19
I0
sg20
g21
(S'\x07\xdd\t\x1d\x13\n\x06\x03\xf9K'
p1468
tp1469
Rp1470
sg25
I0
sg26
g27
(g28
(I0
tp1471
g30
tp1472
Rp1473
(I1
(I2
tp1474
g36
I00
S'\x9b\x00\x00\x00R\x00\x00\x00'
p1475
tp1476
bsba(i__main__
FrameData
p1477
(dp1478
g6
g1338
sg8
g9
(g13
S'\xd0\xbaa?\xe0\x1f @'
p1479
tp1480
Rp1481
sg19
I0
sg20
g21
(S'\x07\xdd\t\x1d\x13\n\x06\x06\x90x'
p1482
tp1483
Rp1484
sg25
I0
sg26
g27
(g28
(I0
tp1485
g30
tp1486
Rp1487
(I1
(I2
tp1488
g36
I00
S'\x9c\x00\x00\x00Q\x00\x00\x00'
p1489
tp1490
bsba(i__main__
FrameData
p1491
(dp1492
g6
g1338
sg8
g9
(g13
S'\xa8\xf4\x97\x9bw\xe3!@'
p1493
tp1494
Rp1495
sg19
I0
sg20
g21
(S'\x07\xdd\t\x1d\x13\n\x06\t\x10\xf3'
p1496
tp1497
Rp1498
sg25
I0
sg26
g27
(g28
(I0
tp1499
g30
tp1500
Rp1501
(I1
(I2
tp1502
g36
I00
S'\x9c\x00\x00\x00R\x00\x00\x00'
p1503
tp1504
bsba(i__main__
FrameData
p1505
(dp1506
g6
g1338
sg8
g9
(g13
S'bVc}\x9d\xb2#@'
p1507
tp1508
Rp1509
sg19
I0
sg20
g21
(S'\x07\xdd\t\x1d\x13\n\x06\tk\xf8'
p1510
tp1511
Rp1512
sg25
I0
sg26
g27
(g28
(I0
tp1513
g30
tp1514
Rp1515
(I1
(I2
tp1516
g36
I00
S'\x9c\x00\x00\x00S\x00\x00\x00'
p1517
tp1518
bsba(i__main__
FrameData
p1519
(dp1520
g6
g1338
sg8
g9
(g13
S'\xf3\xd9\xa8\xa4h\x8a%@'
p1521
tp1522
Rp1523
sg19
I0
sg20
g21
(S'\x07\xdd\t\x1d\x13\n\x06\t\xd39'
p1524
tp1525
Rp1526
sg25
I0
sg26
g27
(g28
(I0
tp1527
g30
tp1528
Rp1529
(I1
(I2
tp1530
g36
I00
S'\x9c\x00\x00\x00T\x00\x00\x00'
p1531
tp1532
bsba(i__main__
FrameData
p1533
(dp1534
g6
g1338
sg8
g9
(g13
S"\xe0\x11<m\xceh'@"
p1535
tp1536
Rp1537
sg19
I0
sg20
g21
(S'\x07\xdd\t\x1d\x13\n\x06\nbC'
p1538
tp1539
Rp1540
sg25
I0
sg26
g27
(g28
(I0
tp1541
g30
tp1542
Rp1543
(I1
(I2
tp1544
g36
I00
S'\x9c\x00\x00\x00U\x00\x00\x00'
p1545
tp1546
bsba(i__main__
FrameData
p1547
(dp1548
g6
g1338
sg8
g9
(g13
S'S[\xda:XL)@'
p1549
tp1550
Rp1551
sg19
I0
sg20
g21
(S'\x07\xdd\t\x1d\x13\n\x06\n\xfeI'
p1552
tp1553
Rp1554
sg25
I0
sg26
g27
(g28
(I0
tp1555
g30
tp1556
Rp1557
(I1
(I2
tp1558
g36
I00
S'\x9c\x00\x00\x00V\x00\x00\x00'
p1559
tp1560
bsba(i__main__
FrameData
p1561
(dp1562
g6
g1338
sg8
g9
(g13
S'\x00\x00\x00\x00\x00\x00*@'
p1563
tp1564
Rp1565
sg19
I0
sg20
g21
(S'\x07\xdd\t\x1d\x13\n\x06\x0b\xb1\x1f'
p1566
tp1567
Rp1568
sg25
I0
sg26
g27
(g28
(I0
tp1569
g30
tp1570
Rp1571
(I1
(I2
tp1572
g36
I00
S'\x9d\x00\x00\x00V\x00\x00\x00'
p1573
tp1574
bsba(i__main__
FrameData
p1575
(dp1576
g6
g1338
sg8
g9
(g13
S'\xfc\xeeci3\xd5*@'
p1577
tp1578
Rp1579
sg19
I0
sg20
g21
(S'\x07\xdd\t\x1d\x13\n\x06\x0c\x00\x84'
p1580
tp1581
Rp1582
sg25
I0
sg26
g27
(g28
(I0
tp1583
g30
tp1584
Rp1585
(I1
(I2
tp1586
g36
I00
S'\x9e\x00\x00\x00V\x00\x00\x00'
p1587
tp1588
bsba(i__main__
FrameData
p1589
(dp1590
g6
g1338
sg8
g9
(g13
S'\xf3YaD+\xd8,@'
p1591
tp1592
Rp1593
sg19
I0
sg20
g21
(S'\x07\xdd\t\x1d\x13\n\x06\x0c&\xc4'
p1594
tp1595
Rp1596
sg25
I0
sg26
g27
(g28
(I0
tp1597
g30
tp1598
Rp1599
(I1
(I2
tp1600
g36
I00
S'\xa0\x00\x00\x00V\x00\x00\x00'
p1601
tp1602
bsba(i__main__
FrameData
p1603
(dp1604
g6
g1338
sg8
g9
(g13
S'\x10\xb3]\xc9`G0@'
p1605
tp1606
Rp1607
sg19
I0
sg20
g21
(S'\x07\xdd\t\x1d\x13\n\x06\x0cs\xd1'
p1608
tp1609
Rp1610
sg25
I0
sg26
g27
(g28
(I0
tp1611
g30
tp1612
Rp1613
(I1
(I2
tp1614
g36
I00
S'\xa3\x00\x00\x00V\x00\x00\x00'
p1615
tp1616
bsba(i__main__
FrameData
p1617
(dp1618
g6
S'i'
p1619
sg8
g9
(g13
S'\x10\xb3]\xc9`G0@'
p1620
tp1621
Rp1622
sg19
I0
sg20
g21
(S'\x07\xdd\t\x1d\x13\n\x06\x0c\xc2R'
p1623
tp1624
Rp1625
sg25
I0
sg26
g27
(g28
(I0
tp1626
g30
tp1627
Rp1628
(I1
(I2
tp1629
g36
I00
S'\xa6\x00\x00\x00V\x00\x00\x00'
p1630
tp1631
bsba(i__main__
FrameData
p1632
(dp1633
g6
g1619
sg8
g9
(g13
S'\xef\rI\xf1\xf33+@'
p1634
tp1635
Rp1636
sg19
I0
sg20
g21
(S'\x07\xdd\t\x1d\x13\n\x06\x0c\xe6!'
p1637
tp1638
Rp1639
sg25
I0
sg26
g27
(g28
(I0
tp1640
g30
tp1641
Rp1642
(I1
(I2
tp1643
g36
I00
S'\xaa\x00\x00\x00V\x00\x00\x00'
p1644
tp1645
bsba(i__main__
FrameData
p1646
(dp1647
g6
g1619
sg8
g9
(g13
S'lNy\x00\x85*(@'
p1648
tp1649
Rp1650
sg19
I0
sg20
g21
(S'\x07\xdd\t\x1d\x13\n\x06\r/\x92'
p1651
tp1652
Rp1653
sg25
I0
sg26
g27
(g28
(I0
tp1654
g30
tp1655
Rp1656
(I1
(I2
tp1657
g36
I00
S'\xad\x00\x00\x00V\x00\x00\x00'
p1658
tp1659
bsba(i__main__
FrameData
p1660
(dp1661
g6
g1619
sg8
g9
(g13
S'H\xaa*\x8f9\x17&@'
p1662
tp1663
Rp1664
sg19
I0
sg20
g21
(S'\x07\xdd\t\x1d\x13\n\x06\rr0'
p1665
tp1666
Rp1667
sg25
I0
sg26
g27
(g28
(I0
tp1668
g30
tp1669
Rp1670
(I1
(I2
tp1671
g36
I00
S'\xb1\x00\x00\x00V\x00\x00\x00'
p1672
tp1673
bsba(i__main__
FrameData
p1674
(dp1675
g6
g1619
sg8
g9
(g13
S'\xd2\xf1}\x82U\\&@'
p1676
tp1677
Rp1678
sg19
I0
sg20
g21
(S'\x07\xdd\t\x1d\x13\n\x06\r\xb8\xa0'
p1679
tp1680
Rp1681
sg25
I0
sg26
g27
(g28
(I0
tp1682
g30
tp1683
Rp1684
(I1
(I2
tp1685
g36
I00
S'\xb4\x00\x00\x00V\x00\x00\x00'
p1686
tp1687
bsba(i__main__
FrameData
p1688
(dp1689
g6
g1619
sg8
g9
(g13
S"\xe0\x11<m\xceh'@"
p1690
tp1691
Rp1692
sg19
I0
sg20
g21
(S'\x07\xdd\t\x1d\x13\n\x06\r\xfb\x08'
p1693
tp1694
Rp1695
sg25
I0
sg26
g27
(g28
(I0
tp1696
g30
tp1697
Rp1698
(I1
(I2
tp1699
g36
I00
S'\xb6\x00\x00\x00V\x00\x00\x00'
p1700
tp1701
bsba(i__main__
FrameData
p1702
(dp1703
g6
g1619
sg8
g9
(g13
S'lNy\x00\x85*(@'
p1704
tp1705
Rp1706
sg19
I0
sg20
g21
(S'\x07\xdd\t\x1d\x13\n\x06\x0e,l'
p1707
tp1708
Rp1709
sg25
I0
sg26
g27
(g28
(I0
tp1710
g30
tp1711
Rp1712
(I1
(I2
tp1713
g36
I00
S'\xb7\x00\x00\x00V\x00\x00\x00'
p1714
tp1715
bsba(i__main__
FrameData
p1716
(dp1717
g6
g1619
sg8
g9
(g13
S'Qf\x99\xcb\xa9\x13*@'
p1718
tp1719
Rp1720
sg19
I0
sg20
g21
(S'\x07\xdd\t\x1d\x13\n\x06\x0ew"'
p1721
tp1722
Rp1723
sg25
I0
sg26
g27
(g28
(I0
tp1724
g30
tp1725
Rp1726
(I1
(I2
tp1727
g36
I00
S'\xb9\x00\x00\x00V\x00\x00\x00'
p1728
tp1729
bsba(i__main__
FrameData
p1730
(dp1731
g6
g1619
sg8
g9
(g13
S'\x00\xff\x9f\x99\xcc\x9c)@'
p1732
tp1733
Rp1734
sg19
I0
sg20
g21
(S'\x07\xdd\t\x1d\x13\n\x06\x0e\xb5\x88'
p1735
tp1736
Rp1737
sg25
I0
sg26
g27
(g28
(I0
tp1738
g30
tp1739
Rp1740
(I1
(I2
tp1741
g36
I00
S'\xba\x00\x00\x00U\x00\x00\x00'
p1742
tp1743
bsba(i__main__
FrameData
p1744
(dp1745
g6
g1619
sg8
g9
(g13
S'\xc0\n\x1f\x00\xc6H,@'
p1746
tp1747
Rp1748
sg19
I0
sg20
g21
(S'\x07\xdd\t\x1d\x13\n\x06\x0e\xf2J'
p1749
tp1750
Rp1751
sg25
I0
sg26
g27
(g28
(I0
tp1752
g30
tp1753
Rp1754
(I1
(I2
tp1755
g36
I00
S'\xbc\x00\x00\x00U\x00\x00\x00'
p1756
tp1757
bsba(i__main__
FrameData
p1758
(dp1759
g6
g1619
sg8
g9
(g13
S'?*\x98"\xe3l,@'
p1760
tp1761
Rp1762
sg19
I0
sg20
g21
(S'\x07\xdd\t\x1d\x13\n\x06\x0f2v'
p1763
tp1764
Rp1765
sg25
I0
sg26
g27
(g28
(I0
tp1766
g30
tp1767
Rp1768
(I1
(I2
tp1769
g36
I00
S'\xbd\x00\x00\x00T\x00\x00\x00'
p1770
tp1771
bsba(i__main__
FrameData
p1772
(dp1773
g6
g1619
sg8
g9
(g13
S'\x00\x00\x00\x00\x00\x00.@'
p1774
tp1775
Rp1776
sg19
I0
sg20
g21
(S'\x07\xdd\t\x1d\x13\n\x07\x00/\xe2'
p1777
tp1778
Rp1779
sg25
I0
sg26
g27
(g28
(I0
tp1780
g30
tp1781
Rp1782
(I1
(I2
tp1783
g36
I00
S'\xbe\x00\x00\x00T\x00\x00\x00'
p1784
tp1785
bsba(i__main__
FrameData
p1786
(dp1787
g6
S'o'
p1788
sg8
g9
(g13
S'\xb4\xb8=iA\xe8*@'
p1789
tp1790
Rp1791
sg19
I0
sg20
g21
(S'\x07\xdd\t\x1d\x13\n\x07\x00m\x8c'
p1792
tp1793
Rp1794
sg25
I0
sg26
g27
(g28
(I0
tp1795
g30
tp1796
Rp1797
(I1
(I2
tp1798
g36
I00
S'\xc0\x00\x00\x00T\x00\x00\x00'
p1799
tp1800
bsba(i__main__
FrameData
p1801
(dp1802
g6
g1788
sg8
g9
(g13
S'&5w\xe2K\x15(@'
p1803
tp1804
Rp1805
sg19
I0
sg20
g21
(S'\x07\xdd\t\x1d\x13\n\x07\x00\xc09'
p1806
tp1807
Rp1808
sg25
I0
sg26
g27
(g28
(I0
tp1809
g30
tp1810
Rp1811
(I1
(I2
tp1812
g36
I00
S'\xc1\x00\x00\x00S\x00\x00\x00'
p1813
tp1814
bsba(i__main__
FrameData
p1815
(dp1816
g6
g1788
sg8
g9
(g13
S'ST\xaf\x99\x8a\xcc#@'
p1817
tp1818
Rp1819
sg19
I0
sg20
g21
(S'\x07\xdd\t\x1d\x13\n\x07\x01\x0fw'
p1820
tp1821
Rp1822
sg25
I0
sg26
g27
(g28
(I0
tp1823
g30
tp1824
Rp1825
(I1
(I2
tp1826
g36
I00
S'\xc3\x00\x00\x00R\x00\x00\x00'
p1827
tp1828
bsba(i__main__
FrameData
p1829
(dp1830
g6
g1788
sg8
g9
(g13
S'\xd9l\xdf\xccv\xf8 @'
p1831
tp1832
Rp1833
sg19
I0
sg20
g21
(S'\x07\xdd\t\x1d\x13\n\x07\x014o'
p1834
tp1835
Rp1836
sg25
I0
sg26
g27
(g28
(I0
tp1837
g30
tp1838
Rp1839
(I1
(I2
tp1840
g36
I00
S'\xc4\x00\x00\x00Q\x00\x00\x00'
p1841
tp1842
bsba(i__main__
FrameData
p1843
(dp1844
g6
g1788
sg8
g9
(g13
S'\xc0\n\x1f\x00\xc6H\x1c@'
p1845
tp1846
Rp1847
sg19
I0
sg20
g21
(S'\x07\xdd\t\x1d\x13\n\x07\x01\x82\x82'
p1848
tp1849
Rp1850
sg25
I0
sg26
g27
(g28
(I0
tp1851
g30
tp1852
Rp1853
(I1
(I2
tp1854
g36
I00
S'\xc5\x00\x00\x00P\x00\x00\x00'
p1855
tp1856
bsba(i__main__
FrameData
p1857
(dp1858
g6
g1788
sg8
g9
(g13
S'\x00\xff\x9f\x99\xcc\x9c\x19@'
p1859
tp1860
Rp1861
sg19
I0
sg20
g21
(S'\x07\xdd\t\x1d\x13\n\x07\x01\xc3\xb1'
p1862
tp1863
Rp1864
sg25
I0
sg26
g27
(g28
(I0
tp1865
g30
tp1866
Rp1867
(I1
(I2
tp1868
g36
I00
S'\xc6\x00\x00\x00P\x00\x00\x00'
p1869
tp1870
bsba(i__main__
FrameData
p1871
(dp1872
g6
g1788
sg8
g9
(g13
S'\x00\x00\x00\x00\x00\x00\x14@'
p1873
tp1874
Rp1875
sg19
I0
sg20
g21
(S'\x07\xdd\t\x1d\x13\n\x07\x01\xf9\x82'
p1876
tp1877
Rp1878
sg25
I0
sg26
g27
(g28
(I0
tp1879
g30
tp1880
Rp1881
(I1
(I2
tp1882
g36
I00
S'\xc7\x00\x00\x00O\x00\x00\x00'
p1883
tp1884
bsba(i__main__
FrameData
p1885
(dp1886
g6
g1788
sg8
g9
(g13
S'\xf3YaD+\xd8\x0c@'
p1887
tp1888
Rp1889
sg19
I0
sg20
g21
(S'\x07\xdd\t\x1d\x13\n\x07\x02E\xbc'
p1890
tp1891
Rp1892
sg25
I0
sg26
g27
(g28
(I0
tp1893
g30
tp1894
Rp1895
(I1
(I2
tp1896
g36
I00
S'\xc7\x00\x00\x00M\x00\x00\x00'
p1897
tp1898
bsba(i__main__
FrameData
p1899
(dp1900
g6
g1788
sg8
g9
(g13
S'\xa8\xf4\x97\x9bw\xe3\x01@'
p1901
tp1902
Rp1903
sg19
I0
sg20
g21
(S'\x07\xdd\t\x1d\x13\n\x07\x02\xba\xfe'
p1904
tp1905
Rp1906
sg25
I0
sg26
g27
(g28
(I0
tp1907
g30
tp1908
Rp1909
(I1
(I2
tp1910
g36
I00
S'\xc9\x00\x00\x00M\x00\x00\x00'
p1911
tp1912
bsba(i__main__
FrameData
p1913
(dp1914
g6
g1788
sg8
g9
(g13
S'\xcd;\x7ff\x9e\xa0\xf6?'
p1915
tp1916
Rp1917
sg19
I0
sg20
g21
(S'\x07\xdd\t\x1d\x13\n\x07\x03\x06>'
p1918
tp1919
Rp1920
sg25
I0
sg26
g27
(g28
(I0
tp1921
g30
tp1922
Rp1923
(I1
(I2
tp1924
g36
I00
S'\xc9\x00\x00\x00L\x00\x00\x00'
p1925
tp1926
bsba(i__main__
FrameData
p1927
(dp1928
g6
g1788
sg8
g9
(g13
S'\xcd;\x7ff\x9e\xa0\xf6?'
p1929
tp1930
Rp1931
sg19
I0
sg20
g21
(S'\x07\xdd\t\x1d\x13\n\x07\x03D\xb1'
p1932
tp1933
Rp1934
sg25
I0
sg26
g27
(g28
(I0
tp1935
g30
tp1936
Rp1937
(I1
(I2
tp1938
g36
I00
S'\xcb\x00\x00\x00L\x00\x00\x00'
p1939
tp1940
bsba(i__main__
FrameData
p1941
(dp1942
g6
g1788
sg8
g9
(g13
S'\xa8\xf4\x97\x9bw\xe3\x01@'
p1943
tp1944
Rp1945
sg19
I0
sg20
g21
(S'\x07\xdd\t\x1d\x13\n\x07\x03\xc0\x92'
p1946
tp1947
Rp1948
sg25
I0
sg26
g27
(g28
(I0
tp1949
g30
tp1950
Rp1951
(I1
(I2
tp1952
g36
I00
S'\xcc\x00\x00\x00L\x00\x00\x00'
p1953
tp1954
bsba(i__main__
FrameData
p1955
(dp1956
g6
g1788
sg8
g9
(g13
S'\xcd;\x7ff\x9e\xa0\xf6?'
p1957
tp1958
Rp1959
sg19
I0
sg20
g21
(S'\x07\xdd\t\x1d\x13\n\x07\x0b\xf7x'
p1960
tp1961
Rp1962
sg25
I0
sg26
g27
(g28
(I0
tp1963
g30
tp1964
Rp1965
(I1
(I2
tp1966
g36
I00
S'\xcb\x00\x00\x00L\x00\x00\x00'
p1967
tp1968
bsba(i__main__
FrameData
p1969
(dp1970
g6
g1788
sg8
g9
(g13
S'\x00\x00\x00\x00\x00\x00\xf0?'
p1971
tp1972
Rp1973
sg19
I0
sg20
g21
(S'\x07\xdd\t\x1d\x13\n\x07\x0cFD'
p1974
tp1975
Rp1976
sg25
I0
sg26
g27
(g28
(I0
tp1977
g30
tp1978
Rp1979
(I1
(I2
tp1980
g36
I00
S'\xca\x00\x00\x00L\x00\x00\x00'
p1981
tp1982
bsba(i__main__
FrameData
p1983
(dp1984
g6
g1788
sg8
g9
(g13
S'\x00\x00\x00\x00\x00\x00\x00@'
p1985
tp1986
Rp1987
sg19
I0
sg20
g21
(S'\x07\xdd\t\x1d\x13\n\x07\x0c\xba2'
p1988
tp1989
Rp1990
sg25
I0
sg26
g27
(g28
(I0
tp1991
g30
tp1992
Rp1993
(I1
(I2
tp1994
g36
I00
S'\xca\x00\x00\x00M\x00\x00\x00'
p1995
tp1996
bsba(i__main__
FrameData
p1997
(dp1998
g6
g1788
sg8
g9
(g13
S'\xf3YaD+\xd8\x0c@'
p1999
tp2000
Rp2001
sg19
I0
sg20
g21
(S'\x07\xdd\t\x1d\x13\n\x07\r/\x8f'
p2002
tp2003
Rp2004
sg25
I0
sg26
g27
(g28
(I0
tp2005
g30
tp2006
Rp2007
(I1
(I2
tp2008
g36
I00
S'\xc8\x00\x00\x00N\x00\x00\x00'
p2009
tp2010
bsba(i__main__
FrameData
p2011
(dp2012
g6
g1788
sg8
g9
(g13
S'\x00\x00\x00\x00\x00\x00\x14@'
p2013
tp2014
Rp2015
sg19
I0
sg20
g21
(S'\x07\xdd\t\x1d\x13\n\x07\rm;'
p2016
tp2017
Rp2018
sg25
I0
sg26
g27
(g28
(I0
tp2019
g30
tp2020
Rp2021
(I1
(I2
tp2022
g36
I00
S'\xc7\x00\x00\x00O\x00\x00\x00'
p2023
tp2024
bsba(i__main__
FrameData
p2025
(dp2026
g6
g1788
sg8
g9
(g13
S'\xcd;\x7ff\x9e\xa0\x16@'
p2027
tp2028
Rp2029
sg19
I0
sg20
g21
(S'\x07\xdd\t\x1d\x13\n\x07\r\xb8Z'
p2030
tp2031
Rp2032
sg25
I0
sg26
g27
(g28
(I0
tp2033
g30
tp2034
Rp2035
(I1
(I2
tp2036
g36
I00
S'\xc6\x00\x00\x00O\x00\x00\x00'
p2037
tp2038
bsba(i__main__
FrameData
p2039
(dp2040
g6
g1788
sg8
g9
(g13
S'\xc0\n\x1f\x00\xc6H\x1c@'
p2041
tp2042
Rp2043
sg19
I0
sg20
g21
(S'\x07\xdd\t\x1d\x13\n\x07\r\xf3\x98'
p2044
tp2045
Rp2046
sg25
I0
sg26
g27
(g28
(I0
tp2047
g30
tp2048
Rp2049
(I1
(I2
tp2050
g36
I00
S'\xc5\x00\x00\x00P\x00\x00\x00'
p2051
tp2052
bsba(i__main__
FrameData
p2053
(dp2054
g6
g1788
sg8
g9
(g13
S'N\x017\xfac4!@'
p2055
tp2056
Rp2057
sg19
I0
sg20
g21
(S'\x07\xdd\t\x1d\x13\n\x07\x0eA\xaa'
p2058
tp2059
Rp2060
sg25
I0
sg26
g27
(g28
(I0
tp2061
g30
tp2062
Rp2063
(I1
(I2
tp2064
g36
I00
S'\xc3\x00\x00\x00P\x00\x00\x00'
p2065
tp2066
bsba(i__main__
FrameData
p2067
(dp2068
g6
g1788
sg8
g9
(g13
S'ST\xaf\x99\x8a\xcc#@'
p2069
tp2070
Rp2071
sg19
I0
sg20
g21
(S'\x07\xdd\t\x1d\x13\n\x07\x0e\x86b'
p2072
tp2073
Rp2074
sg25
I0
sg26
g27
(g28
(I0
tp2075
g30
tp2076
Rp2077
(I1
(I2
tp2078
g36
I00
S'\xc3\x00\x00\x00R\x00\x00\x00'
p2079
tp2080
bsba(i__main__
FrameData
p2081
(dp2082
g6
g1788
sg8
g9
(g13
S'\xeb\x12\xb2\xbb\xb2\xcd&@'
p2083
tp2084
Rp2085
sg19
I0
sg20
g21
(S'\x07\xdd\t\x1d\x13\n\x07\x0f\x04\xfc'
p2086
tp2087
Rp2088
sg25
I0
sg26
g27
(g28
(I0
tp2089
g30
tp2090
Rp2091
(I1
(I2
tp2092
g36
I00
S'\xc1\x00\x00\x00R\x00\x00\x00'
p2093
tp2094
bsba(i__main__
FrameData
p2095
(dp2096
g6
g1788
sg8
g9
(g13
S'Qf\x99\xcb\xa9\x13*@'
p2097
tp2098
Rp2099
sg19
I0
sg20
g21
(S'\x07\xdd\t\x1d\x13\n\x07\x0f:j'
p2100
tp2101
Rp2102
sg25
I0
sg26
g27
(g28
(I0
tp2103
g30
tp2104
Rp2105
(I1
(I2
tp2106
g36
I00
S'\xbf\x00\x00\x00R\x00\x00\x00'
p2107
tp2108
bsba(i__main__
FrameData
p2109
(dp2110
g6
g1619
sg8
g9
(g13
S'\xf3YaD+\xd8,@'
p2111
tp2112
Rp2113
sg19
I0
sg20
g21
(S'\x07\xdd\t\x1d\x13\n\x08\x007\xf6'
p2114
tp2115
Rp2116
sg25
I0
sg26
g27
(g28
(I0
tp2117
g30
tp2118
Rp2119
(I1
(I2
tp2120
g36
I00
S'\xbe\x00\x00\x00S\x00\x00\x00'
p2121
tp2122
bsba(i__main__
FrameData
p2123
(dp2124
g6
g1619
sg8
g9
(g13
S'&5w\xe2K\x15(@'
p2125
tp2126
Rp2127
sg19
I0
sg20
g21
(S'\x07\xdd\t\x1d\x13\n\x08\x00v\x83'
p2128
tp2129
Rp2130
sg25
I0
sg26
g27
(g28
(I0
tp2131
g30
tp2132
Rp2133
(I1
(I2
tp2134
g36
I00
S'\xbb\x00\x00\x00S\x00\x00\x00'
p2135
tp2136
bsba(i__main__
FrameData
p2137
(dp2138
g6
g1619
sg8
g9
(g13
S'6\xd0\xd2x\xa2B%@'
p2139
tp2140
Rp2141
sg19
I0
sg20
g21
(S'\x07\xdd\t\x1d\x13\n\x08\x00\xbb\x14'
p2142
tp2143
Rp2144
sg25
I0
sg26
g27
(g28
(I0
tp2145
g30
tp2146
Rp2147
(I1
(I2
tp2148
g36
I00
S'\xb9\x00\x00\x00S\x00\x00\x00'
p2149
tp2150
bsba(i__main__
FrameData
p2151
(dp2152
g6
g1619
sg8
g9
(g13
S'A\x87b\xc62\xde"@'
p2153
tp2154
Rp2155
sg19
I0
sg20
g21
(S'\x07\xdd\t\x1d\x13\n\x08\x00\xfa\xb8'
p2156
tp2157
Rp2158
sg25
I0
sg26
g27
(g28
(I0
tp2159
g30
tp2160
Rp2161
(I1
(I2
tp2162
g36
I00
S'\xb7\x00\x00\x00S\x00\x00\x00'
p2163
tp2164
bsba(i__main__
FrameData
p2165
(dp2166
g6
g1619
sg8
g9
(g13
S'\xa3\x14\xae\xa8\x87\x16!@'
p2167
tp2168
Rp2169
sg19
I0
sg20
g21
(S'\x07\xdd\t\x1d\x13\n\x08\x01CH'
p2170
tp2171
Rp2172
sg25
I0
sg26
g27
(g28
(I0
tp2173
g30
tp2174
Rp2175
(I1
(I2
tp2176
g36
I00
S'\xb5\x00\x00\x00S\x00\x00\x00'
p2177
tp2178
bsba(i__main__
FrameData
p2179
(dp2180
g6
g1619
sg8
g9
(g13
S'\x07\xed\xaff\x0f~ @'
p2181
tp2182
Rp2183
sg19
I0
sg20
g21
(S'\x07\xdd\t\x1d\x13\n\x08\x01\x91\x8e'
p2184
tp2185
Rp2186
sg25
I0
sg26
g27
(g28
(I0
tp2187
g30
tp2188
Rp2189
(I1
(I2
tp2190
g36
I00
S'\xb4\x00\x00\x00S\x00\x00\x00'
p2191
tp2192
bsba(i__main__
FrameData
p2193
(dp2194
g6
g1619
sg8
g9
(g13
S'\xd0\xbaa?\xe0\x1f @'
p2195
tp2196
Rp2197
sg19
I0
sg20
g21
(S'\x07\xdd\t\x1d\x13\n\x08\x01\xd5Z'
p2198
tp2199
Rp2200
sg25
I0
sg26
g27
(g28
(I0
tp2201
g30
tp2202
Rp2203
(I1
(I2
tp2204
g36
I00
S'\xb3\x00\x00\x00S\x00\x00\x00'
p2205
tp2206
bsba(i__main__
FrameData
p2207
(dp2208
g6
g1619
sg8
g9
(g13
S'\x00\x00\x00\x00\x00\x00 @'
p2209
tp2210
Rp2211
sg19
I0
sg20
g21
(S'\x07\xdd\t\x1d\x13\n\x08\x02\x06\x9f'
p2212
tp2213
Rp2214
sg25
I0
sg26
g27
(g28
(I0
tp2215
g30
tp2216
Rp2217
(I1
(I2
tp2218
g36
I00
S'\xb2\x00\x00\x00S\x00\x00\x00'
p2219
tp2220
bsba(i__main__
FrameData
p2221
(dp2222
g6
g1619
sg8
g9
(g13
S'\xd0\xbaa?\xe0\x1f @'
p2223
tp2224
Rp2225
sg19
I0
sg20
g21
(S'\x07\xdd\t\x1d\x13\n\x08\x02\x91\x19'
p2226
tp2227
Rp2228
sg25
I0
sg26
g27
(g28
(I0
tp2229
g30
tp2230
Rp2231
(I1
(I2
tp2232
g36
I00
S'\xb1\x00\x00\x00S\x00\x00\x00'
p2233
tp2234
bsba(i__main__
FrameData
p2235
(dp2236
g6
g1619
sg8
g9
(g13
S'\x07\xed\xaff\x0f~ @'
p2237
tp2238
Rp2239
sg19
I0
sg20
g21
(S'\x07\xdd\t\x1d\x13\n\x08\x02\xc9\xed'
p2240
tp2241
Rp2242
sg25
I0
sg26
g27
(g28
(I0
tp2243
g30
tp2244
Rp2245
(I1
(I2
tp2246
g36
I00
S'\xb0\x00\x00\x00S\x00\x00\x00'
p2247
tp2248
bsba(i__main__
FrameData
p2249
(dp2250
g6
g1619
sg8
g9
(g13
S'\xa3\x14\xae\xa8\x87\x16!@'
p2251
tp2252
Rp2253
sg19
I0
sg20
g21
(S'\x07\xdd\t\x1d\x13\n\x08\x03\x0c\xcd'
p2254
tp2255
Rp2256
sg25
I0
sg26
g27
(g28
(I0
tp2257
g30
tp2258
Rp2259
(I1
(I2
tp2260
g36
I00
S'\xaf\x00\x00\x00S\x00\x00\x00'
p2261
tp2262
bsba(i__main__
FrameData
p2263
(dp2264
g6
g1619
sg8
g9
(g13
S'A\x87b\xc62\xde"@'
p2265
tp2266
Rp2267
sg19
I0
sg20
g21
(S'\x07\xdd\t\x1d\x13\n\x08\x03TP'
p2268
tp2269
Rp2270
sg25
I0
sg26
g27
(g28
(I0
tp2271
g30
tp2272
Rp2273
(I1
(I2
tp2274
g36
I00
S'\xad\x00\x00\x00S\x00\x00\x00'
p2275
tp2276
bsba(i__main__
FrameData
p2277
(dp2278
g6
g1619
sg8
g9
(g13
S'\x00\x00\x00\x00\x00\x00$@'
p2279
tp2280
Rp2281
sg19
I0
sg20
g21
(S'\x07\xdd\t\x1d\x13\n\x08\x03\x84I'
p2282
tp2283
Rp2284
sg25
I0
sg26
g27
(g28
(I0
tp2285
g30
tp2286
Rp2287
(I1
(I2
tp2288
g36
I00
S'\xac\x00\x00\x00S\x00\x00\x00'
p2289
tp2290
bsba(i__main__
FrameData
p2291
(dp2292
g6
g1619
sg8
g9
(g13
S'6\xd0\xd2x\xa2B%@'
p2293
tp2294
Rp2295
sg19
I0
sg20
g21
(S'\x07\xdd\t\x1d\x13\n\x08\x03\xc9\xfa'
p2296
tp2297
Rp2298
sg25
I0
sg26
g27
(g28
(I0
tp2299
g30
tp2300
Rp2301
(I1
(I2
tp2302
g36
I00
S'\xab\x00\x00\x00S\x00\x00\x00'
p2303
tp2304
bsba(i__main__
FrameData
p2305
(dp2306
g6
g1619
sg8
g9
(g13
S'w\x03Is \xa2%@'
p2307
tp2308
Rp2309
sg19
I0
sg20
g21
(S'\x07\xdd\t\x1d\x13\n\x08\x04\x08P'
p2310
tp2311
Rp2312
sg25
I0
sg26
g27
(g28
(I0
tp2313
g30
tp2314
Rp2315
(I1
(I2
tp2316
g36
I00
S'\xa9\x00\x00\x00Q\x00\x00\x00'
p2317
tp2318
bsba(i__main__
FrameData
p2319
(dp2320
g6
g1619
sg8
g9
(g13
S"\xa2\xa3\xb3\r\xe5R'@"
p2321
tp2322
Rp2323
sg19
I0
sg20
g21
(S'\x07\xdd\t\x1d\x13\n\x08\x04V\xea'
p2324
tp2325
Rp2326
sg25
I0
sg26
g27
(g28
(I0
tp2327
g30
tp2328
Rp2329
(I1
(I2
tp2330
g36
I00
S'\xa8\x00\x00\x00Q\x00\x00\x00'
p2331
tp2332
bsba(i__main__
FrameData
p2333
(dp2334
g6
g1619
sg8
g9
(g13
S'lNy\x00\x85*(@'
p2335
tp2336
Rp2337
sg19
I0
sg20
g21
(S'\x07\xdd\t\x1d\x13\n\x08\x04\x92u'
p2338
tp2339
Rp2340
sg25
I0
sg26
g27
(g28
(I0
tp2341
g30
tp2342
Rp2343
(I1
(I2
tp2344
g36
I00
S'\xa7\x00\x00\x00P\x00\x00\x00'
p2345
tp2346
bsba(i__main__
FrameData
p2347
(dp2348
g6
g1619
sg8
g9
(g13
S'\xbc\xfdP\xb5U\xdb+@'
p2349
tp2350
Rp2351
sg19
I0
sg20
g21
(S'\x07\xdd\t\x1d\x13\n\x08\x04\xcf\xd9'
p2352
tp2353
Rp2354
sg25
I0
sg26
g27
(g28
(I0
tp2355
g30
tp2356
Rp2357
(I1
(I2
tp2358
g36
I00
S'\xa5\x00\x00\x00P\x00\x00\x00'
p2359
tp2360
bsba(i__main__
FrameData
p2361
(dp2362
g6
g1338
sg8
g9
(g13
S'\xe4\x10\xe4sW\x0f)@'
p2363
tp2364
Rp2365
sg19
I0
sg20
g21
(S'\x07\xdd\t\x1d\x13\n\x08\x05\x1aP'
p2366
tp2367
Rp2368
sg25
I0
sg26
g27
(g28
(I0
tp2369
g30
tp2370
Rp2371
(I1
(I2
tp2372
g36
I00
S'\xa3\x00\x00\x00P\x00\x00\x00'
p2373
tp2374
bsba(i__main__
FrameData
p2375
(dp2376
g6
g1338
sg8
g9
(g13
S"\xa2\xa3\xb3\r\xe5R'@"
p2377
tp2378
Rp2379
sg19
I0
sg20
g21
(S'\x07\xdd\t\x1d\x13\n\x08\x05\x8e|'
p2380
tp2381
Rp2382
sg25
I0
sg26
g27
(g28
(I0
tp2383
g30
tp2384
Rp2385
(I1
(I2
tp2386
g36
I00
S'\xa2\x00\x00\x00P\x00\x00\x00'
p2387
tp2388
bsba(i__main__
FrameData
p2389
(dp2390
g6
g1338
sg8
g9
(g13
S'\x00\x00\x00\x00\x00\x00$@'
p2391
tp2392
Rp2393
sg19
I0
sg20
g21
(S'\x07\xdd\t\x1d\x13\n\x08\x05\xd1@'
p2394
tp2395
Rp2396
sg25
I0
sg26
g27
(g28
(I0
tp2397
g30
tp2398
Rp2399
(I1
(I2
tp2400
g36
I00
S'\xa0\x00\x00\x00P\x00\x00\x00'
p2401
tp2402
bsba(i__main__
FrameData
p2403
(dp2404
g6
g1338
sg8
g9
(g13
S'\x9a.\x90!hp"@'
p2405
tp2406
Rp2407
sg19
I0
sg20
g21
(S'\x07\xdd\t\x1d\x13\n\x08\x06S\xa9'
p2408
tp2409
Rp2410
sg25
I0
sg26
g27
(g28
(I0
tp2411
g30
tp2412
Rp2413
(I1
(I2
tp2414
g36
I00
S'\x9f\x00\x00\x00P\x00\x00\x00'
p2415
tp2416
bsba(i__main__
FrameData
p2417
(dp2418
g6
g1338
sg8
g9
(g13
S'\xd9l\xdf\xccv\xf8 @'
p2419
tp2420
Rp2421
sg19
I0
sg20
g21
(S'\x07\xdd\t\x1d\x13\n\x08\x06\xa1\x16'
p2422
tp2423
Rp2424
sg25
I0
sg26
g27
(g28
(I0
tp2425
g30
tp2426
Rp2427
(I1
(I2
tp2428
g36
I00
S'\x9e\x00\x00\x00P\x00\x00\x00'
p2429
tp2430
bsba(i__main__
FrameData
p2431
(dp2432
g6
g1338
sg8
g9
(g13
S'htN\x17\xb2=\x1f@'
p2433
tp2434
Rp2435
sg19
I0
sg20
g21
(S'\x07\xdd\t\x1d\x13\n\x08\x06\xef\x95'
p2436
tp2437
Rp2438
sg25
I0
sg26
g27
(g28
(I0
tp2439
g30
tp2440
Rp2441
(I1
(I2
tp2442
g36
I00
S'\x9d\x00\x00\x00P\x00\x00\x00'
p2443
tp2444
bsba(i__main__
FrameData
p2445
(dp2446
g6
g1338
sg8
g9
(g13
S'\x00\xff\x9f\x99\xcc\x9c\x19@'
p2447
tp2448
Rp2449
sg19
I0
sg20
g21
(S'\x07\xdd\t\x1d\x13\n\x08\x07=R'
p2450
tp2451
Rp2452
sg25
I0
sg26
g27
(g28
(I0
tp2453
g30
tp2454
Rp2455
(I1
(I2
tp2456
g36
I00
S'\x9c\x00\x00\x00O\x00\x00\x00'
p2457
tp2458
bsba(i__main__
FrameData
p2459
(dp2460
g6
g1338
sg8
g9
(g13
S'\x00\x00\x00\x00\x00\x00\x14@'
p2461
tp2462
Rp2463
sg19
I0
sg20
g21
(S'\x07\xdd\t\x1d\x13\n\x08\x07[\xc3'
p2464
tp2465
Rp2466
sg25
I0
sg26
g27
(g28
(I0
tp2467
g30
tp2468
Rp2469
(I1
(I2
tp2470
g36
I00
S'\x9b\x00\x00\x00N\x00\x00\x00'
p2471
tp2472
bsba(i__main__
FrameData
p2473
(dp2474
g6
g1338
sg8
g9
(g13
S'\xa8\xf4\x97\x9bw\xe3\x11@'
p2475
tp2476
Rp2477
sg19
I0
sg20
g21
(S'\x07\xdd\t\x1d\x13\n\x08\x07\x98a'
p2478
tp2479
Rp2480
sg25
I0
sg26
g27
(g28
(I0
tp2481
g30
tp2482
Rp2483
(I1
(I2
tp2484
g36
I00
S'\x9a\x00\x00\x00N\x00\x00\x00'
p2485
tp2486
bsba(i__main__
FrameData
p2487
(dp2488
g6
g1338
sg8
g9
(g13
S'\xf3YaD+\xd8\x0c@'
p2489
tp2490
Rp2491
sg19
I0
sg20
g21
(S'\x07\xdd\t\x1d\x13\n\x08\x08,e'
p2492
tp2493
Rp2494
sg25
I0
sg26
g27
(g28
(I0
tp2495
g30
tp2496
Rp2497
(I1
(I2
tp2498
g36
I00
S'\x9a\x00\x00\x00M\x00\x00\x00'
p2499
tp2500
bsba(i__main__
FrameData
p2501
(dp2502
g6
g1338
sg8
g9
(g13
S'\xa8\xf4\x97\x9bw\xe3\x01@'
p2503
tp2504
Rp2505
sg19
I0
sg20
g21
(S'\x07\xdd\t\x1d\x13\n\x08\t!\x0c'
p2506
tp2507
Rp2508
sg25
I0
sg26
g27
(g28
(I0
tp2509
g30
tp2510
Rp2511
(I1
(I2
tp2512
g36
I00
S'\x99\x00\x00\x00L\x00\x00\x00'
p2513
tp2514
bsba(i__main__
FrameData
p2515
(dp2516
g6
g1338
sg8
g9
(g13
S'S[\xda:XL\t@'
p2517
tp2518
Rp2519
sg19
I0
sg20
g21
(S'\x07\xdd\t\x1d\x13\n\t\x07\xa0V'
p2520
tp2521
Rp2522
sg25
I0
sg26
g27
(g28
(I0
tp2523
g30
tp2524
Rp2525
(I1
(I2
tp2526
g36
I00
S'\x99\x00\x00\x00M\x00\x00\x00'
p2527
tp2528
bsba(i__main__
FrameData
p2529
(dp2530
g6
g1338
sg8
g9
(g13
S'\x00\x00\x00\x00\x00\x00\x08@'
p2531
tp2532
Rp2533
sg19
I0
sg20
g21
(S'\x07\xdd\t\x1d\x13\n\t\x08#q'
p2534
tp2535
Rp2536
sg25
I0
sg26
g27
(g28
(I0
tp2537
g30
tp2538
Rp2539
(I1
(I2
tp2540
g36
I00
S'\x98\x00\x00\x00M\x00\x00\x00'
p2541
tp2542
bsba(i__main__
FrameData
p2543
(dp2544
g6
g1338
sg8
g9
(g13
S'\x00\x00\x00\x00\x00\x00\x10@'
p2545
tp2546
Rp2547
sg19
I0
sg20
g21
(S'\x07\xdd\t\x1d\x13\n\t\x08jd'
p2548
tp2549
Rp2550
sg25
I0
sg26
g27
(g28
(I0
tp2551
g30
tp2552
Rp2553
(I1
(I2
tp2554
g36
I00
S'\x98\x00\x00\x00N\x00\x00\x00'
p2555
tp2556
bsba(i__main__
FrameData
p2557
(dp2558
g6
g1338
sg8
g9
(g13
S'\xa8\xf4\x97\x9bw\xe3\x11@'
p2559
tp2560
Rp2561
sg19
I0
sg20
g21
(S'\x07\xdd\t\x1d\x13\n\t\x08\xa7\x0e'
p2562
tp2563
Rp2564
sg25
I0
sg26
g27
(g28
(I0
tp2565
g30
tp2566
Rp2567
(I1
(I2
tp2568
g36
I00
S'\x96\x00\x00\x00N\x00\x00\x00'
p2569
tp2570
bsba(i__main__
FrameData
p2571
(dp2572
g6
g1338
sg8
g9
(g13
S'\xd0\xbaa?\xe0\x1f @'
p2573
tp2574
Rp2575
sg19
I0
sg20
g21
(S'\x07\xdd\t\x1d\x13\n\t\x08\xe7r'
p2576
tp2577
Rp2578
sg25
I0
sg26
g27
(g28
(I0
tp2579
g30
tp2580
Rp2581
(I1
(I2
tp2582
g36
I00
S'\x94\x00\x00\x00Q\x00\x00\x00'
p2583
tp2584
bsba(i__main__
FrameData
p2585
(dp2586
g6
g1338
sg8
g9
(g13
S'\x00\xff\x9f\x99\xcc\x9c)@'
p2587
tp2588
Rp2589
sg19
I0
sg20
g21
(S'\x07\xdd\t\x1d\x13\n\t\t+\r'
p2590
tp2591
Rp2592
sg25
I0
sg26
g27
(g28
(I0
tp2593
g30
tp2594
Rp2595
(I1
(I2
tp2596
g36
I00
S'\x90\x00\x00\x00T\x00\x00\x00'
p2597
tp2598
bsba(i__main__
FrameData
p2599
(dp2600
g6
g1295
sg8
g9
(g13
S'?*\x98"\xe3l,@'
p2601
tp2602
Rp2603
sg19
I0
sg20
g21
(S'\x07\xdd\t\x1d\x13\n\t\ti\xb4'
p2604
tp2605
Rp2606
sg25
I0
sg26
g27
(g28
(I0
tp2607
g30
tp2608
Rp2609
(I1
(I2
tp2610
g36
I00
S'\x8b\x00\x00\x00X\x00\x00\x00'
p2611
tp2612
bsba(i__main__
FrameData
p2613
(dp2614
g6
g1295
sg8
g9
(g13
S'/\xa4\xe3\\m\xbb-@'
p2615
tp2616
Rp2617
sg19
I0
sg20
g21
(S'\x07\xdd\t\x1d\x13\n\t\t\xab\x17'
p2618
tp2619
Rp2620
sg25
I0
sg26
g27
(g28
(I0
tp2621
g30
tp2622
Rp2623
(I1
(I2
tp2624
g36
I00
S'\x87\x00\x00\x00[\x00\x00\x00'
p2625
tp2626
bsba(i__main__
FrameData
p2627
(dp2628
g6
g1295
sg8
g9
(g13
S'\xd0\xbaa?\xe0\x1f0@'
p2629
tp2630
Rp2631
sg19
I0
sg20
g21
(S'\x07\xdd\t\x1d\x13\n\t\t\xf5B'
p2632
tp2633
Rp2634
sg25
I0
sg26
g27
(g28
(I0
tp2635
g30
tp2636
Rp2637
(I1
(I2
tp2638
g36
I00
S'\x84\x00\x00\x00]\x00\x00\x00'
p2639
tp2640
bsba(i__main__
FrameData
p2641
(dp2642
g6
g1295
sg8
g9
(g13
S'8\xd8\xbc\n\x1b\x072@'
p2643
tp2644
Rp2645
sg19
I0
sg20
g21
(S'\x07\xdd\t\x1d\x13\n\t\n2\xf0'
p2646
tp2647
Rp2648
sg25
I0
sg26
g27
(g28
(I0
tp2649
g30
tp2650
Rp2651
(I1
(I2
tp2652
g36
I00
S'\x81\x00\x00\x00_\x00\x00\x00'
p2653
tp2654
bsba(i__main__
FrameData
p2655
(dp2656
g6
g1295
sg8
g9
(g13
S'+\xe5\x8a\xc6\x8f?2@'
p2657
tp2658
Rp2659
sg19
I0
sg20
g21
(S'\x07\xdd\t\x1d\x13\n\t\nq\x9d'
p2660
tp2661
Rp2662
sg25
I0
sg26
g27
(g28
(I0
tp2663
g30
tp2664
Rp2665
(I1
(I2
tp2666
g36
I00
S'\x7f\x00\x00\x00_\x00\x00\x00'
p2667
tp2668
bsba(i__main__
FrameData
p2669
(dp2670
g6
g1295
sg8
g9
(g13
S'X(/\x84y\xae2@'
p2671
tp2672
Rp2673
sg19
I0
sg20
g21
(S'\x07\xdd\t\x1d\x13\n\t\n\xb6\xd9'
p2674
tp2675
Rp2676
sg25
I0
sg26
g27
(g28
(I0
tp2677
g30
tp2678
Rp2679
(I1
(I2
tp2680
g36
I00
S'}\x00\x00\x00_\x00\x00\x00'
p2681
tp2682
bsba(i__main__
FrameData
p2683
(dp2684
g6
g1154
sg8
g9
(g13
S'\x9a.\x90!hp2@'
p2685
tp2686
Rp2687
sg19
I0
sg20
g21
(S'\x07\xdd\t\x1d\x13\n\t\n\xf4\x84'
p2688
tp2689
Rp2690
sg25
I0
sg26
g27
(g28
(I0
tp2691
g30
tp2692
Rp2693
(I1
(I2
tp2694
g36
I00
S'|\x00\x00\x00`\x00\x00\x00'
p2695
tp2696
bsba(i__main__
FrameData
p2697
(dp2698
g6
g1154
sg8
g9
(g13
S'+\xe5\x8a\xc6\x8f?2@'
p2699
tp2700
Rp2701
sg19
I0
sg20
g21
(S'\x07\xdd\t\x1d\x13\n\t\x0b2\x08'
p2702
tp2703
Rp2704
sg25
I0
sg26
g27
(g28
(I0
tp2705
g30
tp2706
Rp2707
(I1
(I2
tp2708
g36
I00
S'{\x00\x00\x00`\x00\x00\x00'
p2709
tp2710
bsba(i__main__
FrameData
p2711
(dp2712
g6
g1154
sg8
g9
(g13
S'8\xd8\xbc\n\x1b\x072@'
p2713
tp2714
Rp2715
sg19
I0
sg20
g21
(S'\x07\xdd\t\x1d\x13\n\t\x0buF'
p2716
tp2717
Rp2718
sg25
I0
sg26
g27
(g28
(I0
tp2719
g30
tp2720
Rp2721
(I1
(I2
tp2722
g36
I00
S'y\x00\x00\x00`\x00\x00\x00'
p2723
tp2724
bsba(i__main__
FrameData
p2725
(dp2726
g6
g1154
sg8
g9
(g13
S'p`\xff\x00\xfe\x070@'
p2727
tp2728
Rp2729
sg19
I0
sg20
g21
(S'\x07\xdd\t\x1d\x13\n\t\x0b\xb6)'
p2730
tp2731
Rp2732
sg25
I0
sg26
g27
(g28
(I0
tp2733
g30
tp2734
Rp2735
(I1
(I2
tp2736
g36
I00
S'w\x00\x00\x00b\x00\x00\x00'
p2737
tp2738
bsba(i__main__
FrameData
p2739
(dp2740
g6
g1154
sg8
g9
(g13
S'\xb3\xa73\xa0`\x0c/@'
p2741
tp2742
Rp2743
sg19
I0
sg20
g21
(S'\x07\xdd\t\x1d\x13\n\t\x0b\xfd\x80'
p2744
tp2745
Rp2746
sg25
I0
sg26
g27
(g28
(I0
tp2747
g30
tp2748
Rp2749
(I1
(I2
tp2750
g36
I00
S't\x00\x00\x00c\x00\x00\x00'
p2751
tp2752
bsba(i__main__
FrameData
p2753
(dp2754
g6
g1154
sg8
g9
(g13
S'\xd0\xbaa?\xe0\x1f0@'
p2755
tp2756
Rp2757
sg19
I0
sg20
g21
(S'\x07\xdd\t\x1d\x13\n\t\x0c9\xea'
p2758
tp2759
Rp2760
sg25
I0
sg26
g27
(g28
(I0
tp2761
g30
tp2762
Rp2763
(I1
(I2
tp2764
g36
I00
S'p\x00\x00\x00d\x00\x00\x00'
p2765
tp2766
bsba(i__main__
FrameData
p2767
(dp2768
g6
g1154
sg8
g9
(g13
S')\x9ah\xdd\x85\x071@'
p2769
tp2770
Rp2771
sg19
I0
sg20
g21
(S'\x07\xdd\t\x1d\x13\n\t\x0cx\xbb'
p2772
tp2773
Rp2774
sg25
I0
sg26
g27
(g28
(I0
tp2775
g30
tp2776
Rp2777
(I1
(I2
tp2778
g36
I00
S'm\x00\x00\x00e\x00\x00\x00'
p2779
tp2780
bsba(i__main__
FrameData
p2781
(dp2782
g6
g1013
sg8
g9
(g13
S'htN\x17\xb2=/@'
p2783
tp2784
Rp2785
sg19
I0
sg20
g21
(S'\x07\xdd\t\x1d\x13\n\t\x0c\xbfL'
p2786
tp2787
Rp2788
sg25
I0
sg26
g27
(g28
(I0
tp2789
g30
tp2790
Rp2791
(I1
(I2
tp2792
g36
I00
S'j\x00\x00\x00f\x00\x00\x00'
p2793
tp2794
bsba(i__main__
FrameData
p2795
(dp2796
g6
g1013
sg8
g9
(g13
S'\xfc\xeeci3\xd5*@'
p2797
tp2798
Rp2799
sg19
I0
sg20
g21
(S'\x07\xdd\t\x1d\x13\n\t\x0c\xfdc'
p2800
tp2801
Rp2802
sg25
I0
sg26
g27
(g28
(I0
tp2803
g30
tp2804
Rp2805
(I1
(I2
tp2806
g36
I00
S'f\x00\x00\x00f\x00\x00\x00'
p2807
tp2808
bsba(i__main__
FrameData
p2809
(dp2810
g6
g1013
sg8
g9
(g13
S'\xeb\x12\xb2\xbb\xb2\xcd&@'
p2811
tp2812
Rp2813
sg19
I0
sg20
g21
(S'\x07\xdd\t\x1d\x13\n\t\r>\xac'
p2814
tp2815
Rp2816
sg25
I0
sg26
g27
(g28
(I0
tp2817
g30
tp2818
Rp2819
(I1
(I2
tp2820
g36
I00
S'c\x00\x00\x00g\x00\x00\x00'
p2821
tp2822
bsba(i__main__
FrameData
p2823
(dp2824
g6
g1013
sg8
g9
(g13
S'\x00\x00\x00\x00\x00\x00&@'
p2825
tp2826
Rp2827
sg19
I0
sg20
g21
(S'\x07\xdd\t\x1d\x13\n\t\r\x7f\x8c'
p2828
tp2829
Rp2830
sg25
I0
sg26
g27
(g28
(I0
tp2831
g30
tp2832
Rp2833
(I1
(I2
tp2834
g36
I00
S'`\x00\x00\x00g\x00\x00\x00'
p2835
tp2836
bsba(i__main__
FrameData
p2837
(dp2838
g6
g1013
sg8
g9
(g13
S'\xf3\xd9\xa8\xa4h\x8a%@'
p2839
tp2840
Rp2841
sg19
I0
sg20
g21
(S'\x07\xdd\t\x1d\x13\n\t\r\xc5\xcc'
p2842
tp2843
Rp2844
sg25
I0
sg26
g27
(g28
(I0
tp2845
g30
tp2846
Rp2847
(I1
(I2
tp2848
g36
I00
S'\\\x00\x00\x00h\x00\x00\x00'
p2849
tp2850
bsba(i__main__
FrameData
p2851
(dp2852
g6
g1013
sg8
g9
(g13
S'F\xc3\\\xa8\xc1i(@'
p2853
tp2854
Rp2855
sg19
I0
sg20
g21
(S'\x07\xdd\t\x1d\x13\n\t\x0e\x01\xef'
p2856
tp2857
Rp2858
sg25
I0
sg26
g27
(g28
(I0
tp2859
g30
tp2860
Rp2861
(I1
(I2
tp2862
g36
I00
S'Y\x00\x00\x00h\x00\x00\x00'
p2863
tp2864
bsba(i__main__
FrameData
p2865
(dp2866
g6
g1013
sg8
g9
(g13
S'\xc0\n\x1f\x00\xc6H,@'
p2867
tp2868
Rp2869
sg19
I0
sg20
g21
(S'\x07\xdd\t\x1d\x13\n\t\x0e@\xf9'
p2870
tp2871
Rp2872
sg25
I0
sg26
g27
(g28
(I0
tp2873
g30
tp2874
Rp2875
(I1
(I2
tp2876
g36
I00
S'V\x00\x00\x00h\x00\x00\x00'
p2877
tp2878
bsba(i__main__
FrameData
p2879
(dp2880
g6
g212
sg8
g9
(g13
S'F#O3\xb2t)@'
p2881
tp2882
Rp2883
sg19
I0
sg20
g21
(S'\x07\xdd\t\x1d\x13\n\t\x0e\x87]'
p2884
tp2885
Rp2886
sg25
I0
sg26
g27
(g28
(I0
tp2887
g30
tp2888
Rp2889
(I1
(I2
tp2890
g36
I00
S'R\x00\x00\x00h\x00\x00\x00'
p2891
tp2892
bsba(i__main__
FrameData
p2893
(dp2894
g6
g212
sg8
g9
(g13
S'A\x87b\xc62\xde"@'
p2895
tp2896
Rp2897
sg19
I0
sg20
g21
(S'\x07\xdd\t\x1d\x13\n\t\x0e\xc5S'
p2898
tp2899
Rp2900
sg25
I0
sg26
g27
(g28
(I0
tp2901
g30
tp2902
Rp2903
(I1
(I2
tp2904
g36
I00
S'N\x00\x00\x00i\x00\x00\x00'
p2905
tp2906
bsba(i__main__
FrameData
p2907
(dp2908
g6
g212
sg8
g9
(g13
S'\x07\xed\xaff\x0f~ @'
p2909
tp2910
Rp2911
sg19
I0
sg20
g21
(S'\x07\xdd\t\x1d\x13\n\t\x0f\x0c\\'
p2912
tp2913
Rp2914
sg25
I0
sg26
g27
(g28
(I0
tp2915
g30
tp2916
Rp2917
(I1
(I2
tp2918
g36
I00
S'K\x00\x00\x00i\x00\x00\x00'
p2919
tp2920
bsba(i__main__
FrameData
p2921
(dp2922
g6
g212
sg8
g9
(g13
S'\xe9\xfbv \xd5\x1e\x1d@'
p2923
tp2924
Rp2925
sg19
I0
sg20
g21
(S'\x07\xdd\t\x1d\x13\n\n\x00\x07\xcd'
p2926
tp2927
Rp2928
sg25
I0
sg26
g27
(g28
(I0
tp2929
g30
tp2930
Rp2931
(I1
(I2
tp2932
g36
I00
S'G\x00\x00\x00j\x00\x00\x00'
p2933
tp2934
bsba(i__main__
FrameData
p2935
(dp2936
g6
g212
sg8
g9
(g13
S'\xd0\xbaa?\xe0\x1f @'
p2937
tp2938
Rp2939
sg19
I0
sg20
g21
(S'\x07\xdd\t\x1d\x13\n\n\x00D|'
p2940
tp2941
Rp2942
sg25
I0
sg26
g27
(g28
(I0
tp2943
g30
tp2944
Rp2945
(I1
(I2
tp2946
g36
I00
S'E\x00\x00\x00j\x00\x00\x00'
p2947
tp2948
bsba(i__main__
FrameData
p2949
(dp2950
g6
g212
sg8
g9
(g13
S'w\x03Is \xa2%@'
p2951
tp2952
Rp2953
sg19
I0
sg20
g21
(S'\x07\xdd\t\x1d\x13\n\n\x00\x8a\xab'
p2954
tp2955
Rp2956
sg25
I0
sg26
g27
(g28
(I0
tp2957
g30
tp2958
Rp2959
(I1
(I2
tp2960
g36
I00
S'@\x00\x00\x00k\x00\x00\x00'
p2961
tp2962
bsba(i__main__
FrameData
p2963
(dp2964
g6
g212
sg8
g9
(g13
S'\xe4\x10\xe4sW\x0f)@'
p2965
tp2966
Rp2967
sg19
I0
sg20
g21
(S'\x07\xdd\t\x1d\x13\n\n\x00\xc8B'
p2968
tp2969
Rp2970
sg25
I0
sg26
g27
(g28
(I0
tp2971
g30
tp2972
Rp2973
(I1
(I2
tp2974
g36
I00
S'>\x00\x00\x00k\x00\x00\x00'
p2975
tp2976
bsba(i__main__
FrameData
p2977
(dp2978
g6
g71
sg8
g9
(g13
S'\xe4\x10\xe4sW\x0f)@'
p2979
tp2980
Rp2981
sg19
I0
sg20
g21
(S"\x07\xdd\t\x1d\x13\n\n\x01\t'"
p2982
tp2983
Rp2984
sg25
I0
sg26
g27
(g28
(I0
tp2985
g30
tp2986
Rp2987
(I1
(I2
tp2988
g36
I00
S'<\x00\x00\x00k\x00\x00\x00'
p2989
tp2990
bsba(i__main__
FrameData
p2991
(dp2992
g6
g71
sg8
g9
(g13
S"\xa2\xa3\xb3\r\xe5R'@"
p2993
tp2994
Rp2995
sg19
I0
sg20
g21
(S'\x07\xdd\t\x1d\x13\n\n\x01K\xd8'
p2996
tp2997
Rp2998
sg25
I0
sg26
g27
(g28
(I0
tp2999
g30
tp3000
Rp3001
(I1
(I2
tp3002
g36
I00
S';\x00\x00\x00k\x00\x00\x00'
p3003
tp3004
bsba(i__main__
FrameData
p3005
(dp3006
g6
g71
sg8
g9
(g13
S'\x00\x00\x00\x00\x00\x00$@'
p3007
tp3008
Rp3009
sg19
I0
sg20
g21
(S'\x07\xdd\t\x1d\x13\n\n\x01\x92\x8a'
p3010
tp3011
Rp3012
sg25
I0
sg26
g27
(g28
(I0
tp3013
g30
tp3014
Rp3015
(I1
(I2
tp3016
g36
I00
S'9\x00\x00\x00k\x00\x00\x00'
p3017
tp3018
bsba(i__main__
FrameData
p3019
(dp3020
g6
g71
sg8
g9
(g13
S'\x9a.\x90!hp"@'
p3021
tp3022
Rp3023
sg19
I0
sg20
g21
(S'\x07\xdd\t\x1d\x13\n\n\x01\xce-'
p3024
tp3025
Rp3026
sg25
I0
sg26
g27
(g28
(I0
tp3027
g30
tp3028
Rp3029
(I1
(I2
tp3030
g36
I00
S'8\x00\x00\x00k\x00\x00\x00'
p3031
tp3032
bsba(i__main__
FrameData
p3033
(dp3034
g6
g71
sg8
g9
(g13
S'\xd9l\xdf\xccv\xf8 @'
p3035
tp3036
Rp3037
sg19
I0
sg20
g21
(S'\x07\xdd\t\x1d\x13\n\n\x02\r5'
p3038
tp3039
Rp3040
sg25
I0
sg26
g27
(g28
(I0
tp3041
g30
tp3042
Rp3043
(I1
(I2
tp3044
g36
I00
S'7\x00\x00\x00k\x00\x00\x00'
p3045
tp3046
bsba(i__main__
FrameData
p3047
(dp3048
g6
g71
sg8
g9
(g13
S'\xf3YaD+\xd8\x1c@'
p3049
tp3050
Rp3051
sg19
I0
sg20
g21
(S'\x07\xdd\t\x1d\x13\n\n\x02\x91\xa8'
p3052
tp3053
Rp3054
sg25
I0
sg26
g27
(g28
(I0
tp3055
g30
tp3056
Rp3057
(I1
(I2
tp3058
g36
I00
S'5\x00\x00\x00k\x00\x00\x00'
p3059
tp3060
bsba(i__main__
FrameData
p3061
(dp3062
g6
g71
sg8
g9
(g13
S'\xfc\xeeci3\xd5\x1a@'
p3063
tp3064
Rp3065
sg19
I0
sg20
g21
(S'\x07\xdd\t\x1d\x13\n\n\x03\x15\xa5'
p3066
tp3067
Rp3068
sg25
I0
sg26
g27
(g28
(I0
tp3069
g30
tp3070
Rp3071
(I1
(I2
tp3072
g36
I00
S'4\x00\x00\x00k\x00\x00\x00'
p3073
tp3074
bsbasS'_fileName'
p3075
S'training/trajectory2013-09-29_19:09:57.115302'
p3076
sS'word'
p3077
S'arduous'
p3078
sb.